; Listing generated by Microsoft (R) Optimizing Compiler Version 19.29.30146.0 

	TITLE	i:\vitalya\mine\nsprojectx\nspx_build\intermediate\release-win32\xrrender_r1\blender_editor_wire.obj
	.686P
	.XMM
	include listing.inc
	.model	flat

INCLUDELIB OLDNAMES

PUBLIC	??_C@_0N@CBACHGNP@EDITOR?3?5wire@		; `string'
PUBLIC	??_C@_0BL@JGNGDKPO@CBlender_Editor_Wire?3?3Load@ ; `string'
PUBLIC	??_C@_0ED@EDHFJDN@I?3?2Vitalya?2mine?2NSProjectX?2laye@ ; `string'
PUBLIC	??_R2CBlender_Editor_Wire@@8			; CBlender_Editor_Wire::`RTTI Base Class Array'
PUBLIC	??_R1A@?0A@EA@CBlender_Editor_Wire@@8		; CBlender_Editor_Wire::`RTTI Base Class Descriptor at (0,-1,0,64)'
PUBLIC	??_R3CBlender_Editor_Wire@@8			; CBlender_Editor_Wire::`RTTI Class Hierarchy Descriptor'
PUBLIC	??_R0?AVCBlender_Editor_Wire@@@8		; CBlender_Editor_Wire `RTTI Type Descriptor'
PUBLIC	??_R4CBlender_Editor_Wire@@6B@			; CBlender_Editor_Wire::`RTTI Complete Object Locator'
PUBLIC	??_7CBlender_Editor_Wire@@6B@			; CBlender_Editor_Wire::`vftable'
;	COMDAT ?ignore_always@?4??Load@CBlender_Editor_Wire@@UAEXAAVIReader@@G@Z@4_NA
_BSS	SEGMENT
?ignore_always@?4??Load@CBlender_Editor_Wire@@UAEXAAVIReader@@G@Z@4_NA DB 01H DUP (?) ; `CBlender_Editor_Wire::Load'::`5'::ignore_always
_BSS	ENDS
;	COMDAT ??_7CBlender_Editor_Wire@@6B@
CONST	SEGMENT
??_7CBlender_Editor_Wire@@6B@ DD FLAT:??_R4CBlender_Editor_Wire@@6B@ ; CBlender_Editor_Wire::`vftable'
	DD	FLAT:?getName@IBlender@@UAEPBDXZ
	DD	FLAT:?getComment@CBlender_Editor_Wire@@UAEPBDXZ
	DD	FLAT:?Save@CBlender_Editor_Wire@@UAEXAAVIWriter@@@Z
	DD	FLAT:?Load@CBlender_Editor_Wire@@UAEXAAVIReader@@G@Z
	DD	FLAT:?canBeDetailed@IBlender@@UAEHXZ
	DD	FLAT:?canBeLMAPped@CBlender_Editor_Wire@@UAEHXZ
	DD	FLAT:?Compile@CBlender_Editor_Wire@@UAEXAAVCBlender_Compile@@@Z
	DD	FLAT:??_ECBlender_Editor_Wire@@UAEPAXI@Z
CONST	ENDS
;	COMDAT ??_R4CBlender_Editor_Wire@@6B@
rdata$r	SEGMENT
??_R4CBlender_Editor_Wire@@6B@ DD 00H			; CBlender_Editor_Wire::`RTTI Complete Object Locator'
	DD	00H
	DD	00H
	DD	FLAT:??_R0?AVCBlender_Editor_Wire@@@8
	DD	FLAT:??_R3CBlender_Editor_Wire@@8
rdata$r	ENDS
;	COMDAT ??_R0?AVCBlender_Editor_Wire@@@8
data$rs	SEGMENT
??_R0?AVCBlender_Editor_Wire@@@8 DD FLAT:??_7type_info@@6B@ ; CBlender_Editor_Wire `RTTI Type Descriptor'
	DD	00H
	DB	'.?AVCBlender_Editor_Wire@@', 00H
data$rs	ENDS
;	COMDAT ??_R3CBlender_Editor_Wire@@8
rdata$r	SEGMENT
??_R3CBlender_Editor_Wire@@8 DD 00H			; CBlender_Editor_Wire::`RTTI Class Hierarchy Descriptor'
	DD	00H
	DD	03H
	DD	FLAT:??_R2CBlender_Editor_Wire@@8
rdata$r	ENDS
;	COMDAT ??_R1A@?0A@EA@CBlender_Editor_Wire@@8
rdata$r	SEGMENT
??_R1A@?0A@EA@CBlender_Editor_Wire@@8 DD FLAT:??_R0?AVCBlender_Editor_Wire@@@8 ; CBlender_Editor_Wire::`RTTI Base Class Descriptor at (0,-1,0,64)'
	DD	02H
	DD	00H
	DD	0ffffffffH
	DD	00H
	DD	040H
	DD	FLAT:??_R3CBlender_Editor_Wire@@8
rdata$r	ENDS
;	COMDAT ??_R2CBlender_Editor_Wire@@8
rdata$r	SEGMENT
??_R2CBlender_Editor_Wire@@8 DD FLAT:??_R1A@?0A@EA@CBlender_Editor_Wire@@8 ; CBlender_Editor_Wire::`RTTI Base Class Array'
	DD	FLAT:??_R1A@?0A@EA@IBlender@@8
	DD	FLAT:??_R1A@?0A@EA@CPropertyBase@@8
rdata$r	ENDS
;	COMDAT ??_C@_0ED@EDHFJDN@I?3?2Vitalya?2mine?2NSProjectX?2laye@
CONST	SEGMENT
??_C@_0ED@EDHFJDN@I?3?2Vitalya?2mine?2NSProjectX?2laye@ DB 'I:\Vitalya\mi'
	DB	'ne\NSProjectX\layers\xrRender\Blender_Editor_Wire.cpp', 00H ; `string'
CONST	ENDS
;	COMDAT ??_C@_0BL@JGNGDKPO@CBlender_Editor_Wire?3?3Load@
CONST	SEGMENT
??_C@_0BL@JGNGDKPO@CBlender_Editor_Wire?3?3Load@ DB 'CBlender_Editor_Wire'
	DB	'::Load', 00H				; `string'
CONST	ENDS
;	COMDAT ??_C@_0N@CBACHGNP@EDITOR?3?5wire@
CONST	SEGMENT
??_C@_0N@CBACHGNP@EDITOR?3?5wire@ DB 'EDITOR: wire', 00H ; `string'
PUBLIC	?Compile@CBlender_Editor_Wire@@UAEXAAVCBlender_Compile@@@Z ; CBlender_Editor_Wire::Compile
PUBLIC	?Load@CBlender_Editor_Wire@@UAEXAAVIReader@@G@Z	; CBlender_Editor_Wire::Load
PUBLIC	?Save@CBlender_Editor_Wire@@UAEXAAVIWriter@@@Z	; CBlender_Editor_Wire::Save
PUBLIC	??1CBlender_Editor_Wire@@UAE@XZ			; CBlender_Editor_Wire::~CBlender_Editor_Wire
PUBLIC	??_GCBlender_Editor_Wire@@UAEPAXI@Z		; CBlender_Editor_Wire::`scalar deleting destructor'
PUBLIC	??0CBlender_Editor_Wire@@QAE@XZ			; CBlender_Editor_Wire::CBlender_Editor_Wire
PUBLIC	?canBeLMAPped@CBlender_Editor_Wire@@UAEHXZ	; CBlender_Editor_Wire::canBeLMAPped
PUBLIC	?getComment@CBlender_Editor_Wire@@UAEPBDXZ	; CBlender_Editor_Wire::getComment
EXTRN	??_ECBlender_Editor_Wire@@UAEPAXI@Z:PROC	; CBlender_Editor_Wire::`vector deleting destructor'
; Function compile flags: /Ogtpy
; File I:\Vitalya\mine\NSProjectX\layers\xrRender\Blender_Editor_Wire.h
;	COMDAT ?getComment@CBlender_Editor_Wire@@UAEPBDXZ
_TEXT	SEGMENT
?getComment@CBlender_Editor_Wire@@UAEPBDXZ PROC		; CBlender_Editor_Wire::getComment, COMDAT
; _this$ = ecx

; 9    : 	virtual		LPCSTR		getComment()	{ return "EDITOR: wire";	}

	mov	eax, OFFSET ??_C@_0N@CBACHGNP@EDITOR?3?5wire@
	ret	0
?getComment@CBlender_Editor_Wire@@UAEPBDXZ ENDP		; CBlender_Editor_Wire::getComment
_TEXT	ENDS
; Function compile flags: /Ogtpy
; File I:\Vitalya\mine\NSProjectX\layers\xrRender\Blender_Editor_Wire.h
;	COMDAT ?canBeLMAPped@CBlender_Editor_Wire@@UAEHXZ
_TEXT	SEGMENT
?canBeLMAPped@CBlender_Editor_Wire@@UAEHXZ PROC		; CBlender_Editor_Wire::canBeLMAPped, COMDAT
; _this$ = ecx

; 10   : 	virtual		BOOL		canBeLMAPped()	{ return FALSE; }

	xor	eax, eax
	ret	0
?canBeLMAPped@CBlender_Editor_Wire@@UAEHXZ ENDP		; CBlender_Editor_Wire::canBeLMAPped
_TEXT	ENDS
; Function compile flags: /Ogtpy
; File I:\Vitalya\mine\NSProjectX\layers\xrRender\Blender_Editor_Wire.cpp
_TEXT	SEGMENT
??0CBlender_Editor_Wire@@QAE@XZ PROC			; CBlender_Editor_Wire::CBlender_Editor_Wire
; _this$ = ecx

; 11   : {

	push	esi
	mov	esi, ecx
	call	DWORD PTR __imp_??0IBlender@@QAE@XZ
	mov	DWORD PTR [esi], OFFSET ??_7CBlender_Editor_Wire@@6B@

; 12   : 	description.CLS		= B_EDITOR_WIRE;

	mov	DWORD PTR [esi+4], 1380261920		; 52452020H
	mov	DWORD PTR [esi+8], 1163876169		; 455f5749H

; 13   : 	strcpy				(oT_Factor,"$null");

	mov	eax, DWORD PTR ??_C@_05CAGGJGBB@$null@
	mov	DWORD PTR [esi+324], eax
	mov	ax, WORD PTR ??_C@_05CAGGJGBB@$null@+4
	mov	WORD PTR [esi+328], ax

; 14   : }

	mov	eax, esi
	pop	esi
	ret	0
??0CBlender_Editor_Wire@@QAE@XZ ENDP			; CBlender_Editor_Wire::CBlender_Editor_Wire
_TEXT	ENDS
; Function compile flags: /Ogtpy
; File I:\Vitalya\mine\NSProjectX\layers\xrRender\Blender_Editor_Wire.cpp
;	COMDAT ??_GCBlender_Editor_Wire@@UAEPAXI@Z
_TEXT	SEGMENT
___flags$ = 8						; size = 4
??_GCBlender_Editor_Wire@@UAEPAXI@Z PROC		; CBlender_Editor_Wire::`scalar deleting destructor', COMDAT
; _this$ = ecx

; 17   : {

	push	esi
	mov	esi, ecx
	mov	DWORD PTR [esi], OFFSET ??_7CBlender_Editor_Wire@@6B@

; 18   : 
; 19   : }

	call	DWORD PTR __imp_??1IBlender@@UAE@XZ
	test	BYTE PTR ___flags$[esp], 1
	je	SHORT $LN6@scalar
	push	388					; 00000184H
	push	esi
	call	??3@YAXPAXI@Z				; operator delete
	add	esp, 8
$LN6@scalar:
	mov	eax, esi
	pop	esi
	ret	4
??_GCBlender_Editor_Wire@@UAEPAXI@Z ENDP		; CBlender_Editor_Wire::`scalar deleting destructor'
_TEXT	ENDS
; Function compile flags: /Ogtpy
; File I:\Vitalya\mine\NSProjectX\layers\xrRender\Blender_Editor_Wire.cpp
_TEXT	SEGMENT
??1CBlender_Editor_Wire@@UAE@XZ PROC			; CBlender_Editor_Wire::~CBlender_Editor_Wire
; _this$ = ecx

; 17   : {

	mov	DWORD PTR [ecx], OFFSET ??_7CBlender_Editor_Wire@@6B@

; 18   : 
; 19   : }

	jmp	DWORD PTR __imp_??1IBlender@@UAE@XZ
??1CBlender_Editor_Wire@@UAE@XZ ENDP			; CBlender_Editor_Wire::~CBlender_Editor_Wire
_TEXT	ENDS
; Function compile flags: /Ogtpy
; File I:\Vitalya\mine\NSProjectX\layers\xrRender\Blender_Editor_Wire.cpp
; File I:\Vitalya\mine\NSProjectX\xrEngine\properties.h
; File I:\Vitalya\mine\NSProjectX\layers\xrRender\Blender_Editor_Wire.cpp
; File I:\Vitalya\mine\NSProjectX\xrEngine\properties.h
; File I:\Vitalya\mine\NSProjectX\layers\xrRender\Blender_Editor_Wire.cpp
_TEXT	SEGMENT
_fs$ = 8						; size = 4
?Save@CBlender_Editor_Wire@@UAEXAAVIWriter@@@Z PROC	; CBlender_Editor_Wire::Save
; _this$ = ecx

; 22   : {

	push	esi
	push	edi

; 23   : 	IBlender::Save	(fs);

	mov	edi, DWORD PTR _fs$[esp+4]
	mov	esi, ecx
	push	edi
	call	DWORD PTR __imp_?Save@IBlender@@UAEXAAVIWriter@@@Z
; File I:\Vitalya\mine\NSProjectX\xrEngine\properties.h

; 101  : 	fs.w_u32(ID);

	push	2
	mov	ecx, edi
	call	DWORD PTR __imp_?w_u32@IWriter@@QAEXI@Z

; 102  : 	fs.w_stringZ(name);

	push	OFFSET ??_C@_07MLIPOMCJ@TFactor@
	mov	ecx, edi
	call	DWORD PTR __imp_?w_stringZ@IWriter@@QAEXPBD@Z
; File I:\Vitalya\mine\NSProjectX\layers\xrRender\Blender_Editor_Wire.cpp

; 24   : 	xrPWRITE_PROP	(fs,"TFactor",	xrPID_CONSTANT, oT_Factor);

	add	esi, 324				; 00000144H
; File I:\Vitalya\mine\NSProjectX\xrEngine\properties.h

; 103  : 	if (data && size)	fs.w(data, size);

	je	SHORT $LN4@Save
	mov	eax, DWORD PTR [edi]
	mov	ecx, edi
	push	64					; 00000040H
	push	esi
	call	DWORD PTR [eax+12]
$LN4@Save:
	pop	edi
; File I:\Vitalya\mine\NSProjectX\layers\xrRender\Blender_Editor_Wire.cpp

; 25   : }

	pop	esi
	ret	4
?Save@CBlender_Editor_Wire@@UAEXAAVIWriter@@@Z ENDP	; CBlender_Editor_Wire::Save
_TEXT	ENDS
; Function compile flags: /Ogtpy
; File I:\Vitalya\mine\NSProjectX\layers\xrRender\Blender_Editor_Wire.cpp
; File I:\Vitalya\mine\NSProjectX\xrEngine\properties.h
; File I:\Vitalya\mine\NSProjectX\layers\xrRender\Blender_Editor_Wire.cpp
_TEXT	SEGMENT
_fs$ = 8						; size = 4
_version$ = 12						; size = 2
?Load@CBlender_Editor_Wire@@UAEXAAVIReader@@G@Z PROC	; CBlender_Editor_Wire::Load
; _this$ = ecx

; 28   : {

	push	ebx
	push	edi

; 29   : 	IBlender::Load	(fs,version);

	push	DWORD PTR _version$[esp+4]
	mov	edi, DWORD PTR _fs$[esp+8]
	mov	ebx, ecx
	push	edi
	call	DWORD PTR __imp_?Load@IBlender@@UAEXAAVIReader@@G@Z

; 30   : 	xrPREAD_PROP	(fs,xrPID_CONSTANT,	oT_Factor);

	cmp	BYTE PTR ?ignore_always@?4??Load@CBlender_Editor_Wire@@UAEXAAVIReader@@G@Z@4_NA, 0
	jne	SHORT $LN2@Load
; File I:\Vitalya\mine\NSProjectX\xrEngine\properties.h

; 118  : 	u32 T = fs.r_u32();

	push	esi
	mov	ecx, edi
	call	DWORD PTR __imp_?r_u32@?$IReaderBase@VIReader@@@@QAEIXZ

; 119  : 	fs.skip_stringZ();

	mov	ecx, edi
	mov	esi, eax
	call	DWORD PTR __imp_?skip_stringZ@IReader@@QAEXXZ
; File I:\Vitalya\mine\NSProjectX\layers\xrRender\Blender_Editor_Wire.cpp

; 30   : 	xrPREAD_PROP	(fs,xrPID_CONSTANT,	oT_Factor);

	cmp	esi, 2
	pop	esi
	je	SHORT $LN2@Load
	mov	ecx, DWORD PTR __imp_?Debug@@3VxrDebug@@A
	push	OFFSET ?ignore_always@?4??Load@CBlender_Editor_Wire@@UAEXAAVIReader@@G@Z@4_NA
	push	OFFSET ??_C@_0BL@JGNGDKPO@CBlender_Editor_Wire?3?3Load@
	push	30					; 0000001eH
	push	OFFSET ??_C@_0ED@EDHFJDN@I?3?2Vitalya?2mine?2NSProjectX?2laye@
	push	OFFSET ??_C@_0BM@MMHLKGDA@xrPID_CONSTANT?$DN?$DNxrPREAD?$CIfs?$CJ@
	call	DWORD PTR __imp_?fail@xrDebug@@QAEXPBD0H0AA_N@Z
$LN2@Load:
	push	64					; 00000040H
	lea	eax, DWORD PTR [ebx+324]
	mov	ecx, edi
	push	eax
	call	DWORD PTR __imp_?r@IReader@@QAEXPAXH@Z
	pop	edi
	pop	ebx

; 31   : }

	ret	8
?Load@CBlender_Editor_Wire@@UAEXAAVIReader@@G@Z ENDP	; CBlender_Editor_Wire::Load
_TEXT	ENDS
; Function compile flags: /Ogtpy
; File I:\Vitalya\mine\NSProjectX\layers\xrRender\Blender_Editor_Wire.cpp
_TEXT	SEGMENT
_C$ = 8							; size = 4
?Compile@CBlender_Editor_Wire@@UAEXAAVCBlender_Compile@@@Z PROC ; CBlender_Editor_Wire::Compile
; _this$ = ecx

; 34   : {

	push	esi

; 35   : 	IBlender::Compile		(C);

	mov	esi, DWORD PTR _C$[esp]
	push	esi
	call	DWORD PTR __imp_?Compile@IBlender@@UAEXAAVCBlender_Compile@@@Z

; 36   : 	if (C.bEditor)	{

	cmp	DWORD PTR [esi+44], 0
	mov	ecx, esi
	je	$LN2@Compile

; 37   : 		C.PassBegin		();

	call	DWORD PTR __imp_?PassBegin@CBlender_Compile@@QAEXXZ

; 38   : 		{
; 39   : 			C.PassSET_ZB		(TRUE,TRUE);

	push	0
	push	1
	push	1
	mov	ecx, esi
	call	DWORD PTR __imp_?PassSET_ZB@CBlender_Compile@@QAEXHHH@Z

; 40   : 			C.PassSET_Blend		(FALSE,D3DBLEND_ONE,D3DBLEND_ZERO,	FALSE,0);

	push	0
	push	0
	push	1
	push	2
	push	0
	mov	ecx, esi
	call	DWORD PTR __imp_?PassSET_Blend@CBlender_Compile@@QAEXHIIHI@Z

; 41   : 			C.PassSET_LightFog	(FALSE,FALSE);

	push	0
	push	0
	mov	ecx, esi
	call	DWORD PTR __imp_?PassSET_LightFog@CBlender_Compile@@QAEXHH@Z

; 42   : 
; 43   : 			// Stage0 - Base texture
; 44   : 			C.StageBegin		();

	mov	ecx, esi
	call	DWORD PTR __imp_?StageBegin@CBlender_Compile@@QAEXXZ

; 45   : 			C.StageSET_Color	(D3DTA_DIFFUSE,	  D3DTOP_MODULATE,		D3DTA_TFACTOR);

	push	3
	push	4
	push	0
	mov	ecx, esi
	call	DWORD PTR __imp_?StageSET_Color@CBlender_Compile@@QAEXIII@Z

; 46   : 			C.StageSET_Alpha	(D3DTA_DIFFUSE,	  D3DTOP_MODULATE,		D3DTA_TFACTOR);

	push	3
	push	4
	push	0
	mov	ecx, esi
	call	DWORD PTR __imp_?StageSET_Alpha@CBlender_Compile@@QAEXIII@Z

; 47   : 			C.Stage_Texture		("$null");

	push	2
	push	2
	push	2
	push	1
	push	OFFSET ??_C@_05CAGGJGBB@$null@
	mov	ecx, esi
	call	DWORD PTR __imp_?Stage_Texture@CBlender_Compile@@QAEXPBDIIII@Z

; 48   : 			C.Stage_Matrix		("$null",	0);

	push	0
	push	OFFSET ??_C@_05CAGGJGBB@$null@
	mov	ecx, esi
	call	DWORD PTR __imp_?Stage_Matrix@CBlender_Compile@@QAEXPBDH@Z

; 49   : 			C.Stage_Constant	("$null");

	push	OFFSET ??_C@_05CAGGJGBB@$null@
	mov	ecx, esi
	call	DWORD PTR __imp_?Stage_Constant@CBlender_Compile@@QAEXPBD@Z

; 50   : 			//		C.Stage_Constant	("$base0",	"$user$wire");
; 51   : 			C.StageEnd			();

	mov	ecx, esi
	call	DWORD PTR __imp_?StageEnd@CBlender_Compile@@QAEXXZ

; 52   : 		}
; 53   : 		C.PassEnd			();

	mov	ecx, esi
	call	DWORD PTR __imp_?PassEnd@CBlender_Compile@@QAEXXZ
	pop	esi

; 57   : 	}
; 58   : }

	ret	4
$LN2@Compile:

; 54   : 	} else {
; 55   : 		C.r_Pass	("editor","simple_color",FALSE,TRUE,TRUE);

	push	0
	push	0
	push	1
	push	2
	push	0
	push	1
	push	1
	push	0
	push	OFFSET ??_C@_0N@GCPGKGIC@simple_color@
	push	OFFSET ??_C@_06GIFLLBB@editor@
	call	DWORD PTR __imp_?r_Pass@CBlender_Compile@@QAEXPBD0_NHHHW4_D3DBLEND@@2HI@Z

; 56   : 		C.r_End		();

	mov	ecx, esi
	call	DWORD PTR __imp_?r_End@CBlender_Compile@@QAEXXZ
	pop	esi

; 57   : 	}
; 58   : }

	ret	4
?Compile@CBlender_Editor_Wire@@UAEXAAVCBlender_Compile@@@Z ENDP ; CBlender_Editor_Wire::Compile
_TEXT	ENDS
END
