; Listing generated by Microsoft (R) Optimizing Compiler Version 19.29.30146.0 

	TITLE	i:\vitalya\mine\nsprojectx\nspx_build\intermediate\release-win32\xrrender_r1\blender_shadow_world.obj
	.686P
	.XMM
	include listing.inc
	.model	flat

INCLUDELIB OLDNAMES

PUBLIC	??_C@_0BM@MJAAKDFL@INTERNAL?3?5shadow?5projecting@ ; `string'
PUBLIC	??_R2CBlender_ShWorld@@8			; CBlender_ShWorld::`RTTI Base Class Array'
PUBLIC	??_R1A@?0A@EA@CBlender_ShWorld@@8		; CBlender_ShWorld::`RTTI Base Class Descriptor at (0,-1,0,64)'
PUBLIC	??_R3CBlender_ShWorld@@8			; CBlender_ShWorld::`RTTI Class Hierarchy Descriptor'
PUBLIC	??_R0?AVCBlender_ShWorld@@@8			; CBlender_ShWorld `RTTI Type Descriptor'
PUBLIC	??_R4CBlender_ShWorld@@6B@			; CBlender_ShWorld::`RTTI Complete Object Locator'
PUBLIC	??_7CBlender_ShWorld@@6B@			; CBlender_ShWorld::`vftable'
;	COMDAT ??_7CBlender_ShWorld@@6B@
CONST	SEGMENT
??_7CBlender_ShWorld@@6B@ DD FLAT:??_R4CBlender_ShWorld@@6B@ ; CBlender_ShWorld::`vftable'
	DD	FLAT:?getName@IBlender@@UAEPBDXZ
	DD	FLAT:?getComment@CBlender_ShWorld@@UAEPBDXZ
	DD	FLAT:?Save@CBlender_ShWorld@@UAEXAAVIWriter@@@Z
	DD	FLAT:?Load@CBlender_ShWorld@@UAEXAAVIReader@@G@Z
	DD	FLAT:?canBeDetailed@IBlender@@UAEHXZ
	DD	FLAT:?canBeLMAPped@CBlender_ShWorld@@UAEHXZ
	DD	FLAT:?Compile@CBlender_ShWorld@@UAEXAAVCBlender_Compile@@@Z
	DD	FLAT:??_ECBlender_ShWorld@@UAEPAXI@Z
CONST	ENDS
;	COMDAT ??_R4CBlender_ShWorld@@6B@
rdata$r	SEGMENT
??_R4CBlender_ShWorld@@6B@ DD 00H			; CBlender_ShWorld::`RTTI Complete Object Locator'
	DD	00H
	DD	00H
	DD	FLAT:??_R0?AVCBlender_ShWorld@@@8
	DD	FLAT:??_R3CBlender_ShWorld@@8
rdata$r	ENDS
;	COMDAT ??_R0?AVCBlender_ShWorld@@@8
data$rs	SEGMENT
??_R0?AVCBlender_ShWorld@@@8 DD FLAT:??_7type_info@@6B@	; CBlender_ShWorld `RTTI Type Descriptor'
	DD	00H
	DB	'.?AVCBlender_ShWorld@@', 00H
data$rs	ENDS
;	COMDAT ??_R3CBlender_ShWorld@@8
rdata$r	SEGMENT
??_R3CBlender_ShWorld@@8 DD 00H				; CBlender_ShWorld::`RTTI Class Hierarchy Descriptor'
	DD	00H
	DD	03H
	DD	FLAT:??_R2CBlender_ShWorld@@8
rdata$r	ENDS
;	COMDAT ??_R1A@?0A@EA@CBlender_ShWorld@@8
rdata$r	SEGMENT
??_R1A@?0A@EA@CBlender_ShWorld@@8 DD FLAT:??_R0?AVCBlender_ShWorld@@@8 ; CBlender_ShWorld::`RTTI Base Class Descriptor at (0,-1,0,64)'
	DD	02H
	DD	00H
	DD	0ffffffffH
	DD	00H
	DD	040H
	DD	FLAT:??_R3CBlender_ShWorld@@8
rdata$r	ENDS
;	COMDAT ??_R2CBlender_ShWorld@@8
rdata$r	SEGMENT
??_R2CBlender_ShWorld@@8 DD FLAT:??_R1A@?0A@EA@CBlender_ShWorld@@8 ; CBlender_ShWorld::`RTTI Base Class Array'
	DD	FLAT:??_R1A@?0A@EA@IBlender@@8
	DD	FLAT:??_R1A@?0A@EA@CPropertyBase@@8
rdata$r	ENDS
;	COMDAT ??_C@_0BM@MJAAKDFL@INTERNAL?3?5shadow?5projecting@
CONST	SEGMENT
??_C@_0BM@MJAAKDFL@INTERNAL?3?5shadow?5projecting@ DB 'INTERNAL: shadow p'
	DB	'rojecting', 00H				; `string'
PUBLIC	?Compile@CBlender_ShWorld@@UAEXAAVCBlender_Compile@@@Z ; CBlender_ShWorld::Compile
PUBLIC	?Load@CBlender_ShWorld@@UAEXAAVIReader@@G@Z	; CBlender_ShWorld::Load
PUBLIC	?Save@CBlender_ShWorld@@UAEXAAVIWriter@@@Z	; CBlender_ShWorld::Save
PUBLIC	??1CBlender_ShWorld@@UAE@XZ			; CBlender_ShWorld::~CBlender_ShWorld
PUBLIC	??_GCBlender_ShWorld@@UAEPAXI@Z			; CBlender_ShWorld::`scalar deleting destructor'
PUBLIC	??0CBlender_ShWorld@@QAE@XZ			; CBlender_ShWorld::CBlender_ShWorld
PUBLIC	?canBeLMAPped@CBlender_ShWorld@@UAEHXZ		; CBlender_ShWorld::canBeLMAPped
PUBLIC	?getComment@CBlender_ShWorld@@UAEPBDXZ		; CBlender_ShWorld::getComment
EXTRN	??_ECBlender_ShWorld@@UAEPAXI@Z:PROC		; CBlender_ShWorld::`vector deleting destructor'
; Function compile flags: /Ogtpy
; File I:\Vitalya\mine\NSProjectX\layers\xrRenderPC_R1\Blender_Shadow_World.h
;	COMDAT ?getComment@CBlender_ShWorld@@UAEPBDXZ
_TEXT	SEGMENT
?getComment@CBlender_ShWorld@@UAEPBDXZ PROC		; CBlender_ShWorld::getComment, COMDAT
; _this$ = ecx

; 8    : 	virtual		LPCSTR		getComment()	{ return "INTERNAL: shadow projecting";	}

	mov	eax, OFFSET ??_C@_0BM@MJAAKDFL@INTERNAL?3?5shadow?5projecting@
	ret	0
?getComment@CBlender_ShWorld@@UAEPBDXZ ENDP		; CBlender_ShWorld::getComment
_TEXT	ENDS
; Function compile flags: /Ogtpy
; File I:\Vitalya\mine\NSProjectX\layers\xrRenderPC_R1\Blender_Shadow_World.h
;	COMDAT ?canBeLMAPped@CBlender_ShWorld@@UAEHXZ
_TEXT	SEGMENT
?canBeLMAPped@CBlender_ShWorld@@UAEHXZ PROC		; CBlender_ShWorld::canBeLMAPped, COMDAT
; _this$ = ecx

; 9    : 	virtual		BOOL		canBeLMAPped()	{ return FALSE; }

	xor	eax, eax
	ret	0
?canBeLMAPped@CBlender_ShWorld@@UAEHXZ ENDP		; CBlender_ShWorld::canBeLMAPped
_TEXT	ENDS
; Function compile flags: /Ogtpy
; File I:\Vitalya\mine\NSProjectX\layers\xrRenderPC_R1\Blender_Shadow_World.cpp
_TEXT	SEGMENT
??0CBlender_ShWorld@@QAE@XZ PROC			; CBlender_ShWorld::CBlender_ShWorld
; _this$ = ecx

; 11   : {

	push	esi
	mov	esi, ecx
	call	DWORD PTR __imp_??0IBlender@@QAE@XZ
	mov	DWORD PTR [esi], OFFSET ??_7CBlender_ShWorld@@6B@

; 12   : 	description.CLS		= B_SHADOW_WORLD;
; 13   : }

	mov	eax, esi
	mov	DWORD PTR [esi+4], 1330793540		; 4f524c44H
	mov	DWORD PTR [esi+8], 1397251927		; 53485f57H
	pop	esi
	ret	0
??0CBlender_ShWorld@@QAE@XZ ENDP			; CBlender_ShWorld::CBlender_ShWorld
_TEXT	ENDS
; Function compile flags: /Ogtpy
; File I:\Vitalya\mine\NSProjectX\layers\xrRenderPC_R1\Blender_Shadow_World.cpp
;	COMDAT ??_GCBlender_ShWorld@@UAEPAXI@Z
_TEXT	SEGMENT
___flags$ = 8						; size = 4
??_GCBlender_ShWorld@@UAEPAXI@Z PROC			; CBlender_ShWorld::`scalar deleting destructor', COMDAT
; _this$ = ecx

; 16   : {

	push	esi
	mov	esi, ecx
	mov	DWORD PTR [esi], OFFSET ??_7CBlender_ShWorld@@6B@

; 17   : 
; 18   : }

	call	DWORD PTR __imp_??1IBlender@@UAE@XZ
	test	BYTE PTR ___flags$[esp], 1
	je	SHORT $LN6@scalar
	push	324					; 00000144H
	push	esi
	call	??3@YAXPAXI@Z				; operator delete
	add	esp, 8
$LN6@scalar:
	mov	eax, esi
	pop	esi
	ret	4
??_GCBlender_ShWorld@@UAEPAXI@Z ENDP			; CBlender_ShWorld::`scalar deleting destructor'
_TEXT	ENDS
; Function compile flags: /Ogtpy
; File I:\Vitalya\mine\NSProjectX\layers\xrRenderPC_R1\Blender_Shadow_World.cpp
_TEXT	SEGMENT
??1CBlender_ShWorld@@UAE@XZ PROC			; CBlender_ShWorld::~CBlender_ShWorld
; _this$ = ecx

; 16   : {

	mov	DWORD PTR [ecx], OFFSET ??_7CBlender_ShWorld@@6B@

; 17   : 
; 18   : }

	jmp	DWORD PTR __imp_??1IBlender@@UAE@XZ
??1CBlender_ShWorld@@UAE@XZ ENDP			; CBlender_ShWorld::~CBlender_ShWorld
_TEXT	ENDS
; Function compile flags: /Ogtpy
; File I:\Vitalya\mine\NSProjectX\layers\xrRenderPC_R1\Blender_Shadow_World.cpp
_TEXT	SEGMENT
_fs$ = 8						; size = 4
?Save@CBlender_ShWorld@@UAEXAAVIWriter@@@Z PROC		; CBlender_ShWorld::Save
; _this$ = ecx

; 22   : 	IBlender::Save	(fs);

	jmp	DWORD PTR __imp_?Save@IBlender@@UAEXAAVIWriter@@@Z
?Save@CBlender_ShWorld@@UAEXAAVIWriter@@@Z ENDP		; CBlender_ShWorld::Save
_TEXT	ENDS
; Function compile flags: /Ogtpy
; File I:\Vitalya\mine\NSProjectX\layers\xrRenderPC_R1\Blender_Shadow_World.cpp
_TEXT	SEGMENT
_fs$ = 8						; size = 4
_version$ = 12						; size = 2
?Load@CBlender_ShWorld@@UAEXAAVIReader@@G@Z PROC	; CBlender_ShWorld::Load
; _this$ = ecx

; 27   : 	IBlender::Load	(fs,version);

	jmp	DWORD PTR __imp_?Load@IBlender@@UAEXAAVIReader@@G@Z
?Load@CBlender_ShWorld@@UAEXAAVIReader@@G@Z ENDP	; CBlender_ShWorld::Load
_TEXT	ENDS
; Function compile flags: /Ogtpy
; File I:\Vitalya\mine\NSProjectX\layers\xrRenderPC_R1\Blender_Shadow_World.cpp
; File I:\Vitalya\mine\NSProjectX\xrEngine\blenders\Blender_Recorder.h
; File I:\Vitalya\mine\NSProjectX\layers\xrRenderPC_R1\Blender_Shadow_World.cpp
_TEXT	SEGMENT
_C$ = 8							; size = 4
?Compile@CBlender_ShWorld@@UAEXAAVCBlender_Compile@@@Z PROC ; CBlender_ShWorld::Compile
; _this$ = ecx

; 31   : {

	push	esi

; 32   : 	IBlender::Compile		(C);

	mov	esi, DWORD PTR _C$[esp]
	push	esi
	call	DWORD PTR __imp_?Compile@IBlender@@UAEXAAVCBlender_Compile@@@Z

; 33   : 	C.PassBegin		();

	mov	ecx, esi
	call	DWORD PTR __imp_?PassBegin@CBlender_Compile@@QAEXXZ

; 34   : 	{
; 35   : 		C.PassSET_ZB		(TRUE, FALSE);

	push	0
	push	0
	push	1
	mov	ecx, esi
	call	DWORD PTR __imp_?PassSET_ZB@CBlender_Compile@@QAEXHHH@Z
; File I:\Vitalya\mine\NSProjectX\xrEngine\blenders\Blender_Recorder.h

; 63   : 	void				PassSET_Blend_MUL(BOOL bAref = FALSE, u32 ref = 0) { PassSET_Blend(TRUE, D3DBLEND_DESTCOLOR, D3DBLEND_ZERO, bAref, ref); }

	push	0
	push	0
	push	1
	push	9
	push	1
	mov	ecx, esi
	call	DWORD PTR __imp_?PassSET_Blend@CBlender_Compile@@QAEXHIIHI@Z
; File I:\Vitalya\mine\NSProjectX\layers\xrRenderPC_R1\Blender_Shadow_World.cpp

; 37   : 		C.PassSET_LightFog	(FALSE, FALSE);

	push	0
	push	0
	mov	ecx, esi
	call	DWORD PTR __imp_?PassSET_LightFog@CBlender_Compile@@QAEXHH@Z

; 38   : 
; 39   : 		// Stage0 - Base texture
; 40   : 		C.StageBegin		();

	mov	ecx, esi
	call	DWORD PTR __imp_?StageBegin@CBlender_Compile@@QAEXXZ

; 41   : 		C.StageSET_Color	(D3DTA_TEXTURE,	  D3DTOP_ADD,	D3DTA_DIFFUSE);

	push	0
	push	7
	push	2
	mov	ecx, esi
	call	DWORD PTR __imp_?StageSET_Color@CBlender_Compile@@QAEXIII@Z

; 42   : 		C.StageSET_Alpha	(D3DTA_TEXTURE,	  D3DTOP_ADD,	D3DTA_DIFFUSE);

	push	0
	push	7
	push	2
	mov	ecx, esi
	call	DWORD PTR __imp_?StageSET_Alpha@CBlender_Compile@@QAEXIII@Z

; 43   : 		C.Stage_Texture		("$base0");

	push	2
	push	2
	push	2
	push	1
	push	OFFSET ??_C@_06FANPPNOI@$base0@
	mov	ecx, esi
	call	DWORD PTR __imp_?Stage_Texture@CBlender_Compile@@QAEXPBDIIII@Z

; 44   : 		C.Stage_Matrix		("$null",0);

	push	0
	push	OFFSET ??_C@_05CAGGJGBB@$null@
	mov	ecx, esi
	call	DWORD PTR __imp_?Stage_Matrix@CBlender_Compile@@QAEXPBDH@Z

; 45   : 		C.Stage_Constant	("$null");

	push	OFFSET ??_C@_05CAGGJGBB@$null@
	mov	ecx, esi
	call	DWORD PTR __imp_?Stage_Constant@CBlender_Compile@@QAEXPBD@Z

; 46   : 		C.StageEnd			();

	mov	ecx, esi
	call	DWORD PTR __imp_?StageEnd@CBlender_Compile@@QAEXXZ

; 47   : 	}
; 48   : 	C.PassEnd			();

	mov	ecx, esi
	call	DWORD PTR __imp_?PassEnd@CBlender_Compile@@QAEXXZ
	pop	esi

; 49   : }

	ret	4
?Compile@CBlender_ShWorld@@UAEXAAVCBlender_Compile@@@Z ENDP ; CBlender_ShWorld::Compile
_TEXT	ENDS
END
