; Listing generated by Microsoft (R) Optimizing Compiler Version 19.29.30146.0 

	TITLE	i:\vitalya\mine\nsprojectx\nspx_build\intermediate\release-win32\xrrender_r1\detailmanager.obj
	.686P
	.XMM
	include listing.inc
	.model	flat

INCLUDELIB OLDNAMES

PUBLIC	??_C@_0O@EKJDCOAB@level?4details@		; `string'
PUBLIC	??_C@_07DJIBDFPO@$level$@			; `string'
PUBLIC	??_C@_0BF@GLPAKFBM@CDetailManager?3?3Load@	; `string'
PUBLIC	??_C@_0DN@KFPJDCKL@I?3?2Vitalya?2mine?2NSProjectX?2laye@ ; `string'
PUBLIC	??_C@_0BO@OFEMNCKJ@dtH?4version?5?$DN?$DN?5DETAIL_VERSION@ ; `string'
PUBLIC	??_C@_0BC@HMFDBOCL@swing_normal_amp1@		; `string'
PUBLIC	??_C@_07CAOCFMEH@details@			; `string'
PUBLIC	??_C@_0BC@FHHOENOI@swing_normal_amp2@		; `string'
PUBLIC	??_C@_0BC@PGBDJDCO@swing_normal_rot1@		; `string'
PUBLIC	??_C@_0BC@NNDOMAON@swing_normal_rot2@		; `string'
PUBLIC	??_C@_0BD@HHENNFJP@swing_normal_speed@		; `string'
PUBLIC	??_C@_0BA@LGNGELGN@swing_fast_amp1@		; `string'
PUBLIC	??_C@_0BA@JNPLBIKO@swing_fast_amp2@		; `string'
PUBLIC	??_C@_0BA@DMJGMGGI@swing_fast_rot1@		; `string'
PUBLIC	??_C@_0BA@BHLLJFKL@swing_fast_rot2@		; `string'
PUBLIC	??_C@_0BB@OIDILEGP@swing_fast_speed@		; `string'
PUBLIC	??_R2CDetailManager@@8				; CDetailManager::`RTTI Base Class Array'
PUBLIC	??_R2CDetail@@8					; CDetail::`RTTI Base Class Array'
PUBLIC	??_R2IRender_DetailModel@@8			; IRender_DetailModel::`RTTI Base Class Array'
PUBLIC	??_R1A@?0A@EA@CDetailManager@@8			; CDetailManager::`RTTI Base Class Descriptor at (0,-1,0,64)'
PUBLIC	??_R1A@?0A@EA@CDetail@@8			; CDetail::`RTTI Base Class Descriptor at (0,-1,0,64)'
PUBLIC	??_R1A@?0A@EA@IRender_DetailModel@@8		; IRender_DetailModel::`RTTI Base Class Descriptor at (0,-1,0,64)'
PUBLIC	??_R3CDetailManager@@8				; CDetailManager::`RTTI Class Hierarchy Descriptor'
PUBLIC	??_R0?AVCDetailManager@@@8			; CDetailManager `RTTI Type Descriptor'
PUBLIC	??_R3IRender_DetailModel@@8			; IRender_DetailModel::`RTTI Class Hierarchy Descriptor'
PUBLIC	??_R0?AVIRender_DetailModel@@@8			; IRender_DetailModel `RTTI Type Descriptor'
PUBLIC	??_R3CDetail@@8					; CDetail::`RTTI Class Hierarchy Descriptor'
PUBLIC	??_R0?AVCDetail@@@8				; CDetail `RTTI Type Descriptor'
PUBLIC	??_R4CDetailManager@@6B@			; CDetailManager::`RTTI Complete Object Locator'
PUBLIC	??_R4CDetail@@6B@				; CDetail::`RTTI Complete Object Locator'
PUBLIC	??_C@_0BA@FOIKENOD@vector?5too?5long@		; `string'
PUBLIC	??_7CDetail@@6B@				; CDetail::`vftable'
PUBLIC	??_7CDetailManager@@6B@				; CDetailManager::`vftable'
EXTRN	__imp_?r_chunk_safe@?$IReaderBase@VIReader@@@@QAEHIPAXI@Z:PROC
EXTRN	__imp_??0IRender_DetailModel@@QAE@XZ:PROC
EXTRN	__imp_?_Xlength_error@std@@YAXPBD@Z:PROC
EXTRN	__imp_??1IRender_DetailModel@@UAE@XZ:PROC
EXTRN	__imp_?mem_alloc@xrMemory@@QAEPAXI@Z:PROC
EXTRN	__imp_?Leave@xrCriticalSection@@QAEXXZ:PROC
EXTRN	__imp_?Enter@xrCriticalSection@@QAEXXZ:PROC
EXTRN	__imp_?Fidentity@@3U?$_matrix@M@@A:ZWORD
EXTRN	__imp_?set_xform_world@CBackend@@QAEXABU?$_matrix@M@@@Z:PROC
EXTRN	__imp_?RCache@@3VCBackend@@A:BYTE
EXTRN	__imp_?set_CullMode@CBackend@@QAEXI@Z:PROC
EXTRN	__imp_?g_pGamePersistent@@3PAVIGame_Persistent@@A:DWORD
EXTRN	__imp_?Environment@IGame_Persistent@@QAEAAVCEnvironment@@XZ:PROC
EXTRN	__imp_?psDeviceFlags@@3U?$_flags@I@@A:DWORD
EXTRN	__imp_?GetElapsed_ticks@CTimer@@QBE_KXZ:PROC
EXTRN	__imp_?End@CStatTimer@@QAEXXZ:PROC
EXTRN	__imp_?Random@@3VCRandom@@A:DWORD
EXTRN	__imp_?testSAABB@CFrustum@@QBE?AW4EFC_Visible@@AAU?$_vector3@M@@MPBMAAI@Z:PROC
EXTRN	__imp_?g_bEnableStatGather@@3HA:DWORD
EXTRN	__imp_?QPC@CPU@@YA_KXZ:PROC
EXTRN	__imp_?Start@CTimerBase@@QAEXXZ:PROC
EXTRN	__imp_?Start@CTimer@@QAEXXZ:PROC
EXTRN	__imp_?Begin@CStatTimer@@QAEXXZ:PROC
EXTRN	__imp_?CreateFromMatrix@CFrustum@@QAEXAAU?$_matrix@M@@I@Z:PROC
EXTRN	__imp_?Device@@3VCRenderDevice@@A:BYTE
EXTRN	__imp_?r_close@CLocatorAPI@@QAEXAAPAVIReader@@@Z:PROC
EXTRN	__imp_?pSettings@@3PAVCInifile@@A:DWORD
EXTRN	__imp_?r_float@CInifile@@QAEMPBD0@Z:PROC
EXTRN	__imp_?HW@@3VCHW@@A:BYTE
EXTRN	__imp_?pointer@IReader@@QBEPAXXZ:PROC
EXTRN	__imp_?close@IReader@@QAEXXZ:PROC
EXTRN	__imp_?open_chunk@IReader@@QAEPAV1@I@Z:PROC
EXTRN	__imp_?r_open@CLocatorAPI@@QAEPAVIReader@@PBD@Z:PROC
EXTRN	__imp_?update_path@CLocatorAPI@@QAEPBDAAY0CAI@DPBD1@Z:PROC
EXTRN	__imp_?xr_FS@@3PAVCLocatorAPI@@A:DWORD
EXTRN	__imp_?exist@CLocatorAPI@@QAEPBUfile@1@PBD0@Z:PROC
EXTRN	__imp_?_inc@?$resptr_base@USGeometry@@@@IAEXXZ:PROC
EXTRN	__imp_?_get@?$resptr_base@USGeometry@@@@QBEPAUSGeometry@@XZ:PROC
EXTRN	__imp_?_set@?$resptr_base@USGeometry@@@@QAEXPAUSGeometry@@@Z:PROC
EXTRN	__imp_?_set@?$resptr_base@USGeometry@@@@QAEXABV1@@Z:PROC
EXTRN	__imp_??1xrCriticalSection@@QAE@XZ:PROC
EXTRN	__imp_??0xrCriticalSection@@QAE@XZ:PROC
EXTRN	__imp_?_dec@?$resptr_base@USGeometry@@@@IAEXXZ:PROC
EXTRN	__imp_?mem_free@xrMemory@@QAEXPAX@Z:PROC
EXTRN	__imp_?Memory@@3VxrMemory@@A:BYTE
EXTRN	__imp_??1xrXRC@@QAE@XZ:PROC
EXTRN	__imp_??0xrXRC@@QAE@XZ:PROC
;	COMDAT ?ignore_always@?6??Load@CDetailManager@@QAEXXZ@4_NA
_BSS	SEGMENT
?ignore_always@?6??Load@CDetailManager@@QAEXXZ@4_NA DB 01H DUP (?) ; `CDetailManager::Load'::`7'::ignore_always
_BSS	ENDS
;	COMDAT ??_7CDetailManager@@6B@
CONST	SEGMENT
??_7CDetailManager@@6B@ DD FLAT:??_R4CDetailManager@@6B@ ; CDetailManager::`vftable'
	DD	FLAT:??_ECDetailManager@@UAEPAXI@Z
?_Fake_alloc@std@@3U_Fake_allocator@1@B	ORG $+1		; std::_Fake_alloc
?magic4x4@@3PAY03HA DD 00H				; magic4x4
	DD	0eH
	DD	03H
	DD	0dH
	DD	0bH
	DD	05H
	DD	08H
	DD	06H
	DD	0cH
	DD	02H
	DD	0fH
	DD	01H
	DD	07H
	DD	09H
	DD	04H
	DD	0aH
CONST	ENDS
;	COMDAT ??_7CDetail@@6B@
CONST	SEGMENT
??_7CDetail@@6B@ DD FLAT:??_R4CDetail@@6B@		; CDetail::`vftable'
	DD	FLAT:?transfer@CDetail@@UAEXAAU?$_matrix@M@@PAUfvfVertexOut@IRender_DetailModel@@IPAGIMM@Z
	DD	FLAT:?transfer@CDetail@@UAEXAAU?$_matrix@M@@PAUfvfVertexOut@IRender_DetailModel@@IPAGI@Z
	DD	FLAT:??_ECDetail@@UAEPAXI@Z
	DD	FLAT:?Unload@CDetail@@UAEXXZ
CONST	ENDS
;	COMDAT ??_C@_0BA@FOIKENOD@vector?5too?5long@
CONST	SEGMENT
??_C@_0BA@FOIKENOD@vector?5too?5long@ DB 'vector too long', 00H ; `string'
CONST	ENDS
;	COMDAT ??_R4CDetail@@6B@
rdata$r	SEGMENT
??_R4CDetail@@6B@ DD 00H				; CDetail::`RTTI Complete Object Locator'
	DD	00H
	DD	00H
	DD	FLAT:??_R0?AVCDetail@@@8
	DD	FLAT:??_R3CDetail@@8
rdata$r	ENDS
;	COMDAT ??_R4CDetailManager@@6B@
rdata$r	SEGMENT
??_R4CDetailManager@@6B@ DD 00H				; CDetailManager::`RTTI Complete Object Locator'
	DD	00H
	DD	00H
	DD	FLAT:??_R0?AVCDetailManager@@@8
	DD	FLAT:??_R3CDetailManager@@8
rdata$r	ENDS
;	COMDAT ??_R0?AVCDetail@@@8
data$rs	SEGMENT
??_R0?AVCDetail@@@8 DD FLAT:??_7type_info@@6B@		; CDetail `RTTI Type Descriptor'
	DD	00H
	DB	'.?AVCDetail@@', 00H
data$rs	ENDS
;	COMDAT ??_R3CDetail@@8
rdata$r	SEGMENT
??_R3CDetail@@8 DD 00H					; CDetail::`RTTI Class Hierarchy Descriptor'
	DD	00H
	DD	02H
	DD	FLAT:??_R2CDetail@@8
rdata$r	ENDS
;	COMDAT ??_R0?AVIRender_DetailModel@@@8
data$rs	SEGMENT
??_R0?AVIRender_DetailModel@@@8 DD FLAT:??_7type_info@@6B@ ; IRender_DetailModel `RTTI Type Descriptor'
	DD	00H
	DB	'.?AVIRender_DetailModel@@', 00H
data$rs	ENDS
;	COMDAT ??_R3IRender_DetailModel@@8
rdata$r	SEGMENT
??_R3IRender_DetailModel@@8 DD 00H			; IRender_DetailModel::`RTTI Class Hierarchy Descriptor'
	DD	00H
	DD	01H
	DD	FLAT:??_R2IRender_DetailModel@@8
rdata$r	ENDS
;	COMDAT ??_R0?AVCDetailManager@@@8
data$rs	SEGMENT
??_R0?AVCDetailManager@@@8 DD FLAT:??_7type_info@@6B@	; CDetailManager `RTTI Type Descriptor'
	DD	00H
	DB	'.?AVCDetailManager@@', 00H
data$rs	ENDS
;	COMDAT ??_R3CDetailManager@@8
rdata$r	SEGMENT
??_R3CDetailManager@@8 DD 00H				; CDetailManager::`RTTI Class Hierarchy Descriptor'
	DD	00H
	DD	01H
	DD	FLAT:??_R2CDetailManager@@8
rdata$r	ENDS
;	COMDAT ??_R1A@?0A@EA@IRender_DetailModel@@8
rdata$r	SEGMENT
??_R1A@?0A@EA@IRender_DetailModel@@8 DD FLAT:??_R0?AVIRender_DetailModel@@@8 ; IRender_DetailModel::`RTTI Base Class Descriptor at (0,-1,0,64)'
	DD	00H
	DD	00H
	DD	0ffffffffH
	DD	00H
	DD	040H
	DD	FLAT:??_R3IRender_DetailModel@@8
rdata$r	ENDS
;	COMDAT ??_R1A@?0A@EA@CDetail@@8
rdata$r	SEGMENT
??_R1A@?0A@EA@CDetail@@8 DD FLAT:??_R0?AVCDetail@@@8	; CDetail::`RTTI Base Class Descriptor at (0,-1,0,64)'
	DD	01H
	DD	00H
	DD	0ffffffffH
	DD	00H
	DD	040H
	DD	FLAT:??_R3CDetail@@8
rdata$r	ENDS
;	COMDAT ??_R1A@?0A@EA@CDetailManager@@8
rdata$r	SEGMENT
??_R1A@?0A@EA@CDetailManager@@8 DD FLAT:??_R0?AVCDetailManager@@@8 ; CDetailManager::`RTTI Base Class Descriptor at (0,-1,0,64)'
	DD	00H
	DD	00H
	DD	0ffffffffH
	DD	00H
	DD	040H
	DD	FLAT:??_R3CDetailManager@@8
rdata$r	ENDS
;	COMDAT ??_R2IRender_DetailModel@@8
rdata$r	SEGMENT
??_R2IRender_DetailModel@@8 DD FLAT:??_R1A@?0A@EA@IRender_DetailModel@@8 ; IRender_DetailModel::`RTTI Base Class Array'
rdata$r	ENDS
;	COMDAT ??_R2CDetail@@8
rdata$r	SEGMENT
??_R2CDetail@@8 DD FLAT:??_R1A@?0A@EA@CDetail@@8	; CDetail::`RTTI Base Class Array'
	DD	FLAT:??_R1A@?0A@EA@IRender_DetailModel@@8
rdata$r	ENDS
;	COMDAT ??_R2CDetailManager@@8
rdata$r	SEGMENT
??_R2CDetailManager@@8 DD FLAT:??_R1A@?0A@EA@CDetailManager@@8 ; CDetailManager::`RTTI Base Class Array'
rdata$r	ENDS
;	COMDAT ??_C@_0BB@OIDILEGP@swing_fast_speed@
CONST	SEGMENT
??_C@_0BB@OIDILEGP@swing_fast_speed@ DB 'swing_fast_speed', 00H ; `string'
CONST	ENDS
;	COMDAT ??_C@_0BA@BHLLJFKL@swing_fast_rot2@
CONST	SEGMENT
??_C@_0BA@BHLLJFKL@swing_fast_rot2@ DB 'swing_fast_rot2', 00H ; `string'
CONST	ENDS
;	COMDAT ??_C@_0BA@DMJGMGGI@swing_fast_rot1@
CONST	SEGMENT
??_C@_0BA@DMJGMGGI@swing_fast_rot1@ DB 'swing_fast_rot1', 00H ; `string'
CONST	ENDS
;	COMDAT ??_C@_0BA@JNPLBIKO@swing_fast_amp2@
CONST	SEGMENT
??_C@_0BA@JNPLBIKO@swing_fast_amp2@ DB 'swing_fast_amp2', 00H ; `string'
CONST	ENDS
;	COMDAT ??_C@_0BA@LGNGELGN@swing_fast_amp1@
CONST	SEGMENT
??_C@_0BA@LGNGELGN@swing_fast_amp1@ DB 'swing_fast_amp1', 00H ; `string'
CONST	ENDS
;	COMDAT ??_C@_0BD@HHENNFJP@swing_normal_speed@
CONST	SEGMENT
??_C@_0BD@HHENNFJP@swing_normal_speed@ DB 'swing_normal_speed', 00H ; `string'
CONST	ENDS
;	COMDAT ??_C@_0BC@NNDOMAON@swing_normal_rot2@
CONST	SEGMENT
??_C@_0BC@NNDOMAON@swing_normal_rot2@ DB 'swing_normal_rot2', 00H ; `string'
CONST	ENDS
;	COMDAT ??_C@_0BC@PGBDJDCO@swing_normal_rot1@
CONST	SEGMENT
??_C@_0BC@PGBDJDCO@swing_normal_rot1@ DB 'swing_normal_rot1', 00H ; `string'
CONST	ENDS
;	COMDAT ??_C@_0BC@FHHOENOI@swing_normal_amp2@
CONST	SEGMENT
??_C@_0BC@FHHOENOI@swing_normal_amp2@ DB 'swing_normal_amp2', 00H ; `string'
CONST	ENDS
;	COMDAT ??_C@_07CAOCFMEH@details@
CONST	SEGMENT
??_C@_07CAOCFMEH@details@ DB 'details', 00H		; `string'
CONST	ENDS
;	COMDAT ??_C@_0BC@HMFDBOCL@swing_normal_amp1@
CONST	SEGMENT
??_C@_0BC@HMFDBOCL@swing_normal_amp1@ DB 'swing_normal_amp1', 00H ; `string'
CONST	ENDS
;	COMDAT ??_C@_0BO@OFEMNCKJ@dtH?4version?5?$DN?$DN?5DETAIL_VERSION@
CONST	SEGMENT
??_C@_0BO@OFEMNCKJ@dtH?4version?5?$DN?$DN?5DETAIL_VERSION@ DB 'dtH.versio'
	DB	'n == DETAIL_VERSION', 00H			; `string'
CONST	ENDS
;	COMDAT ??_C@_0DN@KFPJDCKL@I?3?2Vitalya?2mine?2NSProjectX?2laye@
CONST	SEGMENT
??_C@_0DN@KFPJDCKL@I?3?2Vitalya?2mine?2NSProjectX?2laye@ DB 'I:\Vitalya\m'
	DB	'ine\NSProjectX\layers\xrRender\DetailManager.cpp', 00H ; `string'
CONST	ENDS
;	COMDAT ??_C@_0BF@GLPAKFBM@CDetailManager?3?3Load@
CONST	SEGMENT
??_C@_0BF@GLPAKFBM@CDetailManager?3?3Load@ DB 'CDetailManager::Load', 00H ; `string'
CONST	ENDS
;	COMDAT ??_C@_07DJIBDFPO@$level$@
CONST	SEGMENT
??_C@_07DJIBDFPO@$level$@ DB '$level$', 00H		; `string'
CONST	ENDS
;	COMDAT ??_C@_0O@EKJDCOAB@level?4details@
CONST	SEGMENT
??_C@_0O@EKJDCOAB@level?4details@ DB 'level.details', 00H ; `string'
PUBLIC	??_H@YGXPAXIIP6EPAX0@Z@Z			; `vector constructor iterator'
PUBLIC	??_I@YGXPAXIIP6EX0@Z@Z				; `vector destructor iterator'
PUBLIC	??0CacheSlot1@CDetailManager@@QAE@XZ		; CDetailManager::CacheSlot1::CacheSlot1
PUBLIC	?clear@vis_data@@QAEXXZ				; vis_data::clear
PUBLIC	?invalidate@?$_box3@M@@QAEAAV1@XZ		; _box3<float>::invalidate
PUBLIC	?max@?$numeric_limits@M@std@@SAMXZ		; std::numeric_limits<float>::max
PUBLIC	?set@?$_vector3@M@@QAEAAU1@MMM@Z		; _vector3<float>::set
PUBLIC	??0Slot@CDetailManager@@QAE@XZ			; CDetailManager::Slot::Slot
PUBLIC	??1SlotPart@CDetailManager@@QAE@XZ		; CDetailManager::SlotPart::~SlotPart
PUBLIC	??1?$xr_vector@PAUSlotItem@CDetailManager@@V?$xalloc@PAUSlotItem@CDetailManager@@@@@@QAE@XZ ; xr_vector<CDetailManager::SlotItem *,xalloc<CDetailManager::SlotItem *> >::~xr_vector<CDetailManager::SlotItem *,xalloc<CDetailManager::SlotItem *> >
PUBLIC	??1?$vector@PAUSlotItem@CDetailManager@@V?$xalloc@PAUSlotItem@CDetailManager@@@@@std@@QAE@XZ ; std::vector<CDetailManager::SlotItem *,xalloc<CDetailManager::SlotItem *> >::~vector<CDetailManager::SlotItem *,xalloc<CDetailManager::SlotItem *> >
PUBLIC	?_Tidy@?$vector@PAUSlotItem@CDetailManager@@V?$xalloc@PAUSlotItem@CDetailManager@@@@@std@@AAEXXZ ; std::vector<CDetailManager::SlotItem *,xalloc<CDetailManager::SlotItem *> >::_Tidy
PUBLIC	?_Getal@?$vector@PAUSlotItem@CDetailManager@@V?$xalloc@PAUSlotItem@CDetailManager@@@@@std@@AAEAAV?$xalloc@PAUSlotItem@CDetailManager@@@@XZ ; std::vector<CDetailManager::SlotItem *,xalloc<CDetailManager::SlotItem *> >::_Getal
PUBLIC	?_Get_first@?$_Compressed_pair@V?$xalloc@PAUSlotItem@CDetailManager@@@@V?$_Vector_val@U?$_Simple_types@PAUSlotItem@CDetailManager@@@std@@@std@@$00@std@@QAEAAV?$xalloc@PAUSlotItem@CDetailManager@@@@XZ ; std::_Compressed_pair<xalloc<CDetailManager::SlotItem *>,std::_Vector_val<std::_Simple_types<CDetailManager::SlotItem *> >,1>::_Get_first
PUBLIC	?deallocate@?$xalloc@PAUSlotItem@CDetailManager@@@@QBEXPAPAUSlotItem@CDetailManager@@I@Z ; xalloc<CDetailManager::SlotItem *>::deallocate
PUBLIC	??$xr_free@PAUSlotItem@CDetailManager@@@@YAXAAPAPAUSlotItem@CDetailManager@@@Z ; xr_free<CDetailManager::SlotItem *>
PUBLIC	?_Destroy@?$vector@PAUSlotItem@CDetailManager@@V?$xalloc@PAUSlotItem@CDetailManager@@@@@std@@AAEXPAPAUSlotItem@CDetailManager@@0@Z ; std::vector<CDetailManager::SlotItem *,xalloc<CDetailManager::SlotItem *> >::_Destroy
PUBLIC	??$_Destroy_range@V?$xalloc@PAUSlotItem@CDetailManager@@@@@std@@YAXPAPAUSlotItem@CDetailManager@@QAPAU12@AAV?$xalloc@PAUSlotItem@CDetailManager@@@@@Z ; std::_Destroy_range<xalloc<CDetailManager::SlotItem *> >
PUBLIC	??$_Unfancy@PAUSlotItem@CDetailManager@@@std@@YAPAPAUSlotItem@CDetailManager@@PAPAU12@@Z ; std::_Unfancy<CDetailManager::SlotItem *>
PUBLIC	??$destroy@PAUSlotItem@CDetailManager@@@?$_Normal_allocator_traits@V?$xalloc@PAUSlotItem@CDetailManager@@@@@std@@SAXAAV?$xalloc@PAUSlotItem@CDetailManager@@@@PAPAUSlotItem@CDetailManager@@@Z ; std::_Normal_allocator_traits<xalloc<CDetailManager::SlotItem *> >::destroy<CDetailManager::SlotItem *>
PUBLIC	?destroy@?$xalloc@PAUSlotItem@CDetailManager@@@@QAEXPAPAUSlotItem@CDetailManager@@@Z ; xalloc<CDetailManager::SlotItem *>::destroy
PUBLIC	??$_Destroy_in_place@PAPAUSlotItem@CDetailManager@@@std@@YAXAAPAPAUSlotItem@CDetailManager@@@Z ; std::_Destroy_in_place<CDetailManager::SlotItem * *>
PUBLIC	?_Orphan_all@_Container_base0@std@@QAEXXZ	; std::_Container_base0::_Orphan_all
PUBLIC	??0SlotPart@CDetailManager@@QAE@XZ		; CDetailManager::SlotPart::SlotPart
PUBLIC	??0?$xr_vector@PAUSlotItem@CDetailManager@@V?$xalloc@PAUSlotItem@CDetailManager@@@@@@QAE@XZ ; xr_vector<CDetailManager::SlotItem *,xalloc<CDetailManager::SlotItem *> >::xr_vector<CDetailManager::SlotItem *,xalloc<CDetailManager::SlotItem *> >
PUBLIC	??0?$vector@PAUSlotItem@CDetailManager@@V?$xalloc@PAUSlotItem@CDetailManager@@@@@std@@QAE@XZ ; std::vector<CDetailManager::SlotItem *,xalloc<CDetailManager::SlotItem *> >::vector<CDetailManager::SlotItem *,xalloc<CDetailManager::SlotItem *> >
PUBLIC	?_Alloc_proxy@_Container_base0@std@@QAEXABU_Fake_allocator@2@@Z ; std::_Container_base0::_Alloc_proxy
PUBLIC	??$?0$$V@?$_Compressed_pair@V?$xalloc@PAUSlotItem@CDetailManager@@@@V?$_Vector_val@U?$_Simple_types@PAUSlotItem@CDetailManager@@@std@@@std@@$00@std@@QAE@U_Zero_then_variadic_args_t@1@@Z ; std::_Compressed_pair<xalloc<CDetailManager::SlotItem *>,std::_Vector_val<std::_Simple_types<CDetailManager::SlotItem *> >,1>::_Compressed_pair<xalloc<CDetailManager::SlotItem *>,std::_Vector_val<std::_Simple_types<CDetailManager::SlotItem *> >,1><>
PUBLIC	??0?$_Vector_val@U?$_Simple_types@PAUSlotItem@CDetailManager@@@std@@@std@@QAE@XZ ; std::_Vector_val<std::_Simple_types<CDetailManager::SlotItem *> >::_Vector_val<std::_Simple_types<CDetailManager::SlotItem *> >
PUBLIC	??0?$xalloc@PAUSlotItem@CDetailManager@@@@QAE@XZ ; xalloc<CDetailManager::SlotItem *>::xalloc<CDetailManager::SlotItem *>
PUBLIC	??0?$resptr_core@USGeometry@@Uresptrcode_geom@@@@QAE@XZ ; resptr_core<SGeometry,resptrcode_geom>::resptr_core<SGeometry,resptrcode_geom>
PUBLIC	??1?$resptr_core@USGeometry@@Uresptrcode_geom@@@@QAE@XZ ; resptr_core<SGeometry,resptrcode_geom>::~resptr_core<SGeometry,resptrcode_geom>
PUBLIC	??1?$resptr_core@UR_constant@@V?$resptr_base@UR_constant@@@@@@QAE@XZ ; resptr_core<R_constant,resptr_base<R_constant> >::~resptr_core<R_constant,resptr_base<R_constant> >
PUBLIC	?_dec@?$resptr_base@UR_constant@@@@IAEXXZ	; resptr_base<R_constant>::_dec
PUBLIC	??$xr_delete@UR_constant@@@@YAXAAPAUR_constant@@@Z ; xr_delete<R_constant>
PUBLIC	??R?$xr_special_free@$0A@UR_constant@@@@QAEXAAPAUR_constant@@@Z ; xr_special_free<0,R_constant>::operator()
PUBLIC	??_GR_constant@@QAEPAXI@Z			; R_constant::`scalar deleting destructor'
PUBLIC	??1R_constant@@QAE@XZ				; R_constant::~R_constant
PUBLIC	??4?$resptr_core@USGeometry@@Uresptrcode_geom@@@@QAEAAV0@ABV0@@Z ; resptr_core<SGeometry,resptrcode_geom>::operator=
PUBLIC	??0?$resptr_core@USGeometry@@Uresptrcode_geom@@@@QAE@PAUSGeometry@@_N@Z ; resptr_core<SGeometry,resptrcode_geom>::resptr_core<SGeometry,resptrcode_geom>
PUBLIC	?UseVS@CDetailManager@@QAE_NXZ			; CDetailManager::UseVS
PUBLIC	?randI@CRandom@@QAEHHH@Z			; CRandom::randI
PUBLIC	?randI@CRandom@@QAEHH@Z				; CRandom::randI
PUBLIC	?randI@CRandom@@QAEHXZ				; CRandom::randI
PUBLIC	?is@?$_flags@I@@QBEHI@Z				; _flags<unsigned int>::is
PUBLIC	?MT_SYNC@CDetailManager@@QAEXXZ			; CDetailManager::MT_SYNC
PUBLIC	?iFloor@@YAHM@Z					; iFloor
PUBLIC	??2@YAPAXIPAX@Z					; operator new
PUBLIC	??$min@I@std@@YAABIABI0@Z			; std::min<unsigned int>
PUBLIC	?max@?$numeric_limits@H@std@@SAHXZ		; std::numeric_limits<int>::max
PUBLIC	??0_Fake_proxy_ptr_impl@std@@QAE@ABU_Fake_allocator@1@ABU_Container_base0@1@@Z ; std::_Fake_proxy_ptr_impl::_Fake_proxy_ptr_impl
PUBLIC	?_Release@_Fake_proxy_ptr_impl@std@@QAEXXZ	; std::_Fake_proxy_ptr_impl::_Release
PUBLIC	??$construct@PAV?$xr_vector@PAUSlotItem@CDetailManager@@V?$xalloc@PAUSlotItem@CDetailManager@@@@@@AAPAV1@@?$_Normal_allocator_traits@V?$xalloc@PAV?$xr_vector@PAUSlotItem@CDetailManager@@V?$xalloc@PAUSlotItem@CDetailManager@@@@@@@@@std@@SAXAAV?$xalloc@PAV?$xr_vector@PAUSlotItem@CDetailManager@@V?$xalloc@PAUSlotItem@CDetailManager@@@@@@@@PAPAV?$xr_vector@PAUSlotItem@CDetailManager@@V?$xalloc@PAUSlotItem@CDetailManager@@@@@@AAPAV3@@Z ; std::_Normal_allocator_traits<xalloc<xr_vector<CDetailManager::SlotItem *,xalloc<CDetailManager::SlotItem *> > *> >::construct<xr_vector<CDetailManager::SlotItem *,xalloc<CDetailManager::SlotItem *> > *,xr_vector<CDetailManager::SlotItem *,xalloc<CDetailManager::SlotItem *> > * &>
PUBLIC	??$forward@AAPAV?$xr_vector@PAUSlotItem@CDetailManager@@V?$xalloc@PAUSlotItem@CDetailManager@@@@@@@std@@YAAAPAV?$xr_vector@PAUSlotItem@CDetailManager@@V?$xalloc@PAUSlotItem@CDetailManager@@@@@@AAPAV1@@Z ; std::forward<xr_vector<CDetailManager::SlotItem *,xalloc<CDetailManager::SlotItem *> > * &>
PUBLIC	??$_Emplace_back@AAPAV?$xr_vector@PAUSlotItem@CDetailManager@@V?$xalloc@PAUSlotItem@CDetailManager@@@@@@@?$_Uninitialized_backout_al@V?$xalloc@PAV?$xr_vector@PAUSlotItem@CDetailManager@@V?$xalloc@PAUSlotItem@CDetailManager@@@@@@@@@std@@QAEXAAPAV?$xr_vector@PAUSlotItem@CDetailManager@@V?$xalloc@PAUSlotItem@CDetailManager@@@@@@@Z ; std::_Uninitialized_backout_al<xalloc<xr_vector<CDetailManager::SlotItem *,xalloc<CDetailManager::SlotItem *> > *> >::_Emplace_back<xr_vector<CDetailManager::SlotItem *,xalloc<CDetailManager::SlotItem *> > * &>
PUBLIC	??$_Uninitialized_copy@PAPAV?$xr_vector@PAUSlotItem@CDetailManager@@V?$xalloc@PAUSlotItem@CDetailManager@@@@@@V?$xalloc@PAV?$xr_vector@PAUSlotItem@CDetailManager@@V?$xalloc@PAUSlotItem@CDetailManager@@@@@@@@@std@@YAPAPAV?$xr_vector@PAUSlotItem@CDetailManager@@V?$xalloc@PAUSlotItem@CDetailManager@@@@@@QAPAV1@0PAPAV1@AAV?$xalloc@PAV?$xr_vector@PAUSlotItem@CDetailManager@@V?$xalloc@PAUSlotItem@CDetailManager@@@@@@@@@Z ; std::_Uninitialized_copy<xr_vector<CDetailManager::SlotItem *,xalloc<CDetailManager::SlotItem *> > * *,xalloc<xr_vector<CDetailManager::SlotItem *,xalloc<CDetailManager::SlotItem *> > *> >
PUBLIC	??$forward@V?$xalloc@PAV?$xr_vector@PAUSlotItem@CDetailManager@@V?$xalloc@PAUSlotItem@CDetailManager@@@@@@@@@std@@YA$$QAV?$xalloc@PAV?$xr_vector@PAUSlotItem@CDetailManager@@V?$xalloc@PAUSlotItem@CDetailManager@@@@@@@@AAV1@@Z ; std::forward<xalloc<xr_vector<CDetailManager::SlotItem *,xalloc<CDetailManager::SlotItem *> > *> >
PUBLIC	??$_Ucopy@PAPAV?$xr_vector@PAUSlotItem@CDetailManager@@V?$xalloc@PAUSlotItem@CDetailManager@@@@@@@?$vector@PAV?$xr_vector@PAUSlotItem@CDetailManager@@V?$xalloc@PAUSlotItem@CDetailManager@@@@@@V?$xalloc@PAV?$xr_vector@PAUSlotItem@CDetailManager@@V?$xalloc@PAUSlotItem@CDetailManager@@@@@@@@@std@@AAEPAPAV?$xr_vector@PAUSlotItem@CDetailManager@@V?$xalloc@PAUSlotItem@CDetailManager@@@@@@PAPAV2@00@Z ; std::vector<xr_vector<CDetailManager::SlotItem *,xalloc<CDetailManager::SlotItem *> > *,xalloc<xr_vector<CDetailManager::SlotItem *,xalloc<CDetailManager::SlotItem *> > *> >::_Ucopy<xr_vector<CDetailManager::SlotItem *,xalloc<CDetailManager::SlotItem *> > * *>
PUBLIC	??$?0V?$xalloc@PAV?$xr_vector@PAUSlotItem@CDetailManager@@V?$xalloc@PAUSlotItem@CDetailManager@@@@@@@@$$V@?$_Compressed_pair@V?$xalloc@PAV?$xr_vector@PAUSlotItem@CDetailManager@@V?$xalloc@PAUSlotItem@CDetailManager@@@@@@@@V?$_Vector_val@U?$_Simple_types@PAV?$xr_vector@PAUSlotItem@CDetailManager@@V?$xalloc@PAUSlotItem@CDetailManager@@@@@@@std@@@std@@$00@std@@QAE@U_One_then_variadic_args_t@1@$$QAV?$xalloc@PAV?$xr_vector@PAUSlotItem@CDetailManager@@V?$xalloc@PAUSlotItem@CDetailManager@@@@@@@@@Z ; std::_Compressed_pair<xalloc<xr_vector<CDetailManager::SlotItem *,xalloc<CDetailManager::SlotItem *> > *>,std::_Vector_val<std::_Simple_types<xr_vector<CDetailManager::SlotItem *,xalloc<CDetailManager::SlotItem *> > *> >,1>::_Compressed_pair<xalloc<xr_vector<CDetailManager::SlotItem *,xalloc<CDetailManager::SlotItem *> > *>,std::_Vector_val<std::_Simple_types<xr_vector<CDetailManager::SlotItem *,xalloc<CDetailManager::SlotItem *> > *> >,1><xalloc<xr_vector<CDetailManager::SlotItem *,xalloc<CDetailManager::SlotItem *> > *> >
PUBLIC	??0?$xalloc@PAV?$xr_vector@PAUSlotItem@CDetailManager@@V?$xalloc@PAUSlotItem@CDetailManager@@@@@@@@QAE@ABV0@@Z ; xalloc<xr_vector<CDetailManager::SlotItem *,xalloc<CDetailManager::SlotItem *> > *>::xalloc<xr_vector<CDetailManager::SlotItem *,xalloc<CDetailManager::SlotItem *> > *>
PUBLIC	?select_on_container_copy_construction@?$_Normal_allocator_traits@V?$xalloc@PAV?$xr_vector@PAUSlotItem@CDetailManager@@V?$xalloc@PAUSlotItem@CDetailManager@@@@@@@@@std@@SA?AV?$xalloc@PAV?$xr_vector@PAUSlotItem@CDetailManager@@V?$xalloc@PAUSlotItem@CDetailManager@@@@@@@@ABV3@@Z ; std::_Normal_allocator_traits<xalloc<xr_vector<CDetailManager::SlotItem *,xalloc<CDetailManager::SlotItem *> > *> >::select_on_container_copy_construction
PUBLIC	?_Buy_raw@?$vector@PAV?$xr_vector@PAUSlotItem@CDetailManager@@V?$xalloc@PAUSlotItem@CDetailManager@@@@@@V?$xalloc@PAV?$xr_vector@PAUSlotItem@CDetailManager@@V?$xalloc@PAUSlotItem@CDetailManager@@@@@@@@@std@@AAEXI@Z ; std::vector<xr_vector<CDetailManager::SlotItem *,xalloc<CDetailManager::SlotItem *> > *,xalloc<xr_vector<CDetailManager::SlotItem *,xalloc<CDetailManager::SlotItem *> > *> >::_Buy_raw
PUBLIC	??1?$_Tidy_guard@V?$vector@PAV?$xr_vector@PAUSlotItem@CDetailManager@@V?$xalloc@PAUSlotItem@CDetailManager@@@@@@V?$xalloc@PAV?$xr_vector@PAUSlotItem@CDetailManager@@V?$xalloc@PAUSlotItem@CDetailManager@@@@@@@@@std@@@std@@QAE@XZ ; std::_Tidy_guard<std::vector<xr_vector<CDetailManager::SlotItem *,xalloc<CDetailManager::SlotItem *> > *,xalloc<xr_vector<CDetailManager::SlotItem *,xalloc<CDetailManager::SlotItem *> > *> > >::~_Tidy_guard<std::vector<xr_vector<CDetailManager::SlotItem *,xalloc<CDetailManager::SlotItem *> > *,xalloc<xr_vector<CDetailManager::SlotItem *,xalloc<CDetailManager::SlotItem *> > *> > >
PUBLIC	??0?$vector@PAV?$xr_vector@PAUSlotItem@CDetailManager@@V?$xalloc@PAUSlotItem@CDetailManager@@@@@@V?$xalloc@PAV?$xr_vector@PAUSlotItem@CDetailManager@@V?$xalloc@PAUSlotItem@CDetailManager@@@@@@@@@std@@QAE@ABV01@@Z ; std::vector<xr_vector<CDetailManager::SlotItem *,xalloc<CDetailManager::SlotItem *> > *,xalloc<xr_vector<CDetailManager::SlotItem *,xalloc<CDetailManager::SlotItem *> > *> >::vector<xr_vector<CDetailManager::SlotItem *,xalloc<CDetailManager::SlotItem *> > *,xalloc<xr_vector<CDetailManager::SlotItem *,xalloc<CDetailManager::SlotItem *> > *> >
PUBLIC	??0?$xr_vector@PAV?$xr_vector@PAUSlotItem@CDetailManager@@V?$xalloc@PAUSlotItem@CDetailManager@@@@@@V?$xalloc@PAV?$xr_vector@PAUSlotItem@CDetailManager@@V?$xalloc@PAUSlotItem@CDetailManager@@@@@@@@@@QAE@ABV0@@Z ; xr_vector<xr_vector<CDetailManager::SlotItem *,xalloc<CDetailManager::SlotItem *> > *,xalloc<xr_vector<CDetailManager::SlotItem *,xalloc<CDetailManager::SlotItem *> > *> >::xr_vector<xr_vector<CDetailManager::SlotItem *,xalloc<CDetailManager::SlotItem *> > *,xalloc<xr_vector<CDetailManager::SlotItem *,xalloc<CDetailManager::SlotItem *> > *> >
PUBLIC	?construct@?$xalloc@V?$xr_vector@PAV?$xr_vector@PAUSlotItem@CDetailManager@@V?$xalloc@PAUSlotItem@CDetailManager@@@@@@V?$xalloc@PAV?$xr_vector@PAUSlotItem@CDetailManager@@V?$xalloc@PAUSlotItem@CDetailManager@@@@@@@@@@@@QAEXPAV?$xr_vector@PAV?$xr_vector@PAUSlotItem@CDetailManager@@V?$xalloc@PAUSlotItem@CDetailManager@@@@@@V?$xalloc@PAV?$xr_vector@PAUSlotItem@CDetailManager@@V?$xalloc@PAUSlotItem@CDetailManager@@@@@@@@@@ABV2@@Z ; xalloc<xr_vector<xr_vector<CDetailManager::SlotItem *,xalloc<CDetailManager::SlotItem *> > *,xalloc<xr_vector<CDetailManager::SlotItem *,xalloc<CDetailManager::SlotItem *> > *> > >::construct
PUBLIC	??0?$xalloc@PAV?$xr_vector@PAUSlotItem@CDetailManager@@V?$xalloc@PAUSlotItem@CDetailManager@@@@@@@@QAE@XZ ; xalloc<xr_vector<CDetailManager::SlotItem *,xalloc<CDetailManager::SlotItem *> > *>::xalloc<xr_vector<CDetailManager::SlotItem *,xalloc<CDetailManager::SlotItem *> > *>
PUBLIC	??0?$_Vector_val@U?$_Simple_types@PAV?$xr_vector@PAUSlotItem@CDetailManager@@V?$xalloc@PAUSlotItem@CDetailManager@@@@@@@std@@@std@@QAE@XZ ; std::_Vector_val<std::_Simple_types<xr_vector<CDetailManager::SlotItem *,xalloc<CDetailManager::SlotItem *> > *> >::_Vector_val<std::_Simple_types<xr_vector<CDetailManager::SlotItem *,xalloc<CDetailManager::SlotItem *> > *> >
PUBLIC	??$?0$$V@?$_Compressed_pair@V?$xalloc@PAV?$xr_vector@PAUSlotItem@CDetailManager@@V?$xalloc@PAUSlotItem@CDetailManager@@@@@@@@V?$_Vector_val@U?$_Simple_types@PAV?$xr_vector@PAUSlotItem@CDetailManager@@V?$xalloc@PAUSlotItem@CDetailManager@@@@@@@std@@@std@@$00@std@@QAE@U_Zero_then_variadic_args_t@1@@Z ; std::_Compressed_pair<xalloc<xr_vector<CDetailManager::SlotItem *,xalloc<CDetailManager::SlotItem *> > *>,std::_Vector_val<std::_Simple_types<xr_vector<CDetailManager::SlotItem *,xalloc<CDetailManager::SlotItem *> > *> >,1>::_Compressed_pair<xalloc<xr_vector<CDetailManager::SlotItem *,xalloc<CDetailManager::SlotItem *> > *>,std::_Vector_val<std::_Simple_types<xr_vector<CDetailManager::SlotItem *,xalloc<CDetailManager::SlotItem *> > *> >,1><>
PUBLIC	??$construct@V?$xr_vector@PAV?$xr_vector@PAUSlotItem@CDetailManager@@V?$xalloc@PAUSlotItem@CDetailManager@@@@@@V?$xalloc@PAV?$xr_vector@PAUSlotItem@CDetailManager@@V?$xalloc@PAUSlotItem@CDetailManager@@@@@@@@@@V1@@?$_Normal_allocator_traits@V?$xalloc@V?$xr_vector@PAV?$xr_vector@PAUSlotItem@CDetailManager@@V?$xalloc@PAUSlotItem@CDetailManager@@@@@@V?$xalloc@PAV?$xr_vector@PAUSlotItem@CDetailManager@@V?$xalloc@PAUSlotItem@CDetailManager@@@@@@@@@@@@@std@@SAXAAV?$xalloc@V?$xr_vector@PAV?$xr_vector@PAUSlotItem@CDetailManager@@V?$xalloc@PAUSlotItem@CDetailManager@@@@@@V?$xalloc@PAV?$xr_vector@PAUSlotItem@CDetailManager@@V?$xalloc@PAUSlotItem@CDetailManager@@@@@@@@@@@@PAV?$xr_vector@PAV?$xr_vector@PAUSlotItem@CDetailManager@@V?$xalloc@PAUSlotItem@CDetailManager@@@@@@V?$xalloc@PAV?$xr_vector@PAUSlotItem@CDetailManager@@V?$xalloc@PAUSlotItem@CDetailManager@@@@@@@@@@$$QAV3@@Z ; std::_Normal_allocator_traits<xalloc<xr_vector<xr_vector<CDetailManager::SlotItem *,xalloc<CDetailManager::SlotItem *> > *,xalloc<xr_vector<CDetailManager::SlotItem *,xalloc<CDetailManager::SlotItem *> > *> > > >::construct<xr_vector<xr_vector<CDetailManager::SlotItem *,xalloc<CDetailManager::SlotItem *> > *,xalloc<xr_vector<CDetailManager::SlotItem *,xalloc<CDetailManager::SlotItem *> > *> >,xr_vector<xr_vector<CDetailManager::SlotItem *,xalloc<CDetailManager::SlotItem *> > *,xalloc<xr_vector<CDetailManager::SlotItem *,xalloc<CDetailManager::SlotItem *> > *> > >
PUBLIC	??$forward@V?$xr_vector@PAV?$xr_vector@PAUSlotItem@CDetailManager@@V?$xalloc@PAUSlotItem@CDetailManager@@@@@@V?$xalloc@PAV?$xr_vector@PAUSlotItem@CDetailManager@@V?$xalloc@PAUSlotItem@CDetailManager@@@@@@@@@@@std@@YA$$QAV?$xr_vector@PAV?$xr_vector@PAUSlotItem@CDetailManager@@V?$xalloc@PAUSlotItem@CDetailManager@@@@@@V?$xalloc@PAV?$xr_vector@PAUSlotItem@CDetailManager@@V?$xalloc@PAUSlotItem@CDetailManager@@@@@@@@@@AAV1@@Z ; std::forward<xr_vector<xr_vector<CDetailManager::SlotItem *,xalloc<CDetailManager::SlotItem *> > *,xalloc<xr_vector<CDetailManager::SlotItem *,xalloc<CDetailManager::SlotItem *> > *> > >
PUBLIC	?_Tidy@?$vector@PAV?$xr_vector@PAUSlotItem@CDetailManager@@V?$xalloc@PAUSlotItem@CDetailManager@@@@@@V?$xalloc@PAV?$xr_vector@PAUSlotItem@CDetailManager@@V?$xalloc@PAUSlotItem@CDetailManager@@@@@@@@@std@@AAEXXZ ; std::vector<xr_vector<CDetailManager::SlotItem *,xalloc<CDetailManager::SlotItem *> > *,xalloc<xr_vector<CDetailManager::SlotItem *,xalloc<CDetailManager::SlotItem *> > *> >::_Tidy
PUBLIC	??0?$vector@PAV?$xr_vector@PAUSlotItem@CDetailManager@@V?$xalloc@PAUSlotItem@CDetailManager@@@@@@V?$xalloc@PAV?$xr_vector@PAUSlotItem@CDetailManager@@V?$xalloc@PAUSlotItem@CDetailManager@@@@@@@@@std@@QAE@XZ ; std::vector<xr_vector<CDetailManager::SlotItem *,xalloc<CDetailManager::SlotItem *> > *,xalloc<xr_vector<CDetailManager::SlotItem *,xalloc<CDetailManager::SlotItem *> > *> >::vector<xr_vector<CDetailManager::SlotItem *,xalloc<CDetailManager::SlotItem *> > *,xalloc<xr_vector<CDetailManager::SlotItem *,xalloc<CDetailManager::SlotItem *> > *> >
PUBLIC	??1?$vector@PAV?$xr_vector@PAUSlotItem@CDetailManager@@V?$xalloc@PAUSlotItem@CDetailManager@@@@@@V?$xalloc@PAV?$xr_vector@PAUSlotItem@CDetailManager@@V?$xalloc@PAUSlotItem@CDetailManager@@@@@@@@@std@@QAE@XZ ; std::vector<xr_vector<CDetailManager::SlotItem *,xalloc<CDetailManager::SlotItem *> > *,xalloc<xr_vector<CDetailManager::SlotItem *,xalloc<CDetailManager::SlotItem *> > *> >::~vector<xr_vector<CDetailManager::SlotItem *,xalloc<CDetailManager::SlotItem *> > *,xalloc<xr_vector<CDetailManager::SlotItem *,xalloc<CDetailManager::SlotItem *> > *> >
PUBLIC	??0?$xr_vector@PAV?$xr_vector@PAUSlotItem@CDetailManager@@V?$xalloc@PAUSlotItem@CDetailManager@@@@@@V?$xalloc@PAV?$xr_vector@PAUSlotItem@CDetailManager@@V?$xalloc@PAUSlotItem@CDetailManager@@@@@@@@@@QAE@XZ ; xr_vector<xr_vector<CDetailManager::SlotItem *,xalloc<CDetailManager::SlotItem *> > *,xalloc<xr_vector<CDetailManager::SlotItem *,xalloc<CDetailManager::SlotItem *> > *> >::xr_vector<xr_vector<CDetailManager::SlotItem *,xalloc<CDetailManager::SlotItem *> > *,xalloc<xr_vector<CDetailManager::SlotItem *,xalloc<CDetailManager::SlotItem *> > *> >
PUBLIC	??$_Destroy_in_place@PAPAV?$xr_vector@PAUSlotItem@CDetailManager@@V?$xalloc@PAUSlotItem@CDetailManager@@@@@@@std@@YAXAAPAPAV?$xr_vector@PAUSlotItem@CDetailManager@@V?$xalloc@PAUSlotItem@CDetailManager@@@@@@@Z ; std::_Destroy_in_place<xr_vector<CDetailManager::SlotItem *,xalloc<CDetailManager::SlotItem *> > * *>
PUBLIC	??$_Emplace_back@V?$xr_vector@PAV?$xr_vector@PAUSlotItem@CDetailManager@@V?$xalloc@PAUSlotItem@CDetailManager@@@@@@V?$xalloc@PAV?$xr_vector@PAUSlotItem@CDetailManager@@V?$xalloc@PAUSlotItem@CDetailManager@@@@@@@@@@@?$_Uninitialized_backout_al@V?$xalloc@V?$xr_vector@PAV?$xr_vector@PAUSlotItem@CDetailManager@@V?$xalloc@PAUSlotItem@CDetailManager@@@@@@V?$xalloc@PAV?$xr_vector@PAUSlotItem@CDetailManager@@V?$xalloc@PAUSlotItem@CDetailManager@@@@@@@@@@@@@std@@QAEX$$QAV?$xr_vector@PAV?$xr_vector@PAUSlotItem@CDetailManager@@V?$xalloc@PAUSlotItem@CDetailManager@@@@@@V?$xalloc@PAV?$xr_vector@PAUSlotItem@CDetailManager@@V?$xalloc@PAUSlotItem@CDetailManager@@@@@@@@@@@Z ; std::_Uninitialized_backout_al<xalloc<xr_vector<xr_vector<CDetailManager::SlotItem *,xalloc<CDetailManager::SlotItem *> > *,xalloc<xr_vector<CDetailManager::SlotItem *,xalloc<CDetailManager::SlotItem *> > *> > > >::_Emplace_back<xr_vector<xr_vector<CDetailManager::SlotItem *,xalloc<CDetailManager::SlotItem *> > *,xalloc<xr_vector<CDetailManager::SlotItem *,xalloc<CDetailManager::SlotItem *> > *> > >
PUBLIC	??$move@AAV?$xr_vector@PAV?$xr_vector@PAUSlotItem@CDetailManager@@V?$xalloc@PAUSlotItem@CDetailManager@@@@@@V?$xalloc@PAV?$xr_vector@PAUSlotItem@CDetailManager@@V?$xalloc@PAUSlotItem@CDetailManager@@@@@@@@@@@std@@YA$$QAV?$xr_vector@PAV?$xr_vector@PAUSlotItem@CDetailManager@@V?$xalloc@PAUSlotItem@CDetailManager@@@@@@V?$xalloc@PAV?$xr_vector@PAUSlotItem@CDetailManager@@V?$xalloc@PAUSlotItem@CDetailManager@@@@@@@@@@AAV1@@Z ; std::move<xr_vector<xr_vector<CDetailManager::SlotItem *,xalloc<CDetailManager::SlotItem *> > *,xalloc<xr_vector<CDetailManager::SlotItem *,xalloc<CDetailManager::SlotItem *> > *> > &>
PUBLIC	??$construct@PAUSlotItem@CDetailManager@@PAU12@@?$_Normal_allocator_traits@V?$xalloc@PAUSlotItem@CDetailManager@@@@@std@@SAXAAV?$xalloc@PAUSlotItem@CDetailManager@@@@PAPAUSlotItem@CDetailManager@@$$QAPAU34@@Z ; std::_Normal_allocator_traits<xalloc<CDetailManager::SlotItem *> >::construct<CDetailManager::SlotItem *,CDetailManager::SlotItem *>
PUBLIC	??$forward@PAUSlotItem@CDetailManager@@@std@@YA$$QAPAUSlotItem@CDetailManager@@AAPAU12@@Z ; std::forward<CDetailManager::SlotItem *>
PUBLIC	??$construct@V?$xr_vector@PAV?$xr_vector@PAUSlotItem@CDetailManager@@V?$xalloc@PAUSlotItem@CDetailManager@@@@@@V?$xalloc@PAV?$xr_vector@PAUSlotItem@CDetailManager@@V?$xalloc@PAUSlotItem@CDetailManager@@@@@@@@@@$$V@?$_Normal_allocator_traits@V?$xalloc@V?$xr_vector@PAV?$xr_vector@PAUSlotItem@CDetailManager@@V?$xalloc@PAUSlotItem@CDetailManager@@@@@@V?$xalloc@PAV?$xr_vector@PAUSlotItem@CDetailManager@@V?$xalloc@PAUSlotItem@CDetailManager@@@@@@@@@@@@@std@@SAXAAV?$xalloc@V?$xr_vector@PAV?$xr_vector@PAUSlotItem@CDetailManager@@V?$xalloc@PAUSlotItem@CDetailManager@@@@@@V?$xalloc@PAV?$xr_vector@PAUSlotItem@CDetailManager@@V?$xalloc@PAUSlotItem@CDetailManager@@@@@@@@@@@@PAV?$xr_vector@PAV?$xr_vector@PAUSlotItem@CDetailManager@@V?$xalloc@PAUSlotItem@CDetailManager@@@@@@V?$xalloc@PAV?$xr_vector@PAUSlotItem@CDetailManager@@V?$xalloc@PAUSlotItem@CDetailManager@@@@@@@@@@@Z ; std::_Normal_allocator_traits<xalloc<xr_vector<xr_vector<CDetailManager::SlotItem *,xalloc<CDetailManager::SlotItem *> > *,xalloc<xr_vector<CDetailManager::SlotItem *,xalloc<CDetailManager::SlotItem *> > *> > > >::construct<xr_vector<xr_vector<CDetailManager::SlotItem *,xalloc<CDetailManager::SlotItem *> > *,xalloc<xr_vector<CDetailManager::SlotItem *,xalloc<CDetailManager::SlotItem *> > *> > >
PUBLIC	?destroy@?$xalloc@PAV?$xr_vector@PAUSlotItem@CDetailManager@@V?$xalloc@PAUSlotItem@CDetailManager@@@@@@@@QAEXPAPAV?$xr_vector@PAUSlotItem@CDetailManager@@V?$xalloc@PAUSlotItem@CDetailManager@@@@@@@Z ; xalloc<xr_vector<CDetailManager::SlotItem *,xalloc<CDetailManager::SlotItem *> > *>::destroy
PUBLIC	??$_Get_unwrapped@ABQAV?$xr_vector@PAV?$xr_vector@PAUSlotItem@CDetailManager@@V?$xalloc@PAUSlotItem@CDetailManager@@@@@@V?$xalloc@PAV?$xr_vector@PAUSlotItem@CDetailManager@@V?$xalloc@PAUSlotItem@CDetailManager@@@@@@@@@@@std@@YA?A_TABQAV?$xr_vector@PAV?$xr_vector@PAUSlotItem@CDetailManager@@V?$xalloc@PAUSlotItem@CDetailManager@@@@@@V?$xalloc@PAV?$xr_vector@PAUSlotItem@CDetailManager@@V?$xalloc@PAUSlotItem@CDetailManager@@@@@@@@@@@Z ; std::_Get_unwrapped<xr_vector<xr_vector<CDetailManager::SlotItem *,xalloc<CDetailManager::SlotItem *> > *,xalloc<xr_vector<CDetailManager::SlotItem *,xalloc<CDetailManager::SlotItem *> > *> > * const &>
PUBLIC	??$_Uninitialized_move@PAV?$xr_vector@PAV?$xr_vector@PAUSlotItem@CDetailManager@@V?$xalloc@PAUSlotItem@CDetailManager@@@@@@V?$xalloc@PAV?$xr_vector@PAUSlotItem@CDetailManager@@V?$xalloc@PAUSlotItem@CDetailManager@@@@@@@@@@V?$xalloc@V?$xr_vector@PAV?$xr_vector@PAUSlotItem@CDetailManager@@V?$xalloc@PAUSlotItem@CDetailManager@@@@@@V?$xalloc@PAV?$xr_vector@PAUSlotItem@CDetailManager@@V?$xalloc@PAUSlotItem@CDetailManager@@@@@@@@@@@@@std@@YAPAV?$xr_vector@PAV?$xr_vector@PAUSlotItem@CDetailManager@@V?$xalloc@PAUSlotItem@CDetailManager@@@@@@V?$xalloc@PAV?$xr_vector@PAUSlotItem@CDetailManager@@V?$xalloc@PAUSlotItem@CDetailManager@@@@@@@@@@QAV1@0PAV1@AAV?$xalloc@V?$xr_vector@PAV?$xr_vector@PAUSlotItem@CDetailManager@@V?$xalloc@PAUSlotItem@CDetailManager@@@@@@V?$xalloc@PAV?$xr_vector@PAUSlotItem@CDetailManager@@V?$xalloc@PAUSlotItem@CDetailManager@@@@@@@@@@@@@Z ; std::_Uninitialized_move<xr_vector<xr_vector<CDetailManager::SlotItem *,xalloc<CDetailManager::SlotItem *> > *,xalloc<xr_vector<CDetailManager::SlotItem *,xalloc<CDetailManager::SlotItem *> > *> > *,xalloc<xr_vector<xr_vector<CDetailManager::SlotItem *,xalloc<CDetailManager::SlotItem *> > *,xalloc<xr_vector<CDetailManager::SlotItem *,xalloc<CDetailManager::SlotItem *> > *> > > >
PUBLIC	??$xr_alloc@V?$xr_vector@PAV?$xr_vector@PAUSlotItem@CDetailManager@@V?$xalloc@PAUSlotItem@CDetailManager@@@@@@V?$xalloc@PAV?$xr_vector@PAUSlotItem@CDetailManager@@V?$xalloc@PAUSlotItem@CDetailManager@@@@@@@@@@@@YAPAV?$xr_vector@PAV?$xr_vector@PAUSlotItem@CDetailManager@@V?$xalloc@PAUSlotItem@CDetailManager@@@@@@V?$xalloc@PAV?$xr_vector@PAUSlotItem@CDetailManager@@V?$xalloc@PAUSlotItem@CDetailManager@@@@@@@@@@I@Z ; xr_alloc<xr_vector<xr_vector<CDetailManager::SlotItem *,xalloc<CDetailManager::SlotItem *> > *,xalloc<xr_vector<CDetailManager::SlotItem *,xalloc<CDetailManager::SlotItem *> > *> > >
PUBLIC	??$_Destroy_in_place@PAV?$xr_vector@PAV?$xr_vector@PAUSlotItem@CDetailManager@@V?$xalloc@PAUSlotItem@CDetailManager@@@@@@V?$xalloc@PAV?$xr_vector@PAUSlotItem@CDetailManager@@V?$xalloc@PAUSlotItem@CDetailManager@@@@@@@@@@@std@@YAXAAPAV?$xr_vector@PAV?$xr_vector@PAUSlotItem@CDetailManager@@V?$xalloc@PAUSlotItem@CDetailManager@@@@@@V?$xalloc@PAV?$xr_vector@PAUSlotItem@CDetailManager@@V?$xalloc@PAUSlotItem@CDetailManager@@@@@@@@@@@Z ; std::_Destroy_in_place<xr_vector<xr_vector<CDetailManager::SlotItem *,xalloc<CDetailManager::SlotItem *> > *,xalloc<xr_vector<CDetailManager::SlotItem *,xalloc<CDetailManager::SlotItem *> > *> > *>
PUBLIC	??$_Emplace_back@PAUSlotItem@CDetailManager@@@?$_Uninitialized_backout_al@V?$xalloc@PAUSlotItem@CDetailManager@@@@@std@@QAEX$$QAPAUSlotItem@CDetailManager@@@Z ; std::_Uninitialized_backout_al<xalloc<CDetailManager::SlotItem *> >::_Emplace_back<CDetailManager::SlotItem *>
PUBLIC	??$_Emplace_back@$$V@?$_Uninitialized_backout_al@V?$xalloc@V?$xr_vector@PAV?$xr_vector@PAUSlotItem@CDetailManager@@V?$xalloc@PAUSlotItem@CDetailManager@@@@@@V?$xalloc@PAV?$xr_vector@PAUSlotItem@CDetailManager@@V?$xalloc@PAUSlotItem@CDetailManager@@@@@@@@@@@@@std@@QAEXXZ ; std::_Uninitialized_backout_al<xalloc<xr_vector<xr_vector<CDetailManager::SlotItem *,xalloc<CDetailManager::SlotItem *> > *,xalloc<xr_vector<CDetailManager::SlotItem *,xalloc<CDetailManager::SlotItem *> > *> > > >::_Emplace_back<>
PUBLIC	??$_Emplace_back@PAV?$xr_vector@PAUSlotItem@CDetailManager@@V?$xalloc@PAUSlotItem@CDetailManager@@@@@@@?$_Uninitialized_backout_al@V?$xalloc@PAV?$xr_vector@PAUSlotItem@CDetailManager@@V?$xalloc@PAUSlotItem@CDetailManager@@@@@@@@@std@@QAEX$$QAPAV?$xr_vector@PAUSlotItem@CDetailManager@@V?$xalloc@PAUSlotItem@CDetailManager@@@@@@@Z ; std::_Uninitialized_backout_al<xalloc<xr_vector<CDetailManager::SlotItem *,xalloc<CDetailManager::SlotItem *> > *> >::_Emplace_back<xr_vector<CDetailManager::SlotItem *,xalloc<CDetailManager::SlotItem *> > *>
PUBLIC	??$destroy@PAV?$xr_vector@PAUSlotItem@CDetailManager@@V?$xalloc@PAUSlotItem@CDetailManager@@@@@@@?$_Normal_allocator_traits@V?$xalloc@PAV?$xr_vector@PAUSlotItem@CDetailManager@@V?$xalloc@PAUSlotItem@CDetailManager@@@@@@@@@std@@SAXAAV?$xalloc@PAV?$xr_vector@PAUSlotItem@CDetailManager@@V?$xalloc@PAUSlotItem@CDetailManager@@@@@@@@PAPAV?$xr_vector@PAUSlotItem@CDetailManager@@V?$xalloc@PAUSlotItem@CDetailManager@@@@@@@Z ; std::_Normal_allocator_traits<xalloc<xr_vector<CDetailManager::SlotItem *,xalloc<CDetailManager::SlotItem *> > *> >::destroy<xr_vector<CDetailManager::SlotItem *,xalloc<CDetailManager::SlotItem *> > *>
PUBLIC	?max_size@?$xalloc@V?$xr_vector@PAV?$xr_vector@PAUSlotItem@CDetailManager@@V?$xalloc@PAUSlotItem@CDetailManager@@@@@@V?$xalloc@PAV?$xr_vector@PAUSlotItem@CDetailManager@@V?$xalloc@PAUSlotItem@CDetailManager@@@@@@@@@@@@QBEIXZ ; xalloc<xr_vector<xr_vector<CDetailManager::SlotItem *,xalloc<CDetailManager::SlotItem *> > *,xalloc<xr_vector<CDetailManager::SlotItem *,xalloc<CDetailManager::SlotItem *> > *> > >::max_size
PUBLIC	?_Get_first@?$_Compressed_pair@V?$xalloc@V?$xr_vector@PAV?$xr_vector@PAUSlotItem@CDetailManager@@V?$xalloc@PAUSlotItem@CDetailManager@@@@@@V?$xalloc@PAV?$xr_vector@PAUSlotItem@CDetailManager@@V?$xalloc@PAUSlotItem@CDetailManager@@@@@@@@@@@@V?$_Vector_val@U?$_Simple_types@V?$xr_vector@PAV?$xr_vector@PAUSlotItem@CDetailManager@@V?$xalloc@PAUSlotItem@CDetailManager@@@@@@V?$xalloc@PAV?$xr_vector@PAUSlotItem@CDetailManager@@V?$xalloc@PAUSlotItem@CDetailManager@@@@@@@@@@@std@@@std@@$00@std@@QBEABV?$xalloc@V?$xr_vector@PAV?$xr_vector@PAUSlotItem@CDetailManager@@V?$xalloc@PAUSlotItem@CDetailManager@@@@@@V?$xalloc@PAV?$xr_vector@PAUSlotItem@CDetailManager@@V?$xalloc@PAUSlotItem@CDetailManager@@@@@@@@@@@@XZ ; std::_Compressed_pair<xalloc<xr_vector<xr_vector<CDetailManager::SlotItem *,xalloc<CDetailManager::SlotItem *> > *,xalloc<xr_vector<CDetailManager::SlotItem *,xalloc<CDetailManager::SlotItem *> > *> > >,std::_Vector_val<std::_Simple_types<xr_vector<xr_vector<CDetailManager::SlotItem *,xalloc<CDetailManager::SlotItem *> > *,xalloc<xr_vector<CDetailManager::SlotItem *,xalloc<CDetailManager::SlotItem *> > *> > > >,1>::_Get_first
PUBLIC	?max_size@?$_Normal_allocator_traits@V?$xalloc@V?$xr_vector@PAV?$xr_vector@PAUSlotItem@CDetailManager@@V?$xalloc@PAUSlotItem@CDetailManager@@@@@@V?$xalloc@PAV?$xr_vector@PAUSlotItem@CDetailManager@@V?$xalloc@PAUSlotItem@CDetailManager@@@@@@@@@@@@@std@@SAIABV?$xalloc@V?$xr_vector@PAV?$xr_vector@PAUSlotItem@CDetailManager@@V?$xalloc@PAUSlotItem@CDetailManager@@@@@@V?$xalloc@PAV?$xr_vector@PAUSlotItem@CDetailManager@@V?$xalloc@PAUSlotItem@CDetailManager@@@@@@@@@@@@@Z ; std::_Normal_allocator_traits<xalloc<xr_vector<xr_vector<CDetailManager::SlotItem *,xalloc<CDetailManager::SlotItem *> > *,xalloc<xr_vector<CDetailManager::SlotItem *,xalloc<CDetailManager::SlotItem *> > *> > > >::max_size
PUBLIC	?capacity@?$vector@V?$xr_vector@PAV?$xr_vector@PAUSlotItem@CDetailManager@@V?$xalloc@PAUSlotItem@CDetailManager@@@@@@V?$xalloc@PAV?$xr_vector@PAUSlotItem@CDetailManager@@V?$xalloc@PAUSlotItem@CDetailManager@@@@@@@@@@V?$xalloc@V?$xr_vector@PAV?$xr_vector@PAUSlotItem@CDetailManager@@V?$xalloc@PAUSlotItem@CDetailManager@@@@@@V?$xalloc@PAV?$xr_vector@PAUSlotItem@CDetailManager@@V?$xalloc@PAUSlotItem@CDetailManager@@@@@@@@@@@@@std@@QBEIXZ ; std::vector<xr_vector<xr_vector<CDetailManager::SlotItem *,xalloc<CDetailManager::SlotItem *> > *,xalloc<xr_vector<CDetailManager::SlotItem *,xalloc<CDetailManager::SlotItem *> > *> >,xalloc<xr_vector<xr_vector<CDetailManager::SlotItem *,xalloc<CDetailManager::SlotItem *> > *,xalloc<xr_vector<CDetailManager::SlotItem *,xalloc<CDetailManager::SlotItem *> > *> > > >::capacity
PUBLIC	?_Umove_if_noexcept1@?$vector@V?$xr_vector@PAV?$xr_vector@PAUSlotItem@CDetailManager@@V?$xalloc@PAUSlotItem@CDetailManager@@@@@@V?$xalloc@PAV?$xr_vector@PAUSlotItem@CDetailManager@@V?$xalloc@PAUSlotItem@CDetailManager@@@@@@@@@@V?$xalloc@V?$xr_vector@PAV?$xr_vector@PAUSlotItem@CDetailManager@@V?$xalloc@PAUSlotItem@CDetailManager@@@@@@V?$xalloc@PAV?$xr_vector@PAUSlotItem@CDetailManager@@V?$xalloc@PAUSlotItem@CDetailManager@@@@@@@@@@@@@std@@AAEXPAV?$xr_vector@PAV?$xr_vector@PAUSlotItem@CDetailManager@@V?$xalloc@PAUSlotItem@CDetailManager@@@@@@V?$xalloc@PAV?$xr_vector@PAUSlotItem@CDetailManager@@V?$xalloc@PAUSlotItem@CDetailManager@@@@@@@@@@00U?$integral_constant@_N$00@2@@Z ; std::vector<xr_vector<xr_vector<CDetailManager::SlotItem *,xalloc<CDetailManager::SlotItem *> > *,xalloc<xr_vector<CDetailManager::SlotItem *,xalloc<CDetailManager::SlotItem *> > *> >,xalloc<xr_vector<xr_vector<CDetailManager::SlotItem *,xalloc<CDetailManager::SlotItem *> > *,xalloc<xr_vector<CDetailManager::SlotItem *,xalloc<CDetailManager::SlotItem *> > *> > > >::_Umove_if_noexcept1
PUBLIC	?_Getal@?$vector@V?$xr_vector@PAV?$xr_vector@PAUSlotItem@CDetailManager@@V?$xalloc@PAUSlotItem@CDetailManager@@@@@@V?$xalloc@PAV?$xr_vector@PAUSlotItem@CDetailManager@@V?$xalloc@PAUSlotItem@CDetailManager@@@@@@@@@@V?$xalloc@V?$xr_vector@PAV?$xr_vector@PAUSlotItem@CDetailManager@@V?$xalloc@PAUSlotItem@CDetailManager@@@@@@V?$xalloc@PAV?$xr_vector@PAUSlotItem@CDetailManager@@V?$xalloc@PAUSlotItem@CDetailManager@@@@@@@@@@@@@std@@ABEABV?$xalloc@V?$xr_vector@PAV?$xr_vector@PAUSlotItem@CDetailManager@@V?$xalloc@PAUSlotItem@CDetailManager@@@@@@V?$xalloc@PAV?$xr_vector@PAUSlotItem@CDetailManager@@V?$xalloc@PAUSlotItem@CDetailManager@@@@@@@@@@@@XZ ; std::vector<xr_vector<xr_vector<CDetailManager::SlotItem *,xalloc<CDetailManager::SlotItem *> > *,xalloc<xr_vector<CDetailManager::SlotItem *,xalloc<CDetailManager::SlotItem *> > *> >,xalloc<xr_vector<xr_vector<CDetailManager::SlotItem *,xalloc<CDetailManager::SlotItem *> > *,xalloc<xr_vector<CDetailManager::SlotItem *,xalloc<CDetailManager::SlotItem *> > *> > > >::_Getal
PUBLIC	?allocate@?$xalloc@V?$xr_vector@PAV?$xr_vector@PAUSlotItem@CDetailManager@@V?$xalloc@PAUSlotItem@CDetailManager@@@@@@V?$xalloc@PAV?$xr_vector@PAUSlotItem@CDetailManager@@V?$xalloc@PAUSlotItem@CDetailManager@@@@@@@@@@@@QBEPAV?$xr_vector@PAV?$xr_vector@PAUSlotItem@CDetailManager@@V?$xalloc@PAUSlotItem@CDetailManager@@@@@@V?$xalloc@PAV?$xr_vector@PAUSlotItem@CDetailManager@@V?$xalloc@PAUSlotItem@CDetailManager@@@@@@@@@@IPBX@Z ; xalloc<xr_vector<xr_vector<CDetailManager::SlotItem *,xalloc<CDetailManager::SlotItem *> > *,xalloc<xr_vector<CDetailManager::SlotItem *,xalloc<CDetailManager::SlotItem *> > *> > >::allocate
PUBLIC	?destroy@?$xalloc@V?$xr_vector@PAV?$xr_vector@PAUSlotItem@CDetailManager@@V?$xalloc@PAUSlotItem@CDetailManager@@@@@@V?$xalloc@PAV?$xr_vector@PAUSlotItem@CDetailManager@@V?$xalloc@PAUSlotItem@CDetailManager@@@@@@@@@@@@QAEXPAV?$xr_vector@PAV?$xr_vector@PAUSlotItem@CDetailManager@@V?$xalloc@PAUSlotItem@CDetailManager@@@@@@V?$xalloc@PAV?$xr_vector@PAUSlotItem@CDetailManager@@V?$xalloc@PAUSlotItem@CDetailManager@@@@@@@@@@@Z ; xalloc<xr_vector<xr_vector<CDetailManager::SlotItem *,xalloc<CDetailManager::SlotItem *> > *,xalloc<xr_vector<CDetailManager::SlotItem *,xalloc<CDetailManager::SlotItem *> > *> > >::destroy
PUBLIC	?max_size@?$vector@V?$xr_vector@PAV?$xr_vector@PAUSlotItem@CDetailManager@@V?$xalloc@PAUSlotItem@CDetailManager@@@@@@V?$xalloc@PAV?$xr_vector@PAUSlotItem@CDetailManager@@V?$xalloc@PAUSlotItem@CDetailManager@@@@@@@@@@V?$xalloc@V?$xr_vector@PAV?$xr_vector@PAUSlotItem@CDetailManager@@V?$xalloc@PAUSlotItem@CDetailManager@@@@@@V?$xalloc@PAV?$xr_vector@PAUSlotItem@CDetailManager@@V?$xalloc@PAUSlotItem@CDetailManager@@@@@@@@@@@@@std@@QBEIXZ ; std::vector<xr_vector<xr_vector<CDetailManager::SlotItem *,xalloc<CDetailManager::SlotItem *> > *,xalloc<xr_vector<CDetailManager::SlotItem *,xalloc<CDetailManager::SlotItem *> > *> >,xalloc<xr_vector<xr_vector<CDetailManager::SlotItem *,xalloc<CDetailManager::SlotItem *> > *,xalloc<xr_vector<CDetailManager::SlotItem *,xalloc<CDetailManager::SlotItem *> > *> > > >::max_size
PUBLIC	?_Umove_if_noexcept@?$vector@V?$xr_vector@PAV?$xr_vector@PAUSlotItem@CDetailManager@@V?$xalloc@PAUSlotItem@CDetailManager@@@@@@V?$xalloc@PAV?$xr_vector@PAUSlotItem@CDetailManager@@V?$xalloc@PAUSlotItem@CDetailManager@@@@@@@@@@V?$xalloc@V?$xr_vector@PAV?$xr_vector@PAUSlotItem@CDetailManager@@V?$xalloc@PAUSlotItem@CDetailManager@@@@@@V?$xalloc@PAV?$xr_vector@PAUSlotItem@CDetailManager@@V?$xalloc@PAUSlotItem@CDetailManager@@@@@@@@@@@@@std@@AAEXPAV?$xr_vector@PAV?$xr_vector@PAUSlotItem@CDetailManager@@V?$xalloc@PAUSlotItem@CDetailManager@@@@@@V?$xalloc@PAV?$xr_vector@PAUSlotItem@CDetailManager@@V?$xalloc@PAUSlotItem@CDetailManager@@@@@@@@@@00@Z ; std::vector<xr_vector<xr_vector<CDetailManager::SlotItem *,xalloc<CDetailManager::SlotItem *> > *,xalloc<xr_vector<CDetailManager::SlotItem *,xalloc<CDetailManager::SlotItem *> > *> >,xalloc<xr_vector<xr_vector<CDetailManager::SlotItem *,xalloc<CDetailManager::SlotItem *> > *,xalloc<xr_vector<CDetailManager::SlotItem *,xalloc<CDetailManager::SlotItem *> > *> > > >::_Umove_if_noexcept
PUBLIC	?_Calculate_growth@?$vector@V?$xr_vector@PAV?$xr_vector@PAUSlotItem@CDetailManager@@V?$xalloc@PAUSlotItem@CDetailManager@@@@@@V?$xalloc@PAV?$xr_vector@PAUSlotItem@CDetailManager@@V?$xalloc@PAUSlotItem@CDetailManager@@@@@@@@@@V?$xalloc@V?$xr_vector@PAV?$xr_vector@PAUSlotItem@CDetailManager@@V?$xalloc@PAUSlotItem@CDetailManager@@@@@@V?$xalloc@PAV?$xr_vector@PAUSlotItem@CDetailManager@@V?$xalloc@PAUSlotItem@CDetailManager@@@@@@@@@@@@@std@@ABEII@Z ; std::vector<xr_vector<xr_vector<CDetailManager::SlotItem *,xalloc<CDetailManager::SlotItem *> > *,xalloc<xr_vector<CDetailManager::SlotItem *,xalloc<CDetailManager::SlotItem *> > *> >,xalloc<xr_vector<xr_vector<CDetailManager::SlotItem *,xalloc<CDetailManager::SlotItem *> > *,xalloc<xr_vector<CDetailManager::SlotItem *,xalloc<CDetailManager::SlotItem *> > *> > > >::_Calculate_growth
PUBLIC	?_Change_array@?$vector@V?$xr_vector@PAV?$xr_vector@PAUSlotItem@CDetailManager@@V?$xalloc@PAUSlotItem@CDetailManager@@@@@@V?$xalloc@PAV?$xr_vector@PAUSlotItem@CDetailManager@@V?$xalloc@PAUSlotItem@CDetailManager@@@@@@@@@@V?$xalloc@V?$xr_vector@PAV?$xr_vector@PAUSlotItem@CDetailManager@@V?$xalloc@PAUSlotItem@CDetailManager@@@@@@V?$xalloc@PAV?$xr_vector@PAUSlotItem@CDetailManager@@V?$xalloc@PAUSlotItem@CDetailManager@@@@@@@@@@@@@std@@AAEXQAV?$xr_vector@PAV?$xr_vector@PAUSlotItem@CDetailManager@@V?$xalloc@PAUSlotItem@CDetailManager@@@@@@V?$xalloc@PAV?$xr_vector@PAUSlotItem@CDetailManager@@V?$xalloc@PAUSlotItem@CDetailManager@@@@@@@@@@II@Z ; std::vector<xr_vector<xr_vector<CDetailManager::SlotItem *,xalloc<CDetailManager::SlotItem *> > *,xalloc<xr_vector<CDetailManager::SlotItem *,xalloc<CDetailManager::SlotItem *> > *> >,xalloc<xr_vector<xr_vector<CDetailManager::SlotItem *,xalloc<CDetailManager::SlotItem *> > *,xalloc<xr_vector<CDetailManager::SlotItem *,xalloc<CDetailManager::SlotItem *> > *> > > >::_Change_array
PUBLIC	?_Xlength@?$vector@V?$xr_vector@PAV?$xr_vector@PAUSlotItem@CDetailManager@@V?$xalloc@PAUSlotItem@CDetailManager@@@@@@V?$xalloc@PAV?$xr_vector@PAUSlotItem@CDetailManager@@V?$xalloc@PAUSlotItem@CDetailManager@@@@@@@@@@V?$xalloc@V?$xr_vector@PAV?$xr_vector@PAUSlotItem@CDetailManager@@V?$xalloc@PAUSlotItem@CDetailManager@@@@@@V?$xalloc@PAV?$xr_vector@PAUSlotItem@CDetailManager@@V?$xalloc@PAUSlotItem@CDetailManager@@@@@@@@@@@@@std@@CAXXZ ; std::vector<xr_vector<xr_vector<CDetailManager::SlotItem *,xalloc<CDetailManager::SlotItem *> > *,xalloc<xr_vector<CDetailManager::SlotItem *,xalloc<CDetailManager::SlotItem *> > *> >,xalloc<xr_vector<xr_vector<CDetailManager::SlotItem *,xalloc<CDetailManager::SlotItem *> > *,xalloc<xr_vector<CDetailManager::SlotItem *,xalloc<CDetailManager::SlotItem *> > *> > > >::_Xlength
PUBLIC	??0?$_Uninitialized_backout_al@V?$xalloc@PAV?$xr_vector@PAUSlotItem@CDetailManager@@V?$xalloc@PAUSlotItem@CDetailManager@@@@@@@@@std@@QAE@PAPAV?$xr_vector@PAUSlotItem@CDetailManager@@V?$xalloc@PAUSlotItem@CDetailManager@@@@@@AAV?$xalloc@PAV?$xr_vector@PAUSlotItem@CDetailManager@@V?$xalloc@PAUSlotItem@CDetailManager@@@@@@@@@Z ; std::_Uninitialized_backout_al<xalloc<xr_vector<CDetailManager::SlotItem *,xalloc<CDetailManager::SlotItem *> > *> >::_Uninitialized_backout_al<xalloc<xr_vector<CDetailManager::SlotItem *,xalloc<CDetailManager::SlotItem *> > *> >
PUBLIC	??1?$_Uninitialized_backout_al@V?$xalloc@PAV?$xr_vector@PAUSlotItem@CDetailManager@@V?$xalloc@PAUSlotItem@CDetailManager@@@@@@@@@std@@QAE@XZ ; std::_Uninitialized_backout_al<xalloc<xr_vector<CDetailManager::SlotItem *,xalloc<CDetailManager::SlotItem *> > *> >::~_Uninitialized_backout_al<xalloc<xr_vector<CDetailManager::SlotItem *,xalloc<CDetailManager::SlotItem *> > *> >
PUBLIC	?_Release@?$_Uninitialized_backout_al@V?$xalloc@PAV?$xr_vector@PAUSlotItem@CDetailManager@@V?$xalloc@PAUSlotItem@CDetailManager@@@@@@@@@std@@QAEPAPAV?$xr_vector@PAUSlotItem@CDetailManager@@V?$xalloc@PAUSlotItem@CDetailManager@@@@@@XZ ; std::_Uninitialized_backout_al<xalloc<xr_vector<CDetailManager::SlotItem *,xalloc<CDetailManager::SlotItem *> > *> >::_Release
PUBLIC	??0?$_Uninitialized_backout_al@V?$xalloc@V?$xr_vector@PAV?$xr_vector@PAUSlotItem@CDetailManager@@V?$xalloc@PAUSlotItem@CDetailManager@@@@@@V?$xalloc@PAV?$xr_vector@PAUSlotItem@CDetailManager@@V?$xalloc@PAUSlotItem@CDetailManager@@@@@@@@@@@@@std@@QAE@PAV?$xr_vector@PAV?$xr_vector@PAUSlotItem@CDetailManager@@V?$xalloc@PAUSlotItem@CDetailManager@@@@@@V?$xalloc@PAV?$xr_vector@PAUSlotItem@CDetailManager@@V?$xalloc@PAUSlotItem@CDetailManager@@@@@@@@@@AAV?$xalloc@V?$xr_vector@PAV?$xr_vector@PAUSlotItem@CDetailManager@@V?$xalloc@PAUSlotItem@CDetailManager@@@@@@V?$xalloc@PAV?$xr_vector@PAUSlotItem@CDetailManager@@V?$xalloc@PAUSlotItem@CDetailManager@@@@@@@@@@@@@Z ; std::_Uninitialized_backout_al<xalloc<xr_vector<xr_vector<CDetailManager::SlotItem *,xalloc<CDetailManager::SlotItem *> > *,xalloc<xr_vector<CDetailManager::SlotItem *,xalloc<CDetailManager::SlotItem *> > *> > > >::_Uninitialized_backout_al<xalloc<xr_vector<xr_vector<CDetailManager::SlotItem *,xalloc<CDetailManager::SlotItem *> > *,xalloc<xr_vector<CDetailManager::SlotItem *,xalloc<CDetailManager::SlotItem *> > *> > > >
PUBLIC	??1?$_Uninitialized_backout_al@V?$xalloc@V?$xr_vector@PAV?$xr_vector@PAUSlotItem@CDetailManager@@V?$xalloc@PAUSlotItem@CDetailManager@@@@@@V?$xalloc@PAV?$xr_vector@PAUSlotItem@CDetailManager@@V?$xalloc@PAUSlotItem@CDetailManager@@@@@@@@@@@@@std@@QAE@XZ ; std::_Uninitialized_backout_al<xalloc<xr_vector<xr_vector<CDetailManager::SlotItem *,xalloc<CDetailManager::SlotItem *> > *,xalloc<xr_vector<CDetailManager::SlotItem *,xalloc<CDetailManager::SlotItem *> > *> > > >::~_Uninitialized_backout_al<xalloc<xr_vector<xr_vector<CDetailManager::SlotItem *,xalloc<CDetailManager::SlotItem *> > *,xalloc<xr_vector<CDetailManager::SlotItem *,xalloc<CDetailManager::SlotItem *> > *> > > >
PUBLIC	?_Release@?$_Uninitialized_backout_al@V?$xalloc@V?$xr_vector@PAV?$xr_vector@PAUSlotItem@CDetailManager@@V?$xalloc@PAUSlotItem@CDetailManager@@@@@@V?$xalloc@PAV?$xr_vector@PAUSlotItem@CDetailManager@@V?$xalloc@PAUSlotItem@CDetailManager@@@@@@@@@@@@@std@@QAEPAV?$xr_vector@PAV?$xr_vector@PAUSlotItem@CDetailManager@@V?$xalloc@PAUSlotItem@CDetailManager@@@@@@V?$xalloc@PAV?$xr_vector@PAUSlotItem@CDetailManager@@V?$xalloc@PAUSlotItem@CDetailManager@@@@@@@@@@XZ ; std::_Uninitialized_backout_al<xalloc<xr_vector<xr_vector<CDetailManager::SlotItem *,xalloc<CDetailManager::SlotItem *> > *,xalloc<xr_vector<CDetailManager::SlotItem *,xalloc<CDetailManager::SlotItem *> > *> > > >::_Release
PUBLIC	??0?$_Uninitialized_backout_al@V?$xalloc@PAUSlotItem@CDetailManager@@@@@std@@QAE@PAPAUSlotItem@CDetailManager@@AAV?$xalloc@PAUSlotItem@CDetailManager@@@@@Z ; std::_Uninitialized_backout_al<xalloc<CDetailManager::SlotItem *> >::_Uninitialized_backout_al<xalloc<CDetailManager::SlotItem *> >
PUBLIC	??1?$_Uninitialized_backout_al@V?$xalloc@PAUSlotItem@CDetailManager@@@@@std@@QAE@XZ ; std::_Uninitialized_backout_al<xalloc<CDetailManager::SlotItem *> >::~_Uninitialized_backout_al<xalloc<CDetailManager::SlotItem *> >
PUBLIC	?_Release@?$_Uninitialized_backout_al@V?$xalloc@PAUSlotItem@CDetailManager@@@@@std@@QAEPAPAUSlotItem@CDetailManager@@XZ ; std::_Uninitialized_backout_al<xalloc<CDetailManager::SlotItem *> >::_Release
PUBLIC	??$xr_alloc@PAUSlotItem@CDetailManager@@@@YAPAPAUSlotItem@CDetailManager@@I@Z ; xr_alloc<CDetailManager::SlotItem *>
PUBLIC	??$_Get_unwrapped@ABQAPAUSlotItem@CDetailManager@@@std@@YA?A_TABQAPAUSlotItem@CDetailManager@@@Z ; std::_Get_unwrapped<CDetailManager::SlotItem * * const &>
PUBLIC	??$_Uninitialized_move@PAPAUSlotItem@CDetailManager@@V?$xalloc@PAUSlotItem@CDetailManager@@@@@std@@YAPAPAUSlotItem@CDetailManager@@QAPAU12@0PAPAU12@AAV?$xalloc@PAUSlotItem@CDetailManager@@@@@Z ; std::_Uninitialized_move<CDetailManager::SlotItem * *,xalloc<CDetailManager::SlotItem *> >
PUBLIC	??$_Uninitialized_value_construct_n@V?$xalloc@V?$xr_vector@PAV?$xr_vector@PAUSlotItem@CDetailManager@@V?$xalloc@PAUSlotItem@CDetailManager@@@@@@V?$xalloc@PAV?$xr_vector@PAUSlotItem@CDetailManager@@V?$xalloc@PAUSlotItem@CDetailManager@@@@@@@@@@@@@std@@YAPAV?$xr_vector@PAV?$xr_vector@PAUSlotItem@CDetailManager@@V?$xalloc@PAUSlotItem@CDetailManager@@@@@@V?$xalloc@PAV?$xr_vector@PAUSlotItem@CDetailManager@@V?$xalloc@PAUSlotItem@CDetailManager@@@@@@@@@@PAV1@IAAV?$xalloc@V?$xr_vector@PAV?$xr_vector@PAUSlotItem@CDetailManager@@V?$xalloc@PAUSlotItem@CDetailManager@@@@@@V?$xalloc@PAV?$xr_vector@PAUSlotItem@CDetailManager@@V?$xalloc@PAUSlotItem@CDetailManager@@@@@@@@@@@@@Z ; std::_Uninitialized_value_construct_n<xalloc<xr_vector<xr_vector<CDetailManager::SlotItem *,xalloc<CDetailManager::SlotItem *> > *,xalloc<xr_vector<CDetailManager::SlotItem *,xalloc<CDetailManager::SlotItem *> > *> > > >
PUBLIC	??$xr_alloc@PAV?$xr_vector@PAUSlotItem@CDetailManager@@V?$xalloc@PAUSlotItem@CDetailManager@@@@@@@@YAPAPAV?$xr_vector@PAUSlotItem@CDetailManager@@V?$xalloc@PAUSlotItem@CDetailManager@@@@@@I@Z ; xr_alloc<xr_vector<CDetailManager::SlotItem *,xalloc<CDetailManager::SlotItem *> > *>
PUBLIC	??$xr_free@PAV?$xr_vector@PAUSlotItem@CDetailManager@@V?$xalloc@PAUSlotItem@CDetailManager@@@@@@@@YAXAAPAPAV?$xr_vector@PAUSlotItem@CDetailManager@@V?$xalloc@PAUSlotItem@CDetailManager@@@@@@@Z ; xr_free<xr_vector<CDetailManager::SlotItem *,xalloc<CDetailManager::SlotItem *> > *>
PUBLIC	??$_Get_unwrapped@ABQAPAV?$xr_vector@PAUSlotItem@CDetailManager@@V?$xalloc@PAUSlotItem@CDetailManager@@@@@@@std@@YA?A_TABQAPAV?$xr_vector@PAUSlotItem@CDetailManager@@V?$xalloc@PAUSlotItem@CDetailManager@@@@@@@Z ; std::_Get_unwrapped<xr_vector<CDetailManager::SlotItem *,xalloc<CDetailManager::SlotItem *> > * * const &>
PUBLIC	??$_Uninitialized_move@PAPAV?$xr_vector@PAUSlotItem@CDetailManager@@V?$xalloc@PAUSlotItem@CDetailManager@@@@@@V?$xalloc@PAV?$xr_vector@PAUSlotItem@CDetailManager@@V?$xalloc@PAUSlotItem@CDetailManager@@@@@@@@@std@@YAPAPAV?$xr_vector@PAUSlotItem@CDetailManager@@V?$xalloc@PAUSlotItem@CDetailManager@@@@@@QAPAV1@0PAPAV1@AAV?$xalloc@PAV?$xr_vector@PAUSlotItem@CDetailManager@@V?$xalloc@PAUSlotItem@CDetailManager@@@@@@@@@Z ; std::_Uninitialized_move<xr_vector<CDetailManager::SlotItem *,xalloc<CDetailManager::SlotItem *> > * *,xalloc<xr_vector<CDetailManager::SlotItem *,xalloc<CDetailManager::SlotItem *> > *> >
PUBLIC	??$_Destroy_range@V?$xalloc@PAV?$xr_vector@PAUSlotItem@CDetailManager@@V?$xalloc@PAUSlotItem@CDetailManager@@@@@@@@@std@@YAXPAPAV?$xr_vector@PAUSlotItem@CDetailManager@@V?$xalloc@PAUSlotItem@CDetailManager@@@@@@QAPAV1@AAV?$xalloc@PAV?$xr_vector@PAUSlotItem@CDetailManager@@V?$xalloc@PAUSlotItem@CDetailManager@@@@@@@@@Z ; std::_Destroy_range<xalloc<xr_vector<CDetailManager::SlotItem *,xalloc<CDetailManager::SlotItem *> > *> >
PUBLIC	??$destroy@V?$xr_vector@PAV?$xr_vector@PAUSlotItem@CDetailManager@@V?$xalloc@PAUSlotItem@CDetailManager@@@@@@V?$xalloc@PAV?$xr_vector@PAUSlotItem@CDetailManager@@V?$xalloc@PAUSlotItem@CDetailManager@@@@@@@@@@@?$_Normal_allocator_traits@V?$xalloc@V?$xr_vector@PAV?$xr_vector@PAUSlotItem@CDetailManager@@V?$xalloc@PAUSlotItem@CDetailManager@@@@@@V?$xalloc@PAV?$xr_vector@PAUSlotItem@CDetailManager@@V?$xalloc@PAUSlotItem@CDetailManager@@@@@@@@@@@@@std@@SAXAAV?$xalloc@V?$xr_vector@PAV?$xr_vector@PAUSlotItem@CDetailManager@@V?$xalloc@PAUSlotItem@CDetailManager@@@@@@V?$xalloc@PAV?$xr_vector@PAUSlotItem@CDetailManager@@V?$xalloc@PAUSlotItem@CDetailManager@@@@@@@@@@@@PAV?$xr_vector@PAV?$xr_vector@PAUSlotItem@CDetailManager@@V?$xalloc@PAUSlotItem@CDetailManager@@@@@@V?$xalloc@PAV?$xr_vector@PAUSlotItem@CDetailManager@@V?$xalloc@PAUSlotItem@CDetailManager@@@@@@@@@@@Z ; std::_Normal_allocator_traits<xalloc<xr_vector<xr_vector<CDetailManager::SlotItem *,xalloc<CDetailManager::SlotItem *> > *,xalloc<xr_vector<CDetailManager::SlotItem *,xalloc<CDetailManager::SlotItem *> > *> > > >::destroy<xr_vector<xr_vector<CDetailManager::SlotItem *,xalloc<CDetailManager::SlotItem *> > *,xalloc<xr_vector<CDetailManager::SlotItem *,xalloc<CDetailManager::SlotItem *> > *> > >
PUBLIC	??$_Unfancy@V?$xr_vector@PAV?$xr_vector@PAUSlotItem@CDetailManager@@V?$xalloc@PAUSlotItem@CDetailManager@@@@@@V?$xalloc@PAV?$xr_vector@PAUSlotItem@CDetailManager@@V?$xalloc@PAUSlotItem@CDetailManager@@@@@@@@@@@std@@YAPAV?$xr_vector@PAV?$xr_vector@PAUSlotItem@CDetailManager@@V?$xalloc@PAUSlotItem@CDetailManager@@@@@@V?$xalloc@PAV?$xr_vector@PAUSlotItem@CDetailManager@@V?$xalloc@PAUSlotItem@CDetailManager@@@@@@@@@@PAV1@@Z ; std::_Unfancy<xr_vector<xr_vector<CDetailManager::SlotItem *,xalloc<CDetailManager::SlotItem *> > *,xalloc<xr_vector<CDetailManager::SlotItem *,xalloc<CDetailManager::SlotItem *> > *> > >
PUBLIC	??$move@AAPAUSlotItem@CDetailManager@@@std@@YA$$QAPAUSlotItem@CDetailManager@@AAPAU12@@Z ; std::move<CDetailManager::SlotItem * &>
PUBLIC	??$_To_address@PAPAUSlotItem@CDetailManager@@@std@@YA?A_PABQAPAUSlotItem@CDetailManager@@@Z ; std::_To_address<CDetailManager::SlotItem * *>
PUBLIC	??$_Copy_memmove@PAPAUSlotItem@CDetailManager@@PAPAU12@@std@@YAPAPAUSlotItem@CDetailManager@@PAPAU12@00@Z ; std::_Copy_memmove<CDetailManager::SlotItem * *,CDetailManager::SlotItem * *>
PUBLIC	??$_Resize_reallocate@U_Value_init_tag@std@@@?$vector@V?$xr_vector@PAV?$xr_vector@PAUSlotItem@CDetailManager@@V?$xalloc@PAUSlotItem@CDetailManager@@@@@@V?$xalloc@PAV?$xr_vector@PAUSlotItem@CDetailManager@@V?$xalloc@PAUSlotItem@CDetailManager@@@@@@@@@@V?$xalloc@V?$xr_vector@PAV?$xr_vector@PAUSlotItem@CDetailManager@@V?$xalloc@PAUSlotItem@CDetailManager@@@@@@V?$xalloc@PAV?$xr_vector@PAUSlotItem@CDetailManager@@V?$xalloc@PAUSlotItem@CDetailManager@@@@@@@@@@@@@std@@AAEXIABU_Value_init_tag@1@@Z ; std::vector<xr_vector<xr_vector<CDetailManager::SlotItem *,xalloc<CDetailManager::SlotItem *> > *,xalloc<xr_vector<CDetailManager::SlotItem *,xalloc<CDetailManager::SlotItem *> > *> >,xalloc<xr_vector<xr_vector<CDetailManager::SlotItem *,xalloc<CDetailManager::SlotItem *> > *,xalloc<xr_vector<CDetailManager::SlotItem *,xalloc<CDetailManager::SlotItem *> > *> > > >::_Resize_reallocate<std::_Value_init_tag>
PUBLIC	?max_size@?$xalloc@PAUSlotItem@CDetailManager@@@@QBEIXZ ; xalloc<CDetailManager::SlotItem *>::max_size
PUBLIC	?_Get_first@?$_Compressed_pair@V?$xalloc@PAUSlotItem@CDetailManager@@@@V?$_Vector_val@U?$_Simple_types@PAUSlotItem@CDetailManager@@@std@@@std@@$00@std@@QBEABV?$xalloc@PAUSlotItem@CDetailManager@@@@XZ ; std::_Compressed_pair<xalloc<CDetailManager::SlotItem *>,std::_Vector_val<std::_Simple_types<CDetailManager::SlotItem *> >,1>::_Get_first
PUBLIC	?max_size@?$xalloc@PAV?$xr_vector@PAUSlotItem@CDetailManager@@V?$xalloc@PAUSlotItem@CDetailManager@@@@@@@@QBEIXZ ; xalloc<xr_vector<CDetailManager::SlotItem *,xalloc<CDetailManager::SlotItem *> > *>::max_size
PUBLIC	?_Get_first@?$_Compressed_pair@V?$xalloc@PAV?$xr_vector@PAUSlotItem@CDetailManager@@V?$xalloc@PAUSlotItem@CDetailManager@@@@@@@@V?$_Vector_val@U?$_Simple_types@PAV?$xr_vector@PAUSlotItem@CDetailManager@@V?$xalloc@PAUSlotItem@CDetailManager@@@@@@@std@@@std@@$00@std@@QBEABV?$xalloc@PAV?$xr_vector@PAUSlotItem@CDetailManager@@V?$xalloc@PAUSlotItem@CDetailManager@@@@@@@@XZ ; std::_Compressed_pair<xalloc<xr_vector<CDetailManager::SlotItem *,xalloc<CDetailManager::SlotItem *> > *>,std::_Vector_val<std::_Simple_types<xr_vector<CDetailManager::SlotItem *,xalloc<CDetailManager::SlotItem *> > *> >,1>::_Get_first
PUBLIC	?max_size@?$_Normal_allocator_traits@V?$xalloc@PAUSlotItem@CDetailManager@@@@@std@@SAIABV?$xalloc@PAUSlotItem@CDetailManager@@@@@Z ; std::_Normal_allocator_traits<xalloc<CDetailManager::SlotItem *> >::max_size
PUBLIC	?capacity@?$vector@PAUSlotItem@CDetailManager@@V?$xalloc@PAUSlotItem@CDetailManager@@@@@std@@QBEIXZ ; std::vector<CDetailManager::SlotItem *,xalloc<CDetailManager::SlotItem *> >::capacity
PUBLIC	?_Umove_if_noexcept1@?$vector@PAUSlotItem@CDetailManager@@V?$xalloc@PAUSlotItem@CDetailManager@@@@@std@@AAEXPAPAUSlotItem@CDetailManager@@00U?$integral_constant@_N$00@2@@Z ; std::vector<CDetailManager::SlotItem *,xalloc<CDetailManager::SlotItem *> >::_Umove_if_noexcept1
PUBLIC	?_Getal@?$vector@PAUSlotItem@CDetailManager@@V?$xalloc@PAUSlotItem@CDetailManager@@@@@std@@ABEABV?$xalloc@PAUSlotItem@CDetailManager@@@@XZ ; std::vector<CDetailManager::SlotItem *,xalloc<CDetailManager::SlotItem *> >::_Getal
PUBLIC	?max_size@?$_Normal_allocator_traits@V?$xalloc@PAV?$xr_vector@PAUSlotItem@CDetailManager@@V?$xalloc@PAUSlotItem@CDetailManager@@@@@@@@@std@@SAIABV?$xalloc@PAV?$xr_vector@PAUSlotItem@CDetailManager@@V?$xalloc@PAUSlotItem@CDetailManager@@@@@@@@@Z ; std::_Normal_allocator_traits<xalloc<xr_vector<CDetailManager::SlotItem *,xalloc<CDetailManager::SlotItem *> > *> >::max_size
PUBLIC	?capacity@?$vector@PAV?$xr_vector@PAUSlotItem@CDetailManager@@V?$xalloc@PAUSlotItem@CDetailManager@@@@@@V?$xalloc@PAV?$xr_vector@PAUSlotItem@CDetailManager@@V?$xalloc@PAUSlotItem@CDetailManager@@@@@@@@@std@@QBEIXZ ; std::vector<xr_vector<CDetailManager::SlotItem *,xalloc<CDetailManager::SlotItem *> > *,xalloc<xr_vector<CDetailManager::SlotItem *,xalloc<CDetailManager::SlotItem *> > *> >::capacity
PUBLIC	?_Umove_if_noexcept1@?$vector@PAV?$xr_vector@PAUSlotItem@CDetailManager@@V?$xalloc@PAUSlotItem@CDetailManager@@@@@@V?$xalloc@PAV?$xr_vector@PAUSlotItem@CDetailManager@@V?$xalloc@PAUSlotItem@CDetailManager@@@@@@@@@std@@AAEXPAPAV?$xr_vector@PAUSlotItem@CDetailManager@@V?$xalloc@PAUSlotItem@CDetailManager@@@@@@00U?$integral_constant@_N$00@2@@Z ; std::vector<xr_vector<CDetailManager::SlotItem *,xalloc<CDetailManager::SlotItem *> > *,xalloc<xr_vector<CDetailManager::SlotItem *,xalloc<CDetailManager::SlotItem *> > *> >::_Umove_if_noexcept1
PUBLIC	?_Getal@?$vector@PAV?$xr_vector@PAUSlotItem@CDetailManager@@V?$xalloc@PAUSlotItem@CDetailManager@@@@@@V?$xalloc@PAV?$xr_vector@PAUSlotItem@CDetailManager@@V?$xalloc@PAUSlotItem@CDetailManager@@@@@@@@@std@@ABEABV?$xalloc@PAV?$xr_vector@PAUSlotItem@CDetailManager@@V?$xalloc@PAUSlotItem@CDetailManager@@@@@@@@XZ ; std::vector<xr_vector<CDetailManager::SlotItem *,xalloc<CDetailManager::SlotItem *> > *,xalloc<xr_vector<CDetailManager::SlotItem *,xalloc<CDetailManager::SlotItem *> > *> >::_Getal
PUBLIC	?allocate@?$xalloc@PAUSlotItem@CDetailManager@@@@QBEPAPAUSlotItem@CDetailManager@@IPBX@Z ; xalloc<CDetailManager::SlotItem *>::allocate
PUBLIC	?construct@?$xalloc@PAUSlotItem@CDetailManager@@@@QAEXPAPAUSlotItem@CDetailManager@@ABQAU23@@Z ; xalloc<CDetailManager::SlotItem *>::construct
PUBLIC	?max_size@?$vector@PAUSlotItem@CDetailManager@@V?$xalloc@PAUSlotItem@CDetailManager@@@@@std@@QBEIXZ ; std::vector<CDetailManager::SlotItem *,xalloc<CDetailManager::SlotItem *> >::max_size
PUBLIC	?_Umove@?$vector@PAUSlotItem@CDetailManager@@V?$xalloc@PAUSlotItem@CDetailManager@@@@@std@@AAEPAPAUSlotItem@CDetailManager@@PAPAU34@00@Z ; std::vector<CDetailManager::SlotItem *,xalloc<CDetailManager::SlotItem *> >::_Umove
PUBLIC	?_Umove_if_noexcept@?$vector@PAUSlotItem@CDetailManager@@V?$xalloc@PAUSlotItem@CDetailManager@@@@@std@@AAEXPAPAUSlotItem@CDetailManager@@00@Z ; std::vector<CDetailManager::SlotItem *,xalloc<CDetailManager::SlotItem *> >::_Umove_if_noexcept
PUBLIC	?_Calculate_growth@?$vector@PAUSlotItem@CDetailManager@@V?$xalloc@PAUSlotItem@CDetailManager@@@@@std@@ABEII@Z ; std::vector<CDetailManager::SlotItem *,xalloc<CDetailManager::SlotItem *> >::_Calculate_growth
PUBLIC	?_Change_array@?$vector@PAUSlotItem@CDetailManager@@V?$xalloc@PAUSlotItem@CDetailManager@@@@@std@@AAEXQAPAUSlotItem@CDetailManager@@II@Z ; std::vector<CDetailManager::SlotItem *,xalloc<CDetailManager::SlotItem *> >::_Change_array
PUBLIC	?_Xlength@?$vector@PAUSlotItem@CDetailManager@@V?$xalloc@PAUSlotItem@CDetailManager@@@@@std@@CAXXZ ; std::vector<CDetailManager::SlotItem *,xalloc<CDetailManager::SlotItem *> >::_Xlength
PUBLIC	??0?$xalloc@V?$xr_vector@PAV?$xr_vector@PAUSlotItem@CDetailManager@@V?$xalloc@PAUSlotItem@CDetailManager@@@@@@V?$xalloc@PAV?$xr_vector@PAUSlotItem@CDetailManager@@V?$xalloc@PAUSlotItem@CDetailManager@@@@@@@@@@@@QAE@XZ ; xalloc<xr_vector<xr_vector<CDetailManager::SlotItem *,xalloc<CDetailManager::SlotItem *> > *,xalloc<xr_vector<CDetailManager::SlotItem *,xalloc<CDetailManager::SlotItem *> > *> > >::xalloc<xr_vector<xr_vector<CDetailManager::SlotItem *,xalloc<CDetailManager::SlotItem *> > *,xalloc<xr_vector<CDetailManager::SlotItem *,xalloc<CDetailManager::SlotItem *> > *> > >
PUBLIC	?_Ufill@?$vector@V?$xr_vector@PAV?$xr_vector@PAUSlotItem@CDetailManager@@V?$xalloc@PAUSlotItem@CDetailManager@@@@@@V?$xalloc@PAV?$xr_vector@PAUSlotItem@CDetailManager@@V?$xalloc@PAUSlotItem@CDetailManager@@@@@@@@@@V?$xalloc@V?$xr_vector@PAV?$xr_vector@PAUSlotItem@CDetailManager@@V?$xalloc@PAUSlotItem@CDetailManager@@@@@@V?$xalloc@PAV?$xr_vector@PAUSlotItem@CDetailManager@@V?$xalloc@PAUSlotItem@CDetailManager@@@@@@@@@@@@@std@@AAEPAV?$xr_vector@PAV?$xr_vector@PAUSlotItem@CDetailManager@@V?$xalloc@PAUSlotItem@CDetailManager@@@@@@V?$xalloc@PAV?$xr_vector@PAUSlotItem@CDetailManager@@V?$xalloc@PAUSlotItem@CDetailManager@@@@@@@@@@PAV3@IU_Value_init_tag@2@@Z ; std::vector<xr_vector<xr_vector<CDetailManager::SlotItem *,xalloc<CDetailManager::SlotItem *> > *,xalloc<xr_vector<CDetailManager::SlotItem *,xalloc<CDetailManager::SlotItem *> > *> >,xalloc<xr_vector<xr_vector<CDetailManager::SlotItem *,xalloc<CDetailManager::SlotItem *> > *,xalloc<xr_vector<CDetailManager::SlotItem *,xalloc<CDetailManager::SlotItem *> > *> > > >::_Ufill
PUBLIC	?_Orphan_range@?$vector@V?$xr_vector@PAV?$xr_vector@PAUSlotItem@CDetailManager@@V?$xalloc@PAUSlotItem@CDetailManager@@@@@@V?$xalloc@PAV?$xr_vector@PAUSlotItem@CDetailManager@@V?$xalloc@PAUSlotItem@CDetailManager@@@@@@@@@@V?$xalloc@V?$xr_vector@PAV?$xr_vector@PAUSlotItem@CDetailManager@@V?$xalloc@PAUSlotItem@CDetailManager@@@@@@V?$xalloc@PAV?$xr_vector@PAUSlotItem@CDetailManager@@V?$xalloc@PAUSlotItem@CDetailManager@@@@@@@@@@@@@std@@ABEXPAV?$xr_vector@PAV?$xr_vector@PAUSlotItem@CDetailManager@@V?$xalloc@PAUSlotItem@CDetailManager@@@@@@V?$xalloc@PAV?$xr_vector@PAUSlotItem@CDetailManager@@V?$xalloc@PAUSlotItem@CDetailManager@@@@@@@@@@0@Z ; std::vector<xr_vector<xr_vector<CDetailManager::SlotItem *,xalloc<CDetailManager::SlotItem *> > *,xalloc<xr_vector<CDetailManager::SlotItem *,xalloc<CDetailManager::SlotItem *> > *> >,xalloc<xr_vector<xr_vector<CDetailManager::SlotItem *,xalloc<CDetailManager::SlotItem *> > *,xalloc<xr_vector<CDetailManager::SlotItem *,xalloc<CDetailManager::SlotItem *> > *> > > >::_Orphan_range
PUBLIC	??0?$_Vector_val@U?$_Simple_types@V?$xr_vector@PAV?$xr_vector@PAUSlotItem@CDetailManager@@V?$xalloc@PAUSlotItem@CDetailManager@@@@@@V?$xalloc@PAV?$xr_vector@PAUSlotItem@CDetailManager@@V?$xalloc@PAUSlotItem@CDetailManager@@@@@@@@@@@std@@@std@@QAE@XZ ; std::_Vector_val<std::_Simple_types<xr_vector<xr_vector<CDetailManager::SlotItem *,xalloc<CDetailManager::SlotItem *> > *,xalloc<xr_vector<CDetailManager::SlotItem *,xalloc<CDetailManager::SlotItem *> > *> > > >::_Vector_val<std::_Simple_types<xr_vector<xr_vector<CDetailManager::SlotItem *,xalloc<CDetailManager::SlotItem *> > *,xalloc<xr_vector<CDetailManager::SlotItem *,xalloc<CDetailManager::SlotItem *> > *> > > >
PUBLIC	?allocate@?$xalloc@PAV?$xr_vector@PAUSlotItem@CDetailManager@@V?$xalloc@PAUSlotItem@CDetailManager@@@@@@@@QBEPAPAV?$xr_vector@PAUSlotItem@CDetailManager@@V?$xalloc@PAUSlotItem@CDetailManager@@@@@@IPBX@Z ; xalloc<xr_vector<CDetailManager::SlotItem *,xalloc<CDetailManager::SlotItem *> > *>::allocate
PUBLIC	?deallocate@?$xalloc@PAV?$xr_vector@PAUSlotItem@CDetailManager@@V?$xalloc@PAUSlotItem@CDetailManager@@@@@@@@QBEXPAPAV?$xr_vector@PAUSlotItem@CDetailManager@@V?$xalloc@PAUSlotItem@CDetailManager@@@@@@I@Z ; xalloc<xr_vector<CDetailManager::SlotItem *,xalloc<CDetailManager::SlotItem *> > *>::deallocate
PUBLIC	?construct@?$xalloc@PAV?$xr_vector@PAUSlotItem@CDetailManager@@V?$xalloc@PAUSlotItem@CDetailManager@@@@@@@@QAEXPAPAV?$xr_vector@PAUSlotItem@CDetailManager@@V?$xalloc@PAUSlotItem@CDetailManager@@@@@@ABQAV2@@Z ; xalloc<xr_vector<CDetailManager::SlotItem *,xalloc<CDetailManager::SlotItem *> > *>::construct
PUBLIC	?max_size@?$vector@PAV?$xr_vector@PAUSlotItem@CDetailManager@@V?$xalloc@PAUSlotItem@CDetailManager@@@@@@V?$xalloc@PAV?$xr_vector@PAUSlotItem@CDetailManager@@V?$xalloc@PAUSlotItem@CDetailManager@@@@@@@@@std@@QBEIXZ ; std::vector<xr_vector<CDetailManager::SlotItem *,xalloc<CDetailManager::SlotItem *> > *,xalloc<xr_vector<CDetailManager::SlotItem *,xalloc<CDetailManager::SlotItem *> > *> >::max_size
PUBLIC	?_Umove@?$vector@PAV?$xr_vector@PAUSlotItem@CDetailManager@@V?$xalloc@PAUSlotItem@CDetailManager@@@@@@V?$xalloc@PAV?$xr_vector@PAUSlotItem@CDetailManager@@V?$xalloc@PAUSlotItem@CDetailManager@@@@@@@@@std@@AAEPAPAV?$xr_vector@PAUSlotItem@CDetailManager@@V?$xalloc@PAUSlotItem@CDetailManager@@@@@@PAPAV3@00@Z ; std::vector<xr_vector<CDetailManager::SlotItem *,xalloc<CDetailManager::SlotItem *> > *,xalloc<xr_vector<CDetailManager::SlotItem *,xalloc<CDetailManager::SlotItem *> > *> >::_Umove
PUBLIC	?_Umove_if_noexcept@?$vector@PAV?$xr_vector@PAUSlotItem@CDetailManager@@V?$xalloc@PAUSlotItem@CDetailManager@@@@@@V?$xalloc@PAV?$xr_vector@PAUSlotItem@CDetailManager@@V?$xalloc@PAUSlotItem@CDetailManager@@@@@@@@@std@@AAEXPAPAV?$xr_vector@PAUSlotItem@CDetailManager@@V?$xalloc@PAUSlotItem@CDetailManager@@@@@@00@Z ; std::vector<xr_vector<CDetailManager::SlotItem *,xalloc<CDetailManager::SlotItem *> > *,xalloc<xr_vector<CDetailManager::SlotItem *,xalloc<CDetailManager::SlotItem *> > *> >::_Umove_if_noexcept
PUBLIC	?_Destroy@?$vector@PAV?$xr_vector@PAUSlotItem@CDetailManager@@V?$xalloc@PAUSlotItem@CDetailManager@@@@@@V?$xalloc@PAV?$xr_vector@PAUSlotItem@CDetailManager@@V?$xalloc@PAUSlotItem@CDetailManager@@@@@@@@@std@@AAEXPAPAV?$xr_vector@PAUSlotItem@CDetailManager@@V?$xalloc@PAUSlotItem@CDetailManager@@@@@@0@Z ; std::vector<xr_vector<CDetailManager::SlotItem *,xalloc<CDetailManager::SlotItem *> > *,xalloc<xr_vector<CDetailManager::SlotItem *,xalloc<CDetailManager::SlotItem *> > *> >::_Destroy
PUBLIC	?_Calculate_growth@?$vector@PAV?$xr_vector@PAUSlotItem@CDetailManager@@V?$xalloc@PAUSlotItem@CDetailManager@@@@@@V?$xalloc@PAV?$xr_vector@PAUSlotItem@CDetailManager@@V?$xalloc@PAUSlotItem@CDetailManager@@@@@@@@@std@@ABEII@Z ; std::vector<xr_vector<CDetailManager::SlotItem *,xalloc<CDetailManager::SlotItem *> > *,xalloc<xr_vector<CDetailManager::SlotItem *,xalloc<CDetailManager::SlotItem *> > *> >::_Calculate_growth
PUBLIC	?_Change_array@?$vector@PAV?$xr_vector@PAUSlotItem@CDetailManager@@V?$xalloc@PAUSlotItem@CDetailManager@@@@@@V?$xalloc@PAV?$xr_vector@PAUSlotItem@CDetailManager@@V?$xalloc@PAUSlotItem@CDetailManager@@@@@@@@@std@@AAEXQAPAV?$xr_vector@PAUSlotItem@CDetailManager@@V?$xalloc@PAUSlotItem@CDetailManager@@@@@@II@Z ; std::vector<xr_vector<CDetailManager::SlotItem *,xalloc<CDetailManager::SlotItem *> > *,xalloc<xr_vector<CDetailManager::SlotItem *,xalloc<CDetailManager::SlotItem *> > *> >::_Change_array
PUBLIC	?_Xlength@?$vector@PAV?$xr_vector@PAUSlotItem@CDetailManager@@V?$xalloc@PAUSlotItem@CDetailManager@@@@@@V?$xalloc@PAV?$xr_vector@PAUSlotItem@CDetailManager@@V?$xalloc@PAUSlotItem@CDetailManager@@@@@@@@@std@@CAXXZ ; std::vector<xr_vector<CDetailManager::SlotItem *,xalloc<CDetailManager::SlotItem *> > *,xalloc<xr_vector<CDetailManager::SlotItem *,xalloc<CDetailManager::SlotItem *> > *> >::_Xlength
PUBLIC	??R?$xr_special_free@$00VCDetail@@@@QAEXAAPAVCDetail@@@Z ; xr_special_free<1,CDetail>::operator()
PUBLIC	??_GCDetail@@UAEPAXI@Z				; CDetail::`scalar deleting destructor'
PUBLIC	??0CDetail@@QAE@XZ				; CDetail::CDetail
PUBLIC	??$xr_free@V?$xr_vector@PAV?$xr_vector@PAUSlotItem@CDetailManager@@V?$xalloc@PAUSlotItem@CDetailManager@@@@@@V?$xalloc@PAV?$xr_vector@PAUSlotItem@CDetailManager@@V?$xalloc@PAUSlotItem@CDetailManager@@@@@@@@@@@@YAXAAPAV?$xr_vector@PAV?$xr_vector@PAUSlotItem@CDetailManager@@V?$xalloc@PAUSlotItem@CDetailManager@@@@@@V?$xalloc@PAV?$xr_vector@PAUSlotItem@CDetailManager@@V?$xalloc@PAUSlotItem@CDetailManager@@@@@@@@@@@Z ; xr_free<xr_vector<xr_vector<CDetailManager::SlotItem *,xalloc<CDetailManager::SlotItem *> > *,xalloc<xr_vector<CDetailManager::SlotItem *,xalloc<CDetailManager::SlotItem *> > *> > >
PUBLIC	??$_Destroy_range@V?$xalloc@V?$xr_vector@PAV?$xr_vector@PAUSlotItem@CDetailManager@@V?$xalloc@PAUSlotItem@CDetailManager@@@@@@V?$xalloc@PAV?$xr_vector@PAUSlotItem@CDetailManager@@V?$xalloc@PAUSlotItem@CDetailManager@@@@@@@@@@@@@std@@YAXPAV?$xr_vector@PAV?$xr_vector@PAUSlotItem@CDetailManager@@V?$xalloc@PAUSlotItem@CDetailManager@@@@@@V?$xalloc@PAV?$xr_vector@PAUSlotItem@CDetailManager@@V?$xalloc@PAUSlotItem@CDetailManager@@@@@@@@@@QAV1@AAV?$xalloc@V?$xr_vector@PAV?$xr_vector@PAUSlotItem@CDetailManager@@V?$xalloc@PAUSlotItem@CDetailManager@@@@@@V?$xalloc@PAV?$xr_vector@PAUSlotItem@CDetailManager@@V?$xalloc@PAUSlotItem@CDetailManager@@@@@@@@@@@@@Z ; std::_Destroy_range<xalloc<xr_vector<xr_vector<CDetailManager::SlotItem *,xalloc<CDetailManager::SlotItem *> > *,xalloc<xr_vector<CDetailManager::SlotItem *,xalloc<CDetailManager::SlotItem *> > *> > > >
PUBLIC	??$_Move_unchecked@PAPAUSlotItem@CDetailManager@@PAPAU12@@std@@YAPAPAUSlotItem@CDetailManager@@PAPAU12@00@Z ; std::_Move_unchecked<CDetailManager::SlotItem * *,CDetailManager::SlotItem * *>
PUBLIC	??$?0$$V@?$_Compressed_pair@V?$xalloc@V?$xr_vector@PAV?$xr_vector@PAUSlotItem@CDetailManager@@V?$xalloc@PAUSlotItem@CDetailManager@@@@@@V?$xalloc@PAV?$xr_vector@PAUSlotItem@CDetailManager@@V?$xalloc@PAUSlotItem@CDetailManager@@@@@@@@@@@@V?$_Vector_val@U?$_Simple_types@V?$xr_vector@PAV?$xr_vector@PAUSlotItem@CDetailManager@@V?$xalloc@PAUSlotItem@CDetailManager@@@@@@V?$xalloc@PAV?$xr_vector@PAUSlotItem@CDetailManager@@V?$xalloc@PAUSlotItem@CDetailManager@@@@@@@@@@@std@@@std@@$00@std@@QAE@U_Zero_then_variadic_args_t@1@@Z ; std::_Compressed_pair<xalloc<xr_vector<xr_vector<CDetailManager::SlotItem *,xalloc<CDetailManager::SlotItem *> > *,xalloc<xr_vector<CDetailManager::SlotItem *,xalloc<CDetailManager::SlotItem *> > *> > >,std::_Vector_val<std::_Simple_types<xr_vector<xr_vector<CDetailManager::SlotItem *,xalloc<CDetailManager::SlotItem *> > *,xalloc<xr_vector<CDetailManager::SlotItem *,xalloc<CDetailManager::SlotItem *> > *> > > >,1>::_Compressed_pair<xalloc<xr_vector<xr_vector<CDetailManager::SlotItem *,xalloc<CDetailManager::SlotItem *> > *,xalloc<xr_vector<CDetailManager::SlotItem *,xalloc<CDetailManager::SlotItem *> > *> > >,std::_Vector_val<std::_Simple_types<xr_vector<xr_vector<CDetailManager::SlotItem *,xalloc<CDetailManager::SlotItem *> > *,xalloc<xr_vector<CDetailManager::SlotItem *,xalloc<CDetailManager::SlotItem *> > *> > > >,1><>
PUBLIC	??$addressof@V?$_Vector_val@U?$_Simple_types@V?$xr_vector@PAV?$xr_vector@PAUSlotItem@CDetailManager@@V?$xalloc@PAUSlotItem@CDetailManager@@@@@@V?$xalloc@PAV?$xr_vector@PAUSlotItem@CDetailManager@@V?$xalloc@PAUSlotItem@CDetailManager@@@@@@@@@@@std@@@std@@@std@@YAPAV?$_Vector_val@U?$_Simple_types@V?$xr_vector@PAV?$xr_vector@PAUSlotItem@CDetailManager@@V?$xalloc@PAUSlotItem@CDetailManager@@@@@@V?$xalloc@PAV?$xr_vector@PAUSlotItem@CDetailManager@@V?$xalloc@PAUSlotItem@CDetailManager@@@@@@@@@@@std@@@0@AAV10@@Z ; std::addressof<std::_Vector_val<std::_Simple_types<xr_vector<xr_vector<CDetailManager::SlotItem *,xalloc<CDetailManager::SlotItem *> > *,xalloc<xr_vector<CDetailManager::SlotItem *,xalloc<CDetailManager::SlotItem *> > *> > > > >
PUBLIC	??$_Emplace_reallocate@ABQAUSlotItem@CDetailManager@@@?$vector@PAUSlotItem@CDetailManager@@V?$xalloc@PAUSlotItem@CDetailManager@@@@@std@@QAEPAPAUSlotItem@CDetailManager@@QAPAU23@ABQAU23@@Z ; std::vector<CDetailManager::SlotItem *,xalloc<CDetailManager::SlotItem *> >::_Emplace_reallocate<CDetailManager::SlotItem * const &>
PUBLIC	??$construct@PAUSlotItem@CDetailManager@@ABQAU12@@?$_Normal_allocator_traits@V?$xalloc@PAUSlotItem@CDetailManager@@@@@std@@SAXAAV?$xalloc@PAUSlotItem@CDetailManager@@@@PAPAUSlotItem@CDetailManager@@ABQAU34@@Z ; std::_Normal_allocator_traits<xalloc<CDetailManager::SlotItem *> >::construct<CDetailManager::SlotItem *,CDetailManager::SlotItem * const &>
PUBLIC	??$forward@ABQAUSlotItem@CDetailManager@@@std@@YAABQAUSlotItem@CDetailManager@@ABQAU12@@Z ; std::forward<CDetailManager::SlotItem * const &>
PUBLIC	??$addressof@V?$_Vector_val@U?$_Simple_types@PAUSlotItem@CDetailManager@@@std@@@std@@@std@@YAPAV?$_Vector_val@U?$_Simple_types@PAUSlotItem@CDetailManager@@@std@@@0@AAV10@@Z ; std::addressof<std::_Vector_val<std::_Simple_types<CDetailManager::SlotItem *> > >
PUBLIC	??$_Resize@U_Value_init_tag@std@@@?$vector@V?$xr_vector@PAV?$xr_vector@PAUSlotItem@CDetailManager@@V?$xalloc@PAUSlotItem@CDetailManager@@@@@@V?$xalloc@PAV?$xr_vector@PAUSlotItem@CDetailManager@@V?$xalloc@PAUSlotItem@CDetailManager@@@@@@@@@@V?$xalloc@V?$xr_vector@PAV?$xr_vector@PAUSlotItem@CDetailManager@@V?$xalloc@PAUSlotItem@CDetailManager@@@@@@V?$xalloc@PAV?$xr_vector@PAUSlotItem@CDetailManager@@V?$xalloc@PAUSlotItem@CDetailManager@@@@@@@@@@@@@std@@AAEXIABU_Value_init_tag@1@@Z ; std::vector<xr_vector<xr_vector<CDetailManager::SlotItem *,xalloc<CDetailManager::SlotItem *> > *,xalloc<xr_vector<CDetailManager::SlotItem *,xalloc<CDetailManager::SlotItem *> > *> >,xalloc<xr_vector<xr_vector<CDetailManager::SlotItem *,xalloc<CDetailManager::SlotItem *> > *,xalloc<xr_vector<CDetailManager::SlotItem *,xalloc<CDetailManager::SlotItem *> > *> > > >::_Resize<std::_Value_init_tag>
PUBLIC	??$xr_free@USlotItem@CDetailManager@@@@YAXAAPAUSlotItem@CDetailManager@@@Z ; xr_free<CDetailManager::SlotItem>
PUBLIC	??$_Emplace_reallocate@PAV?$xr_vector@PAUSlotItem@CDetailManager@@V?$xalloc@PAUSlotItem@CDetailManager@@@@@@@?$vector@PAV?$xr_vector@PAUSlotItem@CDetailManager@@V?$xalloc@PAUSlotItem@CDetailManager@@@@@@V?$xalloc@PAV?$xr_vector@PAUSlotItem@CDetailManager@@V?$xalloc@PAUSlotItem@CDetailManager@@@@@@@@@std@@QAEPAPAV?$xr_vector@PAUSlotItem@CDetailManager@@V?$xalloc@PAUSlotItem@CDetailManager@@@@@@QAPAV2@$$QAPAV2@@Z ; std::vector<xr_vector<CDetailManager::SlotItem *,xalloc<CDetailManager::SlotItem *> > *,xalloc<xr_vector<CDetailManager::SlotItem *,xalloc<CDetailManager::SlotItem *> > *> >::_Emplace_reallocate<xr_vector<CDetailManager::SlotItem *,xalloc<CDetailManager::SlotItem *> > *>
PUBLIC	??$construct@PAV?$xr_vector@PAUSlotItem@CDetailManager@@V?$xalloc@PAUSlotItem@CDetailManager@@@@@@PAV1@@?$_Normal_allocator_traits@V?$xalloc@PAV?$xr_vector@PAUSlotItem@CDetailManager@@V?$xalloc@PAUSlotItem@CDetailManager@@@@@@@@@std@@SAXAAV?$xalloc@PAV?$xr_vector@PAUSlotItem@CDetailManager@@V?$xalloc@PAUSlotItem@CDetailManager@@@@@@@@PAPAV?$xr_vector@PAUSlotItem@CDetailManager@@V?$xalloc@PAUSlotItem@CDetailManager@@@@@@$$QAPAV3@@Z ; std::_Normal_allocator_traits<xalloc<xr_vector<CDetailManager::SlotItem *,xalloc<CDetailManager::SlotItem *> > *> >::construct<xr_vector<CDetailManager::SlotItem *,xalloc<CDetailManager::SlotItem *> > *,xr_vector<CDetailManager::SlotItem *,xalloc<CDetailManager::SlotItem *> > *>
PUBLIC	??$_Unfancy@PAV?$xr_vector@PAUSlotItem@CDetailManager@@V?$xalloc@PAUSlotItem@CDetailManager@@@@@@@std@@YAPAPAV?$xr_vector@PAUSlotItem@CDetailManager@@V?$xalloc@PAUSlotItem@CDetailManager@@@@@@PAPAV1@@Z ; std::_Unfancy<xr_vector<CDetailManager::SlotItem *,xalloc<CDetailManager::SlotItem *> > *>
PUBLIC	??$forward@PAV?$xr_vector@PAUSlotItem@CDetailManager@@V?$xalloc@PAUSlotItem@CDetailManager@@@@@@@std@@YA$$QAPAV?$xr_vector@PAUSlotItem@CDetailManager@@V?$xalloc@PAUSlotItem@CDetailManager@@@@@@AAPAV1@@Z ; std::forward<xr_vector<CDetailManager::SlotItem *,xalloc<CDetailManager::SlotItem *> > *>
PUBLIC	??$move@AAPAV?$xr_vector@PAUSlotItem@CDetailManager@@V?$xalloc@PAUSlotItem@CDetailManager@@@@@@@std@@YA$$QAPAV?$xr_vector@PAUSlotItem@CDetailManager@@V?$xalloc@PAUSlotItem@CDetailManager@@@@@@AAPAV1@@Z ; std::move<xr_vector<CDetailManager::SlotItem *,xalloc<CDetailManager::SlotItem *> > * &>
PUBLIC	??$xr_delete@VCDetail@@@@YAXAAPAVCDetail@@@Z	; xr_delete<CDetail>
PUBLIC	??$xr_new@VCDetail@@@@YAPAVCDetail@@XZ		; xr_new<CDetail>
PUBLIC	?_Verify_offset@?$_Vector_const_iterator@V?$_Vector_val@U?$_Simple_types@PAUSlotItem@CDetailManager@@@std@@@std@@@std@@QBEXH@Z ; std::_Vector_const_iterator<std::_Vector_val<std::_Simple_types<CDetailManager::SlotItem *> > >::_Verify_offset
PUBLIC	??Y?$_Vector_const_iterator@V?$_Vector_val@U?$_Simple_types@PAUSlotItem@CDetailManager@@@std@@@std@@@std@@QAEAAV01@H@Z ; std::_Vector_const_iterator<std::_Vector_val<std::_Simple_types<CDetailManager::SlotItem *> > >::operator+=
PUBLIC	?_Verify_offset@?$_Vector_const_iterator@V?$_Vector_val@U?$_Simple_types@V?$xr_vector@PAV?$xr_vector@PAUSlotItem@CDetailManager@@V?$xalloc@PAUSlotItem@CDetailManager@@@@@@V?$xalloc@PAV?$xr_vector@PAUSlotItem@CDetailManager@@V?$xalloc@PAUSlotItem@CDetailManager@@@@@@@@@@@std@@@std@@@std@@QBEXH@Z ; std::_Vector_const_iterator<std::_Vector_val<std::_Simple_types<xr_vector<xr_vector<CDetailManager::SlotItem *,xalloc<CDetailManager::SlotItem *> > *,xalloc<xr_vector<CDetailManager::SlotItem *,xalloc<CDetailManager::SlotItem *> > *> > > > >::_Verify_offset
PUBLIC	?_Get_first@?$_Compressed_pair@V?$xalloc@V?$xr_vector@PAV?$xr_vector@PAUSlotItem@CDetailManager@@V?$xalloc@PAUSlotItem@CDetailManager@@@@@@V?$xalloc@PAV?$xr_vector@PAUSlotItem@CDetailManager@@V?$xalloc@PAUSlotItem@CDetailManager@@@@@@@@@@@@V?$_Vector_val@U?$_Simple_types@V?$xr_vector@PAV?$xr_vector@PAUSlotItem@CDetailManager@@V?$xalloc@PAUSlotItem@CDetailManager@@@@@@V?$xalloc@PAV?$xr_vector@PAUSlotItem@CDetailManager@@V?$xalloc@PAUSlotItem@CDetailManager@@@@@@@@@@@std@@@std@@$00@std@@QAEAAV?$xalloc@V?$xr_vector@PAV?$xr_vector@PAUSlotItem@CDetailManager@@V?$xalloc@PAUSlotItem@CDetailManager@@@@@@V?$xalloc@PAV?$xr_vector@PAUSlotItem@CDetailManager@@V?$xalloc@PAUSlotItem@CDetailManager@@@@@@@@@@@@XZ ; std::_Compressed_pair<xalloc<xr_vector<xr_vector<CDetailManager::SlotItem *,xalloc<CDetailManager::SlotItem *> > *,xalloc<xr_vector<CDetailManager::SlotItem *,xalloc<CDetailManager::SlotItem *> > *> > >,std::_Vector_val<std::_Simple_types<xr_vector<xr_vector<CDetailManager::SlotItem *,xalloc<CDetailManager::SlotItem *> > *,xalloc<xr_vector<CDetailManager::SlotItem *,xalloc<CDetailManager::SlotItem *> > *> > > >,1>::_Get_first
PUBLIC	??Y?$_Vector_iterator@V?$_Vector_val@U?$_Simple_types@PAUSlotItem@CDetailManager@@@std@@@std@@@std@@QAEAAV01@H@Z ; std::_Vector_iterator<std::_Vector_val<std::_Simple_types<CDetailManager::SlotItem *> > >::operator+=
PUBLIC	??Y?$_Vector_const_iterator@V?$_Vector_val@U?$_Simple_types@V?$xr_vector@PAV?$xr_vector@PAUSlotItem@CDetailManager@@V?$xalloc@PAUSlotItem@CDetailManager@@@@@@V?$xalloc@PAV?$xr_vector@PAUSlotItem@CDetailManager@@V?$xalloc@PAUSlotItem@CDetailManager@@@@@@@@@@@std@@@std@@@std@@QAEAAV01@H@Z ; std::_Vector_const_iterator<std::_Vector_val<std::_Simple_types<xr_vector<xr_vector<CDetailManager::SlotItem *,xalloc<CDetailManager::SlotItem *> > *,xalloc<xr_vector<CDetailManager::SlotItem *,xalloc<CDetailManager::SlotItem *> > *> > > > >::operator+=
PUBLIC	?size@?$vector@PAUSlotItem@CDetailManager@@V?$xalloc@PAUSlotItem@CDetailManager@@@@@std@@QBEIXZ ; std::vector<CDetailManager::SlotItem *,xalloc<CDetailManager::SlotItem *> >::size
PUBLIC	?deallocate@?$xalloc@V?$xr_vector@PAV?$xr_vector@PAUSlotItem@CDetailManager@@V?$xalloc@PAUSlotItem@CDetailManager@@@@@@V?$xalloc@PAV?$xr_vector@PAUSlotItem@CDetailManager@@V?$xalloc@PAUSlotItem@CDetailManager@@@@@@@@@@@@QBEXPAV?$xr_vector@PAV?$xr_vector@PAUSlotItem@CDetailManager@@V?$xalloc@PAUSlotItem@CDetailManager@@@@@@V?$xalloc@PAV?$xr_vector@PAUSlotItem@CDetailManager@@V?$xalloc@PAUSlotItem@CDetailManager@@@@@@@@@@I@Z ; xalloc<xr_vector<xr_vector<CDetailManager::SlotItem *,xalloc<CDetailManager::SlotItem *> > *,xalloc<xr_vector<CDetailManager::SlotItem *,xalloc<CDetailManager::SlotItem *> > *> > >::deallocate
PUBLIC	?clear@?$vector@V?$xr_vector@PAV?$xr_vector@PAUSlotItem@CDetailManager@@V?$xalloc@PAUSlotItem@CDetailManager@@@@@@V?$xalloc@PAV?$xr_vector@PAUSlotItem@CDetailManager@@V?$xalloc@PAUSlotItem@CDetailManager@@@@@@@@@@V?$xalloc@V?$xr_vector@PAV?$xr_vector@PAUSlotItem@CDetailManager@@V?$xalloc@PAUSlotItem@CDetailManager@@@@@@V?$xalloc@PAV?$xr_vector@PAUSlotItem@CDetailManager@@V?$xalloc@PAUSlotItem@CDetailManager@@@@@@@@@@@@@std@@QAEXXZ ; std::vector<xr_vector<xr_vector<CDetailManager::SlotItem *,xalloc<CDetailManager::SlotItem *> > *,xalloc<xr_vector<CDetailManager::SlotItem *,xalloc<CDetailManager::SlotItem *> > *> >,xalloc<xr_vector<xr_vector<CDetailManager::SlotItem *,xalloc<CDetailManager::SlotItem *> > *,xalloc<xr_vector<CDetailManager::SlotItem *,xalloc<CDetailManager::SlotItem *> > *> > > >::clear
PUBLIC	?_Destroy@?$vector@V?$xr_vector@PAV?$xr_vector@PAUSlotItem@CDetailManager@@V?$xalloc@PAUSlotItem@CDetailManager@@@@@@V?$xalloc@PAV?$xr_vector@PAUSlotItem@CDetailManager@@V?$xalloc@PAUSlotItem@CDetailManager@@@@@@@@@@V?$xalloc@V?$xr_vector@PAV?$xr_vector@PAUSlotItem@CDetailManager@@V?$xalloc@PAUSlotItem@CDetailManager@@@@@@V?$xalloc@PAV?$xr_vector@PAUSlotItem@CDetailManager@@V?$xalloc@PAUSlotItem@CDetailManager@@@@@@@@@@@@@std@@AAEXPAV?$xr_vector@PAV?$xr_vector@PAUSlotItem@CDetailManager@@V?$xalloc@PAUSlotItem@CDetailManager@@@@@@V?$xalloc@PAV?$xr_vector@PAUSlotItem@CDetailManager@@V?$xalloc@PAUSlotItem@CDetailManager@@@@@@@@@@0@Z ; std::vector<xr_vector<xr_vector<CDetailManager::SlotItem *,xalloc<CDetailManager::SlotItem *> > *,xalloc<xr_vector<CDetailManager::SlotItem *,xalloc<CDetailManager::SlotItem *> > *> >,xalloc<xr_vector<xr_vector<CDetailManager::SlotItem *,xalloc<CDetailManager::SlotItem *> > *,xalloc<xr_vector<CDetailManager::SlotItem *,xalloc<CDetailManager::SlotItem *> > *> > > >::_Destroy
PUBLIC	?_Getal@?$vector@V?$xr_vector@PAV?$xr_vector@PAUSlotItem@CDetailManager@@V?$xalloc@PAUSlotItem@CDetailManager@@@@@@V?$xalloc@PAV?$xr_vector@PAUSlotItem@CDetailManager@@V?$xalloc@PAUSlotItem@CDetailManager@@@@@@@@@@V?$xalloc@V?$xr_vector@PAV?$xr_vector@PAUSlotItem@CDetailManager@@V?$xalloc@PAUSlotItem@CDetailManager@@@@@@V?$xalloc@PAV?$xr_vector@PAUSlotItem@CDetailManager@@V?$xalloc@PAUSlotItem@CDetailManager@@@@@@@@@@@@@std@@AAEAAV?$xalloc@V?$xr_vector@PAV?$xr_vector@PAUSlotItem@CDetailManager@@V?$xalloc@PAUSlotItem@CDetailManager@@@@@@V?$xalloc@PAV?$xr_vector@PAUSlotItem@CDetailManager@@V?$xalloc@PAUSlotItem@CDetailManager@@@@@@@@@@@@XZ ; std::vector<xr_vector<xr_vector<CDetailManager::SlotItem *,xalloc<CDetailManager::SlotItem *> > *,xalloc<xr_vector<CDetailManager::SlotItem *,xalloc<CDetailManager::SlotItem *> > *> >,xalloc<xr_vector<xr_vector<CDetailManager::SlotItem *,xalloc<CDetailManager::SlotItem *> > *,xalloc<xr_vector<CDetailManager::SlotItem *,xalloc<CDetailManager::SlotItem *> > *> > > >::_Getal
PUBLIC	??H?$_Vector_iterator@V?$_Vector_val@U?$_Simple_types@PAUSlotItem@CDetailManager@@@std@@@std@@@std@@QBE?AV01@H@Z ; std::_Vector_iterator<std::_Vector_val<std::_Simple_types<CDetailManager::SlotItem *> > >::operator+
PUBLIC	?_Get_first@?$_Compressed_pair@V?$xalloc@PAV?$xr_vector@PAUSlotItem@CDetailManager@@V?$xalloc@PAUSlotItem@CDetailManager@@@@@@@@V?$_Vector_val@U?$_Simple_types@PAV?$xr_vector@PAUSlotItem@CDetailManager@@V?$xalloc@PAUSlotItem@CDetailManager@@@@@@@std@@@std@@$00@std@@QAEAAV?$xalloc@PAV?$xr_vector@PAUSlotItem@CDetailManager@@V?$xalloc@PAUSlotItem@CDetailManager@@@@@@@@XZ ; std::_Compressed_pair<xalloc<xr_vector<CDetailManager::SlotItem *,xalloc<CDetailManager::SlotItem *> > *>,std::_Vector_val<std::_Simple_types<xr_vector<CDetailManager::SlotItem *,xalloc<CDetailManager::SlotItem *> > *> >,1>::_Get_first
PUBLIC	??0?$_Vector_const_iterator@V?$_Vector_val@U?$_Simple_types@V?$xr_vector@PAV?$xr_vector@PAUSlotItem@CDetailManager@@V?$xalloc@PAUSlotItem@CDetailManager@@@@@@V?$xalloc@PAV?$xr_vector@PAUSlotItem@CDetailManager@@V?$xalloc@PAUSlotItem@CDetailManager@@@@@@@@@@@std@@@std@@@std@@QAE@PAV?$xr_vector@PAV?$xr_vector@PAUSlotItem@CDetailManager@@V?$xalloc@PAUSlotItem@CDetailManager@@@@@@V?$xalloc@PAV?$xr_vector@PAUSlotItem@CDetailManager@@V?$xalloc@PAUSlotItem@CDetailManager@@@@@@@@@@PBU_Container_base0@1@@Z ; std::_Vector_const_iterator<std::_Vector_val<std::_Simple_types<xr_vector<xr_vector<CDetailManager::SlotItem *,xalloc<CDetailManager::SlotItem *> > *,xalloc<xr_vector<CDetailManager::SlotItem *,xalloc<CDetailManager::SlotItem *> > *> > > > >::_Vector_const_iterator<std::_Vector_val<std::_Simple_types<xr_vector<xr_vector<CDetailManager::SlotItem *,xalloc<CDetailManager::SlotItem *> > *,xalloc<xr_vector<CDetailManager::SlotItem *,xalloc<CDetailManager::SlotItem *> > *> > > > >
PUBLIC	??D?$_Vector_const_iterator@V?$_Vector_val@U?$_Simple_types@V?$xr_vector@PAV?$xr_vector@PAUSlotItem@CDetailManager@@V?$xalloc@PAUSlotItem@CDetailManager@@@@@@V?$xalloc@PAV?$xr_vector@PAUSlotItem@CDetailManager@@V?$xalloc@PAUSlotItem@CDetailManager@@@@@@@@@@@std@@@std@@@std@@QBEABV?$xr_vector@PAV?$xr_vector@PAUSlotItem@CDetailManager@@V?$xalloc@PAUSlotItem@CDetailManager@@@@@@V?$xalloc@PAV?$xr_vector@PAUSlotItem@CDetailManager@@V?$xalloc@PAUSlotItem@CDetailManager@@@@@@@@@@XZ ; std::_Vector_const_iterator<std::_Vector_val<std::_Simple_types<xr_vector<xr_vector<CDetailManager::SlotItem *,xalloc<CDetailManager::SlotItem *> > *,xalloc<xr_vector<CDetailManager::SlotItem *,xalloc<CDetailManager::SlotItem *> > *> > > > >::operator*
PUBLIC	??Y?$_Vector_iterator@V?$_Vector_val@U?$_Simple_types@V?$xr_vector@PAV?$xr_vector@PAUSlotItem@CDetailManager@@V?$xalloc@PAUSlotItem@CDetailManager@@@@@@V?$xalloc@PAV?$xr_vector@PAUSlotItem@CDetailManager@@V?$xalloc@PAUSlotItem@CDetailManager@@@@@@@@@@@std@@@std@@@std@@QAEAAV01@H@Z ; std::_Vector_iterator<std::_Vector_val<std::_Simple_types<xr_vector<xr_vector<CDetailManager::SlotItem *,xalloc<CDetailManager::SlotItem *> > *,xalloc<xr_vector<CDetailManager::SlotItem *,xalloc<CDetailManager::SlotItem *> > *> > > > >::operator+=
PUBLIC	??0?$_Vector_iterator@V?$_Vector_val@U?$_Simple_types@V?$xr_vector@PAV?$xr_vector@PAUSlotItem@CDetailManager@@V?$xalloc@PAUSlotItem@CDetailManager@@@@@@V?$xalloc@PAV?$xr_vector@PAUSlotItem@CDetailManager@@V?$xalloc@PAUSlotItem@CDetailManager@@@@@@@@@@@std@@@std@@@std@@QAE@PAV?$xr_vector@PAV?$xr_vector@PAUSlotItem@CDetailManager@@V?$xalloc@PAUSlotItem@CDetailManager@@@@@@V?$xalloc@PAV?$xr_vector@PAUSlotItem@CDetailManager@@V?$xalloc@PAUSlotItem@CDetailManager@@@@@@@@@@PBU_Container_base0@1@@Z ; std::_Vector_iterator<std::_Vector_val<std::_Simple_types<xr_vector<xr_vector<CDetailManager::SlotItem *,xalloc<CDetailManager::SlotItem *> > *,xalloc<xr_vector<CDetailManager::SlotItem *,xalloc<CDetailManager::SlotItem *> > *> > > > >::_Vector_iterator<std::_Vector_val<std::_Simple_types<xr_vector<xr_vector<CDetailManager::SlotItem *,xalloc<CDetailManager::SlotItem *> > *,xalloc<xr_vector<CDetailManager::SlotItem *,xalloc<CDetailManager::SlotItem *> > *> > > > >
PUBLIC	?erase@?$vector@PAUSlotItem@CDetailManager@@V?$xalloc@PAUSlotItem@CDetailManager@@@@@std@@QAE?AV?$_Vector_iterator@V?$_Vector_val@U?$_Simple_types@PAUSlotItem@CDetailManager@@@std@@@std@@@2@V?$_Vector_const_iterator@V?$_Vector_val@U?$_Simple_types@PAUSlotItem@CDetailManager@@@std@@@std@@@2@0@Z ; std::vector<CDetailManager::SlotItem *,xalloc<CDetailManager::SlotItem *> >::erase
PUBLIC	?_Orphan_range@?$vector@PAUSlotItem@CDetailManager@@V?$xalloc@PAUSlotItem@CDetailManager@@@@@std@@ABEXPAPAUSlotItem@CDetailManager@@0@Z ; std::vector<CDetailManager::SlotItem *,xalloc<CDetailManager::SlotItem *> >::_Orphan_range
PUBLIC	?size@?$xr_vector@PAUSlotItem@CDetailManager@@V?$xalloc@PAUSlotItem@CDetailManager@@@@@@QBEIXZ ; xr_vector<CDetailManager::SlotItem *,xalloc<CDetailManager::SlotItem *> >::size
PUBLIC	??A?$xr_vector@PAUSlotItem@CDetailManager@@V?$xalloc@PAUSlotItem@CDetailManager@@@@@@QAEAAPAUSlotItem@CDetailManager@@I@Z ; xr_vector<CDetailManager::SlotItem *,xalloc<CDetailManager::SlotItem *> >::operator[]
PUBLIC	??0?$vector@V?$xr_vector@PAV?$xr_vector@PAUSlotItem@CDetailManager@@V?$xalloc@PAUSlotItem@CDetailManager@@@@@@V?$xalloc@PAV?$xr_vector@PAUSlotItem@CDetailManager@@V?$xalloc@PAUSlotItem@CDetailManager@@@@@@@@@@V?$xalloc@V?$xr_vector@PAV?$xr_vector@PAUSlotItem@CDetailManager@@V?$xalloc@PAUSlotItem@CDetailManager@@@@@@V?$xalloc@PAV?$xr_vector@PAUSlotItem@CDetailManager@@V?$xalloc@PAUSlotItem@CDetailManager@@@@@@@@@@@@@std@@QAE@XZ ; std::vector<xr_vector<xr_vector<CDetailManager::SlotItem *,xalloc<CDetailManager::SlotItem *> > *,xalloc<xr_vector<CDetailManager::SlotItem *,xalloc<CDetailManager::SlotItem *> > *> >,xalloc<xr_vector<xr_vector<CDetailManager::SlotItem *,xalloc<CDetailManager::SlotItem *> > *,xalloc<xr_vector<CDetailManager::SlotItem *,xalloc<CDetailManager::SlotItem *> > *> > > >::vector<xr_vector<xr_vector<CDetailManager::SlotItem *,xalloc<CDetailManager::SlotItem *> > *,xalloc<xr_vector<CDetailManager::SlotItem *,xalloc<CDetailManager::SlotItem *> > *> >,xalloc<xr_vector<xr_vector<CDetailManager::SlotItem *,xalloc<CDetailManager::SlotItem *> > *,xalloc<xr_vector<CDetailManager::SlotItem *,xalloc<CDetailManager::SlotItem *> > *> > > >
PUBLIC	?begin@?$vector@V?$xr_vector@PAV?$xr_vector@PAUSlotItem@CDetailManager@@V?$xalloc@PAUSlotItem@CDetailManager@@@@@@V?$xalloc@PAV?$xr_vector@PAUSlotItem@CDetailManager@@V?$xalloc@PAUSlotItem@CDetailManager@@@@@@@@@@V?$xalloc@V?$xr_vector@PAV?$xr_vector@PAUSlotItem@CDetailManager@@V?$xalloc@PAUSlotItem@CDetailManager@@@@@@V?$xalloc@PAV?$xr_vector@PAUSlotItem@CDetailManager@@V?$xalloc@PAUSlotItem@CDetailManager@@@@@@@@@@@@@std@@QAE?AV?$_Vector_iterator@V?$_Vector_val@U?$_Simple_types@V?$xr_vector@PAV?$xr_vector@PAUSlotItem@CDetailManager@@V?$xalloc@PAUSlotItem@CDetailManager@@@@@@V?$xalloc@PAV?$xr_vector@PAUSlotItem@CDetailManager@@V?$xalloc@PAUSlotItem@CDetailManager@@@@@@@@@@@std@@@std@@@2@XZ ; std::vector<xr_vector<xr_vector<CDetailManager::SlotItem *,xalloc<CDetailManager::SlotItem *> > *,xalloc<xr_vector<CDetailManager::SlotItem *,xalloc<CDetailManager::SlotItem *> > *> >,xalloc<xr_vector<xr_vector<CDetailManager::SlotItem *,xalloc<CDetailManager::SlotItem *> > *,xalloc<xr_vector<CDetailManager::SlotItem *,xalloc<CDetailManager::SlotItem *> > *> > > >::begin
PUBLIC	?_Tidy@?$vector@V?$xr_vector@PAV?$xr_vector@PAUSlotItem@CDetailManager@@V?$xalloc@PAUSlotItem@CDetailManager@@@@@@V?$xalloc@PAV?$xr_vector@PAUSlotItem@CDetailManager@@V?$xalloc@PAUSlotItem@CDetailManager@@@@@@@@@@V?$xalloc@V?$xr_vector@PAV?$xr_vector@PAUSlotItem@CDetailManager@@V?$xalloc@PAUSlotItem@CDetailManager@@@@@@V?$xalloc@PAV?$xr_vector@PAUSlotItem@CDetailManager@@V?$xalloc@PAUSlotItem@CDetailManager@@@@@@@@@@@@@std@@AAEXXZ ; std::vector<xr_vector<xr_vector<CDetailManager::SlotItem *,xalloc<CDetailManager::SlotItem *> > *,xalloc<xr_vector<CDetailManager::SlotItem *,xalloc<CDetailManager::SlotItem *> > *> >,xalloc<xr_vector<xr_vector<CDetailManager::SlotItem *,xalloc<CDetailManager::SlotItem *> > *,xalloc<xr_vector<CDetailManager::SlotItem *,xalloc<CDetailManager::SlotItem *> > *> > > >::_Tidy
PUBLIC	?clear_and_free@?$xr_vector@V?$xr_vector@PAV?$xr_vector@PAUSlotItem@CDetailManager@@V?$xalloc@PAUSlotItem@CDetailManager@@@@@@V?$xalloc@PAV?$xr_vector@PAUSlotItem@CDetailManager@@V?$xalloc@PAUSlotItem@CDetailManager@@@@@@@@@@V?$xalloc@V?$xr_vector@PAV?$xr_vector@PAUSlotItem@CDetailManager@@V?$xalloc@PAUSlotItem@CDetailManager@@@@@@V?$xalloc@PAV?$xr_vector@PAUSlotItem@CDetailManager@@V?$xalloc@PAUSlotItem@CDetailManager@@@@@@@@@@@@@@QAEXXZ ; xr_vector<xr_vector<xr_vector<CDetailManager::SlotItem *,xalloc<CDetailManager::SlotItem *> > *,xalloc<xr_vector<CDetailManager::SlotItem *,xalloc<CDetailManager::SlotItem *> > *> >,xalloc<xr_vector<xr_vector<CDetailManager::SlotItem *,xalloc<CDetailManager::SlotItem *> > *,xalloc<xr_vector<CDetailManager::SlotItem *,xalloc<CDetailManager::SlotItem *> > *> > > >::clear_and_free
PUBLIC	??0?$_Vector_const_iterator@V?$_Vector_val@U?$_Simple_types@PAUSlotItem@CDetailManager@@@std@@@std@@@std@@QAE@PAPAUSlotItem@CDetailManager@@PBU_Container_base0@1@@Z ; std::_Vector_const_iterator<std::_Vector_val<std::_Simple_types<CDetailManager::SlotItem *> > >::_Vector_const_iterator<std::_Vector_val<std::_Simple_types<CDetailManager::SlotItem *> > >
PUBLIC	??D?$_Vector_const_iterator@V?$_Vector_val@U?$_Simple_types@PAUSlotItem@CDetailManager@@@std@@@std@@@std@@QBEABQAUSlotItem@CDetailManager@@XZ ; std::_Vector_const_iterator<std::_Vector_val<std::_Simple_types<CDetailManager::SlotItem *> > >::operator*
PUBLIC	?_Orphan_range@?$vector@PAV?$xr_vector@PAUSlotItem@CDetailManager@@V?$xalloc@PAUSlotItem@CDetailManager@@@@@@V?$xalloc@PAV?$xr_vector@PAUSlotItem@CDetailManager@@V?$xalloc@PAUSlotItem@CDetailManager@@@@@@@@@std@@ABEXPAPAV?$xr_vector@PAUSlotItem@CDetailManager@@V?$xalloc@PAUSlotItem@CDetailManager@@@@@@0@Z ; std::vector<xr_vector<CDetailManager::SlotItem *,xalloc<CDetailManager::SlotItem *> > *,xalloc<xr_vector<CDetailManager::SlotItem *,xalloc<CDetailManager::SlotItem *> > *> >::_Orphan_range
PUBLIC	?_Getal@?$vector@PAV?$xr_vector@PAUSlotItem@CDetailManager@@V?$xalloc@PAUSlotItem@CDetailManager@@@@@@V?$xalloc@PAV?$xr_vector@PAUSlotItem@CDetailManager@@V?$xalloc@PAUSlotItem@CDetailManager@@@@@@@@@std@@AAEAAV?$xalloc@PAV?$xr_vector@PAUSlotItem@CDetailManager@@V?$xalloc@PAUSlotItem@CDetailManager@@@@@@@@XZ ; std::vector<xr_vector<CDetailManager::SlotItem *,xalloc<CDetailManager::SlotItem *> > *,xalloc<xr_vector<CDetailManager::SlotItem *,xalloc<CDetailManager::SlotItem *> > *> >::_Getal
PUBLIC	??D?$_Vector_iterator@V?$_Vector_val@U?$_Simple_types@V?$xr_vector@PAV?$xr_vector@PAUSlotItem@CDetailManager@@V?$xalloc@PAUSlotItem@CDetailManager@@@@@@V?$xalloc@PAV?$xr_vector@PAUSlotItem@CDetailManager@@V?$xalloc@PAUSlotItem@CDetailManager@@@@@@@@@@@std@@@std@@@std@@QBEAAV?$xr_vector@PAV?$xr_vector@PAUSlotItem@CDetailManager@@V?$xalloc@PAUSlotItem@CDetailManager@@@@@@V?$xalloc@PAV?$xr_vector@PAUSlotItem@CDetailManager@@V?$xalloc@PAUSlotItem@CDetailManager@@@@@@@@@@XZ ; std::_Vector_iterator<std::_Vector_val<std::_Simple_types<xr_vector<xr_vector<CDetailManager::SlotItem *,xalloc<CDetailManager::SlotItem *> > *,xalloc<xr_vector<CDetailManager::SlotItem *,xalloc<CDetailManager::SlotItem *> > *> > > > >::operator*
PUBLIC	??H?$_Vector_iterator@V?$_Vector_val@U?$_Simple_types@V?$xr_vector@PAV?$xr_vector@PAUSlotItem@CDetailManager@@V?$xalloc@PAUSlotItem@CDetailManager@@@@@@V?$xalloc@PAV?$xr_vector@PAUSlotItem@CDetailManager@@V?$xalloc@PAUSlotItem@CDetailManager@@@@@@@@@@@std@@@std@@@std@@QBE?AV01@H@Z ; std::_Vector_iterator<std::_Vector_val<std::_Simple_types<xr_vector<xr_vector<CDetailManager::SlotItem *,xalloc<CDetailManager::SlotItem *> > *,xalloc<xr_vector<CDetailManager::SlotItem *,xalloc<CDetailManager::SlotItem *> > *> > > > >::operator+
PUBLIC	??0?$_Vector_iterator@V?$_Vector_val@U?$_Simple_types@PAUSlotItem@CDetailManager@@@std@@@std@@@std@@QAE@PAPAUSlotItem@CDetailManager@@PBU_Container_base0@1@@Z ; std::_Vector_iterator<std::_Vector_val<std::_Simple_types<CDetailManager::SlotItem *> > >::_Vector_iterator<std::_Vector_val<std::_Simple_types<CDetailManager::SlotItem *> > >
PUBLIC	?distance_to_sqr@?$_vector3@M@@QBEMABU1@@Z	; _vector3<float>::distance_to_sqr
PUBLIC	??0?$resptr_core@UR_constant@@V?$resptr_base@UR_constant@@@@@@QAE@XZ ; resptr_core<R_constant,resptr_base<R_constant> >::resptr_core<R_constant,resptr_base<R_constant> >
PUBLIC	?data@?$_box3@M@@QBEPBMXZ			; _box3<float>::data
PUBLIC	??$_Emplace_back_with_unused_capacity@ABQAUSlotItem@CDetailManager@@@?$vector@PAUSlotItem@CDetailManager@@V?$xalloc@PAUSlotItem@CDetailManager@@@@@std@@AAE?A_TABQAUSlotItem@CDetailManager@@@Z ; std::vector<CDetailManager::SlotItem *,xalloc<CDetailManager::SlotItem *> >::_Emplace_back_with_unused_capacity<CDetailManager::SlotItem * const &>
PUBLIC	??$emplace_back@ABQAUSlotItem@CDetailManager@@@?$vector@PAUSlotItem@CDetailManager@@V?$xalloc@PAUSlotItem@CDetailManager@@@@@std@@QAE?A_TABQAUSlotItem@CDetailManager@@@Z ; std::vector<CDetailManager::SlotItem *,xalloc<CDetailManager::SlotItem *> >::emplace_back<CDetailManager::SlotItem * const &>
PUBLIC	?push_back@?$vector@PAUSlotItem@CDetailManager@@V?$xalloc@PAUSlotItem@CDetailManager@@@@@std@@QAEXABQAUSlotItem@CDetailManager@@@Z ; std::vector<CDetailManager::SlotItem *,xalloc<CDetailManager::SlotItem *> >::push_back
PUBLIC	?begin@?$vector@PAUSlotItem@CDetailManager@@V?$xalloc@PAUSlotItem@CDetailManager@@@@@std@@QAE?AV?$_Vector_iterator@V?$_Vector_val@U?$_Simple_types@PAUSlotItem@CDetailManager@@@std@@@std@@@2@XZ ; std::vector<CDetailManager::SlotItem *,xalloc<CDetailManager::SlotItem *> >::begin
PUBLIC	?end@?$vector@PAUSlotItem@CDetailManager@@V?$xalloc@PAUSlotItem@CDetailManager@@@@@std@@QAE?AV?$_Vector_iterator@V?$_Vector_val@U?$_Simple_types@PAUSlotItem@CDetailManager@@@std@@@std@@@2@XZ ; std::vector<CDetailManager::SlotItem *,xalloc<CDetailManager::SlotItem *> >::end
PUBLIC	?empty@?$vector@PAUSlotItem@CDetailManager@@V?$xalloc@PAUSlotItem@CDetailManager@@@@@std@@QBE_NXZ ; std::vector<CDetailManager::SlotItem *,xalloc<CDetailManager::SlotItem *> >::empty
PUBLIC	?clear_not_free@?$xr_vector@PAUSlotItem@CDetailManager@@V?$xalloc@PAUSlotItem@CDetailManager@@@@@@QAEXXZ ; xr_vector<CDetailManager::SlotItem *,xalloc<CDetailManager::SlotItem *> >::clear_not_free
PUBLIC	??0?$svector@PAVCDetail@@$0EA@@@QAE@XZ		; svector<CDetail *,64>::svector<CDetail *,64>
PUBLIC	?begin@?$svector@PAVCDetail@@$0EA@@@QAEPAPAVCDetail@@XZ ; svector<CDetail *,64>::begin
PUBLIC	?end@?$svector@PAVCDetail@@$0EA@@@QAEPAPAVCDetail@@XZ ; svector<CDetail *,64>::end
PUBLIC	?size@?$svector@PAVCDetail@@$0EA@@@QBEIXZ	; svector<CDetail *,64>::size
PUBLIC	?clear@?$svector@PAVCDetail@@$0EA@@@QAEXXZ	; svector<CDetail *,64>::clear
PUBLIC	?push_back@?$svector@PAVCDetail@@$0EA@@@QAEXPAVCDetail@@@Z ; svector<CDetail *,64>::push_back
PUBLIC	??A?$svector@PAVCDetail@@$0EA@@@QAEAAPAVCDetail@@I@Z ; svector<CDetail *,64>::operator[]
PUBLIC	??1?$vector@V?$xr_vector@PAV?$xr_vector@PAUSlotItem@CDetailManager@@V?$xalloc@PAUSlotItem@CDetailManager@@@@@@V?$xalloc@PAV?$xr_vector@PAUSlotItem@CDetailManager@@V?$xalloc@PAUSlotItem@CDetailManager@@@@@@@@@@V?$xalloc@V?$xr_vector@PAV?$xr_vector@PAUSlotItem@CDetailManager@@V?$xalloc@PAUSlotItem@CDetailManager@@@@@@V?$xalloc@PAV?$xr_vector@PAUSlotItem@CDetailManager@@V?$xalloc@PAUSlotItem@CDetailManager@@@@@@@@@@@@@std@@QAE@XZ ; std::vector<xr_vector<xr_vector<CDetailManager::SlotItem *,xalloc<CDetailManager::SlotItem *> > *,xalloc<xr_vector<CDetailManager::SlotItem *,xalloc<CDetailManager::SlotItem *> > *> >,xalloc<xr_vector<xr_vector<CDetailManager::SlotItem *,xalloc<CDetailManager::SlotItem *> > *,xalloc<xr_vector<CDetailManager::SlotItem *,xalloc<CDetailManager::SlotItem *> > *> > > >::~vector<xr_vector<xr_vector<CDetailManager::SlotItem *,xalloc<CDetailManager::SlotItem *> > *,xalloc<xr_vector<CDetailManager::SlotItem *,xalloc<CDetailManager::SlotItem *> > *> >,xalloc<xr_vector<xr_vector<CDetailManager::SlotItem *,xalloc<CDetailManager::SlotItem *> > *,xalloc<xr_vector<CDetailManager::SlotItem *,xalloc<CDetailManager::SlotItem *> > *> > > >
PUBLIC	?resize@?$vector@V?$xr_vector@PAV?$xr_vector@PAUSlotItem@CDetailManager@@V?$xalloc@PAUSlotItem@CDetailManager@@@@@@V?$xalloc@PAV?$xr_vector@PAUSlotItem@CDetailManager@@V?$xalloc@PAUSlotItem@CDetailManager@@@@@@@@@@V?$xalloc@V?$xr_vector@PAV?$xr_vector@PAUSlotItem@CDetailManager@@V?$xalloc@PAUSlotItem@CDetailManager@@@@@@V?$xalloc@PAV?$xr_vector@PAUSlotItem@CDetailManager@@V?$xalloc@PAUSlotItem@CDetailManager@@@@@@@@@@@@@std@@QAEXI@Z ; std::vector<xr_vector<xr_vector<CDetailManager::SlotItem *,xalloc<CDetailManager::SlotItem *> > *,xalloc<xr_vector<CDetailManager::SlotItem *,xalloc<CDetailManager::SlotItem *> > *> >,xalloc<xr_vector<xr_vector<CDetailManager::SlotItem *,xalloc<CDetailManager::SlotItem *> > *,xalloc<xr_vector<CDetailManager::SlotItem *,xalloc<CDetailManager::SlotItem *> > *> > > >::resize
PUBLIC	??0?$xr_vector@V?$xr_vector@PAV?$xr_vector@PAUSlotItem@CDetailManager@@V?$xalloc@PAUSlotItem@CDetailManager@@@@@@V?$xalloc@PAV?$xr_vector@PAUSlotItem@CDetailManager@@V?$xalloc@PAUSlotItem@CDetailManager@@@@@@@@@@V?$xalloc@V?$xr_vector@PAV?$xr_vector@PAUSlotItem@CDetailManager@@V?$xalloc@PAUSlotItem@CDetailManager@@@@@@V?$xalloc@PAV?$xr_vector@PAUSlotItem@CDetailManager@@V?$xalloc@PAUSlotItem@CDetailManager@@@@@@@@@@@@@@QAE@XZ ; xr_vector<xr_vector<xr_vector<CDetailManager::SlotItem *,xalloc<CDetailManager::SlotItem *> > *,xalloc<xr_vector<CDetailManager::SlotItem *,xalloc<CDetailManager::SlotItem *> > *> >,xalloc<xr_vector<xr_vector<CDetailManager::SlotItem *,xalloc<CDetailManager::SlotItem *> > *,xalloc<xr_vector<CDetailManager::SlotItem *,xalloc<CDetailManager::SlotItem *> > *> > > >::xr_vector<xr_vector<xr_vector<CDetailManager::SlotItem *,xalloc<CDetailManager::SlotItem *> > *,xalloc<xr_vector<CDetailManager::SlotItem *,xalloc<CDetailManager::SlotItem *> > *> >,xalloc<xr_vector<xr_vector<CDetailManager::SlotItem *,xalloc<CDetailManager::SlotItem *> > *,xalloc<xr_vector<CDetailManager::SlotItem *,xalloc<CDetailManager::SlotItem *> > *> > > >
PUBLIC	?clear@?$xr_vector@V?$xr_vector@PAV?$xr_vector@PAUSlotItem@CDetailManager@@V?$xalloc@PAUSlotItem@CDetailManager@@@@@@V?$xalloc@PAV?$xr_vector@PAUSlotItem@CDetailManager@@V?$xalloc@PAUSlotItem@CDetailManager@@@@@@@@@@V?$xalloc@V?$xr_vector@PAV?$xr_vector@PAUSlotItem@CDetailManager@@V?$xalloc@PAUSlotItem@CDetailManager@@@@@@V?$xalloc@PAV?$xr_vector@PAUSlotItem@CDetailManager@@V?$xalloc@PAUSlotItem@CDetailManager@@@@@@@@@@@@@@QAEXXZ ; xr_vector<xr_vector<xr_vector<CDetailManager::SlotItem *,xalloc<CDetailManager::SlotItem *> > *,xalloc<xr_vector<CDetailManager::SlotItem *,xalloc<CDetailManager::SlotItem *> > *> >,xalloc<xr_vector<xr_vector<CDetailManager::SlotItem *,xalloc<CDetailManager::SlotItem *> > *,xalloc<xr_vector<CDetailManager::SlotItem *,xalloc<CDetailManager::SlotItem *> > *> > > >::clear
PUBLIC	??A?$xr_vector@V?$xr_vector@PAV?$xr_vector@PAUSlotItem@CDetailManager@@V?$xalloc@PAUSlotItem@CDetailManager@@@@@@V?$xalloc@PAV?$xr_vector@PAUSlotItem@CDetailManager@@V?$xalloc@PAUSlotItem@CDetailManager@@@@@@@@@@V?$xalloc@V?$xr_vector@PAV?$xr_vector@PAUSlotItem@CDetailManager@@V?$xalloc@PAUSlotItem@CDetailManager@@@@@@V?$xalloc@PAV?$xr_vector@PAUSlotItem@CDetailManager@@V?$xalloc@PAUSlotItem@CDetailManager@@@@@@@@@@@@@@QAEAAV?$xr_vector@PAV?$xr_vector@PAUSlotItem@CDetailManager@@V?$xalloc@PAUSlotItem@CDetailManager@@@@@@V?$xalloc@PAV?$xr_vector@PAUSlotItem@CDetailManager@@V?$xalloc@PAUSlotItem@CDetailManager@@@@@@@@@@I@Z ; xr_vector<xr_vector<xr_vector<CDetailManager::SlotItem *,xalloc<CDetailManager::SlotItem *> > *,xalloc<xr_vector<CDetailManager::SlotItem *,xalloc<CDetailManager::SlotItem *> > *> >,xalloc<xr_vector<xr_vector<CDetailManager::SlotItem *,xalloc<CDetailManager::SlotItem *> > *,xalloc<xr_vector<CDetailManager::SlotItem *,xalloc<CDetailManager::SlotItem *> > *> > > >::operator[]
PUBLIC	??0?$svector@PAUSlot@CDetailManager@@$0JGB@@@QAE@XZ ; svector<CDetailManager::Slot *,2401>::svector<CDetailManager::Slot *,2401>
PUBLIC	??0?$poolSS@USlotItem@CDetailManager@@$0BAAA@@@QAE@XZ ; poolSS<CDetailManager::SlotItem,4096>::poolSS<CDetailManager::SlotItem,4096>
PUBLIC	??1?$poolSS@USlotItem@CDetailManager@@$0BAAA@@@QAE@XZ ; poolSS<CDetailManager::SlotItem,4096>::~poolSS<CDetailManager::SlotItem,4096>
PUBLIC	??D?$_Vector_iterator@V?$_Vector_val@U?$_Simple_types@PAUSlotItem@CDetailManager@@@std@@@std@@@std@@QBEAAPAUSlotItem@CDetailManager@@XZ ; std::_Vector_iterator<std::_Vector_val<std::_Simple_types<CDetailManager::SlotItem *> > >::operator*
PUBLIC	??$_Emplace_back_with_unused_capacity@PAV?$xr_vector@PAUSlotItem@CDetailManager@@V?$xalloc@PAUSlotItem@CDetailManager@@@@@@@?$vector@PAV?$xr_vector@PAUSlotItem@CDetailManager@@V?$xalloc@PAUSlotItem@CDetailManager@@@@@@V?$xalloc@PAV?$xr_vector@PAUSlotItem@CDetailManager@@V?$xalloc@PAUSlotItem@CDetailManager@@@@@@@@@std@@AAE?A_T$$QAPAV?$xr_vector@PAUSlotItem@CDetailManager@@V?$xalloc@PAUSlotItem@CDetailManager@@@@@@@Z ; std::vector<xr_vector<CDetailManager::SlotItem *,xalloc<CDetailManager::SlotItem *> > *,xalloc<xr_vector<CDetailManager::SlotItem *,xalloc<CDetailManager::SlotItem *> > *> >::_Emplace_back_with_unused_capacity<xr_vector<CDetailManager::SlotItem *,xalloc<CDetailManager::SlotItem *> > *>
PUBLIC	??$emplace_back@PAV?$xr_vector@PAUSlotItem@CDetailManager@@V?$xalloc@PAUSlotItem@CDetailManager@@@@@@@?$vector@PAV?$xr_vector@PAUSlotItem@CDetailManager@@V?$xalloc@PAUSlotItem@CDetailManager@@@@@@V?$xalloc@PAV?$xr_vector@PAUSlotItem@CDetailManager@@V?$xalloc@PAUSlotItem@CDetailManager@@@@@@@@@std@@QAE?A_T$$QAPAV?$xr_vector@PAUSlotItem@CDetailManager@@V?$xalloc@PAUSlotItem@CDetailManager@@@@@@@Z ; std::vector<xr_vector<CDetailManager::SlotItem *,xalloc<CDetailManager::SlotItem *> > *,xalloc<xr_vector<CDetailManager::SlotItem *,xalloc<CDetailManager::SlotItem *> > *> >::emplace_back<xr_vector<CDetailManager::SlotItem *,xalloc<CDetailManager::SlotItem *> > *>
PUBLIC	?push_back@?$vector@PAV?$xr_vector@PAUSlotItem@CDetailManager@@V?$xalloc@PAUSlotItem@CDetailManager@@@@@@V?$xalloc@PAV?$xr_vector@PAUSlotItem@CDetailManager@@V?$xalloc@PAUSlotItem@CDetailManager@@@@@@@@@std@@QAEX$$QAPAV?$xr_vector@PAUSlotItem@CDetailManager@@V?$xalloc@PAUSlotItem@CDetailManager@@@@@@@Z ; std::vector<xr_vector<CDetailManager::SlotItem *,xalloc<CDetailManager::SlotItem *> > *,xalloc<xr_vector<CDetailManager::SlotItem *,xalloc<CDetailManager::SlotItem *> > *> >::push_back
PUBLIC	?MT_CALC@CDetailManager@@QAGXXZ			; CDetailManager::MT_CALC
PUBLIC	?Render@CDetailManager@@QAEXXZ			; CDetailManager::Render
PUBLIC	?UpdateVisibleM@CDetailManager@@QAEXXZ		; CDetailManager::UpdateVisibleM
PUBLIC	?Unload@CDetailManager@@QAEXXZ			; CDetailManager::Unload
PUBLIC	?Load@CDetailManager@@QAEXXZ			; CDetailManager::Load
PUBLIC	??1CDetailManager@@UAE@XZ			; CDetailManager::~CDetailManager
PUBLIC	??1Slot@CDetailManager@@QAE@XZ			; CDetailManager::Slot::~Slot
PUBLIC	??1?$xr_vector@V?$xr_vector@PAV?$xr_vector@PAUSlotItem@CDetailManager@@V?$xalloc@PAUSlotItem@CDetailManager@@@@@@V?$xalloc@PAV?$xr_vector@PAUSlotItem@CDetailManager@@V?$xalloc@PAUSlotItem@CDetailManager@@@@@@@@@@V?$xalloc@V?$xr_vector@PAV?$xr_vector@PAUSlotItem@CDetailManager@@V?$xalloc@PAUSlotItem@CDetailManager@@@@@@V?$xalloc@PAV?$xr_vector@PAUSlotItem@CDetailManager@@V?$xalloc@PAUSlotItem@CDetailManager@@@@@@@@@@@@@@QAE@XZ ; xr_vector<xr_vector<xr_vector<CDetailManager::SlotItem *,xalloc<CDetailManager::SlotItem *> > *,xalloc<xr_vector<CDetailManager::SlotItem *,xalloc<CDetailManager::SlotItem *> > *> >,xalloc<xr_vector<xr_vector<CDetailManager::SlotItem *,xalloc<CDetailManager::SlotItem *> > *,xalloc<xr_vector<CDetailManager::SlotItem *,xalloc<CDetailManager::SlotItem *> > *> > > >::~xr_vector<xr_vector<xr_vector<CDetailManager::SlotItem *,xalloc<CDetailManager::SlotItem *> > *,xalloc<xr_vector<CDetailManager::SlotItem *,xalloc<CDetailManager::SlotItem *> > *> >,xalloc<xr_vector<xr_vector<CDetailManager::SlotItem *,xalloc<CDetailManager::SlotItem *> > *,xalloc<xr_vector<CDetailManager::SlotItem *,xalloc<CDetailManager::SlotItem *> > *> > > >
PUBLIC	??_GCDetailManager@@UAEPAXI@Z			; CDetailManager::`scalar deleting destructor'
PUBLIC	??0CDetailManager@@QAE@XZ			; CDetailManager::CDetailManager
PUBLIC	?lerp@SSwingValue@CDetailManager@@QAEXABU12@0M@Z ; CDetailManager::SSwingValue::lerp
PUBLIC	?bwdithermap@@YAXHQAY0BA@H@Z			; bwdithermap
EXTRN	??_ECDetail@@UAEPAXI@Z:PROC			; CDetail::`vector deleting destructor'
EXTRN	??_ECDetailManager@@UAEPAXI@Z:PROC		; CDetailManager::`vector deleting destructor'
_volmd	DD	0ffffffffH
	DDSymXIndex: 	FLAT:?Render@CDetailManager@@QAEXXZ
	DD	020H
	DD	0211H
_volmd	DD	0ffffffffH
	DDSymXIndex: 	FLAT:?MT_CALC@CDetailManager@@QAGXXZ
	DD	03dH
	DD	054H
	DD	0204H
;	COMDAT xdata$x
xdata$x	SEGMENT
__ehfuncinfo$??$_Emplace_reallocate@PAV?$xr_vector@PAUSlotItem@CDetailManager@@V?$xalloc@PAUSlotItem@CDetailManager@@@@@@@?$vector@PAV?$xr_vector@PAUSlotItem@CDetailManager@@V?$xalloc@PAUSlotItem@CDetailManager@@@@@@V?$xalloc@PAV?$xr_vector@PAUSlotItem@CDetailManager@@V?$xalloc@PAUSlotItem@CDetailManager@@@@@@@@@std@@QAEPAPAV?$xr_vector@PAUSlotItem@CDetailManager@@V?$xalloc@PAUSlotItem@CDetailManager@@@@@@QAPAV2@$$QAPAV2@@Z DD 019930522H
	DD	02H
	DD	FLAT:__unwindtable$??$_Emplace_reallocate@PAV?$xr_vector@PAUSlotItem@CDetailManager@@V?$xalloc@PAUSlotItem@CDetailManager@@@@@@@?$vector@PAV?$xr_vector@PAUSlotItem@CDetailManager@@V?$xalloc@PAUSlotItem@CDetailManager@@@@@@V?$xalloc@PAV?$xr_vector@PAUSlotItem@CDetailManager@@V?$xalloc@PAUSlotItem@CDetailManager@@@@@@@@@std@@QAEPAPAV?$xr_vector@PAUSlotItem@CDetailManager@@V?$xalloc@PAUSlotItem@CDetailManager@@@@@@QAPAV2@$$QAPAV2@@Z
	DD	01H
	DD	FLAT:__tryblocktable$??$_Emplace_reallocate@PAV?$xr_vector@PAUSlotItem@CDetailManager@@V?$xalloc@PAUSlotItem@CDetailManager@@@@@@@?$vector@PAV?$xr_vector@PAUSlotItem@CDetailManager@@V?$xalloc@PAUSlotItem@CDetailManager@@@@@@V?$xalloc@PAV?$xr_vector@PAUSlotItem@CDetailManager@@V?$xalloc@PAUSlotItem@CDetailManager@@@@@@@@@std@@QAEPAPAV?$xr_vector@PAUSlotItem@CDetailManager@@V?$xalloc@PAUSlotItem@CDetailManager@@@@@@QAPAV2@$$QAPAV2@@Z
	DD	2 DUP(00H)
	DD	00H
	DD	00H
__unwindtable$??$_Emplace_reallocate@PAV?$xr_vector@PAUSlotItem@CDetailManager@@V?$xalloc@PAUSlotItem@CDetailManager@@@@@@@?$vector@PAV?$xr_vector@PAUSlotItem@CDetailManager@@V?$xalloc@PAUSlotItem@CDetailManager@@@@@@V?$xalloc@PAV?$xr_vector@PAUSlotItem@CDetailManager@@V?$xalloc@PAUSlotItem@CDetailManager@@@@@@@@@std@@QAEPAPAV?$xr_vector@PAUSlotItem@CDetailManager@@V?$xalloc@PAUSlotItem@CDetailManager@@@@@@QAPAV2@$$QAPAV2@@Z DD 0ffffffffH
	DD	00H
	DD	0ffffffffH
	DD	00H
__tryblocktable$??$_Emplace_reallocate@PAV?$xr_vector@PAUSlotItem@CDetailManager@@V?$xalloc@PAUSlotItem@CDetailManager@@@@@@@?$vector@PAV?$xr_vector@PAUSlotItem@CDetailManager@@V?$xalloc@PAUSlotItem@CDetailManager@@@@@@V?$xalloc@PAV?$xr_vector@PAUSlotItem@CDetailManager@@V?$xalloc@PAUSlotItem@CDetailManager@@@@@@@@@std@@QAEPAPAV?$xr_vector@PAUSlotItem@CDetailManager@@V?$xalloc@PAUSlotItem@CDetailManager@@@@@@QAPAV2@$$QAPAV2@@Z DD 00H
	DD	00H
	DD	01H
	DD	01H
	DD	FLAT:__catchsym$??$_Emplace_reallocate@PAV?$xr_vector@PAUSlotItem@CDetailManager@@V?$xalloc@PAUSlotItem@CDetailManager@@@@@@@?$vector@PAV?$xr_vector@PAUSlotItem@CDetailManager@@V?$xalloc@PAUSlotItem@CDetailManager@@@@@@V?$xalloc@PAV?$xr_vector@PAUSlotItem@CDetailManager@@V?$xalloc@PAUSlotItem@CDetailManager@@@@@@@@@std@@QAEPAPAV?$xr_vector@PAUSlotItem@CDetailManager@@V?$xalloc@PAUSlotItem@CDetailManager@@@@@@QAPAV2@$$QAPAV2@@Z$2
__catchsym$??$_Emplace_reallocate@PAV?$xr_vector@PAUSlotItem@CDetailManager@@V?$xalloc@PAUSlotItem@CDetailManager@@@@@@@?$vector@PAV?$xr_vector@PAUSlotItem@CDetailManager@@V?$xalloc@PAUSlotItem@CDetailManager@@@@@@V?$xalloc@PAV?$xr_vector@PAUSlotItem@CDetailManager@@V?$xalloc@PAUSlotItem@CDetailManager@@@@@@@@@std@@QAEPAPAV?$xr_vector@PAUSlotItem@CDetailManager@@V?$xalloc@PAUSlotItem@CDetailManager@@@@@@QAPAV2@$$QAPAV2@@Z$2 DD 00H
	DD	00H
	DD	00H
	DD	FLAT:__catch$??$_Emplace_reallocate@PAV?$xr_vector@PAUSlotItem@CDetailManager@@V?$xalloc@PAUSlotItem@CDetailManager@@@@@@@?$vector@PAV?$xr_vector@PAUSlotItem@CDetailManager@@V?$xalloc@PAUSlotItem@CDetailManager@@@@@@V?$xalloc@PAV?$xr_vector@PAUSlotItem@CDetailManager@@V?$xalloc@PAUSlotItem@CDetailManager@@@@@@@@@std@@QAEPAPAV?$xr_vector@PAUSlotItem@CDetailManager@@V?$xalloc@PAUSlotItem@CDetailManager@@@@@@QAPAV2@$$QAPAV2@@Z$0
xdata$x	ENDS
;	COMDAT xdata$x
xdata$x	SEGMENT
__ehfuncinfo$??$_Emplace_reallocate@ABQAUSlotItem@CDetailManager@@@?$vector@PAUSlotItem@CDetailManager@@V?$xalloc@PAUSlotItem@CDetailManager@@@@@std@@QAEPAPAUSlotItem@CDetailManager@@QAPAU23@ABQAU23@@Z DD 019930522H
	DD	02H
	DD	FLAT:__unwindtable$??$_Emplace_reallocate@ABQAUSlotItem@CDetailManager@@@?$vector@PAUSlotItem@CDetailManager@@V?$xalloc@PAUSlotItem@CDetailManager@@@@@std@@QAEPAPAUSlotItem@CDetailManager@@QAPAU23@ABQAU23@@Z
	DD	01H
	DD	FLAT:__tryblocktable$??$_Emplace_reallocate@ABQAUSlotItem@CDetailManager@@@?$vector@PAUSlotItem@CDetailManager@@V?$xalloc@PAUSlotItem@CDetailManager@@@@@std@@QAEPAPAUSlotItem@CDetailManager@@QAPAU23@ABQAU23@@Z
	DD	2 DUP(00H)
	DD	00H
	DD	00H
__unwindtable$??$_Emplace_reallocate@ABQAUSlotItem@CDetailManager@@@?$vector@PAUSlotItem@CDetailManager@@V?$xalloc@PAUSlotItem@CDetailManager@@@@@std@@QAEPAPAUSlotItem@CDetailManager@@QAPAU23@ABQAU23@@Z DD 0ffffffffH
	DD	00H
	DD	0ffffffffH
	DD	00H
__tryblocktable$??$_Emplace_reallocate@ABQAUSlotItem@CDetailManager@@@?$vector@PAUSlotItem@CDetailManager@@V?$xalloc@PAUSlotItem@CDetailManager@@@@@std@@QAEPAPAUSlotItem@CDetailManager@@QAPAU23@ABQAU23@@Z DD 00H
	DD	00H
	DD	01H
	DD	01H
	DD	FLAT:__catchsym$??$_Emplace_reallocate@ABQAUSlotItem@CDetailManager@@@?$vector@PAUSlotItem@CDetailManager@@V?$xalloc@PAUSlotItem@CDetailManager@@@@@std@@QAEPAPAUSlotItem@CDetailManager@@QAPAU23@ABQAU23@@Z$2
__catchsym$??$_Emplace_reallocate@ABQAUSlotItem@CDetailManager@@@?$vector@PAUSlotItem@CDetailManager@@V?$xalloc@PAUSlotItem@CDetailManager@@@@@std@@QAEPAPAUSlotItem@CDetailManager@@QAPAU23@ABQAU23@@Z$2 DD 00H
	DD	00H
	DD	00H
	DD	FLAT:__catch$??$_Emplace_reallocate@ABQAUSlotItem@CDetailManager@@@?$vector@PAUSlotItem@CDetailManager@@V?$xalloc@PAUSlotItem@CDetailManager@@@@@std@@QAEPAPAUSlotItem@CDetailManager@@QAPAU23@ABQAU23@@Z$0
xdata$x	ENDS
;	COMDAT xdata$x
xdata$x	SEGMENT
__ehfuncinfo$??$_Resize_reallocate@U_Value_init_tag@std@@@?$vector@V?$xr_vector@PAV?$xr_vector@PAUSlotItem@CDetailManager@@V?$xalloc@PAUSlotItem@CDetailManager@@@@@@V?$xalloc@PAV?$xr_vector@PAUSlotItem@CDetailManager@@V?$xalloc@PAUSlotItem@CDetailManager@@@@@@@@@@V?$xalloc@V?$xr_vector@PAV?$xr_vector@PAUSlotItem@CDetailManager@@V?$xalloc@PAUSlotItem@CDetailManager@@@@@@V?$xalloc@PAV?$xr_vector@PAUSlotItem@CDetailManager@@V?$xalloc@PAUSlotItem@CDetailManager@@@@@@@@@@@@@std@@AAEXIABU_Value_init_tag@1@@Z DD 019930522H
	DD	02H
	DD	FLAT:__unwindtable$??$_Resize_reallocate@U_Value_init_tag@std@@@?$vector@V?$xr_vector@PAV?$xr_vector@PAUSlotItem@CDetailManager@@V?$xalloc@PAUSlotItem@CDetailManager@@@@@@V?$xalloc@PAV?$xr_vector@PAUSlotItem@CDetailManager@@V?$xalloc@PAUSlotItem@CDetailManager@@@@@@@@@@V?$xalloc@V?$xr_vector@PAV?$xr_vector@PAUSlotItem@CDetailManager@@V?$xalloc@PAUSlotItem@CDetailManager@@@@@@V?$xalloc@PAV?$xr_vector@PAUSlotItem@CDetailManager@@V?$xalloc@PAUSlotItem@CDetailManager@@@@@@@@@@@@@std@@AAEXIABU_Value_init_tag@1@@Z
	DD	01H
	DD	FLAT:__tryblocktable$??$_Resize_reallocate@U_Value_init_tag@std@@@?$vector@V?$xr_vector@PAV?$xr_vector@PAUSlotItem@CDetailManager@@V?$xalloc@PAUSlotItem@CDetailManager@@@@@@V?$xalloc@PAV?$xr_vector@PAUSlotItem@CDetailManager@@V?$xalloc@PAUSlotItem@CDetailManager@@@@@@@@@@V?$xalloc@V?$xr_vector@PAV?$xr_vector@PAUSlotItem@CDetailManager@@V?$xalloc@PAUSlotItem@CDetailManager@@@@@@V?$xalloc@PAV?$xr_vector@PAUSlotItem@CDetailManager@@V?$xalloc@PAUSlotItem@CDetailManager@@@@@@@@@@@@@std@@AAEXIABU_Value_init_tag@1@@Z
	DD	2 DUP(00H)
	DD	00H
	DD	00H
__unwindtable$??$_Resize_reallocate@U_Value_init_tag@std@@@?$vector@V?$xr_vector@PAV?$xr_vector@PAUSlotItem@CDetailManager@@V?$xalloc@PAUSlotItem@CDetailManager@@@@@@V?$xalloc@PAV?$xr_vector@PAUSlotItem@CDetailManager@@V?$xalloc@PAUSlotItem@CDetailManager@@@@@@@@@@V?$xalloc@V?$xr_vector@PAV?$xr_vector@PAUSlotItem@CDetailManager@@V?$xalloc@PAUSlotItem@CDetailManager@@@@@@V?$xalloc@PAV?$xr_vector@PAUSlotItem@CDetailManager@@V?$xalloc@PAUSlotItem@CDetailManager@@@@@@@@@@@@@std@@AAEXIABU_Value_init_tag@1@@Z DD 0ffffffffH
	DD	00H
	DD	0ffffffffH
	DD	00H
__tryblocktable$??$_Resize_reallocate@U_Value_init_tag@std@@@?$vector@V?$xr_vector@PAV?$xr_vector@PAUSlotItem@CDetailManager@@V?$xalloc@PAUSlotItem@CDetailManager@@@@@@V?$xalloc@PAV?$xr_vector@PAUSlotItem@CDetailManager@@V?$xalloc@PAUSlotItem@CDetailManager@@@@@@@@@@V?$xalloc@V?$xr_vector@PAV?$xr_vector@PAUSlotItem@CDetailManager@@V?$xalloc@PAUSlotItem@CDetailManager@@@@@@V?$xalloc@PAV?$xr_vector@PAUSlotItem@CDetailManager@@V?$xalloc@PAUSlotItem@CDetailManager@@@@@@@@@@@@@std@@AAEXIABU_Value_init_tag@1@@Z DD 00H
	DD	00H
	DD	01H
	DD	01H
	DD	FLAT:__catchsym$??$_Resize_reallocate@U_Value_init_tag@std@@@?$vector@V?$xr_vector@PAV?$xr_vector@PAUSlotItem@CDetailManager@@V?$xalloc@PAUSlotItem@CDetailManager@@@@@@V?$xalloc@PAV?$xr_vector@PAUSlotItem@CDetailManager@@V?$xalloc@PAUSlotItem@CDetailManager@@@@@@@@@@V?$xalloc@V?$xr_vector@PAV?$xr_vector@PAUSlotItem@CDetailManager@@V?$xalloc@PAUSlotItem@CDetailManager@@@@@@V?$xalloc@PAV?$xr_vector@PAUSlotItem@CDetailManager@@V?$xalloc@PAUSlotItem@CDetailManager@@@@@@@@@@@@@std@@AAEXIABU_Value_init_tag@1@@Z$2
__catchsym$??$_Resize_reallocate@U_Value_init_tag@std@@@?$vector@V?$xr_vector@PAV?$xr_vector@PAUSlotItem@CDetailManager@@V?$xalloc@PAUSlotItem@CDetailManager@@@@@@V?$xalloc@PAV?$xr_vector@PAUSlotItem@CDetailManager@@V?$xalloc@PAUSlotItem@CDetailManager@@@@@@@@@@V?$xalloc@V?$xr_vector@PAV?$xr_vector@PAUSlotItem@CDetailManager@@V?$xalloc@PAUSlotItem@CDetailManager@@@@@@V?$xalloc@PAV?$xr_vector@PAUSlotItem@CDetailManager@@V?$xalloc@PAUSlotItem@CDetailManager@@@@@@@@@@@@@std@@AAEXIABU_Value_init_tag@1@@Z$2 DD 00H
	DD	00H
	DD	00H
	DD	FLAT:__catch$??$_Resize_reallocate@U_Value_init_tag@std@@@?$vector@V?$xr_vector@PAV?$xr_vector@PAUSlotItem@CDetailManager@@V?$xalloc@PAUSlotItem@CDetailManager@@@@@@V?$xalloc@PAV?$xr_vector@PAUSlotItem@CDetailManager@@V?$xalloc@PAUSlotItem@CDetailManager@@@@@@@@@@V?$xalloc@V?$xr_vector@PAV?$xr_vector@PAUSlotItem@CDetailManager@@V?$xalloc@PAUSlotItem@CDetailManager@@@@@@V?$xalloc@PAV?$xr_vector@PAUSlotItem@CDetailManager@@V?$xalloc@PAUSlotItem@CDetailManager@@@@@@@@@@@@@std@@AAEXIABU_Value_init_tag@1@@Z$0
xdata$x	ENDS
;	COMDAT voltbl
voltbl	SEGMENT
_volmd	DB	01H
voltbl	ENDS
;	COMDAT voltbl
voltbl	SEGMENT
_volmd	DB	00H
	DB	0bH
; Function compile flags: /Ogtpy
; File I:\Vitalya\mine\NSProjectX\layers\xrRender\DetailManager.cpp
_TEXT	SEGMENT
tv748 = -20						; size = 4
tv758 = -16						; size = 4
tv762 = -12						; size = 4
_magic$1$ = -8						; size = 4
tv682 = -4						; size = 4
?bwdithermap@@YAXHQAY0BA@H@Z PROC			; bwdithermap
; _levels$dead$ = ecx
; _magic$ = edx

; 35   : {

	sub	esp, 20					; 00000014H

; 36   : 	/* Get size of each step */
; 37   :     float N = 255.0f / (levels - 1);
; 38   : 
; 39   : 	/*
; 40   : 	* Expand 4x4 dither pattern to 16x16.  4x4 leaves obvious patterning,
; 41   : 	* and doesn't give us full intensity range (only 17 sublevels).
; 42   : 	*
; 43   : 	* magicfact is (N - 1)/16 so that we get numbers in the matrix from 0 to
; 44   : 	* N - 1: mod N gives numbers in 0 to N - 1, don't ever want all
; 45   : 	* pixels incremented to the next level (this is reserved for the
; 46   : 	* pixel value with mod N == 0 at the next level).
; 47   : 	*/
; 48   : 
; 49   :     float	magicfact = (N - 1) / 16;

	fld	QWORD PTR __real@3fefc00000000000
	mov	ecx, edx
	push	ebx
	push	ebp
	push	esi
	mov	DWORD PTR _magic$1$[esp+32], edx
	mov	eax, OFFSET ?magic4x4@@3PAY03HA
	push	edi
$LN4@bwditherma:

; 51   : 		for ( int j = 0; j < 4; j++ )

	mov	DWORD PTR tv748[esp+36], eax
	mov	DWORD PTR tv758[esp+36], ecx
	mov	DWORD PTR tv762[esp+36], 4
$LN7@bwditherma:

; 52   : 			for ( int k = 0; k < 4; k++ )

	cvtsi2ss xmm0, DWORD PTR [eax]
	mov	esi, OFFSET ?magic4x4@@3PAY03HA
	mov	ebp, ecx
	mulss	xmm0, DWORD PTR __real@417e0000
	addss	xmm0, DWORD PTR __real@3f000000
	movss	DWORD PTR tv682[esp+36], xmm0
	fld	DWORD PTR tv682[esp+36]
$LN10@bwditherma:

; 53   : 				for ( int l = 0; l < 4; l++ )

	mov	edi, ebp
	mov	ebx, 4
$LN13@bwditherma:

; 54   : 					magic[4*k+i][4*l+j] =

	fild	DWORD PTR [esi]
	fmul	ST(0), ST(2)
	fadd	ST(0), ST(1)
	call	__ftol2_sse
	add	esi, 4
	mov	DWORD PTR [edi], eax
	lea	edi, DWORD PTR [edi+16]
	sub	ebx, 1
	jne	SHORT $LN13@bwditherma

; 52   : 			for ( int k = 0; k < 4; k++ )

	add	ebp, 256				; 00000100H
	cmp	esi, OFFSET ?magic4x4@@3PAY03HA+64
	jl	SHORT $LN10@bwditherma
	mov	eax, DWORD PTR tv748[esp+36]
	fstp	ST(0)
	mov	ecx, DWORD PTR tv758[esp+36]
	add	eax, 4
	add	ecx, 4
	mov	DWORD PTR tv748[esp+36], eax
	sub	DWORD PTR tv762[esp+36], 1
	mov	DWORD PTR tv758[esp+36], ecx
	jne	SHORT $LN7@bwditherma

; 50   :     for ( int i = 0; i < 4; i++ )

	mov	ecx, DWORD PTR _magic$1$[esp+36]
	add	ecx, 64					; 00000040H
	mov	DWORD PTR _magic$1$[esp+36], ecx
	cmp	eax, OFFSET ?magic4x4@@3PAY03HA+64
	jl	$LN4@bwditherma

; 55   : 					(int)(0.5 + magic4x4[i][j] * magicfact +
; 56   : 					(magic4x4[k][l] / 16.) * magicfact);
; 57   : }

	pop	edi
	pop	esi
	pop	ebp
	fstp	ST(0)
	pop	ebx
	add	esp, 20					; 00000014H
	ret	0
?bwdithermap@@YAXHQAY0BA@H@Z ENDP			; bwdithermap
_TEXT	ENDS
; Function compile flags: /Ogtpy
; File I:\Vitalya\mine\NSProjectX\layers\xrRender\DetailManager.cpp
_TEXT	SEGMENT
_A$ = 8							; size = 4
_B$ = 12						; size = 4
_f$ = 16						; size = 4
?lerp@SSwingValue@CDetailManager@@QAEXABU12@0M@Z PROC	; CDetailManager::SSwingValue::lerp
; _this$ = ecx

; 62   : 	float fi	= 1.f-f;

	movss	xmm2, DWORD PTR _f$[esp-4]
	movss	xmm3, DWORD PTR __real@3f800000

; 63   : 	amp1		= fi*A.amp1  + f*B.amp1;

	movaps	xmm0, xmm2
	mov	edx, DWORD PTR _A$[esp-4]
	subss	xmm3, xmm2
	mov	eax, DWORD PTR _B$[esp-4]
	mulss	xmm0, DWORD PTR [eax+8]
	movaps	xmm1, xmm3
	mulss	xmm1, DWORD PTR [edx+8]
	addss	xmm1, xmm0

; 64   : 	amp2		= fi*A.amp2  + f*B.amp2;

	movaps	xmm0, xmm2
	movss	DWORD PTR [ecx+8], xmm1
	movaps	xmm1, xmm3
	mulss	xmm1, DWORD PTR [edx+12]
	mulss	xmm0, DWORD PTR [eax+12]
	addss	xmm1, xmm0

; 65   : 	rot1		= fi*A.rot1  + f*B.rot1;

	movaps	xmm0, xmm2
	movss	DWORD PTR [ecx+12], xmm1
	movaps	xmm1, xmm3
	mulss	xmm1, DWORD PTR [edx]
	mulss	xmm0, DWORD PTR [eax]
	addss	xmm1, xmm0

; 66   : 	rot2		= fi*A.rot2  + f*B.rot2;

	movaps	xmm0, xmm2
	movss	DWORD PTR [ecx], xmm1
	movaps	xmm1, xmm3
	mulss	xmm1, DWORD PTR [edx+4]
	mulss	xmm0, DWORD PTR [eax+4]
	addss	xmm1, xmm0
	movss	DWORD PTR [ecx+4], xmm1

; 67   : 	speed		= fi*A.speed + f*B.speed;

	mulss	xmm3, DWORD PTR [edx+16]
	mulss	xmm2, DWORD PTR [eax+16]
	addss	xmm3, xmm2
	movss	DWORD PTR [ecx+16], xmm3

; 68   : }

	ret	12					; 0000000cH
?lerp@SSwingValue@CDetailManager@@QAEXABU12@0M@Z ENDP	; CDetailManager::SSwingValue::lerp
_TEXT	ENDS
; Function compile flags: /Ogtpy
; File I:\Vitalya\mine\NSProjectX\layers\xrRender\DetailManager.cpp
; File I:\Vitalya\mine\NSProjectX\xrCore\FixedVector.h
; File C:\Program Files\Microsoft Visual Studio\2022\Community\VC\Tools\MSVC\14.29.30133\include\vector
; File I:\Vitalya\mine\NSProjectX\layers\xrRender\DetailManager.cpp
; File I:\Vitalya\mine\NSProjectX\layers\xrRender\detailmanager.h
; File I:\Vitalya\mine\NSProjectX\xrCore\FixedVector.h
; File I:\Vitalya\mine\NSProjectX\layers\xrRender\DetailManager.cpp
; File I:\Vitalya\mine\NSProjectX\layers\xrRender\detailmanager.h
; File I:\Vitalya\mine\NSProjectX\layers\xrRender\DetailManager.cpp
; File C:\Program Files\Microsoft Visual Studio\2022\Community\VC\Tools\MSVC\14.29.30133\include\vector
; File I:\Vitalya\mine\NSProjectX\xrCore\xrPool.h
; File I:\Vitalya\mine\NSProjectX\xrCore\xr_resource.h
; File I:\Vitalya\mine\NSProjectX\layers\xrRender\DetailManager.cpp
; File I:\Vitalya\mine\NSProjectX\xrCore\xr_resource.h
; File I:\Vitalya\mine\NSProjectX\layers\xrRender\DetailManager.cpp
; File I:\Vitalya\mine\NSProjectX\xrCore\xr_resource.h
; File I:\Vitalya\mine\NSProjectX\layers\xrRender\DetailManager.cpp
_TEXT	SEGMENT
$T1 = -4						; size = 4
$T2 = -4						; size = 4
??0CDetailManager@@QAE@XZ PROC				; CDetailManager::CDetailManager
; _this$ = ecx

; 76   : {

	push	ecx
	push	ebx
	mov	ebx, ecx
	push	esi
	push	edi
	mov	DWORD PTR [ebx], OFFSET ??_7CDetailManager@@6B@
	lea	ecx, DWORD PTR [ebx+1432]
; File I:\Vitalya\mine\NSProjectX\xrCore\FixedVector.h

; 21   : 	svector() : count(0) 

	mov	DWORD PTR [ebx+1392], 0
; File C:\Program Files\Microsoft Visual Studio\2022\Community\VC\Tools\MSVC\14.29.30133\include\vector

; 390  :     _CONSTEXPR20_CONTAINER _Vector_val() noexcept : _Myfirst(), _Mylast(), _Myend() {}

	mov	DWORD PTR [ebx+1396], 0
	mov	DWORD PTR [ebx+1408], 0
	mov	DWORD PTR [ebx+1400], 0
	mov	DWORD PTR [ebx+1404], 0
	mov	DWORD PTR [ebx+1412], 0
	mov	DWORD PTR [ebx+1416], 0
	mov	DWORD PTR [ebx+1420], 0
	mov	DWORD PTR [ebx+1424], 0
	mov	DWORD PTR [ebx+1428], 0
; File I:\Vitalya\mine\NSProjectX\layers\xrRender\DetailManager.cpp

; 76   : {

	call	DWORD PTR __imp_??0xrXRC@@QAE@XZ
	lea	eax, DWORD PTR [ebx+1456]
	mov	edx, 144				; 00000090H
	npad	9
$LL18@CDetailMan:
; File I:\Vitalya\mine\NSProjectX\layers\xrRender\detailmanager.h

; 73   : 		CacheSlot1()				{empty=1; vis.clear();}

	lea	ecx, DWORD PTR [eax+4]
	mov	DWORD PTR [eax], 1
	call	?clear@vis_data@@QAEXXZ			; vis_data::clear
	lea	eax, DWORD PTR [eax+124]
	sub	edx, 1
	jne	SHORT $LL18@CDetailMan
; File I:\Vitalya\mine\NSProjectX\xrCore\FixedVector.h

; 21   : 	svector() : count(0) 

	mov	DWORD PTR [ebx+38520], edx
; File I:\Vitalya\mine\NSProjectX\layers\xrRender\DetailManager.cpp

; 76   : {

	lea	esi, DWORD PTR [ebx+38524]
	mov	edi, 2401				; 00000961H
$LL26@CDetailMan:
; File I:\Vitalya\mine\NSProjectX\layers\xrRender\detailmanager.h

; 67   : 									Slot()				{ frame=0;empty=1; type=stReady; sx=sz=0; vis.clear(); }

	push	OFFSET ??0SlotPart@CDetailManager@@QAE@XZ
	push	4
	push	52					; 00000034H
	lea	eax, DWORD PTR [esi+68]
	push	eax
	call	??_H@YGXPAXIIP6EPAX0@Z@Z
	lea	ecx, DWORD PTR [esi+12]
	mov	DWORD PTR [esi], 1
	mov	DWORD PTR [esi+8], 0
	mov	DWORD PTR [esi+4], 0
	call	?clear@vis_data@@QAEXXZ			; vis_data::clear
	lea	esi, DWORD PTR [esi+276]
	sub	edi, 1
	jne	SHORT $LL26@CDetailMan
; File I:\Vitalya\mine\NSProjectX\layers\xrRender\DetailManager.cpp

; 76   : {

	lea	ecx, DWORD PTR [ebx+701272]
; File C:\Program Files\Microsoft Visual Studio\2022\Community\VC\Tools\MSVC\14.29.30133\include\vector

; 390  :     _CONSTEXPR20_CONTAINER _Vector_val() noexcept : _Myfirst(), _Mylast(), _Myend() {}

	mov	DWORD PTR [ebx+701212], edi
	mov	DWORD PTR [ebx+701216], edi
	mov	DWORD PTR [ebx+701220], edi
; File I:\Vitalya\mine\NSProjectX\xrCore\xrPool.h

; 31   : 		list				= 0;

	mov	DWORD PTR [ebx+701208], edi
; File I:\Vitalya\mine\NSProjectX\xrCore\xr_resource.h

; 61   : 						resptr_core		()												{	p_ = 0;						}

	mov	DWORD PTR [ebx+701224], edi
	mov	DWORD PTR [ebx+701228], edi
	mov	DWORD PTR [ebx+701244], edi
	mov	DWORD PTR [ebx+701248], edi
	mov	DWORD PTR [ebx+701252], edi
	mov	DWORD PTR [ebx+701256], edi
	mov	DWORD PTR [ebx+701260], edi
	mov	DWORD PTR [ebx+701264], edi
	mov	DWORD PTR [ebx+701268], edi
; File I:\Vitalya\mine\NSProjectX\layers\xrRender\DetailManager.cpp

; 76   : {

	call	DWORD PTR __imp_??0xrCriticalSection@@QAE@XZ
; File I:\Vitalya\mine\NSProjectX\xrCore\xr_resource.h

; 46   : 	ICF		void		_set	(T * rhs) 							{	if (0!=rhs) rhs->dwReference++;	_dec(); p_ = rhs;											}

	lea	ecx, DWORD PTR [ebx+701224]
; File I:\Vitalya\mine\NSProjectX\layers\xrRender\DetailManager.cpp

; 77   : 	dtFS 		= 0;

	mov	DWORD PTR [ebx+1088], edi

; 78   : 	dtSlots		= 0;

	mov	DWORD PTR [ebx+1116], edi
; File I:\Vitalya\mine\NSProjectX\xrCore\xr_resource.h

; 62   : 						resptr_core		(T * p, bool add_ref = true) 					{	p_ = p;	if(add_ref)	_inc(); }

	mov	DWORD PTR $T2[esp+16], edi

; 46   : 	ICF		void		_set	(T * rhs) 							{	if (0!=rhs) rhs->dwReference++;	_dec(); p_ = rhs;											}

	call	DWORD PTR __imp_?_dec@?$resptr_base@USGeometry@@@@IAEXXZ

; 64   : 						~resptr_core	()												{	_dec();						}

	lea	ecx, DWORD PTR $T2[esp+16]

; 46   : 	ICF		void		_set	(T * rhs) 							{	if (0!=rhs) rhs->dwReference++;	_dec(); p_ = rhs;											}

	mov	DWORD PTR [ebx+701224], edi

; 64   : 						~resptr_core	()												{	_dec();						}

	call	DWORD PTR __imp_?_dec@?$resptr_base@USGeometry@@@@IAEXXZ

; 46   : 	ICF		void		_set	(T * rhs) 							{	if (0!=rhs) rhs->dwReference++;	_dec(); p_ = rhs;											}

	lea	ecx, DWORD PTR [ebx+701228]

; 62   : 						resptr_core		(T * p, bool add_ref = true) 					{	p_ = p;	if(add_ref)	_inc(); }

	mov	DWORD PTR $T1[esp+16], edi

; 46   : 	ICF		void		_set	(T * rhs) 							{	if (0!=rhs) rhs->dwReference++;	_dec(); p_ = rhs;											}

	call	DWORD PTR __imp_?_dec@?$resptr_base@USGeometry@@@@IAEXXZ

; 64   : 						~resptr_core	()												{	_dec();						}

	lea	ecx, DWORD PTR $T1[esp+16]

; 46   : 	ICF		void		_set	(T * rhs) 							{	if (0!=rhs) rhs->dwReference++;	_dec(); p_ = rhs;											}

	mov	DWORD PTR [ebx+701228], edi

; 64   : 						~resptr_core	()												{	_dec();						}

	call	DWORD PTR __imp_?_dec@?$resptr_base@USGeometry@@@@IAEXXZ
; File I:\Vitalya\mine\NSProjectX\layers\xrRender\DetailManager.cpp

; 81   : 	hw_BatchSize= 0;

	mov	DWORD PTR [ebx+701232], edi

; 82   : 	hw_VB		= 0;
; 83   : 	hw_IB		= 0;
; 84   : }

	mov	eax, ebx
	mov	DWORD PTR [ebx+701236], edi
	mov	DWORD PTR [ebx+701240], edi
	pop	edi
	pop	esi
	pop	ebx
	pop	ecx
	ret	0
??0CDetailManager@@QAE@XZ ENDP				; CDetailManager::CDetailManager
_TEXT	ENDS
; Function compile flags: /Ogtpy
;	COMDAT ??_GCDetailManager@@UAEPAXI@Z
_TEXT	SEGMENT
___flags$ = 8						; size = 4
??_GCDetailManager@@UAEPAXI@Z PROC			; CDetailManager::`scalar deleting destructor', COMDAT
; _this$ = ecx
	push	esi
	mov	esi, ecx
	call	??1CDetailManager@@UAE@XZ		; CDetailManager::~CDetailManager
	test	BYTE PTR ___flags$[esp], 1
	je	SHORT $LN4@scalar
	push	701284					; 000ab364H
	push	esi
	call	??3@YAXPAXI@Z				; operator delete
	add	esp, 8
$LN4@scalar:
	mov	eax, esi
	pop	esi
	ret	4
??_GCDetailManager@@UAEPAXI@Z ENDP			; CDetailManager::`scalar deleting destructor'
_TEXT	ENDS
; Function compile flags: /Ogtpy
; File C:\Program Files\Microsoft Visual Studio\2022\Community\VC\Tools\MSVC\14.29.30133\include\vector
; File I:\Vitalya\mine\NSProjectX\xrCore\xrMemory.h
; File C:\Program Files\Microsoft Visual Studio\2022\Community\VC\Tools\MSVC\14.29.30133\include\vector
;	COMDAT ??1?$xr_vector@V?$xr_vector@PAV?$xr_vector@PAUSlotItem@CDetailManager@@V?$xalloc@PAUSlotItem@CDetailManager@@@@@@V?$xalloc@PAV?$xr_vector@PAUSlotItem@CDetailManager@@V?$xalloc@PAUSlotItem@CDetailManager@@@@@@@@@@V?$xalloc@V?$xr_vector@PAV?$xr_vector@PAUSlotItem@CDetailManager@@V?$xalloc@PAUSlotItem@CDetailManager@@@@@@V?$xalloc@PAV?$xr_vector@PAUSlotItem@CDetailManager@@V?$xalloc@PAUSlotItem@CDetailManager@@@@@@@@@@@@@@QAE@XZ
_TEXT	SEGMENT
??1?$xr_vector@V?$xr_vector@PAV?$xr_vector@PAUSlotItem@CDetailManager@@V?$xalloc@PAUSlotItem@CDetailManager@@@@@@V?$xalloc@PAV?$xr_vector@PAUSlotItem@CDetailManager@@V?$xalloc@PAUSlotItem@CDetailManager@@@@@@@@@@V?$xalloc@V?$xr_vector@PAV?$xr_vector@PAUSlotItem@CDetailManager@@V?$xalloc@PAUSlotItem@CDetailManager@@@@@@V?$xalloc@PAV?$xr_vector@PAUSlotItem@CDetailManager@@V?$xalloc@PAUSlotItem@CDetailManager@@@@@@@@@@@@@@QAE@XZ PROC ; xr_vector<xr_vector<xr_vector<CDetailManager::SlotItem *,xalloc<CDetailManager::SlotItem *> > *,xalloc<xr_vector<CDetailManager::SlotItem *,xalloc<CDetailManager::SlotItem *> > *> >,xalloc<xr_vector<xr_vector<CDetailManager::SlotItem *,xalloc<CDetailManager::SlotItem *> > *,xalloc<xr_vector<CDetailManager::SlotItem *,xalloc<CDetailManager::SlotItem *> > *> > > >::~xr_vector<xr_vector<xr_vector<CDetailManager::SlotItem *,xalloc<CDetailManager::SlotItem *> > *,xalloc<xr_vector<CDetailManager::SlotItem *,xalloc<CDetailManager::SlotItem *> > *> >,xalloc<xr_vector<xr_vector<CDetailManager::SlotItem *,xalloc<CDetailManager::SlotItem *> > *,xalloc<xr_vector<CDetailManager::SlotItem *,xalloc<CDetailManager::SlotItem *> > *> > > >, COMDAT
; _this$ = ecx

; 1750 :         if (_Myfirst) { // destroy and deallocate old array

	push	esi
	mov	esi, ecx
	mov	eax, DWORD PTR [esi]
	test	eax, eax
	je	SHORT $LN6@xr_vector
; File I:\Vitalya\mine\NSProjectX\xrCore\xrMemory.h

; 109  : 	IC void		xr_free		(T* &P)					{	if (P) { Memory.mem_free((void*)P); P=NULL;	};	}

	mov	ecx, DWORD PTR __imp_?Memory@@3VxrMemory@@A
	push	eax
	call	DWORD PTR __imp_?mem_free@xrMemory@@QAEXPAX@Z
; File C:\Program Files\Microsoft Visual Studio\2022\Community\VC\Tools\MSVC\14.29.30133\include\vector

; 1754 :             _Myfirst = nullptr;

	mov	DWORD PTR [esi], 0

; 1755 :             _Mylast  = nullptr;

	mov	DWORD PTR [esi+4], 0

; 1756 :             _Myend   = nullptr;

	mov	DWORD PTR [esi+8], 0
$LN6@xr_vector:
	pop	esi
	ret	0
??1?$xr_vector@V?$xr_vector@PAV?$xr_vector@PAUSlotItem@CDetailManager@@V?$xalloc@PAUSlotItem@CDetailManager@@@@@@V?$xalloc@PAV?$xr_vector@PAUSlotItem@CDetailManager@@V?$xalloc@PAUSlotItem@CDetailManager@@@@@@@@@@V?$xalloc@V?$xr_vector@PAV?$xr_vector@PAUSlotItem@CDetailManager@@V?$xalloc@PAUSlotItem@CDetailManager@@@@@@V?$xalloc@PAV?$xr_vector@PAUSlotItem@CDetailManager@@V?$xalloc@PAUSlotItem@CDetailManager@@@@@@@@@@@@@@QAE@XZ ENDP ; xr_vector<xr_vector<xr_vector<CDetailManager::SlotItem *,xalloc<CDetailManager::SlotItem *> > *,xalloc<xr_vector<CDetailManager::SlotItem *,xalloc<CDetailManager::SlotItem *> > *> >,xalloc<xr_vector<xr_vector<CDetailManager::SlotItem *,xalloc<CDetailManager::SlotItem *> > *,xalloc<xr_vector<CDetailManager::SlotItem *,xalloc<CDetailManager::SlotItem *> > *> > > >::~xr_vector<xr_vector<xr_vector<CDetailManager::SlotItem *,xalloc<CDetailManager::SlotItem *> > *,xalloc<xr_vector<CDetailManager::SlotItem *,xalloc<CDetailManager::SlotItem *> > *> >,xalloc<xr_vector<xr_vector<CDetailManager::SlotItem *,xalloc<CDetailManager::SlotItem *> > *,xalloc<xr_vector<CDetailManager::SlotItem *,xalloc<CDetailManager::SlotItem *> > *> > > >
_TEXT	ENDS
; Function compile flags: /Ogtpy
; File C:\Program Files\Microsoft Visual Studio\2022\Community\VC\Tools\MSVC\14.29.30133\include\vector
; File I:\Vitalya\mine\NSProjectX\xrCore\xrMemory.h
; File C:\Program Files\Microsoft Visual Studio\2022\Community\VC\Tools\MSVC\14.29.30133\include\vector
;	COMDAT ??1Slot@CDetailManager@@QAE@XZ
_TEXT	SEGMENT
??1Slot@CDetailManager@@QAE@XZ PROC			; CDetailManager::Slot::~Slot, COMDAT
; _this$ = ecx
	push	ebx
	mov	ebx, DWORD PTR __imp_?mem_free@xrMemory@@QAEXPAX@Z
	push	esi
	push	edi
	mov	edi, 4
	lea	esi, DWORD PTR [ecx+288]
	npad	12
$LL39@Slot:
	push	OFFSET ??1?$xr_vector@PAUSlotItem@CDetailManager@@V?$xalloc@PAUSlotItem@CDetailManager@@@@@@QAE@XZ
	lea	esi, DWORD PTR [esi-52]
	mov	edx, 12					; 0000000cH
	push	3
	lea	ecx, DWORD PTR [esi+4]
	dec	edi
	call	??_I@YGXPAXIIP6EX0@Z@Z

; 1750 :         if (_Myfirst) { // destroy and deallocate old array

	mov	eax, DWORD PTR [esi-8]
	test	eax, eax
	je	SHORT $LN30@Slot
; File I:\Vitalya\mine\NSProjectX\xrCore\xrMemory.h

; 109  : 	IC void		xr_free		(T* &P)					{	if (P) { Memory.mem_free((void*)P); P=NULL;	};	}

	mov	ecx, DWORD PTR __imp_?Memory@@3VxrMemory@@A
	push	eax
	call	ebx
; File C:\Program Files\Microsoft Visual Studio\2022\Community\VC\Tools\MSVC\14.29.30133\include\vector

; 1754 :             _Myfirst = nullptr;

	mov	DWORD PTR [esi-8], 0

; 1755 :             _Mylast  = nullptr;

	mov	DWORD PTR [esi-4], 0

; 1756 :             _Myend   = nullptr;

	mov	DWORD PTR [esi], 0
$LN30@Slot:
	test	edi, edi
	jne	SHORT $LL39@Slot
	pop	edi
	pop	esi
	pop	ebx
	ret	0
??1Slot@CDetailManager@@QAE@XZ ENDP			; CDetailManager::Slot::~Slot
_TEXT	ENDS
; Function compile flags: /Ogtpy
; File I:\Vitalya\mine\NSProjectX\layers\xrRender\DetailManager.cpp
; File I:\Vitalya\mine\NSProjectX\xrCore\xr_resource.h
; File I:\Vitalya\mine\NSProjectX\xrCore\xrstring.h
; File I:\Vitalya\mine\NSProjectX\xrCore\xrMemory_subst_msvc.h
; File I:\Vitalya\mine\NSProjectX\xrCore\xr_resource.h
; File I:\Vitalya\mine\NSProjectX\xrCore\xrstring.h
; File I:\Vitalya\mine\NSProjectX\xrCore\xrMemory_subst_msvc.h
; File I:\Vitalya\mine\NSProjectX\xrCore\xr_resource.h
; File I:\Vitalya\mine\NSProjectX\xrCore\xrstring.h
; File I:\Vitalya\mine\NSProjectX\xrCore\xrMemory_subst_msvc.h
; File I:\Vitalya\mine\NSProjectX\xrCore\xr_resource.h
; File I:\Vitalya\mine\NSProjectX\xrCore\xrstring.h
; File I:\Vitalya\mine\NSProjectX\xrCore\xrMemory_subst_msvc.h
; File I:\Vitalya\mine\NSProjectX\xrCore\xr_resource.h
; File I:\Vitalya\mine\NSProjectX\xrCore\xrstring.h
; File I:\Vitalya\mine\NSProjectX\xrCore\xrMemory_subst_msvc.h
; File I:\Vitalya\mine\NSProjectX\xrCore\xr_resource.h
; File I:\Vitalya\mine\NSProjectX\xrCore\xrstring.h
; File I:\Vitalya\mine\NSProjectX\xrCore\xrMemory_subst_msvc.h
; File I:\Vitalya\mine\NSProjectX\xrCore\xr_resource.h
; File I:\Vitalya\mine\NSProjectX\xrCore\xrstring.h
; File I:\Vitalya\mine\NSProjectX\xrCore\xrMemory_subst_msvc.h
; File I:\Vitalya\mine\NSProjectX\layers\xrRender\DetailManager.cpp
; File I:\Vitalya\mine\NSProjectX\xrCore\xr_resource.h
; File I:\Vitalya\mine\NSProjectX\layers\xrRender\DetailManager.cpp
; File I:\Vitalya\mine\NSProjectX\xrCore\xr_resource.h
; File I:\Vitalya\mine\NSProjectX\layers\xrRender\DetailManager.cpp
; File C:\Program Files\Microsoft Visual Studio\2022\Community\VC\Tools\MSVC\14.29.30133\include\vector
; File I:\Vitalya\mine\NSProjectX\xrCore\xrMemory.h
; File C:\Program Files\Microsoft Visual Studio\2022\Community\VC\Tools\MSVC\14.29.30133\include\vector
; File I:\Vitalya\mine\NSProjectX\layers\xrRender\DetailManager.cpp
_TEXT	SEGMENT
??1CDetailManager@@UAE@XZ PROC				; CDetailManager::~CDetailManager
; _this$ = ecx

; 87   : {

	push	ebp
	push	esi
	mov	esi, ecx
	push	edi

; 89   : }

	lea	ecx, DWORD PTR [esi+701272]
	mov	DWORD PTR [esi], OFFSET ??_7CDetailManager@@6B@
	call	DWORD PTR __imp_??1xrCriticalSection@@QAE@XZ
; File I:\Vitalya\mine\NSProjectX\xrCore\xr_resource.h

; 44   : 	void				_dec	()									{	if (0==p_) return;	p_->dwReference--; if (0==p_->dwReference) xr_delete(p_);				}

	mov	eax, DWORD PTR [esi+701268]
	mov	ebp, DWORD PTR __imp_?mem_free@xrMemory@@QAEXPAX@Z
	test	eax, eax
	je	SHORT $LN10@CDetailMan
	dec	DWORD PTR [eax]
	mov	ecx, DWORD PTR [esi+701268]
	cmp	DWORD PTR [ecx], 0
	jne	SHORT $LN10@CDetailMan
; File I:\Vitalya\mine\NSProjectX\xrCore\xrstring.h

; 50   : 	void				_dec		()								{	if (0==p_) return;	p_->dwReference--; 	if (0==p_->dwReference)	p_=0;						}

	mov	eax, DWORD PTR [ecx+4]
	test	eax, eax
	je	SHORT $LN23@CDetailMan
	dec	DWORD PTR [eax]
	mov	eax, DWORD PTR [ecx+4]
	cmp	DWORD PTR [eax], 0
	jne	SHORT $LN23@CDetailMan
	mov	DWORD PTR [ecx+4], 0
$LN23@CDetailMan:
; File I:\Vitalya\mine\NSProjectX\xrCore\xrMemory_subst_msvc.h

; 144  : 		Memory.mem_free	(ptr);

	push	DWORD PTR [esi+701268]
	mov	ecx, DWORD PTR __imp_?Memory@@3VxrMemory@@A
	call	ebp

; 154  : 		ptr = nullptr;

	mov	DWORD PTR [esi+701268], 0
$LN10@CDetailMan:
; File I:\Vitalya\mine\NSProjectX\xrCore\xr_resource.h

; 44   : 	void				_dec	()									{	if (0==p_) return;	p_->dwReference--; if (0==p_->dwReference) xr_delete(p_);				}

	mov	eax, DWORD PTR [esi+701264]
	test	eax, eax
	je	SHORT $LN32@CDetailMan
	dec	DWORD PTR [eax]
	mov	ecx, DWORD PTR [esi+701264]
	cmp	DWORD PTR [ecx], 0
	jne	SHORT $LN32@CDetailMan
; File I:\Vitalya\mine\NSProjectX\xrCore\xrstring.h

; 50   : 	void				_dec		()								{	if (0==p_) return;	p_->dwReference--; 	if (0==p_->dwReference)	p_=0;						}

	mov	eax, DWORD PTR [ecx+4]
	test	eax, eax
	je	SHORT $LN45@CDetailMan
	dec	DWORD PTR [eax]
	mov	eax, DWORD PTR [ecx+4]
	cmp	DWORD PTR [eax], 0
	jne	SHORT $LN45@CDetailMan
	mov	DWORD PTR [ecx+4], 0
$LN45@CDetailMan:
; File I:\Vitalya\mine\NSProjectX\xrCore\xrMemory_subst_msvc.h

; 144  : 		Memory.mem_free	(ptr);

	push	DWORD PTR [esi+701264]
	mov	ecx, DWORD PTR __imp_?Memory@@3VxrMemory@@A
	call	ebp

; 154  : 		ptr = nullptr;

	mov	DWORD PTR [esi+701264], 0
$LN32@CDetailMan:
; File I:\Vitalya\mine\NSProjectX\xrCore\xr_resource.h

; 44   : 	void				_dec	()									{	if (0==p_) return;	p_->dwReference--; if (0==p_->dwReference) xr_delete(p_);				}

	mov	eax, DWORD PTR [esi+701260]
	test	eax, eax
	je	SHORT $LN54@CDetailMan
	dec	DWORD PTR [eax]
	mov	ecx, DWORD PTR [esi+701260]
	cmp	DWORD PTR [ecx], 0
	jne	SHORT $LN54@CDetailMan
; File I:\Vitalya\mine\NSProjectX\xrCore\xrstring.h

; 50   : 	void				_dec		()								{	if (0==p_) return;	p_->dwReference--; 	if (0==p_->dwReference)	p_=0;						}

	mov	eax, DWORD PTR [ecx+4]
	test	eax, eax
	je	SHORT $LN67@CDetailMan
	dec	DWORD PTR [eax]
	mov	eax, DWORD PTR [ecx+4]
	cmp	DWORD PTR [eax], 0
	jne	SHORT $LN67@CDetailMan
	mov	DWORD PTR [ecx+4], 0
$LN67@CDetailMan:
; File I:\Vitalya\mine\NSProjectX\xrCore\xrMemory_subst_msvc.h

; 144  : 		Memory.mem_free	(ptr);

	push	DWORD PTR [esi+701260]
	mov	ecx, DWORD PTR __imp_?Memory@@3VxrMemory@@A
	call	ebp

; 154  : 		ptr = nullptr;

	mov	DWORD PTR [esi+701260], 0
$LN54@CDetailMan:
; File I:\Vitalya\mine\NSProjectX\xrCore\xr_resource.h

; 44   : 	void				_dec	()									{	if (0==p_) return;	p_->dwReference--; if (0==p_->dwReference) xr_delete(p_);				}

	mov	eax, DWORD PTR [esi+701256]
	test	eax, eax
	je	SHORT $LN76@CDetailMan
	dec	DWORD PTR [eax]
	mov	ecx, DWORD PTR [esi+701256]
	cmp	DWORD PTR [ecx], 0
	jne	SHORT $LN76@CDetailMan
; File I:\Vitalya\mine\NSProjectX\xrCore\xrstring.h

; 50   : 	void				_dec		()								{	if (0==p_) return;	p_->dwReference--; 	if (0==p_->dwReference)	p_=0;						}

	mov	eax, DWORD PTR [ecx+4]
	test	eax, eax
	je	SHORT $LN89@CDetailMan
	dec	DWORD PTR [eax]
	mov	eax, DWORD PTR [ecx+4]
	cmp	DWORD PTR [eax], 0
	jne	SHORT $LN89@CDetailMan
	mov	DWORD PTR [ecx+4], 0
$LN89@CDetailMan:
; File I:\Vitalya\mine\NSProjectX\xrCore\xrMemory_subst_msvc.h

; 144  : 		Memory.mem_free	(ptr);

	push	DWORD PTR [esi+701256]
	mov	ecx, DWORD PTR __imp_?Memory@@3VxrMemory@@A
	call	ebp

; 154  : 		ptr = nullptr;

	mov	DWORD PTR [esi+701256], 0
$LN76@CDetailMan:
; File I:\Vitalya\mine\NSProjectX\xrCore\xr_resource.h

; 44   : 	void				_dec	()									{	if (0==p_) return;	p_->dwReference--; if (0==p_->dwReference) xr_delete(p_);				}

	mov	eax, DWORD PTR [esi+701252]
	test	eax, eax
	je	SHORT $LN98@CDetailMan
	dec	DWORD PTR [eax]
	mov	ecx, DWORD PTR [esi+701252]
	cmp	DWORD PTR [ecx], 0
	jne	SHORT $LN98@CDetailMan
; File I:\Vitalya\mine\NSProjectX\xrCore\xrstring.h

; 50   : 	void				_dec		()								{	if (0==p_) return;	p_->dwReference--; 	if (0==p_->dwReference)	p_=0;						}

	mov	eax, DWORD PTR [ecx+4]
	test	eax, eax
	je	SHORT $LN111@CDetailMan
	dec	DWORD PTR [eax]
	mov	eax, DWORD PTR [ecx+4]
	cmp	DWORD PTR [eax], 0
	jne	SHORT $LN111@CDetailMan
	mov	DWORD PTR [ecx+4], 0
$LN111@CDetailMan:
; File I:\Vitalya\mine\NSProjectX\xrCore\xrMemory_subst_msvc.h

; 144  : 		Memory.mem_free	(ptr);

	push	DWORD PTR [esi+701252]
	mov	ecx, DWORD PTR __imp_?Memory@@3VxrMemory@@A
	call	ebp

; 154  : 		ptr = nullptr;

	mov	DWORD PTR [esi+701252], 0
$LN98@CDetailMan:
; File I:\Vitalya\mine\NSProjectX\xrCore\xr_resource.h

; 44   : 	void				_dec	()									{	if (0==p_) return;	p_->dwReference--; if (0==p_->dwReference) xr_delete(p_);				}

	mov	eax, DWORD PTR [esi+701248]
	test	eax, eax
	je	SHORT $LN120@CDetailMan
	dec	DWORD PTR [eax]
	mov	ecx, DWORD PTR [esi+701248]
	cmp	DWORD PTR [ecx], 0
	jne	SHORT $LN120@CDetailMan
; File I:\Vitalya\mine\NSProjectX\xrCore\xrstring.h

; 50   : 	void				_dec		()								{	if (0==p_) return;	p_->dwReference--; 	if (0==p_->dwReference)	p_=0;						}

	mov	eax, DWORD PTR [ecx+4]
	test	eax, eax
	je	SHORT $LN133@CDetailMan
	dec	DWORD PTR [eax]
	mov	eax, DWORD PTR [ecx+4]
	cmp	DWORD PTR [eax], 0
	jne	SHORT $LN133@CDetailMan
	mov	DWORD PTR [ecx+4], 0
$LN133@CDetailMan:
; File I:\Vitalya\mine\NSProjectX\xrCore\xrMemory_subst_msvc.h

; 144  : 		Memory.mem_free	(ptr);

	push	DWORD PTR [esi+701248]
	mov	ecx, DWORD PTR __imp_?Memory@@3VxrMemory@@A
	call	ebp

; 154  : 		ptr = nullptr;

	mov	DWORD PTR [esi+701248], 0
$LN120@CDetailMan:
; File I:\Vitalya\mine\NSProjectX\xrCore\xr_resource.h

; 44   : 	void				_dec	()									{	if (0==p_) return;	p_->dwReference--; if (0==p_->dwReference) xr_delete(p_);				}

	mov	eax, DWORD PTR [esi+701244]
	test	eax, eax
	je	SHORT $LN142@CDetailMan
	dec	DWORD PTR [eax]
	mov	ecx, DWORD PTR [esi+701244]
	cmp	DWORD PTR [ecx], 0
	jne	SHORT $LN142@CDetailMan
; File I:\Vitalya\mine\NSProjectX\xrCore\xrstring.h

; 50   : 	void				_dec		()								{	if (0==p_) return;	p_->dwReference--; 	if (0==p_->dwReference)	p_=0;						}

	mov	eax, DWORD PTR [ecx+4]
	test	eax, eax
	je	SHORT $LN155@CDetailMan
	dec	DWORD PTR [eax]
	mov	eax, DWORD PTR [ecx+4]
	cmp	DWORD PTR [eax], 0
	jne	SHORT $LN155@CDetailMan
	mov	DWORD PTR [ecx+4], 0
$LN155@CDetailMan:
; File I:\Vitalya\mine\NSProjectX\xrCore\xrMemory_subst_msvc.h

; 144  : 		Memory.mem_free	(ptr);

	push	DWORD PTR [esi+701244]
	mov	ecx, DWORD PTR __imp_?Memory@@3VxrMemory@@A
	call	ebp

; 154  : 		ptr = nullptr;

	mov	DWORD PTR [esi+701244], 0
$LN142@CDetailMan:
	push	ebx
; File I:\Vitalya\mine\NSProjectX\layers\xrRender\DetailManager.cpp

; 89   : }

	lea	ecx, DWORD PTR [esi+701228]
; File I:\Vitalya\mine\NSProjectX\xrCore\xr_resource.h

; 64   : 						~resptr_core	()												{	_dec();						}

	call	DWORD PTR __imp_?_dec@?$resptr_base@USGeometry@@@@IAEXXZ
; File I:\Vitalya\mine\NSProjectX\layers\xrRender\DetailManager.cpp

; 89   : }

	lea	ecx, DWORD PTR [esi+701224]
; File I:\Vitalya\mine\NSProjectX\xrCore\xr_resource.h

; 64   : 						~resptr_core	()												{	_dec();						}

	call	DWORD PTR __imp_?_dec@?$resptr_base@USGeometry@@@@IAEXXZ
; File I:\Vitalya\mine\NSProjectX\layers\xrRender\DetailManager.cpp

; 89   : }

	lea	ecx, DWORD PTR [esi+701208]
	call	??1?$poolSS@USlotItem@CDetailManager@@$0BAAA@@@QAE@XZ ; poolSS<CDetailManager::SlotItem,4096>::~poolSS<CDetailManager::SlotItem,4096>
	mov	edi, 2401				; 00000961H
	lea	ebx, DWORD PTR [esi+701268]
	npad	3
$LL162@CDetailMan:
	push	OFFSET ??1SlotPart@CDetailManager@@QAE@XZ
	sub	ebx, 276				; 00000114H
	mov	edx, 52					; 00000034H
	push	4
	mov	ecx, ebx
	call	??_I@YGXPAXIIP6EX0@Z@Z
	sub	edi, 1
	jne	SHORT $LL162@CDetailMan
	add	esi, 1432				; 00000598H
	mov	ecx, esi
	call	DWORD PTR __imp_??1xrXRC@@QAE@XZ
	mov	edi, 3
	pop	ebx
$LL222@CDetailMan:
; File C:\Program Files\Microsoft Visual Studio\2022\Community\VC\Tools\MSVC\14.29.30133\include\vector

; 1750 :         if (_Myfirst) { // destroy and deallocate old array

	mov	eax, DWORD PTR [esi-12]
	lea	esi, DWORD PTR [esi-12]
	dec	edi
	test	eax, eax
	je	SHORT $LN210@CDetailMan
; File I:\Vitalya\mine\NSProjectX\xrCore\xrMemory.h

; 109  : 	IC void		xr_free		(T* &P)					{	if (P) { Memory.mem_free((void*)P); P=NULL;	};	}

	mov	ecx, DWORD PTR __imp_?Memory@@3VxrMemory@@A
	push	eax
	call	ebp
; File C:\Program Files\Microsoft Visual Studio\2022\Community\VC\Tools\MSVC\14.29.30133\include\vector

; 1754 :             _Myfirst = nullptr;

	mov	DWORD PTR [esi], 0

; 1755 :             _Mylast  = nullptr;

	mov	DWORD PTR [esi+4], 0

; 1756 :             _Myend   = nullptr;

	mov	DWORD PTR [esi+8], 0
$LN210@CDetailMan:
	test	edi, edi
	jne	SHORT $LL222@CDetailMan
; File I:\Vitalya\mine\NSProjectX\layers\xrRender\DetailManager.cpp

; 89   : }

	pop	edi
	pop	esi
	pop	ebp
	ret	0
??1CDetailManager@@UAE@XZ ENDP				; CDetailManager::~CDetailManager
_TEXT	ENDS
; Function compile flags: /Ogtpy
; File I:\Vitalya\mine\NSProjectX\layers\xrRender\DetailManager.cpp
; File I:\Vitalya\mine\NSProjectX\xrCore\xrMemory_subst_msvc.h
; File I:\Vitalya\mine\NSProjectX\layers\xrRender\DetailManager.cpp
; File I:\Vitalya\mine\NSProjectX\xrCore\FixedVector.h
; File I:\Vitalya\mine\NSProjectX\layers\xrRender\DetailManager.cpp
; File I:\Vitalya\mine\NSProjectX\xrCore\FixedVector.h
; File I:\Vitalya\mine\NSProjectX\layers\xrRender\DetailManager.cpp
; File I:\Vitalya\mine\NSProjectX\xrCore\FS.h
; File I:\Vitalya\mine\NSProjectX\layers\xrRender\DetailManager.cpp
; File C:\Program Files\Microsoft Visual Studio\2022\Community\VC\Tools\MSVC\14.29.30133\include\vector
; File I:\Vitalya\mine\NSProjectX\layers\xrRender\DetailManager.cpp
; File C:\Program Files\Microsoft Visual Studio\2022\Community\VC\Tools\MSVC\14.29.30133\include\vector
; File C:\Program Files\Microsoft Visual Studio\2022\Community\VC\Tools\MSVC\14.29.30133\include\xmemory
; File C:\Program Files\Microsoft Visual Studio\2022\Community\VC\Tools\MSVC\14.29.30133\include\vector
; File C:\Program Files\Microsoft Visual Studio\2022\Community\VC\Tools\MSVC\14.29.30133\include\xmemory
; File C:\Program Files\Microsoft Visual Studio\2022\Community\VC\Tools\MSVC\14.29.30133\include\vector
; File I:\Vitalya\mine\NSProjectX\layers\xrRender\DetailManager.cpp
; File I:\Vitalya\mine\NSProjectX\layers\xrRender\DetailManager_CACHE.cpp
; File I:\Vitalya\mine\NSProjectX\layers\xrRender\DetailManager.cpp
; File I:\Vitalya\mine\NSProjectX\layers\xrRender\detailmanager.h
; File I:\Vitalya\mine\NSProjectX\layers\xrRender\DetailManager.cpp
; File I:\Vitalya\mine\NSProjectX\layers\xrRender\detailmanager.h
; File I:\Vitalya\mine\NSProjectX\layers\xrRender\DetailManager.cpp
; File I:\Vitalya\mine\NSProjectX\layers\xrRender\DetailManager_soft.cpp
; File I:\Vitalya\mine\NSProjectX\layers\xrRender\DetailManager.cpp
_TEXT	SEGMENT
tv2789 = -548						; size = 4
tv2768 = -548						; size = 4
tv2760 = -548						; size = 4
_m_fs$1$ = -548						; size = 4
_this$1$ = -544						; size = 4
tv2771 = -540						; size = 4
tv2712 = -540						; size = 4
tv2757 = -536						; size = 4
_m_count$1$ = -536					; size = 4
$T2 = -529						; size = 1
tv2759 = -528						; size = 4
tv2719 = -524						; size = 4
_fn$ = -520						; size = 520
?Load@CDetailManager@@QAEXXZ PROC			; CDetailManager::Load
; _this$ = ecx

; 104  : {

	sub	esp, 548				; 00000224H
	push	ebx
	mov	ebx, ecx

; 105  : 	// Open file stream
; 106  : 	if (!FS.exist("$level$","level.details"))

	mov	ecx, DWORD PTR __imp_?xr_FS@@3PAVCLocatorAPI@@A
	push	OFFSET ??_C@_0O@EKJDCOAB@level?4details@
	push	OFFSET ??_C@_07DJIBDFPO@$level$@
	mov	DWORD PTR _this$1$[esp+560], ebx
	mov	ecx, DWORD PTR [ecx]
	call	DWORD PTR __imp_?exist@CLocatorAPI@@QAEPBUfile@1@PBD0@Z
	test	eax, eax
	jne	SHORT $LN11@Load

; 107  : 	{
; 108  : 		dtFS	= NULL;

	mov	DWORD PTR [ebx+1088], eax
	pop	ebx

; 162  : }

	add	esp, 548				; 00000224H
	ret	0
$LN11@Load:

; 109  : 		return;
; 110  : 	}
; 111  : 
; 112  : 	string_path			fn;
; 113  : 	FS.update_path		(fn,"$level$","level.details");

	mov	ecx, DWORD PTR __imp_?xr_FS@@3PAVCLocatorAPI@@A
	lea	eax, DWORD PTR _fn$[esp+552]
	push	ebp
	push	esi
	push	edi
	mov	ecx, DWORD PTR [ecx]
	push	OFFSET ??_C@_0O@EKJDCOAB@level?4details@
	push	OFFSET ??_C@_07DJIBDFPO@$level$@
	push	eax
	call	DWORD PTR __imp_?update_path@CLocatorAPI@@QAEPBDAAY0CAI@DPBD1@Z

; 114  : 	dtFS				= FS.r_open(fn);

	mov	ecx, DWORD PTR __imp_?xr_FS@@3PAVCLocatorAPI@@A
	lea	eax, DWORD PTR _fn$[esp+564]
	push	eax
	mov	ecx, DWORD PTR [ecx]
	call	DWORD PTR __imp_?r_open@CLocatorAPI@@QAEPAVIReader@@PBD@Z

; 115  : 
; 116  : 	// Header
; 117  : 	dtFS->r_chunk_safe	(0,&dtH,sizeof(dtH));

	push	24					; 00000018H
	lea	esi, DWORD PTR [ebx+1092]
	mov	DWORD PTR [ebx+1088], eax
	push	esi
	push	0
	mov	ecx, eax
	call	DWORD PTR __imp_?r_chunk_safe@?$IReaderBase@VIReader@@@@QAEHIPAXI@Z

; 118  : 	R_ASSERT			(dtH.version == DETAIL_VERSION);

	cmp	BYTE PTR ?ignore_always@?6??Load@CDetailManager@@QAEXXZ@4_NA, 0
	jne	SHORT $LN2@Load
	cmp	DWORD PTR [esi], 3
	je	SHORT $LN2@Load
	mov	ecx, DWORD PTR __imp_?Debug@@3VxrDebug@@A
	push	OFFSET ?ignore_always@?6??Load@CDetailManager@@QAEXXZ@4_NA
	push	OFFSET ??_C@_0BF@GLPAKFBM@CDetailManager?3?3Load@
	push	118					; 00000076H
	push	OFFSET ??_C@_0DN@KFPJDCKL@I?3?2Vitalya?2mine?2NSProjectX?2laye@
	push	OFFSET ??_C@_0BO@OFEMNCKJ@dtH?4version?5?$DN?$DN?5DETAIL_VERSION@
	call	DWORD PTR __imp_?fail@xrDebug@@QAEXPBD0H0AA_N@Z
$LN2@Load:

; 119  : 	u32 m_count			= dtH.object_count;

	mov	edi, DWORD PTR [ebx+1096]

; 120  : 
; 121  : 	// Models
; 122  : 	IReader* m_fs		= dtFS->open_chunk(1);

	mov	ecx, DWORD PTR [ebx+1088]
	mov	esi, DWORD PTR __imp_?open_chunk@IReader@@QAEPAV1@I@Z
	push	1
	mov	DWORD PTR _m_count$1$[esp+568], edi
	call	esi
	xor	ebp, ebp
	mov	DWORD PTR _m_fs$1$[esp+564], eax

; 123  : 	for (u32 m_id = 0; m_id < m_count; m_id++)

	test	edi, edi
	mov	edi, DWORD PTR __imp_?close@IReader@@QAEXXZ
	je	SHORT $LN6@Load
	npad	3
$LL7@Load:
; File I:\Vitalya\mine\NSProjectX\xrCore\xrMemory_subst_msvc.h

; 68   : 	T* ptr	= (T*)Memory.mem_alloc(sizeof(T));

	mov	ecx, DWORD PTR __imp_?Memory@@3VxrMemory@@A
	push	76					; 0000004cH
	call	DWORD PTR __imp_?mem_alloc@xrMemory@@QAEPAXI@Z

; 69   : 	return new (ptr) T();

	push	76					; 0000004cH
	mov	edi, eax
	push	0
	push	edi
	call	_memset
	add	esp, 12					; 0000000cH
	mov	ecx, edi
	call	DWORD PTR __imp_??0IRender_DetailModel@@QAE@XZ
; File I:\Vitalya\mine\NSProjectX\layers\xrRender\DetailManager.cpp

; 126  : 		IReader* S			= m_fs->open_chunk(m_id);

	mov	ecx, DWORD PTR _m_fs$1$[esp+564]
	push	ebp
	mov	DWORD PTR [edi], OFFSET ??_7CDetail@@6B@
	call	esi
	mov	esi, eax

; 127  : 		dt->Load			(S);

	mov	ecx, edi
	push	esi
	call	?Load@CDetail@@QAEXPAVIReader@@@Z	; CDetail::Load
; File I:\Vitalya\mine\NSProjectX\xrCore\FixedVector.h

; 35   : 	IC void		push_back(value_type e)		{ VERIFY(count<dim); array[count++]=e;	}

	mov	ecx, DWORD PTR [ebx+1392]
	mov	DWORD PTR [ebx+ecx*4+1136], edi
; File I:\Vitalya\mine\NSProjectX\layers\xrRender\DetailManager.cpp

; 129  : 		S->close			();

	mov	ecx, esi
; File I:\Vitalya\mine\NSProjectX\xrCore\FixedVector.h

; 35   : 	IC void		push_back(value_type e)		{ VERIFY(count<dim); array[count++]=e;	}

	inc	DWORD PTR [ebx+1392]
; File I:\Vitalya\mine\NSProjectX\layers\xrRender\DetailManager.cpp

; 129  : 		S->close			();

	mov	edi, DWORD PTR __imp_?close@IReader@@QAEXXZ
	call	edi
	mov	esi, DWORD PTR __imp_?open_chunk@IReader@@QAEPAV1@I@Z
	inc	ebp
	cmp	ebp, DWORD PTR _m_count$1$[esp+564]
	jb	SHORT $LL7@Load
	mov	eax, DWORD PTR _m_fs$1$[esp+564]
$LN6@Load:

; 130  : 	}
; 131  : 	m_fs->close		();

	mov	ecx, eax
	call	edi

; 132  : 
; 133  : 	// Get pointer to database (slots)
; 134  : 	IReader* m_slots	= dtFS->open_chunk(2);

	mov	ecx, DWORD PTR [ebx+1088]
	push	2
	call	esi
; File I:\Vitalya\mine\NSProjectX\xrCore\FS.h

; 264  : 	IC void*		pointer		()	const		{	return &(data[Pos]);	};

	mov	ecx, DWORD PTR [eax+8]
	add	ecx, DWORD PTR [eax+4]
; File I:\Vitalya\mine\NSProjectX\layers\xrRender\DetailManager.cpp

; 135  : 	dtSlots				= (DetailSlot*)m_slots->pointer();

	mov	DWORD PTR [ebx+1116], ecx

; 136  : 	m_slots->close		();

	mov	ecx, eax
	call	edi
	lea	esi, DWORD PTR [ebx+1400]
	mov	DWORD PTR tv2789[esp+564], 3
$LL10@Load:
; File C:\Program Files\Microsoft Visual Studio\2022\Community\VC\Tools\MSVC\14.29.30133\include\vector

; 1250 :         const auto _Oldsize = static_cast<size_type>(_Mylast - _Myfirst);

	mov	ecx, DWORD PTR [esi]
	mov	eax, ecx
	mov	ebp, DWORD PTR [esi-4]
	sub	eax, ebp
; File I:\Vitalya\mine\NSProjectX\layers\xrRender\DetailManager.cpp

; 139  : 	for (u32 i=0; i<3; ++i)	m_visibles[i].resize(objects.size());

	mov	edx, DWORD PTR [ebx+1392]
; File C:\Program Files\Microsoft Visual Studio\2022\Community\VC\Tools\MSVC\14.29.30133\include\vector

; 1250 :         const auto _Oldsize = static_cast<size_type>(_Mylast - _Myfirst);

	sar	eax, 2
	imul	edi, eax, -1431655765

; 1251 :         if (_Newsize < _Oldsize) { // trim

	cmp	edx, edi
	jae	SHORT $LN30@Load

; 1252 :             const pointer _Newlast = _Myfirst + _Newsize;

	lea	eax, DWORD PTR [edx+edx*2]
	lea	eax, DWORD PTR [eax*4]
	add	eax, ebp

; 1253 :             _Orphan_range(_Newlast, _Mylast);
; 1254 :             _Destroy(_Newlast, _Mylast);
; 1255 :             _Mylast = _Newlast;

	mov	DWORD PTR [esi], eax

; 1256 :             return;

	jmp	SHORT $LN8@Load
$LN30@Load:

; 1257 :         }
; 1258 : 
; 1259 :         if (_Newsize > _Oldsize) { // append

	jbe	SHORT $LN8@Load

; 1260 :             const auto _Oldcapacity = static_cast<size_type>(_My_data._Myend - _Myfirst);

	mov	eax, DWORD PTR [esi+4]
	sub	eax, ebp
	sar	eax, 2
	imul	eax, eax, -1431655765

; 1261 :             if (_Newsize > _Oldcapacity) { // reallocate

	cmp	edx, eax
	jbe	SHORT $LN32@Load

; 1262 :                 _Resize_reallocate(_Newsize, _Val);

	lea	eax, DWORD PTR $T2[esp+564]
	push	eax
	push	edx
	lea	ecx, DWORD PTR [esi-4]
	call	??$_Resize_reallocate@U_Value_init_tag@std@@@?$vector@V?$xr_vector@PAV?$xr_vector@PAUSlotItem@CDetailManager@@V?$xalloc@PAUSlotItem@CDetailManager@@@@@@V?$xalloc@PAV?$xr_vector@PAUSlotItem@CDetailManager@@V?$xalloc@PAUSlotItem@CDetailManager@@@@@@@@@@V?$xalloc@V?$xr_vector@PAV?$xr_vector@PAUSlotItem@CDetailManager@@V?$xalloc@PAUSlotItem@CDetailManager@@@@@@V?$xalloc@PAV?$xr_vector@PAUSlotItem@CDetailManager@@V?$xalloc@PAUSlotItem@CDetailManager@@@@@@@@@@@@@std@@AAEXIABU_Value_init_tag@1@@Z ; std::vector<xr_vector<xr_vector<CDetailManager::SlotItem *,xalloc<CDetailManager::SlotItem *> > *,xalloc<xr_vector<CDetailManager::SlotItem *,xalloc<CDetailManager::SlotItem *> > *> >,xalloc<xr_vector<xr_vector<CDetailManager::SlotItem *,xalloc<CDetailManager::SlotItem *> > *,xalloc<xr_vector<CDetailManager::SlotItem *,xalloc<CDetailManager::SlotItem *> > *> > > >::_Resize_reallocate<std::_Value_init_tag>

; 1263 :                 return;

	jmp	SHORT $LN8@Load
$LN32@Load:

; 1267 :             _Mylast                = _Ufill(_Oldlast, _Newsize - _Oldsize, _Val);

	sub	edx, edi
; File C:\Program Files\Microsoft Visual Studio\2022\Community\VC\Tools\MSVC\14.29.30133\include\xmemory

; 1813 :     for (; 0 < _Count; --_Count) {

	je	SHORT $LN38@Load
	npad	6
$LL39@Load:
; File C:\Program Files\Microsoft Visual Studio\2022\Community\VC\Tools\MSVC\14.29.30133\include\vector

; 390  :     _CONSTEXPR20_CONTAINER _Vector_val() noexcept : _Myfirst(), _Mylast(), _Myend() {}

	mov	DWORD PTR [ecx], 0
	mov	DWORD PTR [ecx+4], 0
	mov	DWORD PTR [ecx+8], 0
; File C:\Program Files\Microsoft Visual Studio\2022\Community\VC\Tools\MSVC\14.29.30133\include\xmemory

; 1621 :         ++_Last;

	add	ecx, 12					; 0000000cH

; 1813 :     for (; 0 < _Count; --_Count) {

	sub	edx, 1
	jne	SHORT $LL39@Load
$LN38@Load:
; File C:\Program Files\Microsoft Visual Studio\2022\Community\VC\Tools\MSVC\14.29.30133\include\vector

; 1267 :             _Mylast                = _Ufill(_Oldlast, _Newsize - _Oldsize, _Val);

	mov	DWORD PTR [esi], ecx
$LN8@Load:
; File I:\Vitalya\mine\NSProjectX\layers\xrRender\DetailManager.cpp

; 139  : 	for (u32 i=0; i<3; ++i)	m_visibles[i].resize(objects.size());

	add	esi, 12					; 0000000cH
	sub	DWORD PTR tv2789[esp+564], 1
	jne	$LL10@Load
; File I:\Vitalya\mine\NSProjectX\layers\xrRender\DetailManager_CACHE.cpp

; 7    : 	cache_cx			= 0;

	mov	DWORD PTR [ebx+701200], 0

; 8    : 	cache_cz			= 0;
; 9    : 
; 10   : 	// Initialize cache-grid
; 11   : 	Slot*	slt 		= cache_pool;

	lea	edi, DWORD PTR [ebx+38524]
	mov	DWORD PTR [ebx+701204], 0
	xor	ebp, ebp
	add	ebx, 19312				; 00004b70H
	npad	2
$LL60@Load:

; 13   : 		for (u32 j=0; j<dm_cache_line; j++, slt++){

	xor	esi, esi
$LL63@Load:

; 14   : 			cache			[i][j]	= slt;
; 15   : 			cache_Task		(j,i,slt);

	mov	ecx, DWORD PTR _this$1$[esp+564]
	push	edi
	push	ebp
	push	esi
	mov	DWORD PTR [ebx], edi
	call	?cache_Task@CDetailManager@@QAEXHHPAUSlot@1@@Z ; CDetailManager::cache_Task
	inc	esi
	add	ebx, 4
	add	edi, 276				; 00000114H
	cmp	esi, 49					; 00000031H
	jb	SHORT $LL63@Load

; 12   : 	for (u32 i=0; i<dm_cache_line; i++)

	inc	ebp
	cmp	ebp, 49					; 00000031H
	jb	SHORT $LL60@Load

; 16   : 		}
; 17   : 	VERIFY	(cache_Validate());
; 18   : 
; 19   :     for (int _mz1=0; _mz1<dm_cache1_line; _mz1++){

	mov	eax, DWORD PTR _this$1$[esp+564]
	mov	DWORD PTR tv2771[esp+564], 12		; 0000000cH
	lea	edi, DWORD PTR [eax+1520]
	add	eax, 19320				; 00004b78H
	mov	DWORD PTR tv2768[esp+564], eax
$LL69@Load:

; 20   :     	for (int _mx1=0; _mx1<dm_cache1_line; _mx1++){

	mov	ebx, eax
	mov	ebp, 12					; 0000000cH
$LL72@Load:

; 21   : 		    CacheSlot1& MS 	= cache_level1[_mz1][_mx1];

	mov	ecx, edi
	mov	edx, ebx
	mov	esi, 4
$LL75@Load:

; 22   : 			for (int _z=0; _z<dm_cache1_count; _z++)
; 23   : 				for (int _x=0; _x<dm_cache1_count; _x++)
; 24   : 					MS.slots[_z*dm_cache1_count+_x] = &cache[_mz1*dm_cache1_count+_z][_mx1*dm_cache1_count+_x];

	lea	eax, DWORD PTR [edx-8]
	mov	DWORD PTR [ecx+4], edx
	mov	DWORD PTR [ecx-4], eax
	lea	ecx, DWORD PTR [ecx+16]
	lea	eax, DWORD PTR [edx-4]
	mov	DWORD PTR [ecx-16], eax
	lea	eax, DWORD PTR [edx+4]
	add	edx, 196				; 000000c4H
	mov	DWORD PTR [ecx-8], eax
	sub	esi, 1
	jne	SHORT $LL75@Load

; 20   :     	for (int _mx1=0; _mx1<dm_cache1_line; _mx1++){

	add	edi, 124				; 0000007cH
	add	ebx, 16					; 00000010H
	sub	ebp, 1
	jne	SHORT $LL72@Load

; 16   : 		}
; 17   : 	VERIFY	(cache_Validate());
; 18   : 
; 19   :     for (int _mz1=0; _mz1<dm_cache1_line; _mz1++){

	mov	eax, DWORD PTR tv2768[esp+564]
	add	eax, 784				; 00000310H
	sub	DWORD PTR tv2771[esp+564], 1
	mov	DWORD PTR tv2768[esp+564], eax
	jne	SHORT $LL69@Load
; File I:\Vitalya\mine\NSProjectX\layers\xrRender\DetailManager.cpp

; 49   :     float	magicfact = (N - 1) / 16;

	mov	ecx, DWORD PTR _this$1$[esp+564]
	mov	eax, OFFSET ?magic4x4@@3PAY03HA
	fld	QWORD PTR __real@3fefc00000000000
	add	ecx, 4
	mov	DWORD PTR tv2757[esp+564], ecx
$LN83@Load:

; 51   : 		for ( int j = 0; j < 4; j++ )

	mov	DWORD PTR tv2712[esp+564], eax
	mov	DWORD PTR tv2760[esp+564], ecx
	mov	DWORD PTR tv2759[esp+564], 4
$LN86@Load:
	cvtsi2ss xmm0, DWORD PTR [eax]

; 52   : 			for ( int k = 0; k < 4; k++ )

	mov	esi, OFFSET ?magic4x4@@3PAY03HA
	mov	ebp, ecx
	mulss	xmm0, DWORD PTR __real@417e0000
	addss	xmm0, DWORD PTR __real@3f000000
	movss	DWORD PTR tv2719[esp+564], xmm0
	fld	DWORD PTR tv2719[esp+564]
$LN89@Load:

; 53   : 				for ( int l = 0; l < 4; l++ )

	mov	edi, ebp
	mov	ebx, 4
$LN92@Load:

; 54   : 					magic[4*k+i][4*l+j] =

	fild	DWORD PTR [esi]
	fmul	ST(0), ST(2)
	fadd	ST(0), ST(1)
	call	__ftol2_sse
	add	esi, 4
	mov	DWORD PTR [edi], eax
	lea	edi, DWORD PTR [edi+16]
	sub	ebx, 1
	jne	SHORT $LN92@Load

; 52   : 			for ( int k = 0; k < 4; k++ )

	add	ebp, 256				; 00000100H
	cmp	esi, OFFSET ?magic4x4@@3PAY03HA+64
	jl	SHORT $LN89@Load
	mov	eax, DWORD PTR tv2712[esp+564]
	fstp	ST(0)
	mov	ecx, DWORD PTR tv2760[esp+564]
	add	eax, 4
	add	ecx, 4
	mov	DWORD PTR tv2712[esp+564], eax
	sub	DWORD PTR tv2759[esp+564], 1
	mov	DWORD PTR tv2760[esp+564], ecx
	jne	SHORT $LN86@Load

; 50   :     for ( int i = 0; i < 4; i++ )

	mov	ecx, DWORD PTR tv2757[esp+564]
	add	ecx, 64					; 00000040H
	mov	DWORD PTR tv2757[esp+564], ecx
	cmp	eax, OFFSET ?magic4x4@@3PAY03HA+64
	jl	$LN83@Load
; File I:\Vitalya\mine\NSProjectX\layers\xrRender\detailmanager.h

; 123  : 	IC bool							UseVS			()		{ return HW.Caps.geometry_major >= 1; }

	mov	eax, DWORD PTR __imp_?HW@@3VCHW@@A
; File I:\Vitalya\mine\NSProjectX\layers\xrRender\DetailManager.cpp

; 50   :     for ( int i = 0; i < 4; i++ )

	fstp	ST(0)

; 146  : 	if (UseVS())	hw_Load		();

	mov	ebx, DWORD PTR _this$1$[esp+564]
; File I:\Vitalya\mine\NSProjectX\layers\xrRender\detailmanager.h

; 123  : 	IC bool							UseVS			()		{ return HW.Caps.geometry_major >= 1; }

	pop	edi
	pop	esi
	cmp	WORD PTR [eax+48], 1
	pop	ebp
; File I:\Vitalya\mine\NSProjectX\layers\xrRender\DetailManager.cpp

; 146  : 	if (UseVS())	hw_Load		();

	jb	SHORT $LN13@Load
	mov	ecx, ebx
	call	?hw_Load@CDetailManager@@QAEXXZ		; CDetailManager::hw_Load
	jmp	SHORT $LN14@Load
$LN13@Load:
; File I:\Vitalya\mine\NSProjectX\layers\xrRender\DetailManager_soft.cpp

; 11   : 	soft_Geom.create				(D3DFVF_XYZ | D3DFVF_DIFFUSE | D3DFVF_TEX1, RCache.Vertex.Buffer(), RCache.Index.Buffer());

	mov	eax, DWORD PTR __imp_?RCache@@3VCBackend@@A
	lea	ecx, DWORD PTR [ebx+701224]
	push	DWORD PTR [eax+20]
	push	DWORD PTR [eax]
	push	322					; 00000142H
	call	DWORD PTR __imp_?create@resptrcode_geom@@QAEXIPAUIDirect3DVertexBuffer9@@PAUIDirect3DIndexBuffer9@@@Z
$LN14@Load:
; File I:\Vitalya\mine\NSProjectX\layers\xrRender\DetailManager.cpp

; 151  : 	swing_desc[0].amp1	= pSettings->r_float("details","swing_normal_amp1");

	mov	ecx, DWORD PTR __imp_?pSettings@@3PAVCInifile@@A
	push	OFFSET ??_C@_0BC@HMFDBOCL@swing_normal_amp1@
	push	OFFSET ??_C@_07CAOCFMEH@details@
	mov	ecx, DWORD PTR [ecx]
	call	DWORD PTR __imp_?r_float@CInifile@@QAEMPBD0@Z

; 152  : 	swing_desc[0].amp2	= pSettings->r_float("details","swing_normal_amp2");

	mov	ecx, DWORD PTR __imp_?pSettings@@3PAVCInifile@@A
	push	OFFSET ??_C@_0BC@FHHOENOI@swing_normal_amp2@
	fstp	DWORD PTR [ebx+1036]
	push	OFFSET ??_C@_07CAOCFMEH@details@
	mov	ecx, DWORD PTR [ecx]
	call	DWORD PTR __imp_?r_float@CInifile@@QAEMPBD0@Z

; 153  : 	swing_desc[0].rot1	= pSettings->r_float("details","swing_normal_rot1");

	mov	ecx, DWORD PTR __imp_?pSettings@@3PAVCInifile@@A
	push	OFFSET ??_C@_0BC@PGBDJDCO@swing_normal_rot1@
	fstp	DWORD PTR [ebx+1040]
	push	OFFSET ??_C@_07CAOCFMEH@details@
	mov	ecx, DWORD PTR [ecx]
	call	DWORD PTR __imp_?r_float@CInifile@@QAEMPBD0@Z

; 154  : 	swing_desc[0].rot2	= pSettings->r_float("details","swing_normal_rot2");

	mov	ecx, DWORD PTR __imp_?pSettings@@3PAVCInifile@@A
	push	OFFSET ??_C@_0BC@NNDOMAON@swing_normal_rot2@
	fstp	DWORD PTR [ebx+1028]
	push	OFFSET ??_C@_07CAOCFMEH@details@
	mov	ecx, DWORD PTR [ecx]
	call	DWORD PTR __imp_?r_float@CInifile@@QAEMPBD0@Z

; 155  : 	swing_desc[0].speed	= pSettings->r_float("details","swing_normal_speed");

	mov	ecx, DWORD PTR __imp_?pSettings@@3PAVCInifile@@A
	push	OFFSET ??_C@_0BD@HHENNFJP@swing_normal_speed@
	fstp	DWORD PTR [ebx+1032]
	push	OFFSET ??_C@_07CAOCFMEH@details@
	mov	ecx, DWORD PTR [ecx]
	call	DWORD PTR __imp_?r_float@CInifile@@QAEMPBD0@Z

; 156  : 	// fast
; 157  : 	swing_desc[1].amp1	= pSettings->r_float("details","swing_fast_amp1");

	mov	ecx, DWORD PTR __imp_?pSettings@@3PAVCInifile@@A
	push	OFFSET ??_C@_0BA@LGNGELGN@swing_fast_amp1@
	fstp	DWORD PTR [ebx+1044]
	push	OFFSET ??_C@_07CAOCFMEH@details@
	mov	ecx, DWORD PTR [ecx]
	call	DWORD PTR __imp_?r_float@CInifile@@QAEMPBD0@Z

; 158  : 	swing_desc[1].amp2	= pSettings->r_float("details","swing_fast_amp2");

	mov	ecx, DWORD PTR __imp_?pSettings@@3PAVCInifile@@A
	push	OFFSET ??_C@_0BA@JNPLBIKO@swing_fast_amp2@
	fstp	DWORD PTR [ebx+1056]
	push	OFFSET ??_C@_07CAOCFMEH@details@
	mov	ecx, DWORD PTR [ecx]
	call	DWORD PTR __imp_?r_float@CInifile@@QAEMPBD0@Z

; 159  : 	swing_desc[1].rot1	= pSettings->r_float("details","swing_fast_rot1");

	mov	ecx, DWORD PTR __imp_?pSettings@@3PAVCInifile@@A
	push	OFFSET ??_C@_0BA@DMJGMGGI@swing_fast_rot1@
	fstp	DWORD PTR [ebx+1060]
	push	OFFSET ??_C@_07CAOCFMEH@details@
	mov	ecx, DWORD PTR [ecx]
	call	DWORD PTR __imp_?r_float@CInifile@@QAEMPBD0@Z

; 160  : 	swing_desc[1].rot2	= pSettings->r_float("details","swing_fast_rot2");

	mov	ecx, DWORD PTR __imp_?pSettings@@3PAVCInifile@@A
	push	OFFSET ??_C@_0BA@BHLLJFKL@swing_fast_rot2@
	fstp	DWORD PTR [ebx+1048]
	push	OFFSET ??_C@_07CAOCFMEH@details@
	mov	ecx, DWORD PTR [ecx]
	call	DWORD PTR __imp_?r_float@CInifile@@QAEMPBD0@Z

; 161  : 	swing_desc[1].speed	= pSettings->r_float("details","swing_fast_speed");

	mov	ecx, DWORD PTR __imp_?pSettings@@3PAVCInifile@@A
	push	OFFSET ??_C@_0BB@OIDILEGP@swing_fast_speed@
	fstp	DWORD PTR [ebx+1052]
	push	OFFSET ??_C@_07CAOCFMEH@details@
	mov	ecx, DWORD PTR [ecx]
	call	DWORD PTR __imp_?r_float@CInifile@@QAEMPBD0@Z
	fstp	DWORD PTR [ebx+1064]
	pop	ebx

; 162  : }

	add	esp, 548				; 00000224H
	ret	0
?Load@CDetailManager@@QAEXXZ ENDP			; CDetailManager::Load
_TEXT	ENDS
; Function compile flags: /Ogtpy
; File I:\Vitalya\mine\NSProjectX\layers\xrRender\DetailManager.cpp
; File I:\Vitalya\mine\NSProjectX\layers\xrRender\detailmanager.h
; File I:\Vitalya\mine\NSProjectX\layers\xrRender\DetailManager.cpp
; File I:\Vitalya\mine\NSProjectX\layers\xrRender\detailmanager.h
; File I:\Vitalya\mine\NSProjectX\layers\xrRender\DetailManager.cpp
; File I:\Vitalya\mine\NSProjectX\xrCore\xr_resource.h
; File I:\Vitalya\mine\NSProjectX\layers\xrRender\DetailManager_VS.cpp
; File I:\Vitalya\mine\NSProjectX\layers\xrRender\DetailManager.cpp
; File I:\Vitalya\mine\NSProjectX\xrCore\xr_resource.h
; File I:\Vitalya\mine\NSProjectX\xrCore\FixedVector.h
; File I:\Vitalya\mine\NSProjectX\layers\xrRender\DetailManager.cpp
; File I:\Vitalya\mine\NSProjectX\xrCore\FixedVector.h
; File I:\Vitalya\mine\NSProjectX\layers\xrRender\DetailManager.cpp
; File I:\Vitalya\mine\NSProjectX\xrCore\xrMemory_subst_msvc.h
; File I:\Vitalya\mine\NSProjectX\xrCore\FixedVector.h
; File I:\Vitalya\mine\NSProjectX\layers\xrRender\DetailManager.cpp
; File I:\Vitalya\mine\NSProjectX\xrCore\FixedVector.h
; File I:\Vitalya\mine\NSProjectX\layers\xrRender\DetailManager.cpp
_TEXT	SEGMENT
?Unload@CDetailManager@@QAEXXZ PROC			; CDetailManager::Unload
; _this$ = ecx
; File I:\Vitalya\mine\NSProjectX\layers\xrRender\detailmanager.h

; 123  : 	IC bool							UseVS			()		{ return HW.Caps.geometry_major >= 1; }

	mov	eax, DWORD PTR __imp_?HW@@3VCHW@@A
; File I:\Vitalya\mine\NSProjectX\layers\xrRender\DetailManager.cpp

; 165  : {

	push	ebx
	push	esi
	mov	ebx, ecx
; File I:\Vitalya\mine\NSProjectX\layers\xrRender\detailmanager.h

; 123  : 	IC bool							UseVS			()		{ return HW.Caps.geometry_major >= 1; }

	cmp	WORD PTR [eax+48], 1
; File I:\Vitalya\mine\NSProjectX\layers\xrRender\DetailManager.cpp

; 166  : 	if (UseVS())	hw_Unload	();

	jb	SHORT $LN5@Unload
; File I:\Vitalya\mine\NSProjectX\xrCore\xr_resource.h

; 46   : 	ICF		void		_set	(T * rhs) 							{	if (0!=rhs) rhs->dwReference++;	_dec(); p_ = rhs;											}

	lea	ecx, DWORD PTR [ebx+701228]
	call	DWORD PTR __imp_?_dec@?$resptr_base@USGeometry@@@@IAEXXZ
	mov	DWORD PTR [ebx+701228], 0
; File I:\Vitalya\mine\NSProjectX\layers\xrRender\DetailManager_VS.cpp

; 131  : 	_RELEASE					(hw_IB);

	mov	ecx, DWORD PTR [ebx+701240]
	test	ecx, ecx
	je	SHORT $LN11@Unload
	mov	eax, DWORD PTR [ecx]
	push	ecx
	call	DWORD PTR [eax+8]
	mov	DWORD PTR [ebx+701240], 0
$LN11@Unload:

; 132  : 	_RELEASE					(hw_VB);

	mov	ecx, DWORD PTR [ebx+701236]
	test	ecx, ecx
	je	SHORT $LN6@Unload
	mov	eax, DWORD PTR [ecx]
	push	ecx
	call	DWORD PTR [eax+8]
	mov	DWORD PTR [ebx+701236], 0
; File I:\Vitalya\mine\NSProjectX\layers\xrRender\DetailManager.cpp

; 166  : 	if (UseVS())	hw_Unload	();

	jmp	SHORT $LN6@Unload
$LN5@Unload:
; File I:\Vitalya\mine\NSProjectX\xrCore\xr_resource.h

; 46   : 	ICF		void		_set	(T * rhs) 							{	if (0!=rhs) rhs->dwReference++;	_dec(); p_ = rhs;											}

	lea	ecx, DWORD PTR [ebx+701224]
	call	DWORD PTR __imp_?_dec@?$resptr_base@USGeometry@@@@IAEXXZ
	mov	DWORD PTR [ebx+701224], 0
$LN6@Unload:
; File I:\Vitalya\mine\NSProjectX\xrCore\FixedVector.h

; 27   : 	IC iterator	end	 ()						{ return array+count;					}

	mov	eax, DWORD PTR [ebx+1392]
; File I:\Vitalya\mine\NSProjectX\layers\xrRender\DetailManager.cpp

; 169  : 	for (DetailIt it=objects.begin(); it!=objects.end(); it++){

	lea	esi, DWORD PTR [ebx+1136]
; File I:\Vitalya\mine\NSProjectX\xrCore\FixedVector.h

; 27   : 	IC iterator	end	 ()						{ return array+count;					}

	lea	eax, DWORD PTR [esi+eax*4]
; File I:\Vitalya\mine\NSProjectX\layers\xrRender\DetailManager.cpp

; 169  : 	for (DetailIt it=objects.begin(); it!=objects.end(); it++){

	cmp	esi, eax
	je	SHORT $LN3@Unload
	push	ebp
	push	edi
	mov	ebp, esi
	npad	7
$LL4@Unload:

; 170  : 		(*it)->Unload();

	mov	ecx, DWORD PTR [esi]
	mov	eax, DWORD PTR [ecx]
	call	DWORD PTR [eax+12]
; File I:\Vitalya\mine\NSProjectX\xrCore\xrMemory_subst_msvc.h

; 151  : 	if (ptr) 

	mov	eax, DWORD PTR [esi]
	test	eax, eax
	je	SHORT $LN2@Unload

; 132  : 		void*	_real_ptr	= dynamic_cast<void*>(ptr);

	push	eax
	call	___RTCastToVoid

; 133  : 		ptr->~T			();

	mov	ecx, DWORD PTR [esi]
	add	esp, 4
	mov	edi, eax
	mov	edx, DWORD PTR [ecx]
	push	0
	call	DWORD PTR [edx+8]

; 134  : 		Memory.mem_free	(_real_ptr);

	mov	ecx, DWORD PTR __imp_?Memory@@3VxrMemory@@A
	push	edi
	call	DWORD PTR __imp_?mem_free@xrMemory@@QAEXPAX@Z

; 154  : 		ptr = nullptr;

	mov	DWORD PTR [esi], 0
$LN2@Unload:
; File I:\Vitalya\mine\NSProjectX\xrCore\FixedVector.h

; 27   : 	IC iterator	end	 ()						{ return array+count;					}

	mov	eax, DWORD PTR [ebp+256]
; File I:\Vitalya\mine\NSProjectX\layers\xrRender\DetailManager.cpp

; 169  : 	for (DetailIt it=objects.begin(); it!=objects.end(); it++){

	add	esi, 4
; File I:\Vitalya\mine\NSProjectX\xrCore\FixedVector.h

; 27   : 	IC iterator	end	 ()						{ return array+count;					}

	lea	eax, DWORD PTR [eax*4]
	add	eax, ebp
; File I:\Vitalya\mine\NSProjectX\layers\xrRender\DetailManager.cpp

; 169  : 	for (DetailIt it=objects.begin(); it!=objects.end(); it++){

	cmp	esi, eax
	jne	SHORT $LL4@Unload
	pop	edi
	pop	ebp
$LN3@Unload:

; 171  : 		xr_delete		(*it);
; 172  :     }
; 173  : 	objects.clear		();
; 174  : 	m_visibles[0].clear	();

	mov	eax, DWORD PTR [ebx+1396]

; 175  : 	m_visibles[1].clear	();
; 176  : 	m_visibles[2].clear	();
; 177  : 	FS.r_close			(dtFS);

	mov	ecx, DWORD PTR __imp_?xr_FS@@3PAVCLocatorAPI@@A
	mov	DWORD PTR [ebx+1400], eax
	mov	eax, DWORD PTR [ebx+1408]
	mov	DWORD PTR [ebx+1412], eax
	mov	eax, DWORD PTR [ebx+1420]
	mov	DWORD PTR [ebx+1424], eax
	lea	eax, DWORD PTR [ebx+1088]
	mov	DWORD PTR [ebx+1392], 0
	mov	ecx, DWORD PTR [ecx]
	push	eax
	call	DWORD PTR __imp_?r_close@CLocatorAPI@@QAEXAAPAVIReader@@@Z
	pop	esi
	pop	ebx

; 178  : }

	ret	0
?Unload@CDetailManager@@QAEXXZ ENDP			; CDetailManager::Unload
_TEXT	ENDS
; Function compile flags: /Ogtpy
; File I:\Vitalya\mine\NSProjectX\layers\xrRender\DetailManager.cpp
; File I:\Vitalya\mine\NSProjectX\xrCore\FTimer.h
; File I:\Vitalya\mine\NSProjectX\layers\xrRender\DetailManager.cpp
; File I:\Vitalya\mine\NSProjectX\xrCore\FTimer.h
; File I:\Vitalya\mine\NSProjectX\layers\xrRender\DetailManager.cpp
; File I:\Vitalya\mine\NSProjectX\layers\xrRender\HOM.cpp
; File I:\Vitalya\mine\NSProjectX\xrCore\_random.h
; File I:\Vitalya\mine\NSProjectX\layers\xrRender\HOM.cpp
; File I:\Vitalya\mine\NSProjectX\layers\xrRender\DetailManager.cpp
; File I:\Vitalya\mine\NSProjectX\xrCore\_vector3d.h
; File I:\Vitalya\mine\NSProjectX\layers\xrRender\DetailManager.cpp
; File I:\Vitalya\mine\NSProjectX\xrCore\_random.h
; File I:\Vitalya\mine\NSProjectX\layers\xrRender\DetailManager.cpp
; File I:\Vitalya\mine\NSProjectX\xrCore\_random.h
; File I:\Vitalya\mine\NSProjectX\layers\xrRender\DetailManager.cpp
; File I:\Vitalya\mine\NSProjectX\xrCore\_random.h
; File I:\Vitalya\mine\NSProjectX\layers\xrRender\DetailManager.cpp
; File C:\Program Files\Microsoft Visual Studio\2022\Community\VC\Tools\MSVC\14.29.30133\include\vector
; File I:\Vitalya\mine\NSProjectX\layers\xrRender\DetailManager.cpp
; File C:\Program Files\Microsoft Visual Studio\2022\Community\VC\Tools\MSVC\14.29.30133\include\vector
; File I:\Vitalya\mine\NSProjectX\layers\xrRender\DetailManager.cpp
; File C:\Program Files\Microsoft Visual Studio\2022\Community\VC\Tools\MSVC\14.29.30133\include\vector
; File I:\Vitalya\mine\NSProjectX\layers\xrRender\DetailManager.cpp
; File C:\Program Files\Microsoft Visual Studio\2022\Community\VC\Tools\MSVC\14.29.30133\include\vector
; File I:\Vitalya\mine\NSProjectX\layers\xrRender\DetailManager.cpp
; File C:\Program Files\Microsoft Visual Studio\2022\Community\VC\Tools\MSVC\14.29.30133\include\vector
; File I:\Vitalya\mine\NSProjectX\layers\xrRender\DetailManager.cpp
; File C:\Program Files\Microsoft Visual Studio\2022\Community\VC\Tools\MSVC\14.29.30133\include\vector
; File I:\Vitalya\mine\NSProjectX\layers\xrRender\DetailManager.cpp
; File C:\Program Files\Microsoft Visual Studio\2022\Community\VC\Tools\MSVC\14.29.30133\include\vector
; File I:\Vitalya\mine\NSProjectX\layers\xrRender\DetailManager.cpp
; File C:\Program Files\Microsoft Visual Studio\2022\Community\VC\Tools\MSVC\14.29.30133\include\vector
; File I:\Vitalya\mine\NSProjectX\layers\xrRender\DetailManager.cpp
; File C:\Program Files\Microsoft Visual Studio\2022\Community\VC\Tools\MSVC\14.29.30133\include\vector
; File I:\Vitalya\mine\NSProjectX\layers\xrRender\DetailManager.cpp
; File C:\Program Files\Microsoft Visual Studio\2022\Community\VC\Tools\MSVC\14.29.30133\include\vector
; File I:\Vitalya\mine\NSProjectX\layers\xrRender\DetailManager.cpp
; File I:\Vitalya\mine\NSProjectX\xrCore\FTimer.h
; File I:\Vitalya\mine\NSProjectX\layers\xrRender\DetailManager.cpp
_TEXT	SEGMENT
_S$1$ = -328						; size = 4
$T1 = -328						; size = 4
$T2 = -328						; size = 4
$T3 = -328						; size = 4
_res$1$ = -324						; size = 4
$T4 = -320						; size = 4
__mask$5 = -320						; size = 4
_mask$6 = -316						; size = 4
_alpha$1$ = -312					; size = 4
tv2458 = -308						; size = 4
_this$1$ = -304						; size = 4
tv2434 = -300						; size = 4
tv2460 = -296						; size = 4
tv2424 = -292						; size = 4
tv2461 = -288						; size = 4
tv2463 = -284						; size = 4
_r_ssaCHEAP$1$ = -280					; size = 4
_Rq_drcp$1$ = -276					; size = 4
_alpha_i$1$ = -272					; size = 4
tv2429 = -268						; size = 4
_dist_sq_rcp$1$ = -264					; size = 4
_EYE$ = -260						; size = 12
_View$ = -248						; size = 244
?UpdateVisibleM@CDetailManager@@QAEXXZ PROC		; CDetailManager::UpdateVisibleM
; _this$ = ecx

; 183  : {

	sub	esp, 332				; 0000014cH

; 184  : 	Fvector		EYE				= Device.vCameraPosition;

	mov	edx, DWORD PTR __imp_?Device@@3VCRenderDevice@@A
	push	ebx
	push	ebp
	push	esi
	mov	eax, DWORD PTR [edx+488]
	mov	ebx, ecx
	mov	DWORD PTR _EYE$[esp+344], eax

; 185  : 	
; 186  : 	CFrustum	View;
; 187  : 	View.CreateFromMatrix		(Device.mFullTransform, FRUSTUM_P_LRTB + FRUSTUM_P_FAR);

	lea	ecx, DWORD PTR _View$[esp+344]
	mov	eax, DWORD PTR [edx+492]
	mov	DWORD PTR _EYE$[esp+348], eax
	mov	eax, DWORD PTR [edx+496]
	push	edi
	mov	DWORD PTR _EYE$[esp+356], eax
	lea	eax, DWORD PTR [edx+664]
	push	47					; 0000002fH
	push	eax
	mov	DWORD PTR _this$1$[esp+356], ebx
	call	DWORD PTR __imp_?CreateFromMatrix@CFrustum@@QAEXAAU?$_matrix@M@@I@Z

; 196  : 	Device.Statistic->RenderDUMP_DT_VIS.Begin	();

	mov	eax, DWORD PTR __imp_?Device@@3VCRenderDevice@@A
	movss	xmm0, DWORD PTR ?r_ssaDISCARD@@3MA
	mulss	xmm0, DWORD PTR __real@41800000
	mov	esi, DWORD PTR [eax+436]
; File I:\Vitalya\mine\NSProjectX\xrCore\FTimer.h

; 173  : 	ICF void	Begin			()		{	if (!g_bEnableStatGather) return;	count++; T.Start();				}

	mov	eax, DWORD PTR __imp_?g_bEnableStatGather@@3HA
; File I:\Vitalya\mine\NSProjectX\layers\xrRender\DetailManager.cpp

; 196  : 	Device.Statistic->RenderDUMP_DT_VIS.Begin	();

	add	esi, 2248				; 000008c8H
	movss	DWORD PTR _r_ssaCHEAP$1$[esp+348], xmm0
; File I:\Vitalya\mine\NSProjectX\xrCore\FTimer.h

; 173  : 	ICF void	Begin			()		{	if (!g_bEnableStatGather) return;	count++; T.Start();				}

	cmp	DWORD PTR [eax], 0
	je	SHORT $LN286@UpdateVisi
	inc	DWORD PTR [esi+68]

; 73   : 		if (bPause)

	cmp	DWORD PTR [esi+24], 0
	jne	SHORT $LN286@UpdateVisi

; 29   : 	ICF	void	Start			()		{	if(bPause) return;	qwStartTime = CPU::QPC()-qwPauseAccum;		}

	call	DWORD PTR __imp_?QPC@CPU@@YA_KXZ
	sub	eax, DWORD PTR [esi+16]
	mov	DWORD PTR [esi], eax
	sbb	edx, DWORD PTR [esi+20]
	mov	DWORD PTR [esi+4], edx

; 78   : 		m_real_ticks	= 0;

	mov	DWORD PTR [esi+40], 0
	mov	DWORD PTR [esi+44], 0

; 79   : 		m_ticks			= 0;

	mov	DWORD PTR [esi+48], 0
	mov	DWORD PTR [esi+52], 0
$LN286@UpdateVisi:
; File I:\Vitalya\mine\NSProjectX\layers\xrRender\DetailManager.cpp

; 197  : 	for (int _mz=0; _mz<dm_cache1_line; _mz++){

	mov	esi, DWORD PTR __imp_?testSAABB@CFrustum@@QBE?AW4EFC_Visible@@AAU?$_vector3@M@@MPBMAAI@Z
	lea	ebp, DWORD PTR [ebx+1472]
	mov	DWORD PTR tv2463[esp+348], 12		; 0000000cH
$LL4@UpdateVisi:

; 198  : 		for (int _mx=0; _mx<dm_cache1_line; _mx++){

	mov	edi, 12					; 0000000cH
	mov	DWORD PTR tv2424[esp+348], ebp
	mov	DWORD PTR tv2461[esp+348], edi
	npad	1
$LL7@UpdateVisi:

; 199  : 			CacheSlot1& MS		= cache_level1[_mz][_mx];
; 200  : 			if (MS.empty)		continue;

	cmp	DWORD PTR [ebp-16], 0
	jne	$LN5@UpdateVisi

; 201  : 			u32 mask			= 0xff;
; 202  : 			u32 res				= View.testSAABB		(MS.vis.sphere.P,MS.vis.sphere.R,MS.vis.box.data(),mask);

	fld	DWORD PTR [ebp]
	lea	eax, DWORD PTR _mask$6[esp+348]
	push	eax
	lea	eax, DWORD PTR [ebp+4]
	mov	DWORD PTR _mask$6[esp+352], 255		; 000000ffH
	push	eax
	push	ecx
	lea	eax, DWORD PTR [ebp-12]
	fstp	DWORD PTR [esp]
	push	eax
	lea	ecx, DWORD PTR _View$[esp+364]
	call	esi
	mov	ecx, eax
	mov	DWORD PTR _res$1$[esp+348], ecx

; 203  : 			if (fcvNone==res)						 	continue;	// invisible-view frustum

	test	ecx, ecx
	je	$LN5@UpdateVisi

; 204  : 			// test slots
; 205  : 			for (int _i=0; _i<dm_cache1_count*dm_cache1_count; _i++){

	lea	eax, DWORD PTR [ebp+44]
	mov	DWORD PTR tv2460[esp+348], 16		; 00000010H
	mov	DWORD PTR tv2434[esp+348], eax
	npad	7
$LL10@UpdateVisi:

; 206  : 				Slot*	PS		= *MS.slots[_i];

	mov	eax, DWORD PTR [eax]

; 207  : 				Slot& 	S 		= *PS;

	mov	ebp, DWORD PTR [eax]
	mov	DWORD PTR _S$1$[esp+348], ebp

; 208  : 
; 209  : 				// if slot empty - continue
; 210  : 				if (S.empty)	continue;

	test	BYTE PTR [ebp], 1
	jne	$LN8@UpdateVisi

; 211  : 
; 212  : 				// if upper test = fcvPartial - test inner slots
; 213  : 				if (fcvPartial==res){

	lea	edi, DWORD PTR [ebp+28]
	cmp	ecx, 1
	jne	SHORT $LN285@UpdateVisi

; 214  : 					u32 _mask	= mask;

	mov	eax, DWORD PTR _mask$6[esp+348]

; 215  : 					u32 _res	= View.testSAABB			(S.vis.sphere.P,S.vis.sphere.R,S.vis.box.data(),_mask);

	fld	DWORD PTR [ebp+24]
	mov	DWORD PTR __mask$5[esp+348], eax
	lea	eax, DWORD PTR __mask$5[esp+348]
	push	eax
	push	edi
	push	ecx
	lea	eax, DWORD PTR [ebp+12]
	fstp	DWORD PTR [esp]
	push	eax
	lea	ecx, DWORD PTR _View$[esp+364]
	call	esi

; 216  : 					if (fcvNone==_res)						continue;	// invisible-view frustum

	test	eax, eax
	je	$LN292@UpdateVisi
$LN285@UpdateVisi:
; File I:\Vitalya\mine\NSProjectX\layers\xrRender\HOM.cpp

; 288  : 	if (Device.dwFrame<vis.hom_frame)	return TRUE;				// not at this time :)

	mov	eax, DWORD PTR __imp_?Device@@3VCRenderDevice@@A
	mov	esi, DWORD PTR [eax+244]
	cmp	esi, DWORD PTR [ebp+60]
	jb	SHORT $LN291@UpdateVisi

; 289  : 	if (!bEnabled)						return TRUE;				// return - everything visible

	cmp	DWORD PTR ?RImplementation@@3VCRender@@A+744, 0
	je	SHORT $LN291@UpdateVisi

; 290  : 	
; 291  : 	// Now, the test time comes
; 292  : 	// 0. The object was hidden, and we must prove that each frame	- test		| frame-old, tested-new, hom_res = false;
; 293  : 	// 1. The object was visible, but we must to re-check it		- test		| frame-new, tested-???, hom_res = true;
; 294  : 	// 2. New object slides into view								- delay test| frame-old, tested-old, hom_res = ???;
; 295  : 	u32 frame_current	= Device.dwFrame;
; 296  : 	// u32	frame_prev		= frame_current-1;
; 297  : 
; 298  : #ifdef DEBUG
; 299  : 	Device.Statistic->RenderCALC_HOM.Begin	();
; 300  : #endif
; 301  : 	BOOL result			= _visible			(vis.box,m_xform_01);

	mov	edx, OFFSET ?RImplementation@@3VCRender@@A+812
	mov	ecx, edi
	call	?_visible@@YAHAAV?$_box3@M@@AAU?$_matrix@M@@@Z ; _visible

; 302  : 	u32  delay			= 1;
; 303  : 	if (result)

	test	eax, eax
	je	SHORT $LN50@UpdateVisi
; File I:\Vitalya\mine\NSProjectX\xrCore\_random.h

; 33   : 	IC 	s32		randI	(s32 max)					{ VERIFY(max);  return randI()%max; }

	mov	ecx, DWORD PTR __imp_?Random@@3VCRandom@@A
	call	?randI@CRandom@@QAEHXZ			; CRandom::randI
	cdq
	mov	edi, 15					; 0000000fH
	idiv	edi
; File I:\Vitalya\mine\NSProjectX\layers\xrRender\HOM.cpp

; 306  : 		delay			= ::Random.randI	(5*2,5*5);

	lea	eax, DWORD PTR [esi+10]
	mov	DWORD PTR [ebp+64], esi
	add	eax, edx
	mov	DWORD PTR [ebp+60], eax
	jmp	SHORT $LN284@UpdateVisi
$LN50@UpdateVisi:

; 307  : 	} else {
; 308  : 		// hidden	- shedule to next frame
; 309  : 	}
; 310  : 	vis.hom_frame			= frame_current + delay;

	lea	eax, DWORD PTR [esi+1]

; 311  : 	vis.hom_tested			= frame_current	;

	mov	DWORD PTR [ebp+64], esi
	mov	DWORD PTR [ebp+60], eax
	jmp	$LN289@UpdateVisi
$LN291@UpdateVisi:
; File I:\Vitalya\mine\NSProjectX\layers\xrRender\DetailManager.cpp

; 222  : 				if (Device.dwFrame>S.frame){

	mov	edi, 15					; 0000000fH
$LN284@UpdateVisi:
	mov	eax, DWORD PTR __imp_?Device@@3VCRenderDevice@@A
	mov	ecx, DWORD PTR [ebp]
	shr	ecx, 2
	cmp	DWORD PTR [eax+244], ecx
	jbe	$LN12@UpdateVisi
; File I:\Vitalya\mine\NSProjectX\xrCore\_vector3d.h

; 287  : 	{	return (x-v.x)*(x-v.x) + (y-v.y)*(y-v.y) + (z-v.z)*(z-v.z);	}

	movss	xmm1, DWORD PTR _EYE$[esp+352]
	movss	xmm2, DWORD PTR _EYE$[esp+348]
	subss	xmm2, DWORD PTR [ebp+12]
	subss	xmm1, DWORD PTR [ebp+16]
	movss	xmm0, DWORD PTR _EYE$[esp+356]
	subss	xmm0, DWORD PTR [ebp+20]
	mulss	xmm2, xmm2
	mulss	xmm1, xmm1
	mulss	xmm0, xmm0
	addss	xmm2, xmm1
	addss	xmm2, xmm0
; File I:\Vitalya\mine\NSProjectX\layers\xrRender\DetailManager.cpp

; 225  : 					if		(dist_sq>fade_limit)				continue;

	comiss	xmm2, DWORD PTR __real@450d0400
	ja	$LN289@UpdateVisi

; 226  : 					float	alpha		= (dist_sq<fade_start)?0.f:(dist_sq-fade_start)/fade_range;

	movss	xmm3, DWORD PTR __real@3f800000
	comiss	xmm3, xmm2
	jbe	SHORT $LN36@UpdateVisi
	xorps	xmm0, xmm0
	movaps	xmm1, xmm0
	jmp	SHORT $LN293@UpdateVisi
$LN36@UpdateVisi:
	movaps	xmm1, xmm2
	subss	xmm1, xmm3
	movaps	xmm0, xmm1
	mulss	xmm1, xmm1
	mulss	xmm0, DWORD PTR __real@39e87975
	mulss	xmm1, DWORD PTR __real@34531c5e
$LN293@UpdateVisi:

; 228  : 					float	dist_sq_rcp	= 1.f / dist_sq;

	movaps	xmm5, xmm3
; File I:\Vitalya\mine\NSProjectX\xrCore\_random.h

; 33   : 	IC 	s32		randI	(s32 max)					{ VERIFY(max);  return randI()%max; }

	mov	ecx, DWORD PTR __imp_?Random@@3VCRandom@@A
; File I:\Vitalya\mine\NSProjectX\layers\xrRender\DetailManager.cpp

; 228  : 					float	dist_sq_rcp	= 1.f / dist_sq;

	divss	xmm5, xmm2
	movaps	xmm4, xmm3
	movss	DWORD PTR $T4[esp+348], xmm1
	subss	xmm4, xmm0
	movss	DWORD PTR _alpha$1$[esp+348], xmm0
	movss	DWORD PTR _dist_sq_rcp$1$[esp+348], xmm5
	movss	DWORD PTR _alpha_i$1$[esp+348], xmm4
; File I:\Vitalya\mine\NSProjectX\xrCore\_random.h

; 33   : 	IC 	s32		randI	(s32 max)					{ VERIFY(max);  return randI()%max; }

	call	?randI@CRandom@@QAEHXZ			; CRandom::randI
	cdq
	idiv	edi
; File I:\Vitalya\mine\NSProjectX\layers\xrRender\DetailManager.cpp

; 230  : 					S.frame			= Device.dwFrame+Random.randI(15,30);

	mov	eax, DWORD PTR __imp_?Device@@3VCRenderDevice@@A
	lea	edi, DWORD PTR [ebp+100]
; File I:\Vitalya\mine\NSProjectX\xrCore\_random.h

; 34   : 	IC 	s32		randI	(s32 min, s32 max)			{ return min+randI(max-min); }

	add	edx, 15					; 0000000fH
; File I:\Vitalya\mine\NSProjectX\layers\xrRender\DetailManager.cpp

; 230  : 					S.frame			= Device.dwFrame+Random.randI(15,30);

	mov	ecx, DWORD PTR [eax+244]
	mov	eax, DWORD PTR [ebp]
	add	ecx, edx
	shl	ecx, 2
	and	eax, 3
	or	ecx, eax
	mov	edx, 4
	mov	DWORD PTR [ebp], ecx
	mov	ebp, DWORD PTR _this$1$[esp+348]
	mov	DWORD PTR tv2458[esp+348], edx
	npad	5
$LL13@UpdateVisi:

; 232  : 						SlotPart&			sp	= S.G		[sp_id];
; 233  : 						if (sp.id==DetailSlot::ID_Empty)	continue;

	mov	ecx, DWORD PTR [edi-32]
	cmp	ecx, 63					; 0000003fH
	je	$LN11@UpdateVisi
; File C:\Program Files\Microsoft Visual Studio\2022\Community\VC\Tools\MSVC\14.29.30133\include\vector

; 1414 :         const pointer _Firstptr = _First._Ptr;

	mov	eax, DWORD PTR [edi-16]

; 1415 :         const pointer _Lastptr  = _Last._Ptr;
; 1416 :         auto& _My_data          = _Mypair._Myval2;
; 1417 :         pointer& _Mylast        = _My_data._Mylast;
; 1418 : 
; 1419 : #if _ITERATOR_DEBUG_LEVEL == 2
; 1420 :         _STL_VERIFY(_First._Getcont() == _STD addressof(_My_data) && _Last._Getcont() == _STD addressof(_My_data)
; 1421 :                         && _Firstptr >= _My_data._Myfirst && _Lastptr >= _Firstptr && _Mylast >= _Lastptr,
; 1422 :             "vector erase iterator outside range");
; 1423 : #endif // _ITERATOR_DEBUG_LEVEL == 2
; 1424 : 
; 1425 :         if (_Firstptr != _Lastptr) { // something to do, invalidate iterators

	cmp	eax, DWORD PTR [edi-12]
	je	SHORT $LN276@UpdateVisi

; 1426 :             _Orphan_range(_Firstptr, _Mylast);
; 1427 : 
; 1428 :             const pointer _Newlast = _Move_unchecked(_Lastptr, _Mylast, _Firstptr);
; 1429 :             _Destroy(_Newlast, _Mylast);
; 1430 :             _Mylast = _Newlast;

	mov	DWORD PTR [edi-12], eax
$LN276@UpdateVisi:

; 1414 :         const pointer _Firstptr = _First._Ptr;

	mov	eax, DWORD PTR [edi-4]

; 1415 :         const pointer _Lastptr  = _Last._Ptr;
; 1416 :         auto& _My_data          = _Mypair._Myval2;
; 1417 :         pointer& _Mylast        = _My_data._Mylast;
; 1418 : 
; 1419 : #if _ITERATOR_DEBUG_LEVEL == 2
; 1420 :         _STL_VERIFY(_First._Getcont() == _STD addressof(_My_data) && _Last._Getcont() == _STD addressof(_My_data)
; 1421 :                         && _Firstptr >= _My_data._Myfirst && _Lastptr >= _Firstptr && _Mylast >= _Lastptr,
; 1422 :             "vector erase iterator outside range");
; 1423 : #endif // _ITERATOR_DEBUG_LEVEL == 2
; 1424 : 
; 1425 :         if (_Firstptr != _Lastptr) { // something to do, invalidate iterators

	cmp	eax, DWORD PTR [edi]
	je	SHORT $LN277@UpdateVisi

; 1426 :             _Orphan_range(_Firstptr, _Mylast);
; 1427 : 
; 1428 :             const pointer _Newlast = _Move_unchecked(_Lastptr, _Mylast, _Firstptr);
; 1429 :             _Destroy(_Newlast, _Mylast);
; 1430 :             _Mylast = _Newlast;

	mov	DWORD PTR [edi], eax
$LN277@UpdateVisi:

; 1414 :         const pointer _Firstptr = _First._Ptr;

	mov	eax, DWORD PTR [edi+8]

; 1415 :         const pointer _Lastptr  = _Last._Ptr;
; 1416 :         auto& _My_data          = _Mypair._Myval2;
; 1417 :         pointer& _Mylast        = _My_data._Mylast;
; 1418 : 
; 1419 : #if _ITERATOR_DEBUG_LEVEL == 2
; 1420 :         _STL_VERIFY(_First._Getcont() == _STD addressof(_My_data) && _Last._Getcont() == _STD addressof(_My_data)
; 1421 :                         && _Firstptr >= _My_data._Myfirst && _Lastptr >= _Firstptr && _Mylast >= _Lastptr,
; 1422 :             "vector erase iterator outside range");
; 1423 : #endif // _ITERATOR_DEBUG_LEVEL == 2
; 1424 : 
; 1425 :         if (_Firstptr != _Lastptr) { // something to do, invalidate iterators

	cmp	eax, DWORD PTR [edi+12]
	je	SHORT $LN140@UpdateVisi

; 1426 :             _Orphan_range(_Firstptr, _Mylast);
; 1427 : 
; 1428 :             const pointer _Newlast = _Move_unchecked(_Lastptr, _Mylast, _Firstptr);
; 1429 :             _Destroy(_Newlast, _Mylast);
; 1430 :             _Mylast = _Newlast;

	mov	DWORD PTR [edi+12], eax
$LN140@UpdateVisi:
; File I:\Vitalya\mine\NSProjectX\layers\xrRender\DetailManager.cpp

; 239  : 						float				R		= objects	[sp.id]->bv_sphere.R;

	mov	eax, DWORD PTR [ebp+ecx*4+1136]

; 240  : 						float				Rq_drcp	= R*R*dist_sq_rcp;	// reordered expression for 'ssa' calc
; 241  : 
; 242  : 						SlotItem			**siIT=&(*sp.items.begin()), **siEND=&(*sp.items.end());

	mov	ebx, DWORD PTR [edi-24]
	mov	esi, DWORD PTR [edi-28]
	movss	xmm3, DWORD PTR [eax+16]
	mulss	xmm3, xmm3
	mulss	xmm3, xmm5
	movss	DWORD PTR _Rq_drcp$1$[esp+348], xmm3

; 243  : 						for (; siIT!=siEND; siIT++){

	cmp	esi, ebx
	je	$LN11@UpdateVisi
	subss	xmm0, xmm1
	movss	DWORD PTR tv2429[esp+348], xmm0
	npad	3
$LL16@UpdateVisi:

; 244  : 							SlotItem& Item			= *(*siIT);

	mov	ecx, DWORD PTR [esi]

; 245  : 							float   scale			= Item.scale_calculated	= Item.scale*alpha_i;

	movss	xmm1, DWORD PTR [ecx]
	movaps	xmm2, xmm1

; 246  : 							float	ssa				= scale*scale*Rq_drcp;

	mulss	xmm0, xmm1
	mulss	xmm2, xmm4
	movss	DWORD PTR [ecx+4], xmm2
	subss	xmm2, xmm0

; 247  : 							if (ssa < r_ssaDISCARD) continue;

	movss	xmm0, DWORD PTR ?r_ssaDISCARD@@3MA
	mulss	xmm2, xmm1
	mulss	xmm2, xmm3
	comiss	xmm0, xmm2
	ja	SHORT $LN14@UpdateVisi

; 248  : 							u32		vis_id			= 0;

	xor	eax, eax

; 249  : 							if (ssa > r_ssaCHEAP)	vis_id = Item.vis_ID;

	comiss	xmm2, DWORD PTR _r_ssaCHEAP$1$[esp+348]
	jbe	SHORT $LN30@UpdateVisi
	mov	eax, DWORD PTR [ecx+72]
$LN30@UpdateVisi:

; 251  : 							sp.r_items[vis_id].push_back	(*siIT);

	lea	ecx, DWORD PTR [eax-2]
	lea	ecx, DWORD PTR [eax+ecx*2]
; File C:\Program Files\Microsoft Visual Studio\2022\Community\VC\Tools\MSVC\14.29.30133\include\vector

; 730  :         if (_Mylast != _My_data._Myend) {

	mov	edx, DWORD PTR [edi+ecx*4+4]
; File I:\Vitalya\mine\NSProjectX\layers\xrRender\DetailManager.cpp

; 251  : 							sp.r_items[vis_id].push_back	(*siIT);

	lea	ecx, DWORD PTR [edi+ecx*4]
; File C:\Program Files\Microsoft Visual Studio\2022\Community\VC\Tools\MSVC\14.29.30133\include\vector

; 730  :         if (_Mylast != _My_data._Myend) {

	cmp	edx, DWORD PTR [ecx+8]
	je	SHORT $LN173@UpdateVisi

; 713  :         _Alty_traits::construct(_Getal(), _Unfancy(_Mylast), _STD forward<_Valty>(_Val)...);

	mov	eax, DWORD PTR [esi]
	mov	DWORD PTR [edx], eax

; 714  :         _Orphan_range(_Mylast, _Mylast);
; 715  :         _Ty& _Result = *_Mylast;
; 716  :         ++_Mylast;

	add	DWORD PTR [ecx+4], 4

; 731  :             return _Emplace_back_with_unused_capacity(_STD forward<_Valty>(_Val)...);

	jmp	SHORT $LN14@UpdateVisi
$LN173@UpdateVisi:

; 732  :         }
; 733  : 
; 734  :         _Ty& _Result = *_Emplace_reallocate(_Mylast, _STD forward<_Valty>(_Val)...);

	push	esi
	push	edx
	call	??$_Emplace_reallocate@ABQAUSlotItem@CDetailManager@@@?$vector@PAUSlotItem@CDetailManager@@V?$xalloc@PAUSlotItem@CDetailManager@@@@@std@@QAEPAPAUSlotItem@CDetailManager@@QAPAU23@ABQAU23@@Z ; std::vector<CDetailManager::SlotItem *,xalloc<CDetailManager::SlotItem *> >::_Emplace_reallocate<CDetailManager::SlotItem * const &>
	movss	xmm3, DWORD PTR _Rq_drcp$1$[esp+348]
	movss	xmm4, DWORD PTR _alpha_i$1$[esp+348]
$LN14@UpdateVisi:
; File I:\Vitalya\mine\NSProjectX\layers\xrRender\DetailManager.cpp

; 243  : 						for (; siIT!=siEND; siIT++){

	movss	xmm0, DWORD PTR tv2429[esp+348]
	add	esi, 4
	cmp	esi, ebx
	jne	SHORT $LL16@UpdateVisi
	movss	xmm0, DWORD PTR _alpha$1$[esp+348]
	movss	xmm5, DWORD PTR _dist_sq_rcp$1$[esp+348]
	mov	edx, DWORD PTR tv2458[esp+348]
$LN11@UpdateVisi:

; 231  : 					for (int sp_id=0; sp_id<dm_obj_in_slot; sp_id++){

	movss	xmm1, DWORD PTR $T4[esp+348]
	add	edi, 52					; 00000034H
	sub	edx, 1
	mov	DWORD PTR tv2458[esp+348], edx
	jne	$LL13@UpdateVisi
	mov	ebp, DWORD PTR _S$1$[esp+348]
	mov	ebx, DWORD PTR _this$1$[esp+348]
$LN12@UpdateVisi:

; 257  : 				for (int sp_id=0; sp_id<dm_obj_in_slot; sp_id++){

	lea	esi, DWORD PTR [ebp+84]
	mov	edi, 4
	npad	3
$LL19@UpdateVisi:

; 258  : 					SlotPart&			sp	= S.G		[sp_id];
; 259  : 					if (sp.id==DetailSlot::ID_Empty)	continue;

	mov	ecx, DWORD PTR [esi-16]
	cmp	ecx, 63					; 0000003fH
	je	$LN17@UpdateVisi
; File C:\Program Files\Microsoft Visual Studio\2022\Community\VC\Tools\MSVC\14.29.30133\include\vector

; 1531 :         return _My_data._Myfirst == _My_data._Mylast;

	mov	eax, DWORD PTR [esi]
	cmp	eax, DWORD PTR [esi+4]
; File I:\Vitalya\mine\NSProjectX\layers\xrRender\DetailManager.cpp

; 260  : 					if (!sp.r_items[0].empty()) m_visibles[0][sp.id].push_back(&sp.r_items[0]);

	je	SHORT $LN198@UpdateVisi
; File C:\Program Files\Microsoft Visual Studio\2022\Community\VC\Tools\MSVC\14.29.30133\include\vector

; 119  :         _Ptr += _Off;

	mov	eax, DWORD PTR [ebx+1396]
	lea	ecx, DWORD PTR [ecx+ecx*2]
	lea	ecx, DWORD PTR [eax+ecx*4]
; File I:\Vitalya\mine\NSProjectX\layers\xrRender\DetailManager.cpp

; 260  : 					if (!sp.r_items[0].empty()) m_visibles[0][sp.id].push_back(&sp.r_items[0]);

	mov	DWORD PTR $T3[esp+348], esi
; File C:\Program Files\Microsoft Visual Studio\2022\Community\VC\Tools\MSVC\14.29.30133\include\vector

; 730  :         if (_Mylast != _My_data._Myend) {

	mov	eax, DWORD PTR [ecx+4]
	cmp	eax, DWORD PTR [ecx+8]
	je	SHORT $LN199@UpdateVisi

; 713  :         _Alty_traits::construct(_Getal(), _Unfancy(_Mylast), _STD forward<_Valty>(_Val)...);

	mov	DWORD PTR [eax], esi

; 714  :         _Orphan_range(_Mylast, _Mylast);
; 715  :         _Ty& _Result = *_Mylast;
; 716  :         ++_Mylast;

	add	DWORD PTR [ecx+4], 4

; 731  :             return _Emplace_back_with_unused_capacity(_STD forward<_Valty>(_Val)...);

	jmp	SHORT $LN198@UpdateVisi
$LN199@UpdateVisi:

; 732  :         }
; 733  : 
; 734  :         _Ty& _Result = *_Emplace_reallocate(_Mylast, _STD forward<_Valty>(_Val)...);

	lea	edx, DWORD PTR $T3[esp+348]
	push	edx
	push	eax
	call	??$_Emplace_reallocate@PAV?$xr_vector@PAUSlotItem@CDetailManager@@V?$xalloc@PAUSlotItem@CDetailManager@@@@@@@?$vector@PAV?$xr_vector@PAUSlotItem@CDetailManager@@V?$xalloc@PAUSlotItem@CDetailManager@@@@@@V?$xalloc@PAV?$xr_vector@PAUSlotItem@CDetailManager@@V?$xalloc@PAUSlotItem@CDetailManager@@@@@@@@@std@@QAEPAPAV?$xr_vector@PAUSlotItem@CDetailManager@@V?$xalloc@PAUSlotItem@CDetailManager@@@@@@QAPAV2@$$QAPAV2@@Z ; std::vector<xr_vector<CDetailManager::SlotItem *,xalloc<CDetailManager::SlotItem *> > *,xalloc<xr_vector<CDetailManager::SlotItem *,xalloc<CDetailManager::SlotItem *> > *> >::_Emplace_reallocate<xr_vector<CDetailManager::SlotItem *,xalloc<CDetailManager::SlotItem *> > *>
$LN198@UpdateVisi:

; 1531 :         return _My_data._Myfirst == _My_data._Mylast;

	mov	eax, DWORD PTR [esi+12]
	lea	edx, DWORD PTR [esi+12]
	cmp	eax, DWORD PTR [esi+16]
; File I:\Vitalya\mine\NSProjectX\layers\xrRender\DetailManager.cpp

; 261  : 					if (!sp.r_items[1].empty()) m_visibles[1][sp.id].push_back(&sp.r_items[1]);

	je	SHORT $LN224@UpdateVisi
; File C:\Program Files\Microsoft Visual Studio\2022\Community\VC\Tools\MSVC\14.29.30133\include\vector

; 119  :         _Ptr += _Off;

	mov	eax, DWORD PTR [esi-16]
; File I:\Vitalya\mine\NSProjectX\layers\xrRender\DetailManager.cpp

; 261  : 					if (!sp.r_items[1].empty()) m_visibles[1][sp.id].push_back(&sp.r_items[1]);

	mov	DWORD PTR $T2[esp+348], edx
; File C:\Program Files\Microsoft Visual Studio\2022\Community\VC\Tools\MSVC\14.29.30133\include\vector

; 119  :         _Ptr += _Off;

	lea	ecx, DWORD PTR [eax+eax*2]
	mov	eax, DWORD PTR [ebx+1408]
	lea	ecx, DWORD PTR [eax+ecx*4]

; 730  :         if (_Mylast != _My_data._Myend) {

	mov	eax, DWORD PTR [ecx+4]
	cmp	eax, DWORD PTR [ecx+8]
	je	SHORT $LN225@UpdateVisi

; 713  :         _Alty_traits::construct(_Getal(), _Unfancy(_Mylast), _STD forward<_Valty>(_Val)...);

	mov	DWORD PTR [eax], edx

; 714  :         _Orphan_range(_Mylast, _Mylast);
; 715  :         _Ty& _Result = *_Mylast;
; 716  :         ++_Mylast;

	add	DWORD PTR [ecx+4], 4

; 731  :             return _Emplace_back_with_unused_capacity(_STD forward<_Valty>(_Val)...);

	jmp	SHORT $LN224@UpdateVisi
$LN225@UpdateVisi:

; 732  :         }
; 733  : 
; 734  :         _Ty& _Result = *_Emplace_reallocate(_Mylast, _STD forward<_Valty>(_Val)...);

	lea	edx, DWORD PTR $T2[esp+348]
	push	edx
	push	eax
	call	??$_Emplace_reallocate@PAV?$xr_vector@PAUSlotItem@CDetailManager@@V?$xalloc@PAUSlotItem@CDetailManager@@@@@@@?$vector@PAV?$xr_vector@PAUSlotItem@CDetailManager@@V?$xalloc@PAUSlotItem@CDetailManager@@@@@@V?$xalloc@PAV?$xr_vector@PAUSlotItem@CDetailManager@@V?$xalloc@PAUSlotItem@CDetailManager@@@@@@@@@std@@QAEPAPAV?$xr_vector@PAUSlotItem@CDetailManager@@V?$xalloc@PAUSlotItem@CDetailManager@@@@@@QAPAV2@$$QAPAV2@@Z ; std::vector<xr_vector<CDetailManager::SlotItem *,xalloc<CDetailManager::SlotItem *> > *,xalloc<xr_vector<CDetailManager::SlotItem *,xalloc<CDetailManager::SlotItem *> > *> >::_Emplace_reallocate<xr_vector<CDetailManager::SlotItem *,xalloc<CDetailManager::SlotItem *> > *>
$LN224@UpdateVisi:

; 1531 :         return _My_data._Myfirst == _My_data._Mylast;

	mov	eax, DWORD PTR [esi+24]
	lea	edx, DWORD PTR [esi+24]
	cmp	eax, DWORD PTR [esi+28]
; File I:\Vitalya\mine\NSProjectX\layers\xrRender\DetailManager.cpp

; 262  : 					if (!sp.r_items[2].empty()) m_visibles[2][sp.id].push_back(&sp.r_items[2]);

	je	SHORT $LN17@UpdateVisi
; File C:\Program Files\Microsoft Visual Studio\2022\Community\VC\Tools\MSVC\14.29.30133\include\vector

; 119  :         _Ptr += _Off;

	mov	eax, DWORD PTR [esi-16]
; File I:\Vitalya\mine\NSProjectX\layers\xrRender\DetailManager.cpp

; 262  : 					if (!sp.r_items[2].empty()) m_visibles[2][sp.id].push_back(&sp.r_items[2]);

	mov	DWORD PTR $T1[esp+348], edx
; File C:\Program Files\Microsoft Visual Studio\2022\Community\VC\Tools\MSVC\14.29.30133\include\vector

; 119  :         _Ptr += _Off;

	lea	ecx, DWORD PTR [eax+eax*2]
	mov	eax, DWORD PTR [ebx+1420]
	lea	ecx, DWORD PTR [eax+ecx*4]

; 730  :         if (_Mylast != _My_data._Myend) {

	mov	eax, DWORD PTR [ecx+4]
	cmp	eax, DWORD PTR [ecx+8]
	je	SHORT $LN251@UpdateVisi

; 713  :         _Alty_traits::construct(_Getal(), _Unfancy(_Mylast), _STD forward<_Valty>(_Val)...);

	mov	DWORD PTR [eax], edx

; 714  :         _Orphan_range(_Mylast, _Mylast);
; 715  :         _Ty& _Result = *_Mylast;
; 716  :         ++_Mylast;

	add	DWORD PTR [ecx+4], 4

; 731  :             return _Emplace_back_with_unused_capacity(_STD forward<_Valty>(_Val)...);

	jmp	SHORT $LN17@UpdateVisi
$LN251@UpdateVisi:

; 732  :         }
; 733  : 
; 734  :         _Ty& _Result = *_Emplace_reallocate(_Mylast, _STD forward<_Valty>(_Val)...);

	lea	edx, DWORD PTR $T1[esp+348]
	push	edx
	push	eax
	call	??$_Emplace_reallocate@PAV?$xr_vector@PAUSlotItem@CDetailManager@@V?$xalloc@PAUSlotItem@CDetailManager@@@@@@@?$vector@PAV?$xr_vector@PAUSlotItem@CDetailManager@@V?$xalloc@PAUSlotItem@CDetailManager@@@@@@V?$xalloc@PAV?$xr_vector@PAUSlotItem@CDetailManager@@V?$xalloc@PAUSlotItem@CDetailManager@@@@@@@@@std@@QAEPAPAV?$xr_vector@PAUSlotItem@CDetailManager@@V?$xalloc@PAUSlotItem@CDetailManager@@@@@@QAPAV2@$$QAPAV2@@Z ; std::vector<xr_vector<CDetailManager::SlotItem *,xalloc<CDetailManager::SlotItem *> > *,xalloc<xr_vector<CDetailManager::SlotItem *,xalloc<CDetailManager::SlotItem *> > *> >::_Emplace_reallocate<xr_vector<CDetailManager::SlotItem *,xalloc<CDetailManager::SlotItem *> > *>
$LN17@UpdateVisi:
; File I:\Vitalya\mine\NSProjectX\layers\xrRender\DetailManager.cpp

; 257  : 				for (int sp_id=0; sp_id<dm_obj_in_slot; sp_id++){

	add	esi, 52					; 00000034H
	sub	edi, 1
	jne	$LL19@UpdateVisi
$LN289@UpdateVisi:

; 204  : 			// test slots
; 205  : 			for (int _i=0; _i<dm_cache1_count*dm_cache1_count; _i++){

	mov	esi, DWORD PTR __imp_?testSAABB@CFrustum@@QBE?AW4EFC_Visible@@AAU?$_vector3@M@@MPBMAAI@Z
$LN292@UpdateVisi:
	mov	ecx, DWORD PTR _res$1$[esp+348]
$LN8@UpdateVisi:
	mov	eax, DWORD PTR tv2434[esp+348]
	add	eax, 4
	sub	DWORD PTR tv2460[esp+348], 1
	mov	DWORD PTR tv2434[esp+348], eax
	jne	$LL10@UpdateVisi
	mov	ebp, DWORD PTR tv2424[esp+348]
	mov	edi, DWORD PTR tv2461[esp+348]
$LN5@UpdateVisi:

; 198  : 		for (int _mx=0; _mx<dm_cache1_line; _mx++){

	add	ebp, 124				; 0000007cH
	sub	edi, 1
	mov	DWORD PTR tv2424[esp+348], ebp
	mov	DWORD PTR tv2461[esp+348], edi
	jne	$LL7@UpdateVisi

; 197  : 	for (int _mz=0; _mz<dm_cache1_line; _mz++){

	sub	DWORD PTR tv2463[esp+348], 1
	jne	$LL4@UpdateVisi

; 263  : 				}
; 264  : 			}
; 265  : 		}
; 266  : 	}
; 267  : 	Device.Statistic->RenderDUMP_DT_VIS.End	();

	mov	eax, DWORD PTR __imp_?Device@@3VCRenderDevice@@A
	mov	esi, DWORD PTR [eax+436]
; File I:\Vitalya\mine\NSProjectX\xrCore\FTimer.h

; 174  : 	ICF void	End				()		{	if (!g_bEnableStatGather) return;	accum += T.GetElapsed_ticks();	}

	mov	eax, DWORD PTR __imp_?g_bEnableStatGather@@3HA
	cmp	DWORD PTR [eax], 0
	je	SHORT $LN255@UpdateVisi
	lea	ecx, DWORD PTR [esi+2248]
	call	DWORD PTR __imp_?GetElapsed_ticks@CTimer@@QBE_KXZ
	add	DWORD PTR [esi+2304], eax
	adc	DWORD PTR [esi+2308], edx
$LN255@UpdateVisi:
; File I:\Vitalya\mine\NSProjectX\layers\xrRender\DetailManager.cpp

; 268  : }

	pop	edi
	pop	esi
	pop	ebp
	pop	ebx
	add	esp, 332				; 0000014cH
	ret	0
?UpdateVisibleM@CDetailManager@@QAEXXZ ENDP		; CDetailManager::UpdateVisibleM
_TEXT	ENDS
; Function compile flags: /Ogtpy
; File I:\Vitalya\mine\NSProjectX\layers\xrRender\DetailManager.cpp
; File I:\Vitalya\mine\NSProjectX\layers\xrRender\detailmanager.h
; File I:\Vitalya\mine\NSProjectX\xrCore\FTimer.h
; File I:\Vitalya\mine\NSProjectX\layers\xrRender\DetailManager.cpp
; File I:\Vitalya\mine\NSProjectX\xrCore\FTimer.h
; File I:\Vitalya\mine\NSProjectX\layers\xrRender\DetailManager.cpp
; File I:\Vitalya\mine\NSProjectX\xrEngine\R_Backend_Runtime.h
; File I:\Vitalya\mine\NSProjectX\layers\xrRender\DetailManager.cpp
; File I:\Vitalya\mine\NSProjectX\layers\xrRender\detailmanager.h
; File I:\Vitalya\mine\NSProjectX\layers\xrRender\DetailManager.cpp
; File I:\Vitalya\mine\NSProjectX\layers\xrRender\detailmanager.h
; File I:\Vitalya\mine\NSProjectX\layers\xrRender\DetailManager.cpp
; File I:\Vitalya\mine\NSProjectX\xrEngine\R_Backend_Runtime.h
; File I:\Vitalya\mine\NSProjectX\xrCore\FTimer.h
; File I:\Vitalya\mine\NSProjectX\layers\xrRender\DetailManager.cpp
; File I:\Vitalya\mine\NSProjectX\xrCore\FTimer.h
; File I:\Vitalya\mine\NSProjectX\layers\xrRender\DetailManager.cpp
; File I:\Vitalya\mine\NSProjectX\xrCore\FTimer.h
; File I:\Vitalya\mine\NSProjectX\layers\xrRender\DetailManager.cpp
_TEXT	SEGMENT
?Render@CDetailManager@@QAEXXZ PROC			; CDetailManager::Render
; _this$ = ecx

; 271  : {

	push	ecx
	push	esi
	push	edi
	mov	edi, ecx

; 272  : #ifndef _EDITOR
; 273  : 	if (0==dtFS)						return;

	cmp	DWORD PTR [edi+1088], 0
	je	$LN1@Render

; 274  : 	if (!psDeviceFlags.is(rsDetails))	return;

	mov	eax, DWORD PTR __imp_?psDeviceFlags@@3U?$_flags@I@@A
	test	BYTE PTR [eax], 64			; 00000040H
	je	$LN1@Render
; File I:\Vitalya\mine\NSProjectX\layers\xrRender\detailmanager.h

; 176  : 		if (m_frame_calc == Device.dwFrame)

	mov	eax, DWORD PTR [edi+701276]
	mov	esi, DWORD PTR __imp_?Device@@3VCRenderDevice@@A
	cmp	eax, DWORD PTR [esi+244]
	je	SHORT $LN9@Render

; 177  : 			return;
; 178  : 
; 179  : 		MT_CALC						(); 

	call	?MT_CALC@CDetailManager@@QAGXXZ		; CDetailManager::MT_CALC
	mov	esi, DWORD PTR __imp_?Device@@3VCRenderDevice@@A
$LN9@Render:
; File I:\Vitalya\mine\NSProjectX\xrCore\FTimer.h

; 173  : 	ICF void	Begin			()		{	if (!g_bEnableStatGather) return;	count++; T.Start();				}

	mov	eax, DWORD PTR __imp_?g_bEnableStatGather@@3HA
; File I:\Vitalya\mine\NSProjectX\layers\xrRender\DetailManager.cpp

; 280  : 	Device.Statistic->RenderDUMP_DT_Render.Begin	();

	mov	esi, DWORD PTR [esi+436]
	add	esi, 2328				; 00000918H
; File I:\Vitalya\mine\NSProjectX\xrCore\FTimer.h

; 173  : 	ICF void	Begin			()		{	if (!g_bEnableStatGather) return;	count++; T.Start();				}

	cmp	DWORD PTR [eax], 0
	je	SHORT $LN15@Render
	inc	DWORD PTR [esi+68]

; 73   : 		if (bPause)

	cmp	DWORD PTR [esi+24], 0
	jne	SHORT $LN15@Render

; 29   : 	ICF	void	Start			()		{	if(bPause) return;	qwStartTime = CPU::QPC()-qwPauseAccum;		}

	call	DWORD PTR __imp_?QPC@CPU@@YA_KXZ
	sub	eax, DWORD PTR [esi+16]
	mov	DWORD PTR [esi], eax
	sbb	edx, DWORD PTR [esi+20]
	mov	DWORD PTR [esi+4], edx

; 78   : 		m_real_ticks	= 0;

	mov	DWORD PTR [esi+40], 0
	mov	DWORD PTR [esi+44], 0

; 79   : 		m_ticks			= 0;

	mov	DWORD PTR [esi+48], 0
	mov	DWORD PTR [esi+52], 0
$LN15@Render:
; File I:\Vitalya\mine\NSProjectX\layers\xrRender\DetailManager.cpp

; 282  : 	float factor			= g_pGamePersistent->Environment().wind_strength_factor;

	mov	eax, DWORD PTR __imp_?g_pGamePersistent@@3PAVIGame_Persistent@@A

; 62   : 	float fi	= 1.f-f;

	movss	xmm2, DWORD PTR __real@3f800000

; 282  : 	float factor			= g_pGamePersistent->Environment().wind_strength_factor;

	mov	eax, DWORD PTR [eax]
	mov	eax, DWORD PTR [eax+1116]
	movss	xmm3, DWORD PTR [eax+360]

; 62   : 	float fi	= 1.f-f;

	subss	xmm2, xmm3

; 63   : 	amp1		= fi*A.amp1  + f*B.amp1;

	movaps	xmm0, xmm3
	mulss	xmm0, DWORD PTR [edi+1056]
	movaps	xmm1, xmm2
	mulss	xmm1, DWORD PTR [edi+1036]
	addss	xmm1, xmm0

; 64   : 	amp2		= fi*A.amp2  + f*B.amp2;

	movaps	xmm0, xmm3
	movss	DWORD PTR [edi+1076], xmm1
	movaps	xmm1, xmm2
	mulss	xmm1, DWORD PTR [edi+1040]
	mulss	xmm0, DWORD PTR [edi+1060]
	addss	xmm1, xmm0

; 65   : 	rot1		= fi*A.rot1  + f*B.rot1;

	movaps	xmm0, xmm3
	movss	DWORD PTR [edi+1080], xmm1
	movaps	xmm1, xmm2
	mulss	xmm1, DWORD PTR [edi+1028]
	mulss	xmm0, DWORD PTR [edi+1048]
	addss	xmm1, xmm0

; 66   : 	rot2		= fi*A.rot2  + f*B.rot2;

	movaps	xmm0, xmm3
	movss	DWORD PTR [edi+1068], xmm1
	movaps	xmm1, xmm2
	mulss	xmm1, DWORD PTR [edi+1032]
	mulss	xmm0, DWORD PTR [edi+1052]
	addss	xmm1, xmm0
	movss	DWORD PTR [edi+1072], xmm1

; 67   : 	speed		= fi*A.speed + f*B.speed;

	mulss	xmm2, DWORD PTR [edi+1044]
	mulss	xmm3, DWORD PTR [edi+1064]
	addss	xmm2, xmm3
	movss	DWORD PTR [edi+1084], xmm2

; 283  : 	swing_current.lerp		(swing_desc[0],swing_desc[1],factor);
; 284  : 
; 285  : 	RCache.set_CullMode		(CULL_NONE);

	mov	ecx, DWORD PTR __imp_?RCache@@3VCBackend@@A
; File I:\Vitalya\mine\NSProjectX\xrEngine\R_Backend_Runtime.h

; 266  : 	if (cull_mode != _mode) { cull_mode = _mode;			CHK_DX(HW.pDevice->SetRenderState(D3DRS_CULLMODE, _mode)); }

	cmp	DWORD PTR [ecx+8916], 1
	je	SHORT $LN26@Render
	mov	DWORD PTR [ecx+8916], 1
	mov	eax, DWORD PTR __imp_?HW@@3VCHW@@A
	push	1
	push	22					; 00000016H
	mov	eax, DWORD PTR [eax+8]
	push	eax
	mov	ecx, DWORD PTR [eax]
	call	DWORD PTR [ecx+228]
	mov	ecx, DWORD PTR __imp_?RCache@@3VCBackend@@A
$LN26@Render:
; File I:\Vitalya\mine\NSProjectX\layers\xrRender\DetailManager.cpp

; 286  : 	RCache.set_xform_world	(Fidentity);

	push	DWORD PTR __imp_?Fidentity@@3U?$_matrix@M@@A
	call	DWORD PTR __imp_?set_xform_world@CBackend@@QAEXABU?$_matrix@M@@@Z
; File I:\Vitalya\mine\NSProjectX\layers\xrRender\detailmanager.h

; 123  : 	IC bool							UseVS			()		{ return HW.Caps.geometry_major >= 1; }

	mov	eax, DWORD PTR __imp_?HW@@3VCHW@@A
; File I:\Vitalya\mine\NSProjectX\layers\xrRender\DetailManager.cpp

; 287  : 	if (UseVS())			hw_Render	();

	mov	ecx, edi
; File I:\Vitalya\mine\NSProjectX\layers\xrRender\detailmanager.h

; 123  : 	IC bool							UseVS			()		{ return HW.Caps.geometry_major >= 1; }

	cmp	WORD PTR [eax+48], 1
; File I:\Vitalya\mine\NSProjectX\layers\xrRender\DetailManager.cpp

; 287  : 	if (UseVS())			hw_Render	();

	jb	SHORT $LN4@Render
	call	?hw_Render@CDetailManager@@QAEXXZ	; CDetailManager::hw_Render
	jmp	SHORT $LN5@Render
$LN4@Render:

; 288  : 	else					soft_Render	();

	call	?soft_Render@CDetailManager@@QAEXXZ	; CDetailManager::soft_Render
$LN5@Render:

; 289  : 	RCache.set_CullMode		(CULL_CCW);

	mov	eax, DWORD PTR __imp_?RCache@@3VCBackend@@A
; File I:\Vitalya\mine\NSProjectX\xrEngine\R_Backend_Runtime.h

; 266  : 	if (cull_mode != _mode) { cull_mode = _mode;			CHK_DX(HW.pDevice->SetRenderState(D3DRS_CULLMODE, _mode)); }

	cmp	DWORD PTR [eax+8916], 3
	je	SHORT $LN31@Render
	mov	DWORD PTR [eax+8916], 3
	mov	eax, DWORD PTR __imp_?HW@@3VCHW@@A
	push	3
	push	22					; 00000016H
	mov	eax, DWORD PTR [eax+8]
	push	eax
	mov	ecx, DWORD PTR [eax]
	call	DWORD PTR [ecx+228]
$LN31@Render:
; File I:\Vitalya\mine\NSProjectX\xrCore\FTimer.h

; 174  : 	ICF void	End				()		{	if (!g_bEnableStatGather) return;	accum += T.GetElapsed_ticks();	}

	mov	eax, DWORD PTR __imp_?g_bEnableStatGather@@3HA
; File I:\Vitalya\mine\NSProjectX\layers\xrRender\DetailManager.cpp

; 290  : 	Device.Statistic->RenderDUMP_DT_Render.End	();

	mov	ecx, DWORD PTR __imp_?Device@@3VCRenderDevice@@A
; File I:\Vitalya\mine\NSProjectX\xrCore\FTimer.h

; 174  : 	ICF void	End				()		{	if (!g_bEnableStatGather) return;	accum += T.GetElapsed_ticks();	}

	cmp	DWORD PTR [eax], 0
; File I:\Vitalya\mine\NSProjectX\layers\xrRender\DetailManager.cpp

; 290  : 	Device.Statistic->RenderDUMP_DT_Render.End	();

	mov	esi, DWORD PTR [ecx+436]
; File I:\Vitalya\mine\NSProjectX\xrCore\FTimer.h

; 174  : 	ICF void	End				()		{	if (!g_bEnableStatGather) return;	accum += T.GetElapsed_ticks();	}

	je	SHORT $LN33@Render
	lea	ecx, DWORD PTR [esi+2328]
	call	DWORD PTR __imp_?GetElapsed_ticks@CTimer@@QBE_KXZ
	add	DWORD PTR [esi+2384], eax
	adc	DWORD PTR [esi+2388], edx
	mov	ecx, DWORD PTR __imp_?Device@@3VCRenderDevice@@A
$LN33@Render:
; File I:\Vitalya\mine\NSProjectX\layers\xrRender\DetailManager.cpp

; 291  : 	m_frame_rendered		= Device.dwFrame;

	mov	eax, DWORD PTR [ecx+244]
	mov	DWORD PTR [edi+701280], eax
$LN1@Render:

; 292  : }

	pop	edi
	pop	esi
	pop	ecx
	ret	0
?Render@CDetailManager@@QAEXXZ ENDP			; CDetailManager::Render
_TEXT	ENDS
; Function compile flags: /Ogtpy
; File I:\Vitalya\mine\NSProjectX\layers\xrRender\DetailManager.cpp
; File I:\Vitalya\mine\NSProjectX\xrCore\_bitwise.h
; File I:\Vitalya\mine\NSProjectX\layers\xrRender\DetailManager.cpp
; File I:\Vitalya\mine\NSProjectX\xrCore\_bitwise.h
; File I:\Vitalya\mine\NSProjectX\layers\xrRender\DetailManager.cpp
; File I:\Vitalya\mine\NSProjectX\xrCore\_bitwise.h
; File I:\Vitalya\mine\NSProjectX\layers\xrRender\DetailManager.cpp
; File I:\Vitalya\mine\NSProjectX\xrCore\_bitwise.h
; File I:\Vitalya\mine\NSProjectX\layers\xrRender\DetailManager.cpp
; File I:\Vitalya\mine\NSProjectX\xrCore\_bitwise.h
; File I:\Vitalya\mine\NSProjectX\layers\xrRender\DetailManager.cpp
; File I:\Vitalya\mine\NSProjectX\xrCore\_bitwise.h
; File I:\Vitalya\mine\NSProjectX\layers\xrRender\DetailManager.cpp
; File I:\Vitalya\mine\NSProjectX\xrCore\_bitwise.h
; File I:\Vitalya\mine\NSProjectX\layers\xrRender\DetailManager.cpp
; File I:\Vitalya\mine\NSProjectX\xrCore\_bitwise.h
; File I:\Vitalya\mine\NSProjectX\layers\xrRender\DetailManager.cpp
; File I:\Vitalya\mine\NSProjectX\xrCore\_bitwise.h
; File I:\Vitalya\mine\NSProjectX\layers\xrRender\DetailManager.cpp
; File I:\Vitalya\mine\NSProjectX\xrCore\_bitwise.h
; File I:\Vitalya\mine\NSProjectX\xrCore\FTimer.h
; File I:\Vitalya\mine\NSProjectX\xrCore\_bitwise.h
; File I:\Vitalya\mine\NSProjectX\xrCore\FTimer.h
; File I:\Vitalya\mine\NSProjectX\layers\xrRender\DetailManager.cpp
; File I:\Vitalya\mine\NSProjectX\xrCore\FTimer.h
; File I:\Vitalya\mine\NSProjectX\layers\xrRender\DetailManager.cpp
_TEXT	SEGMENT
_s_x$1$ = -20						; size = 4
_a$1 = -20						; size = 4
_s_z$1$ = -16						; size = 4
_a$2 = -16						; size = 4
_EYE$3 = -12						; size = 12
?MT_CALC@CDetailManager@@QAGXXZ PROC			; CDetailManager::MT_CALC
; _this$ = ecx

; 295  : {

	sub	esp, 20					; 00000014H

; 296  : #ifndef _EDITOR
; 297  : 	if (0==RImplementation.Details)		return;	// possibly deleted

	cmp	DWORD PTR ?RImplementation@@3VCRender@@A+1004, 0
	push	ebx
	push	ebp
	push	esi
	push	edi
	mov	ebp, ecx
	je	$LN1@MT_CALC

; 298  : 	if (0==dtFS)						return;

	cmp	DWORD PTR [ebp+1088], 0
	je	$LN1@MT_CALC

; 299  : 	if (!psDeviceFlags.is(rsDetails))	return;

	mov	eax, DWORD PTR __imp_?psDeviceFlags@@3U?$_flags@I@@A
	test	BYTE PTR [eax], 64			; 00000040H
	je	$LN1@MT_CALC

; 300  : #endif    
; 301  : 
; 302  : 	MT.Enter					();

	lea	ecx, DWORD PTR [ebp+701272]
	call	DWORD PTR __imp_?Enter@xrCriticalSection@@QAEXXZ

; 303  : 	if (m_frame_calc!=Device.dwFrame)	

	mov	ecx, DWORD PTR [ebp+701276]
	mov	eax, DWORD PTR __imp_?Device@@3VCRenderDevice@@A
	cmp	ecx, DWORD PTR [eax+244]
	je	$LN6@MT_CALC

; 304  : 		if ((m_frame_rendered+1)==Device.dwFrame) //already rendered

	mov	eax, DWORD PTR [ebp+701280]
	mov	ecx, DWORD PTR __imp_?Device@@3VCRenderDevice@@A
	inc	eax
	cmp	eax, DWORD PTR [ecx+244]
	jne	$LN6@MT_CALC

; 306  : 			Fvector		EYE				= Device.vCameraPosition;

	mov	eax, DWORD PTR [ecx+488]
; File I:\Vitalya\mine\NSProjectX\xrCore\_bitwise.h

; 84   :     int exponent	= (127 + 31) - ((a >> 23) & 0xFF);

	mov	ebx, 158				; 0000009eH
; File I:\Vitalya\mine\NSProjectX\layers\xrRender\DetailManager.cpp

; 306  : 			Fvector		EYE				= Device.vCameraPosition;

	mov	DWORD PTR _EYE$3[esp+36], eax
; File I:\Vitalya\mine\NSProjectX\xrCore\_bitwise.h

; 88   :         int imask	=	(!(((( (1<<(exponent)))-1)>>8)&a));

	mov	edi, 1
; File I:\Vitalya\mine\NSProjectX\layers\xrRender\DetailManager.cpp

; 307  : 			int s_x	= iFloor			(EYE.x/dm_slot_size+.5f);

	movss	xmm0, DWORD PTR _EYE$3[esp+36]
	addss	xmm0, DWORD PTR __real@3f800000
	mov	eax, DWORD PTR [ecx+492]
	mov	DWORD PTR _EYE$3[esp+40], eax
	mov	eax, DWORD PTR [ecx+496]
; File I:\Vitalya\mine\NSProjectX\xrCore\_bitwise.h

; 84   :     int exponent	= (127 + 31) - ((a >> 23) & 0xFF);

	mov	ecx, ebx
; File I:\Vitalya\mine\NSProjectX\layers\xrRender\DetailManager.cpp

; 306  : 			Fvector		EYE				= Device.vCameraPosition;

	mov	DWORD PTR _EYE$3[esp+44], eax

; 307  : 			int s_x	= iFloor			(EYE.x/dm_slot_size+.5f);

	mulss	xmm0, DWORD PTR __real@3f000000
; File I:\Vitalya\mine\NSProjectX\xrCore\_bitwise.h

; 83   :     int a			= *(const int*)(&x);

	movss	DWORD PTR _a$1[esp+36], xmm0

; 84   :     int exponent	= (127 + 31) - ((a >> 23) & 0xFF);

	mov	esi, DWORD PTR _a$1[esp+36]
	mov	eax, esi
	sar	eax, 23					; 00000017H

; 89   :         exponent	-=	(31-127)+32;
; 90   :         exponent	>>=	31;
; 91   :         a			>>=	31;

	mov	edx, esi
	movzx	eax, al
	sub	ecx, eax
; File I:\Vitalya\mine\NSProjectX\layers\xrRender\DetailManager.cpp

; 308  : 			int s_z	= iFloor			(EYE.z/dm_slot_size+.5f);

	movss	xmm0, DWORD PTR _EYE$3[esp+44]
; File I:\Vitalya\mine\NSProjectX\xrCore\_bitwise.h

; 85   :     int r			= (((u32)(a) << 8) | (1U << 31)) >> exponent;

	mov	eax, esi

; 89   :         exponent	-=	(31-127)+32;
; 90   :         exponent	>>=	31;
; 91   :         a			>>=	31;

	sar	edx, 31					; 0000001fH
	or	eax, -8388608				; ff800000H
	shl	eax, 8
	shr	eax, cl
	sub	ecx, 96					; 00000060H
	mov	DWORD PTR _s_x$1$[esp+36], eax
	mov	eax, edi
	shl	eax, cl
	dec	eax
; File I:\Vitalya\mine\NSProjectX\layers\xrRender\DetailManager.cpp

; 308  : 			int s_z	= iFloor			(EYE.z/dm_slot_size+.5f);

	addss	xmm0, DWORD PTR __real@3f800000
; File I:\Vitalya\mine\NSProjectX\xrCore\_bitwise.h

; 88   :         int imask	=	(!(((( (1<<(exponent)))-1)>>8)&a));

	sar	eax, 8
	and	eax, esi

; 92   :         r			-=	(imask&a);

	mov	esi, DWORD PTR _s_x$1$[esp+36]
	neg	eax
	sbb	eax, eax
; File I:\Vitalya\mine\NSProjectX\layers\xrRender\DetailManager.cpp

; 308  : 			int s_z	= iFloor			(EYE.z/dm_slot_size+.5f);

	mulss	xmm0, DWORD PTR __real@3f000000
; File I:\Vitalya\mine\NSProjectX\xrCore\_bitwise.h

; 88   :         int imask	=	(!(((( (1<<(exponent)))-1)>>8)&a));

	inc	eax

; 89   :         exponent	-=	(31-127)+32;
; 90   :         exponent	>>=	31;
; 91   :         a			>>=	31;

	and	eax, edx

; 92   :         r			-=	(imask&a);

	sub	esi, eax
	lea	eax, DWORD PTR [ecx+64]
	sar	eax, 31					; 0000001fH

; 93   :         r			&=	exponent;

	and	esi, eax

; 83   :     int a			= *(const int*)(&x);

	movss	DWORD PTR _a$2[esp+36], xmm0

; 93   :         r			&=	exponent;

	xor	esi, edx
	mov	DWORD PTR _s_x$1$[esp+36], esi

; 84   :     int exponent	= (127 + 31) - ((a >> 23) & 0xFF);

	mov	esi, DWORD PTR _a$2[esp+36]
	mov	eax, esi
	sar	eax, 23					; 00000017H

; 89   :         exponent	-=	(31-127)+32;
; 90   :         exponent	>>=	31;
; 91   :         a			>>=	31;

	mov	edx, esi
	movzx	eax, al
	sub	ebx, eax
	sar	edx, 31					; 0000001fH
	mov	eax, esi
	mov	ecx, ebx
	or	eax, -8388608				; ff800000H
	shl	eax, 8
	shr	eax, cl
	lea	ecx, DWORD PTR [ebx-96]
	shl	edi, cl
	dec	edi
	sar	edi, 8
	and	edi, esi
; File I:\Vitalya\mine\NSProjectX\layers\xrRender\DetailManager.cpp

; 310  : 			Device.Statistic->RenderDUMP_DT_Cache.Begin	();

	mov	esi, DWORD PTR __imp_?Device@@3VCRenderDevice@@A
; File I:\Vitalya\mine\NSProjectX\xrCore\_bitwise.h

; 88   :         int imask	=	(!(((( (1<<(exponent)))-1)>>8)&a));

	neg	edi
	sbb	edi, edi
; File I:\Vitalya\mine\NSProjectX\layers\xrRender\DetailManager.cpp

; 310  : 			Device.Statistic->RenderDUMP_DT_Cache.Begin	();

	mov	esi, DWORD PTR [esi+436]
; File I:\Vitalya\mine\NSProjectX\xrCore\_bitwise.h

; 88   :         int imask	=	(!(((( (1<<(exponent)))-1)>>8)&a));

	inc	edi

; 89   :         exponent	-=	(31-127)+32;
; 90   :         exponent	>>=	31;
; 91   :         a			>>=	31;

	and	edi, edx
; File I:\Vitalya\mine\NSProjectX\layers\xrRender\DetailManager.cpp

; 310  : 			Device.Statistic->RenderDUMP_DT_Cache.Begin	();

	add	esi, 2408				; 00000968H
; File I:\Vitalya\mine\NSProjectX\xrCore\_bitwise.h

; 92   :         r			-=	(imask&a);

	sub	eax, edi
	mov	DWORD PTR _s_z$1$[esp+36], eax
	lea	eax, DWORD PTR [ebx-32]

; 93   :         r			&=	exponent;

	mov	edi, DWORD PTR _s_z$1$[esp+36]
	sar	eax, 31					; 0000001fH
	and	edi, eax
; File I:\Vitalya\mine\NSProjectX\xrCore\FTimer.h

; 173  : 	ICF void	Begin			()		{	if (!g_bEnableStatGather) return;	count++; T.Start();				}

	mov	eax, DWORD PTR __imp_?g_bEnableStatGather@@3HA
; File I:\Vitalya\mine\NSProjectX\xrCore\_bitwise.h

; 93   :         r			&=	exponent;

	xor	edi, edx
; File I:\Vitalya\mine\NSProjectX\xrCore\FTimer.h

; 173  : 	ICF void	Begin			()		{	if (!g_bEnableStatGather) return;	count++; T.Start();				}

	cmp	DWORD PTR [eax], 0
	je	SHORT $LN17@MT_CALC
	inc	DWORD PTR [esi+68]

; 73   : 		if (bPause)

	cmp	DWORD PTR [esi+24], 0
	jne	SHORT $LN17@MT_CALC

; 29   : 	ICF	void	Start			()		{	if(bPause) return;	qwStartTime = CPU::QPC()-qwPauseAccum;		}

	call	DWORD PTR __imp_?QPC@CPU@@YA_KXZ
	sub	eax, DWORD PTR [esi+16]
	mov	DWORD PTR [esi], eax
	sbb	edx, DWORD PTR [esi+20]
	mov	DWORD PTR [esi+4], edx

; 78   : 		m_real_ticks	= 0;

	mov	DWORD PTR [esi+40], 0
	mov	DWORD PTR [esi+44], 0

; 79   : 		m_ticks			= 0;

	mov	DWORD PTR [esi+48], 0
	mov	DWORD PTR [esi+52], 0
$LN17@MT_CALC:
; File I:\Vitalya\mine\NSProjectX\layers\xrRender\DetailManager.cpp

; 311  : 			cache_Update				(s_x,s_z,EYE,dm_max_decompress);

	push	ecx
	lea	eax, DWORD PTR _EYE$3[esp+40]
	mov	ecx, ebp
	push	eax
	push	edi
	push	DWORD PTR _s_x$1$[esp+48]
	call	?cache_Update@CDetailManager@@QAEXHHAAU?$_vector3@M@@H@Z ; CDetailManager::cache_Update

; 312  : 			Device.Statistic->RenderDUMP_DT_Cache.End	();

	mov	eax, DWORD PTR __imp_?Device@@3VCRenderDevice@@A
	mov	esi, DWORD PTR [eax+436]
; File I:\Vitalya\mine\NSProjectX\xrCore\FTimer.h

; 174  : 	ICF void	End				()		{	if (!g_bEnableStatGather) return;	accum += T.GetElapsed_ticks();	}

	mov	eax, DWORD PTR __imp_?g_bEnableStatGather@@3HA
	cmp	DWORD PTR [eax], 0
	je	SHORT $LN23@MT_CALC
	lea	ecx, DWORD PTR [esi+2408]
	call	DWORD PTR __imp_?GetElapsed_ticks@CTimer@@QBE_KXZ
	add	DWORD PTR [esi+2464], eax
	adc	DWORD PTR [esi+2468], edx
$LN23@MT_CALC:
; File I:\Vitalya\mine\NSProjectX\layers\xrRender\DetailManager.cpp

; 314  : 			UpdateVisibleM				();

	mov	ecx, ebp
	call	?UpdateVisibleM@CDetailManager@@QAEXXZ	; CDetailManager::UpdateVisibleM

; 315  : 			m_frame_calc				= Device.dwFrame;

	mov	eax, DWORD PTR __imp_?Device@@3VCRenderDevice@@A
	mov	eax, DWORD PTR [eax+244]
	mov	DWORD PTR [ebp+701276], eax
$LN6@MT_CALC:

; 316  : 		}
; 317  : 	MT.Leave					        ();

	lea	ecx, DWORD PTR [ebp+701272]

; 318  : }

	pop	edi
	pop	esi
	pop	ebp
	pop	ebx
	add	esp, 20					; 00000014H

; 316  : 		}
; 317  : 	MT.Leave					        ();

	jmp	DWORD PTR __imp_?Leave@xrCriticalSection@@QAEXXZ
$LN1@MT_CALC:

; 318  : }

	pop	edi
	pop	esi
	pop	ebp
	pop	ebx
	add	esp, 20					; 00000014H
	ret	0
?MT_CALC@CDetailManager@@QAGXXZ ENDP			; CDetailManager::MT_CALC
_TEXT	ENDS
; Function compile flags: /Ogtpy
; File C:\Program Files\Microsoft Visual Studio\2022\Community\VC\Tools\MSVC\14.29.30133\include\vector
;	COMDAT ?push_back@?$vector@PAV?$xr_vector@PAUSlotItem@CDetailManager@@V?$xalloc@PAUSlotItem@CDetailManager@@@@@@V?$xalloc@PAV?$xr_vector@PAUSlotItem@CDetailManager@@V?$xalloc@PAUSlotItem@CDetailManager@@@@@@@@@std@@QAEX$$QAPAV?$xr_vector@PAUSlotItem@CDetailManager@@V?$xalloc@PAUSlotItem@CDetailManager@@@@@@@Z
_TEXT	SEGMENT
__Val$ = 8						; size = 4
?push_back@?$vector@PAV?$xr_vector@PAUSlotItem@CDetailManager@@V?$xalloc@PAUSlotItem@CDetailManager@@@@@@V?$xalloc@PAV?$xr_vector@PAUSlotItem@CDetailManager@@V?$xalloc@PAUSlotItem@CDetailManager@@@@@@@@@std@@QAEX$$QAPAV?$xr_vector@PAUSlotItem@CDetailManager@@V?$xalloc@PAUSlotItem@CDetailManager@@@@@@@Z PROC ; std::vector<xr_vector<CDetailManager::SlotItem *,xalloc<CDetailManager::SlotItem *> > *,xalloc<xr_vector<CDetailManager::SlotItem *,xalloc<CDetailManager::SlotItem *> > *> >::push_back, COMDAT
; _this$ = ecx

; 730  :         if (_Mylast != _My_data._Myend) {

	mov	edx, DWORD PTR [ecx+4]
	cmp	edx, DWORD PTR [ecx+8]
	je	SHORT $LN4@push_back

; 713  :         _Alty_traits::construct(_Getal(), _Unfancy(_Mylast), _STD forward<_Valty>(_Val)...);

	mov	eax, DWORD PTR __Val$[esp-4]
	mov	eax, DWORD PTR [eax]
	mov	DWORD PTR [edx], eax

; 714  :         _Orphan_range(_Mylast, _Mylast);
; 715  :         _Ty& _Result = *_Mylast;
; 716  :         ++_Mylast;

	add	DWORD PTR [ecx+4], 4

; 747  :         // insert by moving into element at end, provide strong guarantee
; 748  :         emplace_back(_STD move(_Val));
; 749  :     }

	ret	4
$LN4@push_back:

; 734  :         _Ty& _Result = *_Emplace_reallocate(_Mylast, _STD forward<_Valty>(_Val)...);

	push	DWORD PTR __Val$[esp-4]
	push	edx
	call	??$_Emplace_reallocate@PAV?$xr_vector@PAUSlotItem@CDetailManager@@V?$xalloc@PAUSlotItem@CDetailManager@@@@@@@?$vector@PAV?$xr_vector@PAUSlotItem@CDetailManager@@V?$xalloc@PAUSlotItem@CDetailManager@@@@@@V?$xalloc@PAV?$xr_vector@PAUSlotItem@CDetailManager@@V?$xalloc@PAUSlotItem@CDetailManager@@@@@@@@@std@@QAEPAPAV?$xr_vector@PAUSlotItem@CDetailManager@@V?$xalloc@PAUSlotItem@CDetailManager@@@@@@QAPAV2@$$QAPAV2@@Z ; std::vector<xr_vector<CDetailManager::SlotItem *,xalloc<CDetailManager::SlotItem *> > *,xalloc<xr_vector<CDetailManager::SlotItem *,xalloc<CDetailManager::SlotItem *> > *> >::_Emplace_reallocate<xr_vector<CDetailManager::SlotItem *,xalloc<CDetailManager::SlotItem *> > *>

; 747  :         // insert by moving into element at end, provide strong guarantee
; 748  :         emplace_back(_STD move(_Val));
; 749  :     }

	ret	4
?push_back@?$vector@PAV?$xr_vector@PAUSlotItem@CDetailManager@@V?$xalloc@PAUSlotItem@CDetailManager@@@@@@V?$xalloc@PAV?$xr_vector@PAUSlotItem@CDetailManager@@V?$xalloc@PAUSlotItem@CDetailManager@@@@@@@@@std@@QAEX$$QAPAV?$xr_vector@PAUSlotItem@CDetailManager@@V?$xalloc@PAUSlotItem@CDetailManager@@@@@@@Z ENDP ; std::vector<xr_vector<CDetailManager::SlotItem *,xalloc<CDetailManager::SlotItem *> > *,xalloc<xr_vector<CDetailManager::SlotItem *,xalloc<CDetailManager::SlotItem *> > *> >::push_back
_TEXT	ENDS
; Function compile flags: /Ogtpy
; File C:\Program Files\Microsoft Visual Studio\2022\Community\VC\Tools\MSVC\14.29.30133\include\vector
;	COMDAT ??$emplace_back@PAV?$xr_vector@PAUSlotItem@CDetailManager@@V?$xalloc@PAUSlotItem@CDetailManager@@@@@@@?$vector@PAV?$xr_vector@PAUSlotItem@CDetailManager@@V?$xalloc@PAUSlotItem@CDetailManager@@@@@@V?$xalloc@PAV?$xr_vector@PAUSlotItem@CDetailManager@@V?$xalloc@PAUSlotItem@CDetailManager@@@@@@@@@std@@QAE?A_T$$QAPAV?$xr_vector@PAUSlotItem@CDetailManager@@V?$xalloc@PAUSlotItem@CDetailManager@@@@@@@Z
_TEXT	SEGMENT
_<_Val_0>$ = 8						; size = 4
??$emplace_back@PAV?$xr_vector@PAUSlotItem@CDetailManager@@V?$xalloc@PAUSlotItem@CDetailManager@@@@@@@?$vector@PAV?$xr_vector@PAUSlotItem@CDetailManager@@V?$xalloc@PAUSlotItem@CDetailManager@@@@@@V?$xalloc@PAV?$xr_vector@PAUSlotItem@CDetailManager@@V?$xalloc@PAUSlotItem@CDetailManager@@@@@@@@@std@@QAE?A_T$$QAPAV?$xr_vector@PAUSlotItem@CDetailManager@@V?$xalloc@PAUSlotItem@CDetailManager@@@@@@@Z PROC ; std::vector<xr_vector<CDetailManager::SlotItem *,xalloc<CDetailManager::SlotItem *> > *,xalloc<xr_vector<CDetailManager::SlotItem *,xalloc<CDetailManager::SlotItem *> > *> >::emplace_back<xr_vector<CDetailManager::SlotItem *,xalloc<CDetailManager::SlotItem *> > *>, COMDAT
; _this$ = ecx

; 727  :         // insert by perfectly forwarding into element at end, provide strong guarantee
; 728  :         auto& _My_data   = _Mypair._Myval2;
; 729  :         pointer& _Mylast = _My_data._Mylast;
; 730  :         if (_Mylast != _My_data._Myend) {

	mov	edx, DWORD PTR [ecx+4]
	cmp	edx, DWORD PTR [ecx+8]
	je	SHORT $LN2@emplace_ba

; 713  :         _Alty_traits::construct(_Getal(), _Unfancy(_Mylast), _STD forward<_Valty>(_Val)...);

	mov	eax, DWORD PTR _<_Val_0>$[esp-4]
	mov	eax, DWORD PTR [eax]
	mov	DWORD PTR [edx], eax

; 714  :         _Orphan_range(_Mylast, _Mylast);
; 715  :         _Ty& _Result = *_Mylast;
; 716  :         ++_Mylast;

	add	DWORD PTR [ecx+4], 4

; 735  : #if _HAS_CXX17
; 736  :         return _Result;
; 737  : #else // ^^^ _HAS_CXX17 ^^^ // vvv !_HAS_CXX17 vvv
; 738  :         (void) _Result;
; 739  : #endif // _HAS_CXX17
; 740  :     }

	ret	4
$LN2@emplace_ba:

; 731  :             return _Emplace_back_with_unused_capacity(_STD forward<_Valty>(_Val)...);
; 732  :         }
; 733  : 
; 734  :         _Ty& _Result = *_Emplace_reallocate(_Mylast, _STD forward<_Valty>(_Val)...);

	push	DWORD PTR _<_Val_0>$[esp-4]
	push	edx
	call	??$_Emplace_reallocate@PAV?$xr_vector@PAUSlotItem@CDetailManager@@V?$xalloc@PAUSlotItem@CDetailManager@@@@@@@?$vector@PAV?$xr_vector@PAUSlotItem@CDetailManager@@V?$xalloc@PAUSlotItem@CDetailManager@@@@@@V?$xalloc@PAV?$xr_vector@PAUSlotItem@CDetailManager@@V?$xalloc@PAUSlotItem@CDetailManager@@@@@@@@@std@@QAEPAPAV?$xr_vector@PAUSlotItem@CDetailManager@@V?$xalloc@PAUSlotItem@CDetailManager@@@@@@QAPAV2@$$QAPAV2@@Z ; std::vector<xr_vector<CDetailManager::SlotItem *,xalloc<CDetailManager::SlotItem *> > *,xalloc<xr_vector<CDetailManager::SlotItem *,xalloc<CDetailManager::SlotItem *> > *> >::_Emplace_reallocate<xr_vector<CDetailManager::SlotItem *,xalloc<CDetailManager::SlotItem *> > *>

; 735  : #if _HAS_CXX17
; 736  :         return _Result;
; 737  : #else // ^^^ _HAS_CXX17 ^^^ // vvv !_HAS_CXX17 vvv
; 738  :         (void) _Result;
; 739  : #endif // _HAS_CXX17
; 740  :     }

	ret	4
??$emplace_back@PAV?$xr_vector@PAUSlotItem@CDetailManager@@V?$xalloc@PAUSlotItem@CDetailManager@@@@@@@?$vector@PAV?$xr_vector@PAUSlotItem@CDetailManager@@V?$xalloc@PAUSlotItem@CDetailManager@@@@@@V?$xalloc@PAV?$xr_vector@PAUSlotItem@CDetailManager@@V?$xalloc@PAUSlotItem@CDetailManager@@@@@@@@@std@@QAE?A_T$$QAPAV?$xr_vector@PAUSlotItem@CDetailManager@@V?$xalloc@PAUSlotItem@CDetailManager@@@@@@@Z ENDP ; std::vector<xr_vector<CDetailManager::SlotItem *,xalloc<CDetailManager::SlotItem *> > *,xalloc<xr_vector<CDetailManager::SlotItem *,xalloc<CDetailManager::SlotItem *> > *> >::emplace_back<xr_vector<CDetailManager::SlotItem *,xalloc<CDetailManager::SlotItem *> > *>
_TEXT	ENDS
; Function compile flags: /Ogtpy
; File C:\Program Files\Microsoft Visual Studio\2022\Community\VC\Tools\MSVC\14.29.30133\include\vector
;	COMDAT ??$_Emplace_back_with_unused_capacity@PAV?$xr_vector@PAUSlotItem@CDetailManager@@V?$xalloc@PAUSlotItem@CDetailManager@@@@@@@?$vector@PAV?$xr_vector@PAUSlotItem@CDetailManager@@V?$xalloc@PAUSlotItem@CDetailManager@@@@@@V?$xalloc@PAV?$xr_vector@PAUSlotItem@CDetailManager@@V?$xalloc@PAUSlotItem@CDetailManager@@@@@@@@@std@@AAE?A_T$$QAPAV?$xr_vector@PAUSlotItem@CDetailManager@@V?$xalloc@PAUSlotItem@CDetailManager@@@@@@@Z
_TEXT	SEGMENT
_<_Val_0>$ = 8						; size = 4
??$_Emplace_back_with_unused_capacity@PAV?$xr_vector@PAUSlotItem@CDetailManager@@V?$xalloc@PAUSlotItem@CDetailManager@@@@@@@?$vector@PAV?$xr_vector@PAUSlotItem@CDetailManager@@V?$xalloc@PAUSlotItem@CDetailManager@@@@@@V?$xalloc@PAV?$xr_vector@PAUSlotItem@CDetailManager@@V?$xalloc@PAUSlotItem@CDetailManager@@@@@@@@@std@@AAE?A_T$$QAPAV?$xr_vector@PAUSlotItem@CDetailManager@@V?$xalloc@PAUSlotItem@CDetailManager@@@@@@@Z PROC ; std::vector<xr_vector<CDetailManager::SlotItem *,xalloc<CDetailManager::SlotItem *> > *,xalloc<xr_vector<CDetailManager::SlotItem *,xalloc<CDetailManager::SlotItem *> > *> >::_Emplace_back_with_unused_capacity<xr_vector<CDetailManager::SlotItem *,xalloc<CDetailManager::SlotItem *> > *>, COMDAT
; _this$ = ecx

; 709  :         // insert by perfectly forwarding into element at end, provide strong guarantee
; 710  :         auto& _My_data   = _Mypair._Myval2;
; 711  :         pointer& _Mylast = _My_data._Mylast;
; 712  :         _STL_INTERNAL_CHECK(_Mylast != _My_data._Myend); // check that we have unused capacity
; 713  :         _Alty_traits::construct(_Getal(), _Unfancy(_Mylast), _STD forward<_Valty>(_Val)...);

	mov	edx, DWORD PTR [ecx+4]
	mov	eax, DWORD PTR _<_Val_0>$[esp-4]
	mov	eax, DWORD PTR [eax]
	mov	DWORD PTR [edx], eax

; 714  :         _Orphan_range(_Mylast, _Mylast);
; 715  :         _Ty& _Result = *_Mylast;
; 716  :         ++_Mylast;

	add	DWORD PTR [ecx+4], 4

; 717  : #if _HAS_CXX17
; 718  :         return _Result;
; 719  : #else // ^^^ _HAS_CXX17 ^^^ // vvv !_HAS_CXX17 vvv
; 720  :         (void) _Result;
; 721  : #endif // _HAS_CXX17
; 722  :     }

	ret	4
??$_Emplace_back_with_unused_capacity@PAV?$xr_vector@PAUSlotItem@CDetailManager@@V?$xalloc@PAUSlotItem@CDetailManager@@@@@@@?$vector@PAV?$xr_vector@PAUSlotItem@CDetailManager@@V?$xalloc@PAUSlotItem@CDetailManager@@@@@@V?$xalloc@PAV?$xr_vector@PAUSlotItem@CDetailManager@@V?$xalloc@PAUSlotItem@CDetailManager@@@@@@@@@std@@AAE?A_T$$QAPAV?$xr_vector@PAUSlotItem@CDetailManager@@V?$xalloc@PAUSlotItem@CDetailManager@@@@@@@Z ENDP ; std::vector<xr_vector<CDetailManager::SlotItem *,xalloc<CDetailManager::SlotItem *> > *,xalloc<xr_vector<CDetailManager::SlotItem *,xalloc<CDetailManager::SlotItem *> > *> >::_Emplace_back_with_unused_capacity<xr_vector<CDetailManager::SlotItem *,xalloc<CDetailManager::SlotItem *> > *>
_TEXT	ENDS
; Function compile flags: /Ogtpy
; File C:\Program Files\Microsoft Visual Studio\2022\Community\VC\Tools\MSVC\14.29.30133\include\vector
;	COMDAT ??D?$_Vector_iterator@V?$_Vector_val@U?$_Simple_types@PAUSlotItem@CDetailManager@@@std@@@std@@@std@@QBEAAPAUSlotItem@CDetailManager@@XZ
_TEXT	SEGMENT
??D?$_Vector_iterator@V?$_Vector_val@U?$_Simple_types@PAUSlotItem@CDetailManager@@@std@@@std@@@std@@QBEAAPAUSlotItem@CDetailManager@@XZ PROC ; std::_Vector_iterator<std::_Vector_val<std::_Simple_types<CDetailManager::SlotItem *> > >::operator*, COMDAT
; _this$ = ecx

; 261  :         return const_cast<reference>(_Mybase::operator*());

	mov	eax, DWORD PTR [ecx]

; 262  :     }

	ret	0
??D?$_Vector_iterator@V?$_Vector_val@U?$_Simple_types@PAUSlotItem@CDetailManager@@@std@@@std@@@std@@QBEAAPAUSlotItem@CDetailManager@@XZ ENDP ; std::_Vector_iterator<std::_Vector_val<std::_Simple_types<CDetailManager::SlotItem *> > >::operator*
_TEXT	ENDS
; Function compile flags: /Ogtpy
; File I:\Vitalya\mine\NSProjectX\xrCore\xrPool.h
; File C:\Program Files\Microsoft Visual Studio\2022\Community\VC\Tools\MSVC\14.29.30133\include\vector
; File I:\Vitalya\mine\NSProjectX\xrCore\xrPool.h
; File I:\Vitalya\mine\NSProjectX\xrCore\xrMemory.h
; File C:\Program Files\Microsoft Visual Studio\2022\Community\VC\Tools\MSVC\14.29.30133\include\vector
; File I:\Vitalya\mine\NSProjectX\xrCore\xrMemory.h
; File C:\Program Files\Microsoft Visual Studio\2022\Community\VC\Tools\MSVC\14.29.30133\include\vector
; File I:\Vitalya\mine\NSProjectX\xrCore\xrPool.h
; File C:\Program Files\Microsoft Visual Studio\2022\Community\VC\Tools\MSVC\14.29.30133\include\vector
; File I:\Vitalya\mine\NSProjectX\xrCore\xrPool.h
; File C:\Program Files\Microsoft Visual Studio\2022\Community\VC\Tools\MSVC\14.29.30133\include\vector
; File I:\Vitalya\mine\NSProjectX\xrCore\xrMemory.h
; File C:\Program Files\Microsoft Visual Studio\2022\Community\VC\Tools\MSVC\14.29.30133\include\vector
; File I:\Vitalya\mine\NSProjectX\xrCore\xrPool.h
;	COMDAT ??1?$poolSS@USlotItem@CDetailManager@@$0BAAA@@@QAE@XZ
_TEXT	SEGMENT
??1?$poolSS@USlotItem@CDetailManager@@$0BAAA@@@QAE@XZ PROC ; poolSS<CDetailManager::SlotItem,4096>::~poolSS<CDetailManager::SlotItem,4096>, COMDAT
; _this$ = ecx

; 34   : 	{

	push	ebp

; 35   : 		for (u32 b=0; b<blocks.size(); b++)

	mov	ebp, DWORD PTR __imp_?mem_free@xrMemory@@QAEXPAX@Z
	push	esi
	push	edi
	mov	edi, ecx
	xor	esi, esi
; File C:\Program Files\Microsoft Visual Studio\2022\Community\VC\Tools\MSVC\14.29.30133\include\vector

; 1536 :         return static_cast<size_type>(_My_data._Mylast - _My_data._Myfirst);

	mov	eax, DWORD PTR [edi+8]
	mov	edx, DWORD PTR [edi+4]
	sub	eax, edx
	sar	eax, 2
; File I:\Vitalya\mine\NSProjectX\xrCore\xrPool.h

; 35   : 		for (u32 b=0; b<blocks.size(); b++)

	test	eax, eax
	je	SHORT $LN3@poolSS
	push	ebx
	npad	3
$LL4@poolSS:
; File I:\Vitalya\mine\NSProjectX\xrCore\xrMemory.h

; 109  : 	IC void		xr_free		(T* &P)					{	if (P) { Memory.mem_free((void*)P); P=NULL;	};	}

	mov	eax, DWORD PTR [edx+esi*4]
; File C:\Program Files\Microsoft Visual Studio\2022\Community\VC\Tools\MSVC\14.29.30133\include\vector

; 119  :         _Ptr += _Off;

	lea	ebx, DWORD PTR [edx+esi*4]
; File I:\Vitalya\mine\NSProjectX\xrCore\xrMemory.h

; 109  : 	IC void		xr_free		(T* &P)					{	if (P) { Memory.mem_free((void*)P); P=NULL;	};	}

	test	eax, eax
	je	SHORT $LN2@poolSS
	mov	ecx, DWORD PTR __imp_?Memory@@3VxrMemory@@A
	push	eax
	call	ebp
	mov	DWORD PTR [ebx], 0
$LN2@poolSS:
; File C:\Program Files\Microsoft Visual Studio\2022\Community\VC\Tools\MSVC\14.29.30133\include\vector

; 1536 :         return static_cast<size_type>(_My_data._Mylast - _My_data._Myfirst);

	mov	eax, DWORD PTR [edi+8]
; File I:\Vitalya\mine\NSProjectX\xrCore\xrPool.h

; 35   : 		for (u32 b=0; b<blocks.size(); b++)

	inc	esi
; File C:\Program Files\Microsoft Visual Studio\2022\Community\VC\Tools\MSVC\14.29.30133\include\vector

; 1536 :         return static_cast<size_type>(_My_data._Mylast - _My_data._Myfirst);

	mov	edx, DWORD PTR [edi+4]
	sub	eax, edx
	sar	eax, 2
; File I:\Vitalya\mine\NSProjectX\xrCore\xrPool.h

; 35   : 		for (u32 b=0; b<blocks.size(); b++)

	cmp	esi, eax
	jb	SHORT $LL4@poolSS
	pop	ebx
$LN3@poolSS:
; File C:\Program Files\Microsoft Visual Studio\2022\Community\VC\Tools\MSVC\14.29.30133\include\vector

; 1750 :         if (_Myfirst) { // destroy and deallocate old array

	test	edx, edx
	je	SHORT $LN35@poolSS
; File I:\Vitalya\mine\NSProjectX\xrCore\xrMemory.h

; 109  : 	IC void		xr_free		(T* &P)					{	if (P) { Memory.mem_free((void*)P); P=NULL;	};	}

	mov	ecx, DWORD PTR __imp_?Memory@@3VxrMemory@@A
	push	edx
	call	ebp
; File C:\Program Files\Microsoft Visual Studio\2022\Community\VC\Tools\MSVC\14.29.30133\include\vector

; 1754 :             _Myfirst = nullptr;

	mov	DWORD PTR [edi+4], 0

; 1755 :             _Mylast  = nullptr;

	mov	DWORD PTR [edi+8], 0

; 1756 :             _Myend   = nullptr;

	mov	DWORD PTR [edi+12], 0
$LN35@poolSS:
	pop	edi
; File I:\Vitalya\mine\NSProjectX\xrCore\xrPool.h

; 37   : 	}

	pop	esi
	pop	ebp
	ret	0
??1?$poolSS@USlotItem@CDetailManager@@$0BAAA@@@QAE@XZ ENDP ; poolSS<CDetailManager::SlotItem,4096>::~poolSS<CDetailManager::SlotItem,4096>
_TEXT	ENDS
; Function compile flags: /Ogtpy
; File I:\Vitalya\mine\NSProjectX\xrCore\xrPool.h
; File C:\Program Files\Microsoft Visual Studio\2022\Community\VC\Tools\MSVC\14.29.30133\include\vector
; File I:\Vitalya\mine\NSProjectX\xrCore\xrPool.h
; File C:\Program Files\Microsoft Visual Studio\2022\Community\VC\Tools\MSVC\14.29.30133\include\vector
; File I:\Vitalya\mine\NSProjectX\xrCore\xrPool.h
;	COMDAT ??0?$poolSS@USlotItem@CDetailManager@@$0BAAA@@@QAE@XZ
_TEXT	SEGMENT
??0?$poolSS@USlotItem@CDetailManager@@$0BAAA@@@QAE@XZ PROC ; poolSS<CDetailManager::SlotItem,4096>::poolSS<CDetailManager::SlotItem,4096>, COMDAT
; _this$ = ecx
; File C:\Program Files\Microsoft Visual Studio\2022\Community\VC\Tools\MSVC\14.29.30133\include\vector

; 390  :     _CONSTEXPR20_CONTAINER _Vector_val() noexcept : _Myfirst(), _Mylast(), _Myend() {}

	mov	DWORD PTR [ecx+4], 0
; File I:\Vitalya\mine\NSProjectX\xrCore\xrPool.h

; 32   : 	}

	mov	eax, ecx
; File C:\Program Files\Microsoft Visual Studio\2022\Community\VC\Tools\MSVC\14.29.30133\include\vector

; 390  :     _CONSTEXPR20_CONTAINER _Vector_val() noexcept : _Myfirst(), _Mylast(), _Myend() {}

	mov	DWORD PTR [ecx+8], 0
	mov	DWORD PTR [ecx+12], 0
; File I:\Vitalya\mine\NSProjectX\xrCore\xrPool.h

; 31   : 		list				= 0;

	mov	DWORD PTR [ecx], 0

; 32   : 	}

	ret	0
??0?$poolSS@USlotItem@CDetailManager@@$0BAAA@@@QAE@XZ ENDP ; poolSS<CDetailManager::SlotItem,4096>::poolSS<CDetailManager::SlotItem,4096>
_TEXT	ENDS
; Function compile flags: /Ogtpy
; File I:\Vitalya\mine\NSProjectX\xrCore\FixedVector.h
;	COMDAT ??0?$svector@PAUSlot@CDetailManager@@$0JGB@@@QAE@XZ
_TEXT	SEGMENT
??0?$svector@PAUSlot@CDetailManager@@$0JGB@@@QAE@XZ PROC ; svector<CDetailManager::Slot *,2401>::svector<CDetailManager::Slot *,2401>, COMDAT
; _this$ = ecx

; 21   : 	svector() : count(0) 

	mov	DWORD PTR [ecx+9604], 0

; 22   : 	{}

	mov	eax, ecx
	ret	0
??0?$svector@PAUSlot@CDetailManager@@$0JGB@@@QAE@XZ ENDP ; svector<CDetailManager::Slot *,2401>::svector<CDetailManager::Slot *,2401>
_TEXT	ENDS
; Function compile flags: /Ogtpy
; File I:\Vitalya\mine\NSProjectX\xrCore\_stl_extensions.h
; File C:\Program Files\Microsoft Visual Studio\2022\Community\VC\Tools\MSVC\14.29.30133\include\vector
; File I:\Vitalya\mine\NSProjectX\xrCore\_stl_extensions.h
;	COMDAT ??A?$xr_vector@V?$xr_vector@PAV?$xr_vector@PAUSlotItem@CDetailManager@@V?$xalloc@PAUSlotItem@CDetailManager@@@@@@V?$xalloc@PAV?$xr_vector@PAUSlotItem@CDetailManager@@V?$xalloc@PAUSlotItem@CDetailManager@@@@@@@@@@V?$xalloc@V?$xr_vector@PAV?$xr_vector@PAUSlotItem@CDetailManager@@V?$xalloc@PAUSlotItem@CDetailManager@@@@@@V?$xalloc@PAV?$xr_vector@PAUSlotItem@CDetailManager@@V?$xalloc@PAUSlotItem@CDetailManager@@@@@@@@@@@@@@QAEAAV?$xr_vector@PAV?$xr_vector@PAUSlotItem@CDetailManager@@V?$xalloc@PAUSlotItem@CDetailManager@@@@@@V?$xalloc@PAV?$xr_vector@PAUSlotItem@CDetailManager@@V?$xalloc@PAUSlotItem@CDetailManager@@@@@@@@@@I@Z
_TEXT	SEGMENT
__Pos$ = 8						; size = 4
??A?$xr_vector@V?$xr_vector@PAV?$xr_vector@PAUSlotItem@CDetailManager@@V?$xalloc@PAUSlotItem@CDetailManager@@@@@@V?$xalloc@PAV?$xr_vector@PAUSlotItem@CDetailManager@@V?$xalloc@PAUSlotItem@CDetailManager@@@@@@@@@@V?$xalloc@V?$xr_vector@PAV?$xr_vector@PAUSlotItem@CDetailManager@@V?$xalloc@PAUSlotItem@CDetailManager@@@@@@V?$xalloc@PAV?$xr_vector@PAUSlotItem@CDetailManager@@V?$xalloc@PAUSlotItem@CDetailManager@@@@@@@@@@@@@@QAEAAV?$xr_vector@PAV?$xr_vector@PAUSlotItem@CDetailManager@@V?$xalloc@PAUSlotItem@CDetailManager@@@@@@V?$xalloc@PAV?$xr_vector@PAUSlotItem@CDetailManager@@V?$xalloc@PAUSlotItem@CDetailManager@@@@@@@@@@I@Z PROC ; xr_vector<xr_vector<xr_vector<CDetailManager::SlotItem *,xalloc<CDetailManager::SlotItem *> > *,xalloc<xr_vector<CDetailManager::SlotItem *,xalloc<CDetailManager::SlotItem *> > *> >,xalloc<xr_vector<xr_vector<CDetailManager::SlotItem *,xalloc<CDetailManager::SlotItem *> > *,xalloc<xr_vector<CDetailManager::SlotItem *,xalloc<CDetailManager::SlotItem *> > *> > > >::operator[], COMDAT
; _this$ = ecx
; File C:\Program Files\Microsoft Visual Studio\2022\Community\VC\Tools\MSVC\14.29.30133\include\vector

; 119  :         _Ptr += _Off;

	mov	eax, DWORD PTR __Pos$[esp-4]
	lea	edx, DWORD PTR [eax+eax*2]
	mov	eax, DWORD PTR [ecx]
	lea	eax, DWORD PTR [eax+edx*4]
; File I:\Vitalya\mine\NSProjectX\xrCore\_stl_extensions.h

; 138  : 	reference operator[]		(size_type _Pos)					{ {VERIFY(_Pos<size());} return (*(begin() + _Pos)); }

	ret	4
