; Listing generated by Microsoft (R) Optimizing Compiler Version 19.29.30146.0 

	TITLE	i:\vitalya\mine\nsprojectx\nspx_build\intermediate\release-win32\xrrender_r1\fstaticrender.obj
	.686P
	.XMM
	include listing.inc
	.model	flat

INCLUDELIB OLDNAMES

PUBLIC	??_C@_0O@MLKAHID@L_dynamic_pos@			; `string'
PUBLIC	??_C@_0BA@FNHAPCAE@L_dynamic_color@		; `string'
PUBLIC	??_C@_0BA@PCGAPDHO@L_dynamic_xform@		; `string'
PUBLIC	??_C@_0L@CBIMIPPL@?9nodistort@			; `string'
PUBLIC	??_C@_0M@JGJOANLK@unavailable@			; `string'
PUBLIC	??_C@_0CD@DCBDPIBM@?$CK?5distortion?3?5?$CFs?0?5dev?$CI?$CFd?$CJ?0need?$CI@ ; `string'
PUBLIC	??_C@_07BDKAKIOP@?9disasm@			; `string'
PUBLIC	??_C@_06MLLEPAHM@?9skinw@			; `string'
PUBLIC	??_C@_0BA@FMJGKLOA@L_dynamic_props@		; `string'
PUBLIC	??_C@_0BI@HOANMMBE@CRender?3?3model_CreatePE@	; `string'
PUBLIC	??_C@_0EC@GAKMNDAB@I?3?2Vitalya?2mine?2NSProjectX?2laye@ ; `string'
PUBLIC	??_C@_0BO@PKGKJKHO@Particle?5effect?5doesn?8t?5exist@ ; `string'
PUBLIC	??_C@_02ODEKANEE@SE@				; `string'
PUBLIC	??_C@_0BP@GFBDPMDM@CRender?3?3model_CreateParticles@ ; `string'
PUBLIC	??_C@_0CH@CNEGHEIB@Particle?5effect?5or?5group?5doesn?8@ ; `string'
PUBLIC	??_C@_02NBHMGPMG@SG@				; `string'
PUBLIC	??_C@_0BK@OKMDHAJE@?5?$CK?$CK?$CK?$CK?5Occ?9Q?$CI?$CF03?41f?$CJ?5?$CK?$CK?$CK?$CK?5@ ; `string'
PUBLIC	??_C@_0O@OKFLLHFA@?5total?5?5?3?5?$CF2d@	; `string'
PUBLIC	??_C@_0O@CFLPMGDN@?5culled?5?3?5?$CF2d@		; `string'
PUBLIC	??_C@_0P@IMLOOCAI@$game_shaders$@		; `string'
PUBLIC	??_C@_06FBCGDMPM@?$CB?5PS?3?5@			; `string'
PUBLIC	??_C@_0CB@LMOENIDG@?$CB?5CreatePixelShader?5hr?5?$DN?$DN?50x?$CF08@ ; `string'
PUBLIC	??_C@_0CF@PIPNAOIB@?$CB?5D3DXFindShaderComment?5hr?5?$DN?$DN?50@ ; `string'
PUBLIC	??_C@_06NOGGMJFM@?$CB?5VS?3?5@			; `string'
PUBLIC	??_C@_03MKDIMGDJ@?4vs@				; `string'
PUBLIC	??_C@_03MOLFLKIL@?4ps@				; `string'
PUBLIC	??_C@_07NGDNODCK@disasm?2@			; `string'
PUBLIC	??_C@_0BA@BDJNLMJI@$app_data_root$@		; `string'
PUBLIC	??_C@_0L@PJCDFAEI@SKIN_COLOR@			; `string'
PUBLIC	??_C@_09BOBBOPBB@SKIN_NONE@			; `string'
PUBLIC	??_C@_06IDLPGDEM@SKIN_0@			; `string'
PUBLIC	??_C@_06JKKEFCAN@SKIN_1@			; `string'
PUBLIC	??_C@_06LBIJABMO@SKIN_2@			; `string'
PUBLIC	??_C@_0BI@NLEBJGLM@CRender?3?3shader_compile@	; `string'
PUBLIC	??_C@_0N@KDLHPIAJ@def_it?5?$DM?5128@		; `string'
PUBLIC	??_C@_0M@MCOCEOGP@objects?2r1?2@		; `string'
PUBLIC	??_C@_01LFCBOECM@?4@				; `string'
PUBLIC	??_C@_01KICIPPFI@?2@				; `string'
PUBLIC	??_C@_01NBENCBCI@?$CK@				; `string'
PUBLIC	??_C@_0BC@NLGOMJHG@shaders_cache?2r1?2@		; `string'
PUBLIC	??_C@_02KMLFCOJI@?$CB?5@			; `string'
PUBLIC	??_C@_0M@LHHOJELD@?$CB?5Warning?3?5@		; `string'
PUBLIC	??_C@_0BP@OMCFLODH@?$CB?5Can?8t?5compile?5shader?3?5?$CFs?0?5?$CFs@ ; `string'
PUBLIC	??_C@_0BD@DCAGGEAG@SUCCEEDED?$CI_result?$CJ@	; `string'
PUBLIC	??_C@_09EFHBAOK@?$CB?5Error?3?5@		; `string'
PUBLIC	??_C@_0BP@CEIAODPN@Can?8t?5compile?5shader?5hr?$DN0x?$CF08x@ ; `string'
PUBLIC	??_C@_0N@GPBBBEHJ@match_shader@			; `string'
PUBLIC	??_C@_0CE@HAHBDCPG@bad?5cache?5for?5shader?5?$CFs?0?5?$FL?$CFs?$FN?0?5@ ; `string'
PUBLIC	??_C@_0CF@MFPDANGH@full_shader_id_length?5?$DN?$DN?5mask_l@ ; `string'
PUBLIC	??_R2includer@@8				; includer::`RTTI Base Class Array'
PUBLIC	??_R2cl_light_XFORM@@8				; cl_light_XFORM::`RTTI Base Class Array'
PUBLIC	??_R2cl_light_C@@8				; cl_light_C::`RTTI Base Class Array'
PUBLIC	??_R2cl_light_PR@@8				; cl_light_PR::`RTTI Base Class Array'
PUBLIC	??_R2R_constant_setup@@8			; R_constant_setup::`RTTI Base Class Array'
PUBLIC	??_R2CRender@@8					; CRender::`RTTI Base Class Array'
PUBLIC	??_R2ID3DXInclude@@8				; ID3DXInclude::`RTTI Base Class Array'
PUBLIC	??_R1A@?0A@EA@includer@@8			; includer::`RTTI Base Class Descriptor at (0,-1,0,64)'
PUBLIC	??_R1A@?0A@EA@cl_light_XFORM@@8			; cl_light_XFORM::`RTTI Base Class Descriptor at (0,-1,0,64)'
PUBLIC	??_R1A@?0A@EA@cl_light_C@@8			; cl_light_C::`RTTI Base Class Descriptor at (0,-1,0,64)'
PUBLIC	??_R1A@?0A@EA@cl_light_PR@@8			; cl_light_PR::`RTTI Base Class Descriptor at (0,-1,0,64)'
PUBLIC	??_R1A@?0A@EA@R_constant_setup@@8		; R_constant_setup::`RTTI Base Class Descriptor at (0,-1,0,64)'
PUBLIC	??_R1A@?0A@EA@CRender@@8			; CRender::`RTTI Base Class Descriptor at (0,-1,0,64)'
PUBLIC	??_R1A@?0A@EA@ID3DXInclude@@8			; ID3DXInclude::`RTTI Base Class Descriptor at (0,-1,0,64)'
PUBLIC	??_R3includer@@8				; includer::`RTTI Class Hierarchy Descriptor'
PUBLIC	??_R0?AVincluder@@@8				; includer `RTTI Type Descriptor'
PUBLIC	??_R3cl_light_XFORM@@8				; cl_light_XFORM::`RTTI Class Hierarchy Descriptor'
PUBLIC	??_R0?AVcl_light_XFORM@@@8			; cl_light_XFORM `RTTI Type Descriptor'
PUBLIC	??_R3cl_light_C@@8				; cl_light_C::`RTTI Class Hierarchy Descriptor'
PUBLIC	??_R0?AVcl_light_C@@@8				; cl_light_C `RTTI Type Descriptor'
PUBLIC	??_R3R_constant_setup@@8			; R_constant_setup::`RTTI Class Hierarchy Descriptor'
PUBLIC	??_R0?AVR_constant_setup@@@8			; R_constant_setup `RTTI Type Descriptor'
PUBLIC	??_R3cl_light_PR@@8				; cl_light_PR::`RTTI Class Hierarchy Descriptor'
PUBLIC	??_R0?AVcl_light_PR@@@8				; cl_light_PR `RTTI Type Descriptor'
PUBLIC	??_R3CRender@@8					; CRender::`RTTI Class Hierarchy Descriptor'
PUBLIC	??_R0?AVCRender@@@8				; CRender `RTTI Type Descriptor'
PUBLIC	??_R3ID3DXInclude@@8				; ID3DXInclude::`RTTI Class Hierarchy Descriptor'
PUBLIC	??_R0?AUID3DXInclude@@@8			; ID3DXInclude `RTTI Type Descriptor'
PUBLIC	??_R4includer@@6B@				; includer::`RTTI Complete Object Locator'
PUBLIC	??_R4cl_light_XFORM@@6B@			; cl_light_XFORM::`RTTI Complete Object Locator'
PUBLIC	??_R4cl_light_C@@6B@				; cl_light_C::`RTTI Complete Object Locator'
PUBLIC	??_R4cl_light_PR@@6B@				; cl_light_PR::`RTTI Complete Object Locator'
PUBLIC	??_R4CRender@@6BpureFrame@@@			; CRender::`RTTI Complete Object Locator'
PUBLIC	??_C@_03CMCKNFAL@r1?2@				; `string'
PUBLIC	??_R4CRender@@6BIRender_interface@@@		; CRender::`RTTI Complete Object Locator'
PUBLIC	?did_init@?1??init_table@?$crc_table_t@$0CA@$0EMBBNLH@$00@detail@boost@@SAXXZ@4_NA ; `boost::detail::crc_table_t<32,79764919,1>::init_table'::`2'::did_init
PUBLIC	?table_@?$crc_table_t@$0CA@$0EMBBNLH@$00@detail@boost@@2PAIA ; boost::detail::crc_table_t<32,79764919,1>::table_
PUBLIC	??_7includer@@6B@				; includer::`vftable'
PUBLIC	??_C@_0BA@JFNIOLAK@string?5too?5long@		; `string'
PUBLIC	??_C@_0BF@KINCDENJ@bad?5array?5new?5length@	; `string'
PUBLIC	??_R0?AVbad_array_new_length@std@@@8		; std::bad_array_new_length `RTTI Type Descriptor'
PUBLIC	??_R1A@?0A@EA@bad_array_new_length@std@@8	; std::bad_array_new_length::`RTTI Base Class Descriptor at (0,-1,0,64)'
PUBLIC	??_R2bad_array_new_length@std@@8		; std::bad_array_new_length::`RTTI Base Class Array'
PUBLIC	??_R3bad_array_new_length@std@@8		; std::bad_array_new_length::`RTTI Class Hierarchy Descriptor'
PUBLIC	??_R4bad_array_new_length@std@@6B@		; std::bad_array_new_length::`RTTI Complete Object Locator'
PUBLIC	??_7bad_array_new_length@std@@6B@		; std::bad_array_new_length::`vftable'
PUBLIC	__CT??_R0?AVbad_array_new_length@std@@@8??0bad_array_new_length@std@@QAE@ABV01@@Z12
PUBLIC	??_R0?AVbad_alloc@std@@@8			; std::bad_alloc `RTTI Type Descriptor'
PUBLIC	??_R1A@?0A@EA@bad_alloc@std@@8			; std::bad_alloc::`RTTI Base Class Descriptor at (0,-1,0,64)'
PUBLIC	??_R2bad_alloc@std@@8				; std::bad_alloc::`RTTI Base Class Array'
PUBLIC	??_R3bad_alloc@std@@8				; std::bad_alloc::`RTTI Class Hierarchy Descriptor'
PUBLIC	??_R4bad_alloc@std@@6B@				; std::bad_alloc::`RTTI Complete Object Locator'
PUBLIC	??_7bad_alloc@std@@6B@				; std::bad_alloc::`vftable'
PUBLIC	__CT??_R0?AVbad_alloc@std@@@8??0bad_alloc@std@@QAE@ABV01@@Z12
PUBLIC	??_R0?AVexception@std@@@8			; std::exception `RTTI Type Descriptor'
PUBLIC	??_R1A@?0A@EA@exception@std@@8			; std::exception::`RTTI Base Class Descriptor at (0,-1,0,64)'
PUBLIC	??_R2exception@std@@8				; std::exception::`RTTI Base Class Array'
PUBLIC	??_R3exception@std@@8				; std::exception::`RTTI Class Hierarchy Descriptor'
PUBLIC	??_R4exception@std@@6B@				; std::exception::`RTTI Complete Object Locator'
PUBLIC	??_C@_0BC@EOODALEL@Unknown?5exception@		; `string'
PUBLIC	??_7exception@std@@6B@				; std::exception::`vftable'
PUBLIC	__CT??_R0?AVexception@std@@@8??0exception@std@@QAE@ABV01@@Z12
PUBLIC	__CTA3?AVbad_array_new_length@std@@
PUBLIC	__TI3?AVbad_array_new_length@std@@
PUBLIC	??_C@_01HIHLOKLC@1@				; `string'
PUBLIC	??_C@_00CNPNBAHC@@				; `string'
PUBLIC	??_R0?AVCGlow@@@8				; CGlow `RTTI Type Descriptor'
PUBLIC	??_7cl_light_XFORM@@6B@				; cl_light_XFORM::`vftable'
PUBLIC	??_7cl_light_C@@6B@				; cl_light_C::`vftable'
PUBLIC	??_7cl_light_PR@@6B@				; cl_light_PR::`vftable'
PUBLIC	??_7CRender@@6BpureFrame@@@			; CRender::`vftable'
PUBLIC	??_7CRender@@6BIRender_interface@@@		; CRender::`vftable'
PUBLIC	??_R4R_dsgraph_structure@@6BIRender_interface@@@ ; R_dsgraph_structure::`RTTI Complete Object Locator'
PUBLIC	??_7R_dsgraph_structure@@6BIRender_interface@@@	; R_dsgraph_structure::`vftable'
PUBLIC	??_R0?AVR_dsgraph_structure@@@8			; R_dsgraph_structure `RTTI Type Descriptor'
PUBLIC	??_R1A@?0A@EA@R_dsgraph_structure@@8		; R_dsgraph_structure::`RTTI Base Class Descriptor at (0,-1,0,64)'
PUBLIC	??_R0?AVIRender_interface@@@8			; IRender_interface `RTTI Type Descriptor'
PUBLIC	??_R2IRender_interface@@8			; IRender_interface::`RTTI Base Class Array'
PUBLIC	??_R3IRender_interface@@8			; IRender_interface::`RTTI Class Hierarchy Descriptor'
PUBLIC	??_R1A@?0A@EA@IRender_interface@@8		; IRender_interface::`RTTI Base Class Descriptor at (0,-1,0,64)'
PUBLIC	??_R0?AVpureFrame@@@8				; pureFrame `RTTI Type Descriptor'
PUBLIC	??_R1A@?0A@EA@pureFrame@@8			; pureFrame::`RTTI Base Class Descriptor at (0,-1,0,64)'
PUBLIC	??_R2pureFrame@@8				; pureFrame::`RTTI Base Class Array'
PUBLIC	??_R3pureFrame@@8				; pureFrame::`RTTI Class Hierarchy Descriptor'
PUBLIC	??_R1BAA@?0A@EA@pureFrame@@8			; pureFrame::`RTTI Base Class Descriptor at (256,-1,0,64)'
PUBLIC	??_R2R_dsgraph_structure@@8			; R_dsgraph_structure::`RTTI Base Class Array'
PUBLIC	??_R3R_dsgraph_structure@@8			; R_dsgraph_structure::`RTTI Class Hierarchy Descriptor'
PUBLIC	??_R4R_dsgraph_structure@@6BpureFrame@@@	; R_dsgraph_structure::`RTTI Complete Object Locator'
PUBLIC	??_7R_dsgraph_structure@@6BpureFrame@@@		; R_dsgraph_structure::`vftable'
PUBLIC	?g_fSCREEN@@3MA					; g_fSCREEN
EXTRN	__imp_?ROS@CObject@@QAEPAVIRender_ObjectSpecific@@XZ:PROC
EXTRN	__imp_??0R_constant_setup@@QAE@XZ:PROC
EXTRN	__imp_?_inc@?$resptr_base@VIRender_Glow@@@@IAEXXZ:PROC
EXTRN	__imp_??1FS_File@@QAE@XZ:PROC
EXTRN	__imp__strncpy_s:PROC
EXTRN	__imp_?_REG_Compare@@YAHPBX0@Z:PROC
EXTRN	__imp__qsort:PROC
EXTRN	__imp_?_dec@?$resptr_base@VIRender_Glow@@@@IAEXXZ:PROC
EXTRN	__imp____std_exception_destroy:PROC
EXTRN	__imp____std_exception_copy:PROC
EXTRN	__imp___invalid_parameter_noinfo_noreturn:PROC
EXTRN	__imp_?fail@xrDebug@@QAEXPBDABV?$basic_string@DU?$char_traits@D@std@@V?$allocator@D@2@@std@@0H0AA_N@Z:PROC
EXTRN	__imp__D3DXCompileShader@40:PROC
EXTRN	__imp_?file_list@CLocatorAPI@@QAEHAAV?$xr_set@UFS_File@@U?$less@UFS_File@@@std@@V?$xalloc@UFS_File@@@@@@PBDI1@Z:PROC
EXTRN	__imp__D3DXDisassembleShader@16:PROC
EXTRN	__imp_?parse@R_constant_table@@QAEHPAXG@Z:PROC
EXTRN	__imp__D3DXFindShaderComment@16:PROC
EXTRN	__imp_?r_open@CLocatorAPI@@QAEPAVIReader@@PBD0@Z:PROC
EXTRN	__imp_?OutSkip@CGameFont@@QAEXM@Z:PROC
EXTRN	__imp_?OutNext@CGameFont@@QAAXPBDZZ:PROC
EXTRN	__imp_?RenderLast@CEnvironment@@QAEXXZ:PROC
EXTRN	__imp_?RenderFlares@CEnvironment@@QAEXXZ:PROC
EXTRN	__imp_?RenderClouds@CEnvironment@@QAEXXZ:PROC
EXTRN	__imp_?RenderSky@CEnvironment@@QAEXXZ:PROC
EXTRN	__imp_?spatial_updatesector_internal@ISpatial@@QAEXXZ:PROC
EXTRN	__imp_?spatial_updatesector@ISpatial@@QAEXXZ:PROC
EXTRN	__imp_?CurrentViewEntity@IGame_Level@@QBEPAVCObject@@XZ:PROC
EXTRN	__imp_??_7R_constant_setup@@6B@:QWORD
EXTRN	__imp_??_7IRender_interface@@6B@:BYTE
EXTRN	__imp_??0IRender_interface@@QAE@XZ:PROC
EXTRN	__imp_??1IRender_interface@@UAE@XZ:PROC
EXTRN	__imp_??_7pureFrame@@6B@:QWORD
EXTRN	__imp_??0pureFrame@@QAE@XZ:PROC
EXTRN	?Statistics@IRender_interface@@UAEXPAVCGameFont@@@Z:PROC ; IRender_interface::Statistics
EXTRN	__imp_?Statistics@IRender_interface@@UAEXPAVCGameFont@@@Z:PROC
EXTRN	?light_destroy@IRender_interface@@UAEXPAVIRender_Light@@@Z:PROC ; IRender_interface::light_destroy
EXTRN	__imp_?light_destroy@IRender_interface@@UAEXPAVIRender_Light@@@Z:PROC
EXTRN	?glow_destroy@IRender_interface@@UAEXPAVIRender_Glow@@@Z:PROC ; IRender_interface::glow_destroy
EXTRN	__imp_?glow_destroy@IRender_interface@@UAEXPAVIRender_Glow@@@Z:PROC
EXTRN	__imp_?getMask@CFrustum@@QBEIXZ:PROC
EXTRN	__imp_?fail@xrDebug@@QAEXPBD000H0AA_N@Z:PROC
EXTRN	__imp_?RegisterConstantSetup@CResourceManager@@QAEXPBDPAVR_constant_setup@@@Z:PROC
EXTRN	__imp_?renderable_ROS@IRenderable@@QAEPAVIRender_ObjectSpecific@@XZ:PROC
;	COMDAT ?did_init@?1??init_table@?$crc_table_t@$0CA@$0EMBBNLH@$00@detail@boost@@SAXXZ@4_NA
_BSS	SEGMENT
?did_init@?1??init_table@?$crc_table_t@$0CA@$0EMBBNLH@$00@detail@boost@@SAXXZ@4_NA DB 01H DUP (?) ; `boost::detail::crc_table_t<32,79764919,1>::init_table'::`2'::did_init
_BSS	ENDS
;	COMDAT ?table_@?$crc_table_t@$0CA@$0EMBBNLH@$00@detail@boost@@2PAIA
_BSS	SEGMENT
?table_@?$crc_table_t@$0CA@$0EMBBNLH@$00@detail@boost@@2PAIA DD 0100H DUP (?) ; boost::detail::crc_table_t<32,79764919,1>::table_
_BSS	ENDS
;	COMDAT ?ignore_always@?3??match_shader@@YA_NQBD00I@Z@4_NA
_BSS	SEGMENT
?ignore_always@?3??match_shader@@YA_NQBD00I@Z@4_NA DB 01H DUP (?) ; `match_shader'::`4'::ignore_always
_BSS	ENDS
;	COMDAT ?ignore_always@?DC@??shader_compile@CRender@@UAEJPBDPBKI00KAAPAX@Z@4_NA
_BSS	SEGMENT
?ignore_always@?DC@??shader_compile@CRender@@UAEJPBDPBKI00KAAPAX@Z@4_NA DB 01H DUP (?) ; `CRender::shader_compile'::`50'::ignore_always
_BSS	ENDS
;	COMDAT ?ignore_always@?BF@??shader_compile@CRender@@UAEJPBDPBKI00KAAPAX@Z@4_NA
_BSS	SEGMENT
?ignore_always@?BF@??shader_compile@CRender@@UAEJPBDPBKI00KAAPAX@Z@4_NA DB 01H DUP (?) ; `CRender::shader_compile'::`21'::ignore_always
?g_fSCREEN@@3MA DD 01H DUP (?)				; g_fSCREEN
_BSS	ENDS
;	COMDAT ?ignore_always@?7??model_CreateParticles@CRender@@UAEPAVIRender_Visual@@PBD@Z@4_NA
_BSS	SEGMENT
?ignore_always@?7??model_CreateParticles@CRender@@UAEPAVIRender_Visual@@PBD@Z@4_NA DB 01H DUP (?) ; `CRender::model_CreateParticles'::`8'::ignore_always
_BSS	ENDS
;	COMDAT ?ignore_always@?3??model_CreatePE@CRender@@QAEPAVIRender_Visual@@PBD@Z@4_NA
_BSS	SEGMENT
?ignore_always@?3??model_CreatePE@CRender@@QAEPAVIRender_Visual@@PBD@Z@4_NA DB 01H DUP (?) ; `CRender::model_CreatePE'::`4'::ignore_always
_BSS	ENDS
;	COMDAT ??_7R_dsgraph_structure@@6BpureFrame@@@
CONST	SEGMENT
??_7R_dsgraph_structure@@6BpureFrame@@@ DD FLAT:??_R4R_dsgraph_structure@@6BpureFrame@@@ ; R_dsgraph_structure::`vftable'
	DD	FLAT:__purecall
CONST	ENDS
;	COMDAT ??_R4R_dsgraph_structure@@6BpureFrame@@@
rdata$r	SEGMENT
??_R4R_dsgraph_structure@@6BpureFrame@@@ DD 00H		; R_dsgraph_structure::`RTTI Complete Object Locator'
	DD	0100H
	DD	00H
	DD	FLAT:??_R0?AVR_dsgraph_structure@@@8
	DD	FLAT:??_R3R_dsgraph_structure@@8
rdata$r	ENDS
;	COMDAT ??_R3R_dsgraph_structure@@8
rdata$r	SEGMENT
??_R3R_dsgraph_structure@@8 DD 00H			; R_dsgraph_structure::`RTTI Class Hierarchy Descriptor'
	DD	01H
	DD	03H
	DD	FLAT:??_R2R_dsgraph_structure@@8
rdata$r	ENDS
;	COMDAT ??_R2R_dsgraph_structure@@8
rdata$r	SEGMENT
??_R2R_dsgraph_structure@@8 DD FLAT:??_R1A@?0A@EA@R_dsgraph_structure@@8 ; R_dsgraph_structure::`RTTI Base Class Array'
	DD	FLAT:??_R1A@?0A@EA@IRender_interface@@8
	DD	FLAT:??_R1BAA@?0A@EA@pureFrame@@8
rdata$r	ENDS
;	COMDAT ??_R1BAA@?0A@EA@pureFrame@@8
rdata$r	SEGMENT
??_R1BAA@?0A@EA@pureFrame@@8 DD FLAT:??_R0?AVpureFrame@@@8 ; pureFrame::`RTTI Base Class Descriptor at (256,-1,0,64)'
	DD	00H
	DD	0100H
	DD	0ffffffffH
	DD	00H
	DD	040H
	DD	FLAT:??_R3pureFrame@@8
rdata$r	ENDS
;	COMDAT ??_R3pureFrame@@8
rdata$r	SEGMENT
??_R3pureFrame@@8 DD 00H				; pureFrame::`RTTI Class Hierarchy Descriptor'
	DD	00H
	DD	01H
	DD	FLAT:??_R2pureFrame@@8
rdata$r	ENDS
;	COMDAT ??_R2pureFrame@@8
rdata$r	SEGMENT
??_R2pureFrame@@8 DD FLAT:??_R1A@?0A@EA@pureFrame@@8	; pureFrame::`RTTI Base Class Array'
rdata$r	ENDS
;	COMDAT ??_R1A@?0A@EA@pureFrame@@8
rdata$r	SEGMENT
??_R1A@?0A@EA@pureFrame@@8 DD FLAT:??_R0?AVpureFrame@@@8 ; pureFrame::`RTTI Base Class Descriptor at (0,-1,0,64)'
	DD	00H
	DD	00H
	DD	0ffffffffH
	DD	00H
	DD	040H
	DD	FLAT:??_R3pureFrame@@8
rdata$r	ENDS
;	COMDAT ??_R0?AVpureFrame@@@8
data$rs	SEGMENT
??_R0?AVpureFrame@@@8 DD FLAT:??_7type_info@@6B@	; pureFrame `RTTI Type Descriptor'
	DD	00H
	DB	'.?AVpureFrame@@', 00H
data$rs	ENDS
;	COMDAT ??_R1A@?0A@EA@IRender_interface@@8
rdata$r	SEGMENT
??_R1A@?0A@EA@IRender_interface@@8 DD FLAT:??_R0?AVIRender_interface@@@8 ; IRender_interface::`RTTI Base Class Descriptor at (0,-1,0,64)'
	DD	00H
	DD	00H
	DD	0ffffffffH
	DD	00H
	DD	040H
	DD	FLAT:??_R3IRender_interface@@8
rdata$r	ENDS
;	COMDAT ??_R3IRender_interface@@8
rdata$r	SEGMENT
??_R3IRender_interface@@8 DD 00H			; IRender_interface::`RTTI Class Hierarchy Descriptor'
	DD	00H
	DD	01H
	DD	FLAT:??_R2IRender_interface@@8
rdata$r	ENDS
;	COMDAT ??_R2IRender_interface@@8
rdata$r	SEGMENT
??_R2IRender_interface@@8 DD FLAT:??_R1A@?0A@EA@IRender_interface@@8 ; IRender_interface::`RTTI Base Class Array'
rdata$r	ENDS
;	COMDAT ??_R0?AVIRender_interface@@@8
data$rs	SEGMENT
??_R0?AVIRender_interface@@@8 DD FLAT:??_7type_info@@6B@ ; IRender_interface `RTTI Type Descriptor'
	DD	00H
	DB	'.?AVIRender_interface@@', 00H
data$rs	ENDS
;	COMDAT ??_R1A@?0A@EA@R_dsgraph_structure@@8
rdata$r	SEGMENT
??_R1A@?0A@EA@R_dsgraph_structure@@8 DD FLAT:??_R0?AVR_dsgraph_structure@@@8 ; R_dsgraph_structure::`RTTI Base Class Descriptor at (0,-1,0,64)'
	DD	02H
	DD	00H
	DD	0ffffffffH
	DD	00H
	DD	040H
	DD	FLAT:??_R3R_dsgraph_structure@@8
rdata$r	ENDS
;	COMDAT ??_R0?AVR_dsgraph_structure@@@8
data$rs	SEGMENT
??_R0?AVR_dsgraph_structure@@@8 DD FLAT:??_7type_info@@6B@ ; R_dsgraph_structure `RTTI Type Descriptor'
	DD	00H
	DB	'.?AVR_dsgraph_structure@@', 00H
data$rs	ENDS
;	COMDAT ??_7R_dsgraph_structure@@6BIRender_interface@@@
CONST	SEGMENT
??_7R_dsgraph_structure@@6BIRender_interface@@@ DD FLAT:??_R4R_dsgraph_structure@@6BIRender_interface@@@ ; R_dsgraph_structure::`vftable'
	DD	FLAT:__purecall
	DD	FLAT:__purecall
	DD	FLAT:__purecall
	DD	FLAT:__purecall
	DD	FLAT:__purecall
	DD	FLAT:__purecall
	DD	FLAT:__purecall
	DD	FLAT:__purecall
	DD	FLAT:__purecall
	DD	FLAT:?Statistics@IRender_interface@@UAEXPAVCGameFont@@@Z
	DD	FLAT:__purecall
	DD	FLAT:__purecall
	DD	FLAT:__purecall
	DD	FLAT:__purecall
	DD	FLAT:__purecall
	DD	FLAT:__purecall
	DD	FLAT:?set_Transform@R_dsgraph_structure@@UAEXPAU?$_matrix@M@@@Z
	DD	FLAT:?set_HUD@R_dsgraph_structure@@UAEXH@Z
	DD	FLAT:?get_HUD@R_dsgraph_structure@@UAEHXZ
	DD	FLAT:?set_Invisible@R_dsgraph_structure@@UAEXH@Z
	DD	FLAT:__purecall
	DD	FLAT:__purecall
	DD	FLAT:__purecall
	DD	FLAT:__purecall
	DD	FLAT:__purecall
	DD	FLAT:__purecall
	DD	FLAT:__purecall
	DD	FLAT:__purecall
	DD	FLAT:__purecall
	DD	FLAT:__purecall
	DD	FLAT:__purecall
	DD	FLAT:__purecall
	DD	FLAT:__purecall
	DD	FLAT:__purecall
	DD	FLAT:?light_destroy@IRender_interface@@UAEXPAVIRender_Light@@@Z
	DD	FLAT:__purecall
	DD	FLAT:?glow_destroy@IRender_interface@@UAEXPAVIRender_Glow@@@Z
	DD	FLAT:__purecall
	DD	FLAT:__purecall
	DD	FLAT:__purecall
	DD	FLAT:__purecall
	DD	FLAT:__purecall
	DD	FLAT:__purecall
	DD	FLAT:__purecall
	DD	FLAT:__purecall
	DD	FLAT:__purecall
	DD	FLAT:__purecall
	DD	FLAT:__purecall
	DD	FLAT:__purecall
	DD	FLAT:__purecall
	DD	FLAT:__purecall
	DD	FLAT:__purecall
	DD	FLAT:__purecall
	DD	FLAT:__purecall
	DD	FLAT:__purecall
	DD	FLAT:__purecall
	DD	FLAT:?memory_usage@R_dsgraph_structure@@UAEIXZ
	DD	FLAT:??_ER_dsgraph_structure@@UAEPAXI@Z
CONST	ENDS
;	COMDAT ??_R4R_dsgraph_structure@@6BIRender_interface@@@
rdata$r	SEGMENT
??_R4R_dsgraph_structure@@6BIRender_interface@@@ DD 00H	; R_dsgraph_structure::`RTTI Complete Object Locator'
	DD	00H
	DD	00H
	DD	FLAT:??_R0?AVR_dsgraph_structure@@@8
	DD	FLAT:??_R3R_dsgraph_structure@@8
rdata$r	ENDS
;	COMDAT ??_7CRender@@6BIRender_interface@@@
CONST	SEGMENT
??_7CRender@@6BIRender_interface@@@ DD FLAT:??_R4CRender@@6BIRender_interface@@@ ; CRender::`vftable'
	DD	FLAT:?get_generation@CRender@@UAE?AW4GenerationLevel@IRender_interface@@XZ
	DD	FLAT:?create@CRender@@UAEXXZ
	DD	FLAT:?destroy@CRender@@UAEXXZ
	DD	FLAT:?reset_begin@CRender@@UAEXXZ
	DD	FLAT:?reset_end@CRender@@UAEXXZ
	DD	FLAT:?level_Load@CRender@@UAEXPAVIReader@@@Z
	DD	FLAT:?level_Unload@CRender@@UAEXXZ
	DD	FLAT:?texture_load@CRender@@UAEPAUIDirect3DBaseTexture9@@PBDAAI@Z
	DD	FLAT:?shader_compile@CRender@@UAEJPBDPBKI00KAAPAX@Z
	DD	FLAT:?Statistics@CRender@@UAEXPAVCGameFont@@@Z
	DD	FLAT:?getShaderPath@CRender@@UAEPBDXZ
	DD	FLAT:?getShader@CRender@@UAE?AV?$resptr_core@UShader@@Uresptrcode_shader@@@@H@Z
	DD	FLAT:?getSector@CRender@@UAEPAVIRender_Sector@@H@Z
	DD	FLAT:?getVisual@CRender@@UAEPAVIRender_Visual@@H@Z
	DD	FLAT:?detectSector@CRender@@UAEPAVIRender_Sector@@ABU?$_vector3@M@@@Z
	DD	FLAT:?getTarget@CRender@@UAEPAVIRender_Target@@XZ
	DD	FLAT:?set_Transform@R_dsgraph_structure@@UAEXPAU?$_matrix@M@@@Z
	DD	FLAT:?set_HUD@R_dsgraph_structure@@UAEXH@Z
	DD	FLAT:?get_HUD@R_dsgraph_structure@@UAEHXZ
	DD	FLAT:?set_Invisible@R_dsgraph_structure@@UAEXH@Z
	DD	FLAT:?flush@CRender@@UAEXXZ
	DD	FLAT:?set_Object@CRender@@UAEXPAVIRenderable@@@Z
	DD	FLAT:?add_Occluder@CRender@@UAEXAAV?$_box2@M@@@Z
	DD	FLAT:?add_Visual@CRender@@UAEXPAVIRender_Visual@@@Z
	DD	FLAT:?add_Geometry@CRender@@UAEXPAVIRender_Visual@@@Z
	DD	FLAT:?add_StaticWallmark@CRender@@UAEXAAV?$resptr_core@UShader@@Uresptrcode_shader@@@@ABU?$_vector3@M@@MPAVTRI@CDB@@PAU3@@Z
	DD	FLAT:?clear_static_wallmarks@CRender@@UAEXXZ
	DD	FLAT:?add_SkeletonWallmark@CRender@@UAEXPBU?$_matrix@M@@PAVCKinematics@@AAV?$resptr_core@UShader@@Uresptrcode_shader@@@@ABU?$_vector3@M@@3M@Z
	DD	FLAT:?add_SkeletonWallmark@CRender@@UAEXV?$intrusive_ptr@VCSkeletonWallmark@@Uintrusive_base@@@@@Z
	DD	FLAT:?blender_create@CRender@@UAEPAVIBlender@@_K@Z
	DD	FLAT:?blender_destroy@CRender@@UAEXAAPAVIBlender@@@Z
	DD	FLAT:?ros_create@CRender@@UAEPAVIRender_ObjectSpecific@@PAVIRenderable@@@Z
	DD	FLAT:?ros_destroy@CRender@@UAEXAAPAVIRender_ObjectSpecific@@@Z
	DD	FLAT:?light_create@CRender@@UAEPAVIRender_Light@@XZ
	DD	FLAT:?light_destroy@IRender_interface@@UAEXPAVIRender_Light@@@Z
	DD	FLAT:?glow_create@CRender@@UAEPAVIRender_Glow@@XZ
	DD	FLAT:?glow_destroy@IRender_interface@@UAEXPAVIRender_Glow@@@Z
	DD	FLAT:?model_CreateParticles@CRender@@UAEPAVIRender_Visual@@PBD@Z
	DD	FLAT:?model_CreateDM@CRender@@UAEPAVIRender_DetailModel@@PAVIReader@@@Z
	DD	FLAT:?model_Create@CRender@@UAEPAVIRender_Visual@@PBDPAVIReader@@@Z
	DD	FLAT:?model_CreateChild@CRender@@UAEPAVIRender_Visual@@PBDPAVIReader@@@Z
	DD	FLAT:?model_Duplicate@CRender@@UAEPAVIRender_Visual@@PAV2@@Z
	DD	FLAT:?model_Delete@CRender@@UAEXAAPAVIRender_DetailModel@@@Z
	DD	FLAT:?model_Delete@CRender@@UAEXAAPAVIRender_Visual@@H@Z
	DD	FLAT:?model_Logging@CRender@@UAEXH@Z
	DD	FLAT:?models_Prefetch@CRender@@UAEXXZ
	DD	FLAT:?models_Clear@CRender@@UAEXH@Z
	DD	FLAT:?occ_visible@CRender@@UAEHAAV?$svector@U?$_vector3@M@@$0DA@@@@Z
	DD	FLAT:?occ_visible@CRender@@UAEHAAV?$_box3@M@@@Z
	DD	FLAT:?occ_visible@CRender@@UAEHAAUvis_data@@@Z
	DD	FLAT:?Calculate@CRender@@UAEXXZ
	DD	FLAT:?Render@CRender@@UAEXXZ
	DD	FLAT:?Screenshot@CRender@@UAEXW4ScreenshotMode@IRender_interface@@PBD@Z
	DD	FLAT:?rmNear@CRender@@UAEXXZ
	DD	FLAT:?rmFar@CRender@@UAEXXZ
	DD	FLAT:?rmNormal@CRender@@UAEXXZ
	DD	FLAT:?memory_usage@R_dsgraph_structure@@UAEIXZ
	DD	FLAT:??_ECRender@@UAEPAXI@Z
	DD	FLAT:?ps_library@CRender@@UAEPAVCPSLibrary@@XZ
CONST	ENDS
;	COMDAT ??_7CRender@@6BpureFrame@@@
CONST	SEGMENT
??_7CRender@@6BpureFrame@@@ DD FLAT:??_R4CRender@@6BpureFrame@@@ ; CRender::`vftable'
	DD	FLAT:?OnFrame@CRender@@UAEXXZ
CONST	ENDS
;	COMDAT ??_7cl_light_PR@@6B@
CONST	SEGMENT
??_7cl_light_PR@@6B@ DD FLAT:??_R4cl_light_PR@@6B@	; cl_light_PR::`vftable'
	DD	FLAT:?setup@cl_light_PR@@EAEXPAUR_constant@@@Z
CONST	ENDS
;	COMDAT ??_7cl_light_C@@6B@
CONST	SEGMENT
??_7cl_light_C@@6B@ DD FLAT:??_R4cl_light_C@@6B@	; cl_light_C::`vftable'
	DD	FLAT:?setup@cl_light_C@@EAEXPAUR_constant@@@Z
CONST	ENDS
;	COMDAT ??_7cl_light_XFORM@@6B@
CONST	SEGMENT
??_7cl_light_XFORM@@6B@ DD FLAT:??_R4cl_light_XFORM@@6B@ ; cl_light_XFORM::`vftable'
	DD	FLAT:?setup@cl_light_XFORM@@EAEXPAUR_constant@@@Z
CONST	ENDS
;	COMDAT ??_R0?AVCGlow@@@8
data$r	SEGMENT
??_R0?AVCGlow@@@8 DD FLAT:??_7type_info@@6B@		; CGlow `RTTI Type Descriptor'
	DD	00H
	DB	'.?AVCGlow@@', 00H
data$r	ENDS
;	COMDAT ??_C@_00CNPNBAHC@@
CONST	SEGMENT
??_C@_00CNPNBAHC@@ DB 00H				; `string'
CONST	ENDS
;	COMDAT ??_C@_01HIHLOKLC@1@
CONST	SEGMENT
??_C@_01HIHLOKLC@1@ DB '1', 00H				; `string'
CONST	ENDS
;	COMDAT __TI3?AVbad_array_new_length@std@@
xdata$x	SEGMENT
__TI3?AVbad_array_new_length@std@@ DD 00H
	DD	FLAT:??1bad_array_new_length@std@@UAE@XZ
	DD	00H
	DD	FLAT:__CTA3?AVbad_array_new_length@std@@
xdata$x	ENDS
;	COMDAT __CTA3?AVbad_array_new_length@std@@
xdata$x	SEGMENT
__CTA3?AVbad_array_new_length@std@@ DD 03H
	DD	FLAT:__CT??_R0?AVbad_array_new_length@std@@@8??0bad_array_new_length@std@@QAE@ABV01@@Z12
	DD	FLAT:__CT??_R0?AVbad_alloc@std@@@8??0bad_alloc@std@@QAE@ABV01@@Z12
	DD	FLAT:__CT??_R0?AVexception@std@@@8??0exception@std@@QAE@ABV01@@Z12
xdata$x	ENDS
;	COMDAT __CT??_R0?AVexception@std@@@8??0exception@std@@QAE@ABV01@@Z12
xdata$x	SEGMENT
__CT??_R0?AVexception@std@@@8??0exception@std@@QAE@ABV01@@Z12 DD 00H
	DD	FLAT:??_R0?AVexception@std@@@8
	DD	00H
	DD	0ffffffffH
	ORG $+4
	DD	0cH
	DD	FLAT:??0exception@std@@QAE@ABV01@@Z
xdata$x	ENDS
;	COMDAT ??_7exception@std@@6B@
CONST	SEGMENT
??_7exception@std@@6B@ DD FLAT:??_R4exception@std@@6B@	; std::exception::`vftable'
	DD	FLAT:??_Eexception@std@@UAEPAXI@Z
	DD	FLAT:?what@exception@std@@UBEPBDXZ
CONST	ENDS
;	COMDAT ??_C@_0BC@EOODALEL@Unknown?5exception@
CONST	SEGMENT
??_C@_0BC@EOODALEL@Unknown?5exception@ DB 'Unknown exception', 00H ; `string'
CONST	ENDS
;	COMDAT ??_R4exception@std@@6B@
rdata$r	SEGMENT
??_R4exception@std@@6B@ DD 00H				; std::exception::`RTTI Complete Object Locator'
	DD	00H
	DD	00H
	DD	FLAT:??_R0?AVexception@std@@@8
	DD	FLAT:??_R3exception@std@@8
rdata$r	ENDS
;	COMDAT ??_R3exception@std@@8
rdata$r	SEGMENT
??_R3exception@std@@8 DD 00H				; std::exception::`RTTI Class Hierarchy Descriptor'
	DD	00H
	DD	01H
	DD	FLAT:??_R2exception@std@@8
rdata$r	ENDS
;	COMDAT ??_R2exception@std@@8
rdata$r	SEGMENT
??_R2exception@std@@8 DD FLAT:??_R1A@?0A@EA@exception@std@@8 ; std::exception::`RTTI Base Class Array'
rdata$r	ENDS
;	COMDAT ??_R1A@?0A@EA@exception@std@@8
rdata$r	SEGMENT
??_R1A@?0A@EA@exception@std@@8 DD FLAT:??_R0?AVexception@std@@@8 ; std::exception::`RTTI Base Class Descriptor at (0,-1,0,64)'
	DD	00H
	DD	00H
	DD	0ffffffffH
	DD	00H
	DD	040H
	DD	FLAT:??_R3exception@std@@8
rdata$r	ENDS
;	COMDAT ??_R0?AVexception@std@@@8
data$r	SEGMENT
??_R0?AVexception@std@@@8 DD FLAT:??_7type_info@@6B@	; std::exception `RTTI Type Descriptor'
	DD	00H
	DB	'.?AVexception@std@@', 00H
data$r	ENDS
;	COMDAT __CT??_R0?AVbad_alloc@std@@@8??0bad_alloc@std@@QAE@ABV01@@Z12
xdata$x	SEGMENT
__CT??_R0?AVbad_alloc@std@@@8??0bad_alloc@std@@QAE@ABV01@@Z12 DD 010H
	DD	FLAT:??_R0?AVbad_alloc@std@@@8
	DD	00H
	DD	0ffffffffH
	ORG $+4
	DD	0cH
	DD	FLAT:??0bad_alloc@std@@QAE@ABV01@@Z
xdata$x	ENDS
;	COMDAT ??_7bad_alloc@std@@6B@
CONST	SEGMENT
??_7bad_alloc@std@@6B@ DD FLAT:??_R4bad_alloc@std@@6B@	; std::bad_alloc::`vftable'
	DD	FLAT:??_Ebad_alloc@std@@UAEPAXI@Z
	DD	FLAT:?what@exception@std@@UBEPBDXZ
CONST	ENDS
;	COMDAT ??_R4bad_alloc@std@@6B@
rdata$r	SEGMENT
??_R4bad_alloc@std@@6B@ DD 00H				; std::bad_alloc::`RTTI Complete Object Locator'
	DD	00H
	DD	00H
	DD	FLAT:??_R0?AVbad_alloc@std@@@8
	DD	FLAT:??_R3bad_alloc@std@@8
rdata$r	ENDS
;	COMDAT ??_R3bad_alloc@std@@8
rdata$r	SEGMENT
??_R3bad_alloc@std@@8 DD 00H				; std::bad_alloc::`RTTI Class Hierarchy Descriptor'
	DD	00H
	DD	02H
	DD	FLAT:??_R2bad_alloc@std@@8
rdata$r	ENDS
;	COMDAT ??_R2bad_alloc@std@@8
rdata$r	SEGMENT
??_R2bad_alloc@std@@8 DD FLAT:??_R1A@?0A@EA@bad_alloc@std@@8 ; std::bad_alloc::`RTTI Base Class Array'
	DD	FLAT:??_R1A@?0A@EA@exception@std@@8
rdata$r	ENDS
;	COMDAT ??_R1A@?0A@EA@bad_alloc@std@@8
rdata$r	SEGMENT
??_R1A@?0A@EA@bad_alloc@std@@8 DD FLAT:??_R0?AVbad_alloc@std@@@8 ; std::bad_alloc::`RTTI Base Class Descriptor at (0,-1,0,64)'
	DD	01H
	DD	00H
	DD	0ffffffffH
	DD	00H
	DD	040H
	DD	FLAT:??_R3bad_alloc@std@@8
rdata$r	ENDS
;	COMDAT ??_R0?AVbad_alloc@std@@@8
data$r	SEGMENT
??_R0?AVbad_alloc@std@@@8 DD FLAT:??_7type_info@@6B@	; std::bad_alloc `RTTI Type Descriptor'
	DD	00H
	DB	'.?AVbad_alloc@std@@', 00H
data$r	ENDS
;	COMDAT __CT??_R0?AVbad_array_new_length@std@@@8??0bad_array_new_length@std@@QAE@ABV01@@Z12
xdata$x	SEGMENT
__CT??_R0?AVbad_array_new_length@std@@@8??0bad_array_new_length@std@@QAE@ABV01@@Z12 DD 00H
	DD	FLAT:??_R0?AVbad_array_new_length@std@@@8
	DD	00H
	DD	0ffffffffH
	ORG $+4
	DD	0cH
	DD	FLAT:??0bad_array_new_length@std@@QAE@ABV01@@Z
xdata$x	ENDS
;	COMDAT ??_7bad_array_new_length@std@@6B@
CONST	SEGMENT
??_7bad_array_new_length@std@@6B@ DD FLAT:??_R4bad_array_new_length@std@@6B@ ; std::bad_array_new_length::`vftable'
	DD	FLAT:??_Ebad_array_new_length@std@@UAEPAXI@Z
	DD	FLAT:?what@exception@std@@UBEPBDXZ
CONST	ENDS
;	COMDAT ??_R4bad_array_new_length@std@@6B@
rdata$r	SEGMENT
??_R4bad_array_new_length@std@@6B@ DD 00H		; std::bad_array_new_length::`RTTI Complete Object Locator'
	DD	00H
	DD	00H
	DD	FLAT:??_R0?AVbad_array_new_length@std@@@8
	DD	FLAT:??_R3bad_array_new_length@std@@8
rdata$r	ENDS
;	COMDAT ??_R3bad_array_new_length@std@@8
rdata$r	SEGMENT
??_R3bad_array_new_length@std@@8 DD 00H			; std::bad_array_new_length::`RTTI Class Hierarchy Descriptor'
	DD	00H
	DD	03H
	DD	FLAT:??_R2bad_array_new_length@std@@8
rdata$r	ENDS
;	COMDAT ??_R2bad_array_new_length@std@@8
rdata$r	SEGMENT
??_R2bad_array_new_length@std@@8 DD FLAT:??_R1A@?0A@EA@bad_array_new_length@std@@8 ; std::bad_array_new_length::`RTTI Base Class Array'
	DD	FLAT:??_R1A@?0A@EA@bad_alloc@std@@8
	DD	FLAT:??_R1A@?0A@EA@exception@std@@8
rdata$r	ENDS
;	COMDAT ??_R1A@?0A@EA@bad_array_new_length@std@@8
rdata$r	SEGMENT
??_R1A@?0A@EA@bad_array_new_length@std@@8 DD FLAT:??_R0?AVbad_array_new_length@std@@@8 ; std::bad_array_new_length::`RTTI Base Class Descriptor at (0,-1,0,64)'
	DD	02H
	DD	00H
	DD	0ffffffffH
	DD	00H
	DD	040H
	DD	FLAT:??_R3bad_array_new_length@std@@8
rdata$r	ENDS
;	COMDAT ??_R0?AVbad_array_new_length@std@@@8
data$r	SEGMENT
??_R0?AVbad_array_new_length@std@@@8 DD FLAT:??_7type_info@@6B@ ; std::bad_array_new_length `RTTI Type Descriptor'
	DD	00H
	DB	'.?AVbad_array_new_length@std@@', 00H
data$r	ENDS
;	COMDAT ??_C@_0BF@KINCDENJ@bad?5array?5new?5length@
CONST	SEGMENT
??_C@_0BF@KINCDENJ@bad?5array?5new?5length@ DB 'bad array new length', 00H ; `string'
CONST	ENDS
;	COMDAT ??_C@_0BA@JFNIOLAK@string?5too?5long@
CONST	SEGMENT
??_C@_0BA@JFNIOLAK@string?5too?5long@ DB 'string too long', 00H ; `string'
CONST	ENDS
;	COMDAT ??_7includer@@6B@
CONST	SEGMENT
??_7includer@@6B@ DD FLAT:??_R4includer@@6B@		; includer::`vftable'
	DD	FLAT:?Open@includer@@UAGJW4_D3DXINCLUDE_TYPE@@PBDPBXPAPBXPAI@Z
	DD	FLAT:?Close@includer@@UAGJPBX@Z
CONST	ENDS
;	COMDAT ??_R4CRender@@6BIRender_interface@@@
rdata$r	SEGMENT
??_R4CRender@@6BIRender_interface@@@ DD 00H		; CRender::`RTTI Complete Object Locator'
	DD	00H
	DD	00H
	DD	FLAT:??_R0?AVCRender@@@8
	DD	FLAT:??_R3CRender@@8
rdata$r	ENDS
;	COMDAT ??_C@_03CMCKNFAL@r1?2@
CONST	SEGMENT
??_C@_03CMCKNFAL@r1?2@ DB 'r1\', 00H			; `string'
CONST	ENDS
;	COMDAT ??_R4CRender@@6BpureFrame@@@
rdata$r	SEGMENT
??_R4CRender@@6BpureFrame@@@ DD 00H			; CRender::`RTTI Complete Object Locator'
	DD	0100H
	DD	00H
	DD	FLAT:??_R0?AVCRender@@@8
	DD	FLAT:??_R3CRender@@8
rdata$r	ENDS
;	COMDAT ??_R4cl_light_PR@@6B@
rdata$r	SEGMENT
??_R4cl_light_PR@@6B@ DD 00H				; cl_light_PR::`RTTI Complete Object Locator'
	DD	00H
	DD	00H
	DD	FLAT:??_R0?AVcl_light_PR@@@8
	DD	FLAT:??_R3cl_light_PR@@8
rdata$r	ENDS
;	COMDAT ??_R4cl_light_C@@6B@
rdata$r	SEGMENT
??_R4cl_light_C@@6B@ DD 00H				; cl_light_C::`RTTI Complete Object Locator'
	DD	00H
	DD	00H
	DD	FLAT:??_R0?AVcl_light_C@@@8
	DD	FLAT:??_R3cl_light_C@@8
rdata$r	ENDS
;	COMDAT ??_R4cl_light_XFORM@@6B@
rdata$r	SEGMENT
??_R4cl_light_XFORM@@6B@ DD 00H				; cl_light_XFORM::`RTTI Complete Object Locator'
	DD	00H
	DD	00H
	DD	FLAT:??_R0?AVcl_light_XFORM@@@8
	DD	FLAT:??_R3cl_light_XFORM@@8
rdata$r	ENDS
;	COMDAT ??_R4includer@@6B@
rdata$r	SEGMENT
??_R4includer@@6B@ DD 00H				; includer::`RTTI Complete Object Locator'
	DD	00H
	DD	00H
	DD	FLAT:??_R0?AVincluder@@@8
	DD	FLAT:??_R3includer@@8
rdata$r	ENDS
;	COMDAT ??_R0?AUID3DXInclude@@@8
data$rs	SEGMENT
??_R0?AUID3DXInclude@@@8 DD FLAT:??_7type_info@@6B@	; ID3DXInclude `RTTI Type Descriptor'
	DD	00H
	DB	'.?AUID3DXInclude@@', 00H
data$rs	ENDS
;	COMDAT ??_R3ID3DXInclude@@8
rdata$r	SEGMENT
??_R3ID3DXInclude@@8 DD 00H				; ID3DXInclude::`RTTI Class Hierarchy Descriptor'
	DD	00H
	DD	01H
	DD	FLAT:??_R2ID3DXInclude@@8
rdata$r	ENDS
;	COMDAT ??_R0?AVCRender@@@8
data$rs	SEGMENT
??_R0?AVCRender@@@8 DD FLAT:??_7type_info@@6B@		; CRender `RTTI Type Descriptor'
	DD	00H
	DB	'.?AVCRender@@', 00H
data$rs	ENDS
;	COMDAT ??_R3CRender@@8
rdata$r	SEGMENT
??_R3CRender@@8 DD 00H					; CRender::`RTTI Class Hierarchy Descriptor'
	DD	01H
	DD	04H
	DD	FLAT:??_R2CRender@@8
rdata$r	ENDS
;	COMDAT ??_R0?AVcl_light_PR@@@8
data$rs	SEGMENT
??_R0?AVcl_light_PR@@@8 DD FLAT:??_7type_info@@6B@	; cl_light_PR `RTTI Type Descriptor'
	DD	00H
	DB	'.?AVcl_light_PR@@', 00H
data$rs	ENDS
;	COMDAT ??_R3cl_light_PR@@8
rdata$r	SEGMENT
??_R3cl_light_PR@@8 DD 00H				; cl_light_PR::`RTTI Class Hierarchy Descriptor'
	DD	00H
	DD	02H
	DD	FLAT:??_R2cl_light_PR@@8
rdata$r	ENDS
;	COMDAT ??_R0?AVR_constant_setup@@@8
data$rs	SEGMENT
??_R0?AVR_constant_setup@@@8 DD FLAT:??_7type_info@@6B@	; R_constant_setup `RTTI Type Descriptor'
	DD	00H
	DB	'.?AVR_constant_setup@@', 00H
data$rs	ENDS
;	COMDAT ??_R3R_constant_setup@@8
rdata$r	SEGMENT
??_R3R_constant_setup@@8 DD 00H				; R_constant_setup::`RTTI Class Hierarchy Descriptor'
	DD	00H
	DD	01H
	DD	FLAT:??_R2R_constant_setup@@8
rdata$r	ENDS
;	COMDAT ??_R0?AVcl_light_C@@@8
data$rs	SEGMENT
??_R0?AVcl_light_C@@@8 DD FLAT:??_7type_info@@6B@	; cl_light_C `RTTI Type Descriptor'
	DD	00H
	DB	'.?AVcl_light_C@@', 00H
data$rs	ENDS
;	COMDAT ??_R3cl_light_C@@8
rdata$r	SEGMENT
??_R3cl_light_C@@8 DD 00H				; cl_light_C::`RTTI Class Hierarchy Descriptor'
	DD	00H
	DD	02H
	DD	FLAT:??_R2cl_light_C@@8
rdata$r	ENDS
;	COMDAT ??_R0?AVcl_light_XFORM@@@8
data$rs	SEGMENT
??_R0?AVcl_light_XFORM@@@8 DD FLAT:??_7type_info@@6B@	; cl_light_XFORM `RTTI Type Descriptor'
	DD	00H
	DB	'.?AVcl_light_XFORM@@', 00H
data$rs	ENDS
;	COMDAT ??_R3cl_light_XFORM@@8
rdata$r	SEGMENT
??_R3cl_light_XFORM@@8 DD 00H				; cl_light_XFORM::`RTTI Class Hierarchy Descriptor'
	DD	00H
	DD	02H
	DD	FLAT:??_R2cl_light_XFORM@@8
rdata$r	ENDS
;	COMDAT ??_R0?AVincluder@@@8
data$rs	SEGMENT
??_R0?AVincluder@@@8 DD FLAT:??_7type_info@@6B@		; includer `RTTI Type Descriptor'
	DD	00H
	DB	'.?AVincluder@@', 00H
data$rs	ENDS
;	COMDAT ??_R3includer@@8
rdata$r	SEGMENT
??_R3includer@@8 DD 00H					; includer::`RTTI Class Hierarchy Descriptor'
	DD	00H
	DD	02H
	DD	FLAT:??_R2includer@@8
rdata$r	ENDS
;	COMDAT ??_R1A@?0A@EA@ID3DXInclude@@8
rdata$r	SEGMENT
??_R1A@?0A@EA@ID3DXInclude@@8 DD FLAT:??_R0?AUID3DXInclude@@@8 ; ID3DXInclude::`RTTI Base Class Descriptor at (0,-1,0,64)'
	DD	00H
	DD	00H
	DD	0ffffffffH
	DD	00H
	DD	040H
	DD	FLAT:??_R3ID3DXInclude@@8
rdata$r	ENDS
;	COMDAT ??_R1A@?0A@EA@CRender@@8
rdata$r	SEGMENT
??_R1A@?0A@EA@CRender@@8 DD FLAT:??_R0?AVCRender@@@8	; CRender::`RTTI Base Class Descriptor at (0,-1,0,64)'
	DD	03H
	DD	00H
	DD	0ffffffffH
	DD	00H
	DD	040H
	DD	FLAT:??_R3CRender@@8
rdata$r	ENDS
;	COMDAT ??_R1A@?0A@EA@R_constant_setup@@8
rdata$r	SEGMENT
??_R1A@?0A@EA@R_constant_setup@@8 DD FLAT:??_R0?AVR_constant_setup@@@8 ; R_constant_setup::`RTTI Base Class Descriptor at (0,-1,0,64)'
	DD	00H
	DD	00H
	DD	0ffffffffH
	DD	00H
	DD	040H
	DD	FLAT:??_R3R_constant_setup@@8
rdata$r	ENDS
;	COMDAT ??_R1A@?0A@EA@cl_light_PR@@8
rdata$r	SEGMENT
??_R1A@?0A@EA@cl_light_PR@@8 DD FLAT:??_R0?AVcl_light_PR@@@8 ; cl_light_PR::`RTTI Base Class Descriptor at (0,-1,0,64)'
	DD	01H
	DD	00H
	DD	0ffffffffH
	DD	00H
	DD	040H
	DD	FLAT:??_R3cl_light_PR@@8
rdata$r	ENDS
;	COMDAT ??_R1A@?0A@EA@cl_light_C@@8
rdata$r	SEGMENT
??_R1A@?0A@EA@cl_light_C@@8 DD FLAT:??_R0?AVcl_light_C@@@8 ; cl_light_C::`RTTI Base Class Descriptor at (0,-1,0,64)'
	DD	01H
	DD	00H
	DD	0ffffffffH
	DD	00H
	DD	040H
	DD	FLAT:??_R3cl_light_C@@8
rdata$r	ENDS
;	COMDAT ??_R1A@?0A@EA@cl_light_XFORM@@8
rdata$r	SEGMENT
??_R1A@?0A@EA@cl_light_XFORM@@8 DD FLAT:??_R0?AVcl_light_XFORM@@@8 ; cl_light_XFORM::`RTTI Base Class Descriptor at (0,-1,0,64)'
	DD	01H
	DD	00H
	DD	0ffffffffH
	DD	00H
	DD	040H
	DD	FLAT:??_R3cl_light_XFORM@@8
rdata$r	ENDS
;	COMDAT ??_R1A@?0A@EA@includer@@8
rdata$r	SEGMENT
??_R1A@?0A@EA@includer@@8 DD FLAT:??_R0?AVincluder@@@8	; includer::`RTTI Base Class Descriptor at (0,-1,0,64)'
	DD	01H
	DD	00H
	DD	0ffffffffH
	DD	00H
	DD	040H
	DD	FLAT:??_R3includer@@8
rdata$r	ENDS
;	COMDAT ??_R2ID3DXInclude@@8
rdata$r	SEGMENT
??_R2ID3DXInclude@@8 DD FLAT:??_R1A@?0A@EA@ID3DXInclude@@8 ; ID3DXInclude::`RTTI Base Class Array'
rdata$r	ENDS
;	COMDAT ??_R2CRender@@8
rdata$r	SEGMENT
??_R2CRender@@8 DD FLAT:??_R1A@?0A@EA@CRender@@8	; CRender::`RTTI Base Class Array'
	DD	FLAT:??_R1A@?0A@EA@R_dsgraph_structure@@8
	DD	FLAT:??_R1A@?0A@EA@IRender_interface@@8
	DD	FLAT:??_R1BAA@?0A@EA@pureFrame@@8
rdata$r	ENDS
;	COMDAT ??_R2R_constant_setup@@8
rdata$r	SEGMENT
??_R2R_constant_setup@@8 DD FLAT:??_R1A@?0A@EA@R_constant_setup@@8 ; R_constant_setup::`RTTI Base Class Array'
rdata$r	ENDS
;	COMDAT ??_R2cl_light_PR@@8
rdata$r	SEGMENT
??_R2cl_light_PR@@8 DD FLAT:??_R1A@?0A@EA@cl_light_PR@@8 ; cl_light_PR::`RTTI Base Class Array'
	DD	FLAT:??_R1A@?0A@EA@R_constant_setup@@8
rdata$r	ENDS
;	COMDAT ??_R2cl_light_C@@8
rdata$r	SEGMENT
??_R2cl_light_C@@8 DD FLAT:??_R1A@?0A@EA@cl_light_C@@8	; cl_light_C::`RTTI Base Class Array'
	DD	FLAT:??_R1A@?0A@EA@R_constant_setup@@8
rdata$r	ENDS
;	COMDAT ??_R2cl_light_XFORM@@8
rdata$r	SEGMENT
??_R2cl_light_XFORM@@8 DD FLAT:??_R1A@?0A@EA@cl_light_XFORM@@8 ; cl_light_XFORM::`RTTI Base Class Array'
	DD	FLAT:??_R1A@?0A@EA@R_constant_setup@@8
rdata$r	ENDS
;	COMDAT ??_R2includer@@8
rdata$r	SEGMENT
??_R2includer@@8 DD FLAT:??_R1A@?0A@EA@includer@@8	; includer::`RTTI Base Class Array'
	DD	FLAT:??_R1A@?0A@EA@ID3DXInclude@@8
rdata$r	ENDS
;	COMDAT ??_C@_0CF@MFPDANGH@full_shader_id_length?5?$DN?$DN?5mask_l@
CONST	SEGMENT
??_C@_0CF@MFPDANGH@full_shader_id_length?5?$DN?$DN?5mask_l@ DB 'full_shad'
	DB	'er_id_length == mask_length', 00H		; `string'
CONST	ENDS
;	COMDAT ??_C@_0CE@HAHBDCPG@bad?5cache?5for?5shader?5?$CFs?0?5?$FL?$CFs?$FN?0?5@
CONST	SEGMENT
??_C@_0CE@HAHBDCPG@bad?5cache?5for?5shader?5?$CFs?0?5?$FL?$CFs?$FN?0?5@ DB 'b'
	DB	'ad cache for shader %s, [%s], [%s]', 00H	; `string'
CONST	ENDS
;	COMDAT ??_C@_0N@GPBBBEHJ@match_shader@
CONST	SEGMENT
??_C@_0N@GPBBBEHJ@match_shader@ DB 'match_shader', 00H	; `string'
CONST	ENDS
;	COMDAT ??_C@_0BP@CEIAODPN@Can?8t?5compile?5shader?5hr?$DN0x?$CF08x@
CONST	SEGMENT
??_C@_0BP@CEIAODPN@Can?8t?5compile?5shader?5hr?$DN0x?$CF08x@ DB 'Can''t c'
	DB	'ompile shader hr=0x%08x', 00H		; `string'
CONST	ENDS
;	COMDAT ??_C@_09EFHBAOK@?$CB?5Error?3?5@
CONST	SEGMENT
??_C@_09EFHBAOK@?$CB?5Error?3?5@ DB '! Error: ', 00H	; `string'
CONST	ENDS
;	COMDAT ??_C@_0BD@DCAGGEAG@SUCCEEDED?$CI_result?$CJ@
CONST	SEGMENT
??_C@_0BD@DCAGGEAG@SUCCEEDED?$CI_result?$CJ@ DB 'SUCCEEDED(_result)', 00H ; `string'
CONST	ENDS
;	COMDAT ??_C@_0BP@OMCFLODH@?$CB?5Can?8t?5compile?5shader?3?5?$CFs?0?5?$CFs@
CONST	SEGMENT
??_C@_0BP@OMCFLODH@?$CB?5Can?8t?5compile?5shader?3?5?$CFs?0?5?$CFs@ DB '!'
	DB	' Can''t compile shader: %s, %s', 00H	; `string'
CONST	ENDS
;	COMDAT ??_C@_0M@LHHOJELD@?$CB?5Warning?3?5@
CONST	SEGMENT
??_C@_0M@LHHOJELD@?$CB?5Warning?3?5@ DB '! Warning: ', 00H ; `string'
CONST	ENDS
;	COMDAT ??_C@_02KMLFCOJI@?$CB?5@
CONST	SEGMENT
??_C@_02KMLFCOJI@?$CB?5@ DB '! ', 00H			; `string'
CONST	ENDS
;	COMDAT ??_C@_0BC@NLGOMJHG@shaders_cache?2r1?2@
CONST	SEGMENT
??_C@_0BC@NLGOMJHG@shaders_cache?2r1?2@ DB 'shaders_cache\r1\', 00H ; `string'
CONST	ENDS
;	COMDAT ??_C@_01NBENCBCI@?$CK@
CONST	SEGMENT
??_C@_01NBENCBCI@?$CK@ DB '*', 00H			; `string'
CONST	ENDS
;	COMDAT ??_C@_01KICIPPFI@?2@
CONST	SEGMENT
??_C@_01KICIPPFI@?2@ DB '\', 00H			; `string'
CONST	ENDS
;	COMDAT ??_C@_01LFCBOECM@?4@
CONST	SEGMENT
??_C@_01LFCBOECM@?4@ DB '.', 00H			; `string'
CONST	ENDS
;	COMDAT ??_C@_0M@MCOCEOGP@objects?2r1?2@
CONST	SEGMENT
??_C@_0M@MCOCEOGP@objects?2r1?2@ DB 'objects\r1\', 00H	; `string'
CONST	ENDS
;	COMDAT ??_C@_0N@KDLHPIAJ@def_it?5?$DM?5128@
CONST	SEGMENT
??_C@_0N@KDLHPIAJ@def_it?5?$DM?5128@ DB 'def_it < 128', 00H ; `string'
CONST	ENDS
;	COMDAT ??_C@_0BI@NLEBJGLM@CRender?3?3shader_compile@
CONST	SEGMENT
??_C@_0BI@NLEBJGLM@CRender?3?3shader_compile@ DB 'CRender::shader_compile'
	DB	00H						; `string'
CONST	ENDS
;	COMDAT ??_C@_06LBIJABMO@SKIN_2@
CONST	SEGMENT
??_C@_06LBIJABMO@SKIN_2@ DB 'SKIN_2', 00H		; `string'
CONST	ENDS
;	COMDAT ??_C@_06JKKEFCAN@SKIN_1@
CONST	SEGMENT
??_C@_06JKKEFCAN@SKIN_1@ DB 'SKIN_1', 00H		; `string'
CONST	ENDS
;	COMDAT ??_C@_06IDLPGDEM@SKIN_0@
CONST	SEGMENT
??_C@_06IDLPGDEM@SKIN_0@ DB 'SKIN_0', 00H		; `string'
CONST	ENDS
;	COMDAT ??_C@_09BOBBOPBB@SKIN_NONE@
CONST	SEGMENT
??_C@_09BOBBOPBB@SKIN_NONE@ DB 'SKIN_NONE', 00H		; `string'
CONST	ENDS
;	COMDAT ??_C@_0L@PJCDFAEI@SKIN_COLOR@
CONST	SEGMENT
??_C@_0L@PJCDFAEI@SKIN_COLOR@ DB 'SKIN_COLOR', 00H	; `string'
CONST	ENDS
;	COMDAT ??_C@_0BA@BDJNLMJI@$app_data_root$@
CONST	SEGMENT
??_C@_0BA@BDJNLMJI@$app_data_root$@ DB '$app_data_root$', 00H ; `string'
CONST	ENDS
;	COMDAT ??_C@_07NGDNODCK@disasm?2@
CONST	SEGMENT
??_C@_07NGDNODCK@disasm?2@ DB 'disasm\', 00H		; `string'
CONST	ENDS
;	COMDAT ??_C@_03MOLFLKIL@?4ps@
CONST	SEGMENT
??_C@_03MOLFLKIL@?4ps@ DB '.ps', 00H			; `string'
CONST	ENDS
;	COMDAT ??_C@_03MKDIMGDJ@?4vs@
CONST	SEGMENT
??_C@_03MKDIMGDJ@?4vs@ DB '.vs', 00H			; `string'
CONST	ENDS
;	COMDAT ??_C@_06NOGGMJFM@?$CB?5VS?3?5@
CONST	SEGMENT
??_C@_06NOGGMJFM@?$CB?5VS?3?5@ DB '! VS: ', 00H		; `string'
CONST	ENDS
;	COMDAT ??_C@_0CF@PIPNAOIB@?$CB?5D3DXFindShaderComment?5hr?5?$DN?$DN?50@
CONST	SEGMENT
??_C@_0CF@PIPNAOIB@?$CB?5D3DXFindShaderComment?5hr?5?$DN?$DN?50@ DB '! D3'
	DB	'DXFindShaderComment hr == 0x%08x', 00H	; `string'
CONST	ENDS
;	COMDAT ??_C@_0CB@LMOENIDG@?$CB?5CreatePixelShader?5hr?5?$DN?$DN?50x?$CF08@
CONST	SEGMENT
??_C@_0CB@LMOENIDG@?$CB?5CreatePixelShader?5hr?5?$DN?$DN?50x?$CF08@ DB '!'
	DB	' CreatePixelShader hr == 0x%08x', 00H	; `string'
CONST	ENDS
;	COMDAT ??_C@_06FBCGDMPM@?$CB?5PS?3?5@
CONST	SEGMENT
??_C@_06FBCGDMPM@?$CB?5PS?3?5@ DB '! PS: ', 00H		; `string'
CONST	ENDS
;	COMDAT ??_C@_0P@IMLOOCAI@$game_shaders$@
CONST	SEGMENT
??_C@_0P@IMLOOCAI@$game_shaders$@ DB '$game_shaders$', 00H ; `string'
CONST	ENDS
;	COMDAT ??_C@_0O@CFLPMGDN@?5culled?5?3?5?$CF2d@
CONST	SEGMENT
??_C@_0O@CFLPMGDN@?5culled?5?3?5?$CF2d@ DB ' culled : %2d', 00H ; `string'
CONST	ENDS
;	COMDAT ??_C@_0O@OKFLLHFA@?5total?5?5?3?5?$CF2d@
CONST	SEGMENT
??_C@_0O@OKFLLHFA@?5total?5?5?3?5?$CF2d@ DB ' total  : %2d', 00H ; `string'
CONST	ENDS
;	COMDAT ??_C@_0BK@OKMDHAJE@?5?$CK?$CK?$CK?$CK?5Occ?9Q?$CI?$CF03?41f?$CJ?5?$CK?$CK?$CK?$CK?5@
CONST	SEGMENT
??_C@_0BK@OKMDHAJE@?5?$CK?$CK?$CK?$CK?5Occ?9Q?$CI?$CF03?41f?$CJ?5?$CK?$CK?$CK?$CK?5@ DB ' '
	DB	'**** Occ-Q(%03.1f) **** ', 00H		; `string'
CONST	ENDS
;	COMDAT ??_C@_02NBHMGPMG@SG@
CONST	SEGMENT
??_C@_02NBHMGPMG@SG@ DB 'SG', 00H			; `string'
CONST	ENDS
;	COMDAT ??_C@_0CH@CNEGHEIB@Particle?5effect?5or?5group?5doesn?8@
CONST	SEGMENT
??_C@_0CH@CNEGHEIB@Particle?5effect?5or?5group?5doesn?8@ DB 'Particle eff'
	DB	'ect or group doesn''t exist', 00H		; `string'
CONST	ENDS
;	COMDAT ??_C@_0BP@GFBDPMDM@CRender?3?3model_CreateParticles@
CONST	SEGMENT
??_C@_0BP@GFBDPMDM@CRender?3?3model_CreateParticles@ DB 'CRender::model_C'
	DB	'reateParticles', 00H			; `string'
CONST	ENDS
;	COMDAT ??_C@_02ODEKANEE@SE@
CONST	SEGMENT
??_C@_02ODEKANEE@SE@ DB 'SE', 00H			; `string'
CONST	ENDS
;	COMDAT ??_C@_0BO@PKGKJKHO@Particle?5effect?5doesn?8t?5exist@
CONST	SEGMENT
??_C@_0BO@PKGKJKHO@Particle?5effect?5doesn?8t?5exist@ DB 'Particle effect'
	DB	' doesn''t exist', 00H			; `string'
CONST	ENDS
;	COMDAT ??_C@_0EC@GAKMNDAB@I?3?2Vitalya?2mine?2NSProjectX?2laye@
CONST	SEGMENT
??_C@_0EC@GAKMNDAB@I?3?2Vitalya?2mine?2NSProjectX?2laye@ DB 'I:\Vitalya\m'
	DB	'ine\NSProjectX\layers\xrRenderPC_R1\FStaticRender.cpp', 00H ; `string'
CONST	ENDS
;	COMDAT ??_C@_0BI@HOANMMBE@CRender?3?3model_CreatePE@
CONST	SEGMENT
??_C@_0BI@HOANMMBE@CRender?3?3model_CreatePE@ DB 'CRender::model_CreatePE'
	DB	00H						; `string'
CONST	ENDS
;	COMDAT ??_C@_0BA@FMJGKLOA@L_dynamic_props@
CONST	SEGMENT
??_C@_0BA@FMJGKLOA@L_dynamic_props@ DB 'L_dynamic_props', 00H ; `string'
CONST	ENDS
;	COMDAT ??_C@_06MLLEPAHM@?9skinw@
CONST	SEGMENT
??_C@_06MLLEPAHM@?9skinw@ DB '-skinw', 00H		; `string'
CONST	ENDS
;	COMDAT ??_C@_07BDKAKIOP@?9disasm@
CONST	SEGMENT
??_C@_07BDKAKIOP@?9disasm@ DB '-disasm', 00H		; `string'
CONST	ENDS
;	COMDAT ??_C@_0CD@DCBDPIBM@?$CK?5distortion?3?5?$CFs?0?5dev?$CI?$CFd?$CJ?0need?$CI@
CONST	SEGMENT
??_C@_0CD@DCBDPIBM@?$CK?5distortion?3?5?$CFs?0?5dev?$CI?$CFd?$CJ?0need?$CI@ DB '*'
	DB	' distortion: %s, dev(%d),need(%d)', 00H	; `string'
CONST	ENDS
;	COMDAT ??_C@_0M@JGJOANLK@unavailable@
CONST	SEGMENT
??_C@_0M@JGJOANLK@unavailable@ DB 'unavailable', 00H	; `string'
CONST	ENDS
;	COMDAT ??_C@_0L@CBIMIPPL@?9nodistort@
CONST	SEGMENT
??_C@_0L@CBIMIPPL@?9nodistort@ DB '-nodistort', 00H	; `string'
CONST	ENDS
;	COMDAT ??_C@_0BA@PCGAPDHO@L_dynamic_xform@
CONST	SEGMENT
??_C@_0BA@PCGAPDHO@L_dynamic_xform@ DB 'L_dynamic_xform', 00H ; `string'
CONST	ENDS
;	COMDAT ??_C@_0BA@FNHAPCAE@L_dynamic_color@
CONST	SEGMENT
??_C@_0BA@FNHAPCAE@L_dynamic_color@ DB 'L_dynamic_color', 00H ; `string'
CONST	ENDS
;	COMDAT ??_C@_0O@MLKAHID@L_dynamic_pos@
CONST	SEGMENT
??_C@_0O@MLKAHID@L_dynamic_pos@ DB 'L_dynamic_pos', 00H	; `string'
?_Fake_alloc@std@@3U_Fake_allocator@1@B	ORG $+1		; std::_Fake_alloc
PUBLIC	?shadowing@CLightProjector@@QAEHXZ		; CLightProjector::shadowing
PUBLIC	?r_dsgraph_destroy@R_dsgraph_structure@@QAEXXZ	; R_dsgraph_structure::r_dsgraph_destroy
PUBLIC	?destroy@?$FixedMAP@MU_MatrixItemS@R_dsgraph@@Udoug_lea_allocator@@@@QAEXXZ ; FixedMAP<float,R_dsgraph::_MatrixItemS,doug_lea_allocator>::destroy
PUBLIC	?last@?$FixedMAP@MU_MatrixItemS@R_dsgraph@@Udoug_lea_allocator@@@@QAEPAUTNode@1@XZ ; FixedMAP<float,R_dsgraph::_MatrixItemS,doug_lea_allocator>::last
PUBLIC	?begin@?$FixedMAP@MU_MatrixItemS@R_dsgraph@@Udoug_lea_allocator@@@@QAEPAUTNode@1@XZ ; FixedMAP<float,R_dsgraph::_MatrixItemS,doug_lea_allocator>::begin
PUBLIC	?destroy@?$FixedMAP@MU_LodItem@R_dsgraph@@Udoug_lea_allocator@@@@QAEXXZ ; FixedMAP<float,R_dsgraph::_LodItem,doug_lea_allocator>::destroy
PUBLIC	?last@?$FixedMAP@MU_LodItem@R_dsgraph@@Udoug_lea_allocator@@@@QAEPAUTNode@1@XZ ; FixedMAP<float,R_dsgraph::_LodItem,doug_lea_allocator>::last
PUBLIC	?begin@?$FixedMAP@MU_LodItem@R_dsgraph@@Udoug_lea_allocator@@@@QAEPAUTNode@1@XZ ; FixedMAP<float,R_dsgraph::_LodItem,doug_lea_allocator>::begin
PUBLIC	?destroy@?$FixedMAP@PAUIDirect3DVertexShader9@@UmapMatrixPS@R_dsgraph@@Udoug_lea_allocator@@@@QAEXXZ ; FixedMAP<IDirect3DVertexShader9 *,R_dsgraph::mapMatrixPS,doug_lea_allocator>::destroy
PUBLIC	??_GTNode@?$FixedMAP@PAUIDirect3DVertexShader9@@UmapMatrixPS@R_dsgraph@@Udoug_lea_allocator@@@@QAEPAXI@Z ; FixedMAP<IDirect3DVertexShader9 *,R_dsgraph::mapMatrixPS,doug_lea_allocator>::TNode::`scalar deleting destructor'
PUBLIC	??1TNode@?$FixedMAP@PAUIDirect3DVertexShader9@@UmapMatrixPS@R_dsgraph@@Udoug_lea_allocator@@@@QAE@XZ ; FixedMAP<IDirect3DVertexShader9 *,R_dsgraph::mapMatrixPS,doug_lea_allocator>::TNode::~TNode
PUBLIC	??1mapMatrixPS@R_dsgraph@@QAE@XZ		; R_dsgraph::mapMatrixPS::~mapMatrixPS
PUBLIC	??1?$FixedMAP@PAUIDirect3DPixelShader9@@UmapMatrixCS@R_dsgraph@@Udoug_lea_allocator@@@@QAE@XZ ; FixedMAP<IDirect3DPixelShader9 *,R_dsgraph::mapMatrixCS,doug_lea_allocator>::~FixedMAP<IDirect3DPixelShader9 *,R_dsgraph::mapMatrixCS,doug_lea_allocator>
PUBLIC	?destroy@?$FixedMAP@PAUIDirect3DPixelShader9@@UmapMatrixCS@R_dsgraph@@Udoug_lea_allocator@@@@QAEXXZ ; FixedMAP<IDirect3DPixelShader9 *,R_dsgraph::mapMatrixCS,doug_lea_allocator>::destroy
PUBLIC	??_GTNode@?$FixedMAP@PAUIDirect3DPixelShader9@@UmapMatrixCS@R_dsgraph@@Udoug_lea_allocator@@@@QAEPAXI@Z ; FixedMAP<IDirect3DPixelShader9 *,R_dsgraph::mapMatrixCS,doug_lea_allocator>::TNode::`scalar deleting destructor'
PUBLIC	??1TNode@?$FixedMAP@PAUIDirect3DPixelShader9@@UmapMatrixCS@R_dsgraph@@Udoug_lea_allocator@@@@QAE@XZ ; FixedMAP<IDirect3DPixelShader9 *,R_dsgraph::mapMatrixCS,doug_lea_allocator>::TNode::~TNode
PUBLIC	??1mapMatrixCS@R_dsgraph@@QAE@XZ		; R_dsgraph::mapMatrixCS::~mapMatrixCS
PUBLIC	??1?$FixedMAP@PAVR_constant_table@@UmapMatrixStates@R_dsgraph@@Udoug_lea_allocator@@@@QAE@XZ ; FixedMAP<R_constant_table *,R_dsgraph::mapMatrixStates,doug_lea_allocator>::~FixedMAP<R_constant_table *,R_dsgraph::mapMatrixStates,doug_lea_allocator>
PUBLIC	?destroy@?$FixedMAP@PAVR_constant_table@@UmapMatrixStates@R_dsgraph@@Udoug_lea_allocator@@@@QAEXXZ ; FixedMAP<R_constant_table *,R_dsgraph::mapMatrixStates,doug_lea_allocator>::destroy
PUBLIC	??_GTNode@?$FixedMAP@PAVR_constant_table@@UmapMatrixStates@R_dsgraph@@Udoug_lea_allocator@@@@QAEPAXI@Z ; FixedMAP<R_constant_table *,R_dsgraph::mapMatrixStates,doug_lea_allocator>::TNode::`scalar deleting destructor'
PUBLIC	??1TNode@?$FixedMAP@PAVR_constant_table@@UmapMatrixStates@R_dsgraph@@Udoug_lea_allocator@@@@QAE@XZ ; FixedMAP<R_constant_table *,R_dsgraph::mapMatrixStates,doug_lea_allocator>::TNode::~TNode
PUBLIC	??1mapMatrixStates@R_dsgraph@@QAE@XZ		; R_dsgraph::mapMatrixStates::~mapMatrixStates
PUBLIC	??1?$FixedMAP@PAUIDirect3DStateBlock9@@UmapMatrixTextures@R_dsgraph@@Udoug_lea_allocator@@@@QAE@XZ ; FixedMAP<IDirect3DStateBlock9 *,R_dsgraph::mapMatrixTextures,doug_lea_allocator>::~FixedMAP<IDirect3DStateBlock9 *,R_dsgraph::mapMatrixTextures,doug_lea_allocator>
PUBLIC	?destroy@?$FixedMAP@PAUIDirect3DStateBlock9@@UmapMatrixTextures@R_dsgraph@@Udoug_lea_allocator@@@@QAEXXZ ; FixedMAP<IDirect3DStateBlock9 *,R_dsgraph::mapMatrixTextures,doug_lea_allocator>::destroy
PUBLIC	??_GTNode@?$FixedMAP@PAUIDirect3DStateBlock9@@UmapMatrixTextures@R_dsgraph@@Udoug_lea_allocator@@@@QAEPAXI@Z ; FixedMAP<IDirect3DStateBlock9 *,R_dsgraph::mapMatrixTextures,doug_lea_allocator>::TNode::`scalar deleting destructor'
PUBLIC	??1TNode@?$FixedMAP@PAUIDirect3DStateBlock9@@UmapMatrixTextures@R_dsgraph@@Udoug_lea_allocator@@@@QAE@XZ ; FixedMAP<IDirect3DStateBlock9 *,R_dsgraph::mapMatrixTextures,doug_lea_allocator>::TNode::~TNode
PUBLIC	??1mapMatrixTextures@R_dsgraph@@QAE@XZ		; R_dsgraph::mapMatrixTextures::~mapMatrixTextures
PUBLIC	??1?$FixedMAP@PAUSTextureList@@UmapMatrixItems@R_dsgraph@@Udoug_lea_allocator@@@@QAE@XZ ; FixedMAP<STextureList *,R_dsgraph::mapMatrixItems,doug_lea_allocator>::~FixedMAP<STextureList *,R_dsgraph::mapMatrixItems,doug_lea_allocator>
PUBLIC	?destroy@?$FixedMAP@PAUSTextureList@@UmapMatrixItems@R_dsgraph@@Udoug_lea_allocator@@@@QAEXXZ ; FixedMAP<STextureList *,R_dsgraph::mapMatrixItems,doug_lea_allocator>::destroy
PUBLIC	??_GTNode@?$FixedMAP@PAUSTextureList@@UmapMatrixItems@R_dsgraph@@Udoug_lea_allocator@@@@QAEPAXI@Z ; FixedMAP<STextureList *,R_dsgraph::mapMatrixItems,doug_lea_allocator>::TNode::`scalar deleting destructor'
PUBLIC	??1TNode@?$FixedMAP@PAUSTextureList@@UmapMatrixItems@R_dsgraph@@Udoug_lea_allocator@@@@QAE@XZ ; FixedMAP<STextureList *,R_dsgraph::mapMatrixItems,doug_lea_allocator>::TNode::~TNode
PUBLIC	??1mapMatrixItems@R_dsgraph@@QAE@XZ		; R_dsgraph::mapMatrixItems::~mapMatrixItems
PUBLIC	??1?$xr_vector@U_MatrixItem@R_dsgraph@@V?$doug_lea_alloc@U_MatrixItem@R_dsgraph@@@@@@QAE@XZ ; xr_vector<R_dsgraph::_MatrixItem,doug_lea_alloc<R_dsgraph::_MatrixItem> >::~xr_vector<R_dsgraph::_MatrixItem,doug_lea_alloc<R_dsgraph::_MatrixItem> >
PUBLIC	??1?$vector@U_MatrixItem@R_dsgraph@@V?$doug_lea_alloc@U_MatrixItem@R_dsgraph@@@@@std@@QAE@XZ ; std::vector<R_dsgraph::_MatrixItem,doug_lea_alloc<R_dsgraph::_MatrixItem> >::~vector<R_dsgraph::_MatrixItem,doug_lea_alloc<R_dsgraph::_MatrixItem> >
PUBLIC	?_Tidy@?$vector@U_MatrixItem@R_dsgraph@@V?$doug_lea_alloc@U_MatrixItem@R_dsgraph@@@@@std@@AAEXXZ ; std::vector<R_dsgraph::_MatrixItem,doug_lea_alloc<R_dsgraph::_MatrixItem> >::_Tidy
PUBLIC	?last@?$FixedMAP@PAUSTextureList@@UmapMatrixItems@R_dsgraph@@Udoug_lea_allocator@@@@QAEPAUTNode@1@XZ ; FixedMAP<STextureList *,R_dsgraph::mapMatrixItems,doug_lea_allocator>::last
PUBLIC	?last@?$FixedMAP@PAUIDirect3DStateBlock9@@UmapMatrixTextures@R_dsgraph@@Udoug_lea_allocator@@@@QAEPAUTNode@1@XZ ; FixedMAP<IDirect3DStateBlock9 *,R_dsgraph::mapMatrixTextures,doug_lea_allocator>::last
PUBLIC	?last@?$FixedMAP@PAVR_constant_table@@UmapMatrixStates@R_dsgraph@@Udoug_lea_allocator@@@@QAEPAUTNode@1@XZ ; FixedMAP<R_constant_table *,R_dsgraph::mapMatrixStates,doug_lea_allocator>::last
PUBLIC	?last@?$FixedMAP@PAUIDirect3DPixelShader9@@UmapMatrixCS@R_dsgraph@@Udoug_lea_allocator@@@@QAEPAUTNode@1@XZ ; FixedMAP<IDirect3DPixelShader9 *,R_dsgraph::mapMatrixCS,doug_lea_allocator>::last
PUBLIC	?last@?$FixedMAP@PAUIDirect3DVertexShader9@@UmapMatrixPS@R_dsgraph@@Udoug_lea_allocator@@@@QAEPAUTNode@1@XZ ; FixedMAP<IDirect3DVertexShader9 *,R_dsgraph::mapMatrixPS,doug_lea_allocator>::last
PUBLIC	?destroy@?$FixedMAP@PAUIDirect3DVertexShader9@@UmapNormalPS@R_dsgraph@@Udoug_lea_allocator@@@@QAEXXZ ; FixedMAP<IDirect3DVertexShader9 *,R_dsgraph::mapNormalPS,doug_lea_allocator>::destroy
PUBLIC	??_GTNode@?$FixedMAP@PAUIDirect3DVertexShader9@@UmapNormalPS@R_dsgraph@@Udoug_lea_allocator@@@@QAEPAXI@Z ; FixedMAP<IDirect3DVertexShader9 *,R_dsgraph::mapNormalPS,doug_lea_allocator>::TNode::`scalar deleting destructor'
PUBLIC	??1TNode@?$FixedMAP@PAUIDirect3DVertexShader9@@UmapNormalPS@R_dsgraph@@Udoug_lea_allocator@@@@QAE@XZ ; FixedMAP<IDirect3DVertexShader9 *,R_dsgraph::mapNormalPS,doug_lea_allocator>::TNode::~TNode
PUBLIC	??1mapNormalPS@R_dsgraph@@QAE@XZ		; R_dsgraph::mapNormalPS::~mapNormalPS
PUBLIC	??1?$FixedMAP@PAUIDirect3DPixelShader9@@UmapNormalCS@R_dsgraph@@Udoug_lea_allocator@@@@QAE@XZ ; FixedMAP<IDirect3DPixelShader9 *,R_dsgraph::mapNormalCS,doug_lea_allocator>::~FixedMAP<IDirect3DPixelShader9 *,R_dsgraph::mapNormalCS,doug_lea_allocator>
PUBLIC	?destroy@?$FixedMAP@PAUIDirect3DPixelShader9@@UmapNormalCS@R_dsgraph@@Udoug_lea_allocator@@@@QAEXXZ ; FixedMAP<IDirect3DPixelShader9 *,R_dsgraph::mapNormalCS,doug_lea_allocator>::destroy
PUBLIC	??_GTNode@?$FixedMAP@PAUIDirect3DPixelShader9@@UmapNormalCS@R_dsgraph@@Udoug_lea_allocator@@@@QAEPAXI@Z ; FixedMAP<IDirect3DPixelShader9 *,R_dsgraph::mapNormalCS,doug_lea_allocator>::TNode::`scalar deleting destructor'
PUBLIC	??1TNode@?$FixedMAP@PAUIDirect3DPixelShader9@@UmapNormalCS@R_dsgraph@@Udoug_lea_allocator@@@@QAE@XZ ; FixedMAP<IDirect3DPixelShader9 *,R_dsgraph::mapNormalCS,doug_lea_allocator>::TNode::~TNode
PUBLIC	??1mapNormalCS@R_dsgraph@@QAE@XZ		; R_dsgraph::mapNormalCS::~mapNormalCS
PUBLIC	??1?$FixedMAP@PAVR_constant_table@@UmapNormalStates@R_dsgraph@@Udoug_lea_allocator@@@@QAE@XZ ; FixedMAP<R_constant_table *,R_dsgraph::mapNormalStates,doug_lea_allocator>::~FixedMAP<R_constant_table *,R_dsgraph::mapNormalStates,doug_lea_allocator>
PUBLIC	?destroy@?$FixedMAP@PAVR_constant_table@@UmapNormalStates@R_dsgraph@@Udoug_lea_allocator@@@@QAEXXZ ; FixedMAP<R_constant_table *,R_dsgraph::mapNormalStates,doug_lea_allocator>::destroy
PUBLIC	??_GTNode@?$FixedMAP@PAVR_constant_table@@UmapNormalStates@R_dsgraph@@Udoug_lea_allocator@@@@QAEPAXI@Z ; FixedMAP<R_constant_table *,R_dsgraph::mapNormalStates,doug_lea_allocator>::TNode::`scalar deleting destructor'
PUBLIC	??1TNode@?$FixedMAP@PAVR_constant_table@@UmapNormalStates@R_dsgraph@@Udoug_lea_allocator@@@@QAE@XZ ; FixedMAP<R_constant_table *,R_dsgraph::mapNormalStates,doug_lea_allocator>::TNode::~TNode
PUBLIC	??1mapNormalStates@R_dsgraph@@QAE@XZ		; R_dsgraph::mapNormalStates::~mapNormalStates
PUBLIC	??1?$FixedMAP@PAUIDirect3DStateBlock9@@UmapNormalTextures@R_dsgraph@@Udoug_lea_allocator@@@@QAE@XZ ; FixedMAP<IDirect3DStateBlock9 *,R_dsgraph::mapNormalTextures,doug_lea_allocator>::~FixedMAP<IDirect3DStateBlock9 *,R_dsgraph::mapNormalTextures,doug_lea_allocator>
PUBLIC	?destroy@?$FixedMAP@PAUIDirect3DStateBlock9@@UmapNormalTextures@R_dsgraph@@Udoug_lea_allocator@@@@QAEXXZ ; FixedMAP<IDirect3DStateBlock9 *,R_dsgraph::mapNormalTextures,doug_lea_allocator>::destroy
PUBLIC	??_GTNode@?$FixedMAP@PAUIDirect3DStateBlock9@@UmapNormalTextures@R_dsgraph@@Udoug_lea_allocator@@@@QAEPAXI@Z ; FixedMAP<IDirect3DStateBlock9 *,R_dsgraph::mapNormalTextures,doug_lea_allocator>::TNode::`scalar deleting destructor'
PUBLIC	??1TNode@?$FixedMAP@PAUIDirect3DStateBlock9@@UmapNormalTextures@R_dsgraph@@Udoug_lea_allocator@@@@QAE@XZ ; FixedMAP<IDirect3DStateBlock9 *,R_dsgraph::mapNormalTextures,doug_lea_allocator>::TNode::~TNode
PUBLIC	??1mapNormalTextures@R_dsgraph@@QAE@XZ		; R_dsgraph::mapNormalTextures::~mapNormalTextures
PUBLIC	??1?$FixedMAP@PAUSTextureList@@UmapNormalItems@R_dsgraph@@Udoug_lea_allocator@@@@QAE@XZ ; FixedMAP<STextureList *,R_dsgraph::mapNormalItems,doug_lea_allocator>::~FixedMAP<STextureList *,R_dsgraph::mapNormalItems,doug_lea_allocator>
PUBLIC	?destroy@?$FixedMAP@PAUSTextureList@@UmapNormalItems@R_dsgraph@@Udoug_lea_allocator@@@@QAEXXZ ; FixedMAP<STextureList *,R_dsgraph::mapNormalItems,doug_lea_allocator>::destroy
PUBLIC	??_GTNode@?$FixedMAP@PAUSTextureList@@UmapNormalItems@R_dsgraph@@Udoug_lea_allocator@@@@QAEPAXI@Z ; FixedMAP<STextureList *,R_dsgraph::mapNormalItems,doug_lea_allocator>::TNode::`scalar deleting destructor'
PUBLIC	??1TNode@?$FixedMAP@PAUSTextureList@@UmapNormalItems@R_dsgraph@@Udoug_lea_allocator@@@@QAE@XZ ; FixedMAP<STextureList *,R_dsgraph::mapNormalItems,doug_lea_allocator>::TNode::~TNode
PUBLIC	??1mapNormalItems@R_dsgraph@@QAE@XZ		; R_dsgraph::mapNormalItems::~mapNormalItems
PUBLIC	??1?$xr_vector@U_NormalItem@R_dsgraph@@V?$doug_lea_alloc@U_NormalItem@R_dsgraph@@@@@@QAE@XZ ; xr_vector<R_dsgraph::_NormalItem,doug_lea_alloc<R_dsgraph::_NormalItem> >::~xr_vector<R_dsgraph::_NormalItem,doug_lea_alloc<R_dsgraph::_NormalItem> >
PUBLIC	??1?$vector@U_NormalItem@R_dsgraph@@V?$doug_lea_alloc@U_NormalItem@R_dsgraph@@@@@std@@QAE@XZ ; std::vector<R_dsgraph::_NormalItem,doug_lea_alloc<R_dsgraph::_NormalItem> >::~vector<R_dsgraph::_NormalItem,doug_lea_alloc<R_dsgraph::_NormalItem> >
PUBLIC	?_Tidy@?$vector@U_NormalItem@R_dsgraph@@V?$doug_lea_alloc@U_NormalItem@R_dsgraph@@@@@std@@AAEXXZ ; std::vector<R_dsgraph::_NormalItem,doug_lea_alloc<R_dsgraph::_NormalItem> >::_Tidy
PUBLIC	?last@?$FixedMAP@PAUSTextureList@@UmapNormalItems@R_dsgraph@@Udoug_lea_allocator@@@@QAEPAUTNode@1@XZ ; FixedMAP<STextureList *,R_dsgraph::mapNormalItems,doug_lea_allocator>::last
PUBLIC	?last@?$FixedMAP@PAUIDirect3DStateBlock9@@UmapNormalTextures@R_dsgraph@@Udoug_lea_allocator@@@@QAEPAUTNode@1@XZ ; FixedMAP<IDirect3DStateBlock9 *,R_dsgraph::mapNormalTextures,doug_lea_allocator>::last
PUBLIC	?last@?$FixedMAP@PAVR_constant_table@@UmapNormalStates@R_dsgraph@@Udoug_lea_allocator@@@@QAEPAUTNode@1@XZ ; FixedMAP<R_constant_table *,R_dsgraph::mapNormalStates,doug_lea_allocator>::last
PUBLIC	?last@?$FixedMAP@PAUIDirect3DPixelShader9@@UmapNormalCS@R_dsgraph@@Udoug_lea_allocator@@@@QAEPAUTNode@1@XZ ; FixedMAP<IDirect3DPixelShader9 *,R_dsgraph::mapNormalCS,doug_lea_allocator>::last
PUBLIC	?last@?$FixedMAP@PAUIDirect3DVertexShader9@@UmapNormalPS@R_dsgraph@@Udoug_lea_allocator@@@@QAEPAUTNode@1@XZ ; FixedMAP<IDirect3DVertexShader9 *,R_dsgraph::mapNormalPS,doug_lea_allocator>::last
PUBLIC	?clear@?$xr_vector@PAVISpatial@@V?$xalloc@PAVISpatial@@@@@@QAEXXZ ; xr_vector<ISpatial *,xalloc<ISpatial *> >::clear
PUBLIC	?clear_and_free@?$xr_vector@PAVISpatial@@V?$xalloc@PAVISpatial@@@@@@QAEXXZ ; xr_vector<ISpatial *,xalloc<ISpatial *> >::clear_and_free
PUBLIC	?clear@?$vector@PAVISpatial@@V?$xalloc@PAVISpatial@@@@@std@@QAEXXZ ; std::vector<ISpatial *,xalloc<ISpatial *> >::clear
PUBLIC	?_Destroy@?$vector@PAVISpatial@@V?$xalloc@PAVISpatial@@@@@std@@AAEXPAPAVISpatial@@0@Z ; std::vector<ISpatial *,xalloc<ISpatial *> >::_Destroy
PUBLIC	?_Getal@?$vector@PAVISpatial@@V?$xalloc@PAVISpatial@@@@@std@@AAEAAV?$xalloc@PAVISpatial@@@@XZ ; std::vector<ISpatial *,xalloc<ISpatial *> >::_Getal
PUBLIC	?_Get_first@?$_Compressed_pair@V?$xalloc@PAVISpatial@@@@V?$_Vector_val@U?$_Simple_types@PAVISpatial@@@std@@@std@@$00@std@@QAEAAV?$xalloc@PAVISpatial@@@@XZ ; std::_Compressed_pair<xalloc<ISpatial *>,std::_Vector_val<std::_Simple_types<ISpatial *> >,1>::_Get_first
PUBLIC	??$_Destroy_range@V?$xalloc@PAVISpatial@@@@@std@@YAXPAPAVISpatial@@QAPAV1@AAV?$xalloc@PAVISpatial@@@@@Z ; std::_Destroy_range<xalloc<ISpatial *> >
PUBLIC	??$_Unfancy@PAVISpatial@@@std@@YAPAPAVISpatial@@PAPAV1@@Z ; std::_Unfancy<ISpatial *>
PUBLIC	??$destroy@PAVISpatial@@@?$_Normal_allocator_traits@V?$xalloc@PAVISpatial@@@@@std@@SAXAAV?$xalloc@PAVISpatial@@@@PAPAVISpatial@@@Z ; std::_Normal_allocator_traits<xalloc<ISpatial *> >::destroy<ISpatial *>
PUBLIC	?destroy@?$xalloc@PAVISpatial@@@@QAEXPAPAVISpatial@@@Z ; xalloc<ISpatial *>::destroy
PUBLIC	??$_Destroy_in_place@PAPAVISpatial@@@std@@YAXAAPAPAVISpatial@@@Z ; std::_Destroy_in_place<ISpatial * *>
PUBLIC	??D?$resptr_core@UShader@@Uresptrcode_shader@@@@QBEAAUShader@@XZ ; resptr_core<Shader,resptrcode_shader>::operator*
PUBLIC	?occlude@CHOM@@QAEXAAV?$_box2@M@@@Z		; CHOM::occlude
PUBLIC	??0R_dsgraph_structure@@QAE@XZ			; R_dsgraph_structure::R_dsgraph_structure
PUBLIC	?r_pmask@R_dsgraph_structure@@QAEX_N00@Z	; R_dsgraph_structure::r_pmask
PUBLIC	??1?$xr_vector@PAVIRender_Visual@@V?$doug_lea_alloc@PAVIRender_Visual@@@@@@QAE@XZ ; xr_vector<IRender_Visual *,doug_lea_alloc<IRender_Visual *> >::~xr_vector<IRender_Visual *,doug_lea_alloc<IRender_Visual *> >
PUBLIC	??1?$vector@PAVIRender_Visual@@V?$doug_lea_alloc@PAVIRender_Visual@@@@@std@@QAE@XZ ; std::vector<IRender_Visual *,doug_lea_alloc<IRender_Visual *> >::~vector<IRender_Visual *,doug_lea_alloc<IRender_Visual *> >
PUBLIC	?_Tidy@?$vector@PAVIRender_Visual@@V?$doug_lea_alloc@PAVIRender_Visual@@@@@std@@AAEXXZ ; std::vector<IRender_Visual *,doug_lea_alloc<IRender_Visual *> >::_Tidy
PUBLIC	??0?$xr_vector@PAVIRender_Visual@@V?$doug_lea_alloc@PAVIRender_Visual@@@@@@QAE@XZ ; xr_vector<IRender_Visual *,doug_lea_alloc<IRender_Visual *> >::xr_vector<IRender_Visual *,doug_lea_alloc<IRender_Visual *> >
PUBLIC	??0?$vector@PAVIRender_Visual@@V?$doug_lea_alloc@PAVIRender_Visual@@@@@std@@QAE@XZ ; std::vector<IRender_Visual *,doug_lea_alloc<IRender_Visual *> >::vector<IRender_Visual *,doug_lea_alloc<IRender_Visual *> >
PUBLIC	??$?0$$V@?$_Compressed_pair@V?$doug_lea_alloc@PAVIRender_Visual@@@@V?$_Vector_val@U?$_Simple_types@PAVIRender_Visual@@@std@@@std@@$00@std@@QAE@U_Zero_then_variadic_args_t@1@@Z ; std::_Compressed_pair<doug_lea_alloc<IRender_Visual *>,std::_Vector_val<std::_Simple_types<IRender_Visual *> >,1>::_Compressed_pair<doug_lea_alloc<IRender_Visual *>,std::_Vector_val<std::_Simple_types<IRender_Visual *> >,1><>
PUBLIC	??0?$doug_lea_alloc@PAVIRender_Visual@@@@QAE@XZ	; doug_lea_alloc<IRender_Visual *>::doug_lea_alloc<IRender_Visual *>
PUBLIC	??1?$xr_vector@PAVISpatial@@V?$xalloc@PAVISpatial@@@@@@QAE@XZ ; xr_vector<ISpatial *,xalloc<ISpatial *> >::~xr_vector<ISpatial *,xalloc<ISpatial *> >
PUBLIC	??1?$vector@PAVISpatial@@V?$xalloc@PAVISpatial@@@@@std@@QAE@XZ ; std::vector<ISpatial *,xalloc<ISpatial *> >::~vector<ISpatial *,xalloc<ISpatial *> >
PUBLIC	?_Tidy@?$vector@PAVISpatial@@V?$xalloc@PAVISpatial@@@@@std@@AAEXXZ ; std::vector<ISpatial *,xalloc<ISpatial *> >::_Tidy
PUBLIC	?deallocate@?$xalloc@PAVISpatial@@@@QBEXPAPAVISpatial@@I@Z ; xalloc<ISpatial *>::deallocate
PUBLIC	??$xr_free@PAVISpatial@@@@YAXAAPAPAVISpatial@@@Z ; xr_free<ISpatial *>
PUBLIC	??0?$xr_vector@PAVISpatial@@V?$xalloc@PAVISpatial@@@@@@QAE@XZ ; xr_vector<ISpatial *,xalloc<ISpatial *> >::xr_vector<ISpatial *,xalloc<ISpatial *> >
PUBLIC	??0?$vector@PAVISpatial@@V?$xalloc@PAVISpatial@@@@@std@@QAE@XZ ; std::vector<ISpatial *,xalloc<ISpatial *> >::vector<ISpatial *,xalloc<ISpatial *> >
PUBLIC	??$?0$$V@?$_Compressed_pair@V?$xalloc@PAVISpatial@@@@V?$_Vector_val@U?$_Simple_types@PAVISpatial@@@std@@@std@@$00@std@@QAE@U_Zero_then_variadic_args_t@1@@Z ; std::_Compressed_pair<xalloc<ISpatial *>,std::_Vector_val<std::_Simple_types<ISpatial *> >,1>::_Compressed_pair<xalloc<ISpatial *>,std::_Vector_val<std::_Simple_types<ISpatial *> >,1><>
PUBLIC	??0?$_Vector_val@U?$_Simple_types@PAVISpatial@@@std@@@std@@QAE@XZ ; std::_Vector_val<std::_Simple_types<ISpatial *> >::_Vector_val<std::_Simple_types<ISpatial *> >
PUBLIC	??0?$xalloc@PAVISpatial@@@@QAE@XZ		; xalloc<ISpatial *>::xalloc<ISpatial *>
PUBLIC	??1?$xr_vector@HV?$doug_lea_alloc@H@@@@QAE@XZ	; xr_vector<int,doug_lea_alloc<int> >::~xr_vector<int,doug_lea_alloc<int> >
PUBLIC	??1?$vector@HV?$doug_lea_alloc@H@@@std@@QAE@XZ	; std::vector<int,doug_lea_alloc<int> >::~vector<int,doug_lea_alloc<int> >
PUBLIC	?_Tidy@?$vector@HV?$doug_lea_alloc@H@@@std@@AAEXXZ ; std::vector<int,doug_lea_alloc<int> >::_Tidy
PUBLIC	??0?$xr_vector@HV?$doug_lea_alloc@H@@@@QAE@XZ	; xr_vector<int,doug_lea_alloc<int> >::xr_vector<int,doug_lea_alloc<int> >
PUBLIC	??0?$vector@HV?$doug_lea_alloc@H@@@std@@QAE@XZ	; std::vector<int,doug_lea_alloc<int> >::vector<int,doug_lea_alloc<int> >
PUBLIC	??$?0$$V@?$_Compressed_pair@V?$doug_lea_alloc@H@@V?$_Vector_val@U?$_Simple_types@H@std@@@std@@$00@std@@QAE@U_Zero_then_variadic_args_t@1@@Z ; std::_Compressed_pair<doug_lea_alloc<int>,std::_Vector_val<std::_Simple_types<int> >,1>::_Compressed_pair<doug_lea_alloc<int>,std::_Vector_val<std::_Simple_types<int> >,1><>
PUBLIC	??0?$doug_lea_alloc@H@@QAE@XZ			; doug_lea_alloc<int>::doug_lea_alloc<int>
PUBLIC	??1?$xr_vector@U_LodItem@R_dsgraph@@V?$doug_lea_alloc@U_LodItem@R_dsgraph@@@@@@QAE@XZ ; xr_vector<R_dsgraph::_LodItem,doug_lea_alloc<R_dsgraph::_LodItem> >::~xr_vector<R_dsgraph::_LodItem,doug_lea_alloc<R_dsgraph::_LodItem> >
PUBLIC	??1?$vector@U_LodItem@R_dsgraph@@V?$doug_lea_alloc@U_LodItem@R_dsgraph@@@@@std@@QAE@XZ ; std::vector<R_dsgraph::_LodItem,doug_lea_alloc<R_dsgraph::_LodItem> >::~vector<R_dsgraph::_LodItem,doug_lea_alloc<R_dsgraph::_LodItem> >
PUBLIC	?_Tidy@?$vector@U_LodItem@R_dsgraph@@V?$doug_lea_alloc@U_LodItem@R_dsgraph@@@@@std@@AAEXXZ ; std::vector<R_dsgraph::_LodItem,doug_lea_alloc<R_dsgraph::_LodItem> >::_Tidy
PUBLIC	??0?$xr_vector@U_LodItem@R_dsgraph@@V?$doug_lea_alloc@U_LodItem@R_dsgraph@@@@@@QAE@XZ ; xr_vector<R_dsgraph::_LodItem,doug_lea_alloc<R_dsgraph::_LodItem> >::xr_vector<R_dsgraph::_LodItem,doug_lea_alloc<R_dsgraph::_LodItem> >
PUBLIC	??0?$vector@U_LodItem@R_dsgraph@@V?$doug_lea_alloc@U_LodItem@R_dsgraph@@@@@std@@QAE@XZ ; std::vector<R_dsgraph::_LodItem,doug_lea_alloc<R_dsgraph::_LodItem> >::vector<R_dsgraph::_LodItem,doug_lea_alloc<R_dsgraph::_LodItem> >
PUBLIC	??$?0$$V@?$_Compressed_pair@V?$doug_lea_alloc@U_LodItem@R_dsgraph@@@@V?$_Vector_val@U?$_Simple_types@U_LodItem@R_dsgraph@@@std@@@std@@$00@std@@QAE@U_Zero_then_variadic_args_t@1@@Z ; std::_Compressed_pair<doug_lea_alloc<R_dsgraph::_LodItem>,std::_Vector_val<std::_Simple_types<R_dsgraph::_LodItem> >,1>::_Compressed_pair<doug_lea_alloc<R_dsgraph::_LodItem>,std::_Vector_val<std::_Simple_types<R_dsgraph::_LodItem> >,1><>
PUBLIC	??0?$_Vector_val@U?$_Simple_types@U_LodItem@R_dsgraph@@@std@@@std@@QAE@XZ ; std::_Vector_val<std::_Simple_types<R_dsgraph::_LodItem> >::_Vector_val<std::_Simple_types<R_dsgraph::_LodItem> >
PUBLIC	??0?$doug_lea_alloc@U_LodItem@R_dsgraph@@@@QAE@XZ ; doug_lea_alloc<R_dsgraph::_LodItem>::doug_lea_alloc<R_dsgraph::_LodItem>
PUBLIC	??1?$xr_vector@PAUTNode@?$FixedMAP@PAUSTextureList@@UmapMatrixItems@R_dsgraph@@Udoug_lea_allocator@@@@V?$doug_lea_alloc@PAUTNode@?$FixedMAP@PAUSTextureList@@UmapMatrixItems@R_dsgraph@@Udoug_lea_allocator@@@@@@@@QAE@XZ ; xr_vector<FixedMAP<STextureList *,R_dsgraph::mapMatrixItems,doug_lea_allocator>::TNode *,doug_lea_alloc<FixedMAP<STextureList *,R_dsgraph::mapMatrixItems,doug_lea_allocator>::TNode *> >::~xr_vector<FixedMAP<STextureList *,R_dsgraph::mapMatrixItems,doug_lea_allocator>::TNode *,doug_lea_alloc<FixedMAP<STextureList *,R_dsgraph::mapMatrixItems,doug_lea_allocator>::TNode *> >
PUBLIC	??1?$vector@PAUTNode@?$FixedMAP@PAUSTextureList@@UmapMatrixItems@R_dsgraph@@Udoug_lea_allocator@@@@V?$doug_lea_alloc@PAUTNode@?$FixedMAP@PAUSTextureList@@UmapMatrixItems@R_dsgraph@@Udoug_lea_allocator@@@@@@@std@@QAE@XZ ; std::vector<FixedMAP<STextureList *,R_dsgraph::mapMatrixItems,doug_lea_allocator>::TNode *,doug_lea_alloc<FixedMAP<STextureList *,R_dsgraph::mapMatrixItems,doug_lea_allocator>::TNode *> >::~vector<FixedMAP<STextureList *,R_dsgraph::mapMatrixItems,doug_lea_allocator>::TNode *,doug_lea_alloc<FixedMAP<STextureList *,R_dsgraph::mapMatrixItems,doug_lea_allocator>::TNode *> >
PUBLIC	?_Tidy@?$vector@PAUTNode@?$FixedMAP@PAUSTextureList@@UmapMatrixItems@R_dsgraph@@Udoug_lea_allocator@@@@V?$doug_lea_alloc@PAUTNode@?$FixedMAP@PAUSTextureList@@UmapMatrixItems@R_dsgraph@@Udoug_lea_allocator@@@@@@@std@@AAEXXZ ; std::vector<FixedMAP<STextureList *,R_dsgraph::mapMatrixItems,doug_lea_allocator>::TNode *,doug_lea_alloc<FixedMAP<STextureList *,R_dsgraph::mapMatrixItems,doug_lea_allocator>::TNode *> >::_Tidy
PUBLIC	??0?$xr_vector@PAUTNode@?$FixedMAP@PAUSTextureList@@UmapMatrixItems@R_dsgraph@@Udoug_lea_allocator@@@@V?$doug_lea_alloc@PAUTNode@?$FixedMAP@PAUSTextureList@@UmapMatrixItems@R_dsgraph@@Udoug_lea_allocator@@@@@@@@QAE@XZ ; xr_vector<FixedMAP<STextureList *,R_dsgraph::mapMatrixItems,doug_lea_allocator>::TNode *,doug_lea_alloc<FixedMAP<STextureList *,R_dsgraph::mapMatrixItems,doug_lea_allocator>::TNode *> >::xr_vector<FixedMAP<STextureList *,R_dsgraph::mapMatrixItems,doug_lea_allocator>::TNode *,doug_lea_alloc<FixedMAP<STextureList *,R_dsgraph::mapMatrixItems,doug_lea_allocator>::TNode *> >
PUBLIC	??0?$vector@PAUTNode@?$FixedMAP@PAUSTextureList@@UmapMatrixItems@R_dsgraph@@Udoug_lea_allocator@@@@V?$doug_lea_alloc@PAUTNode@?$FixedMAP@PAUSTextureList@@UmapMatrixItems@R_dsgraph@@Udoug_lea_allocator@@@@@@@std@@QAE@XZ ; std::vector<FixedMAP<STextureList *,R_dsgraph::mapMatrixItems,doug_lea_allocator>::TNode *,doug_lea_alloc<FixedMAP<STextureList *,R_dsgraph::mapMatrixItems,doug_lea_allocator>::TNode *> >::vector<FixedMAP<STextureList *,R_dsgraph::mapMatrixItems,doug_lea_allocator>::TNode *,doug_lea_alloc<FixedMAP<STextureList *,R_dsgraph::mapMatrixItems,doug_lea_allocator>::TNode *> >
PUBLIC	??$?0$$V@?$_Compressed_pair@V?$doug_lea_alloc@PAUTNode@?$FixedMAP@PAUSTextureList@@UmapMatrixItems@R_dsgraph@@Udoug_lea_allocator@@@@@@V?$_Vector_val@U?$_Simple_types@PAUTNode@?$FixedMAP@PAUSTextureList@@UmapMatrixItems@R_dsgraph@@Udoug_lea_allocator@@@@@std@@@std@@$00@std@@QAE@U_Zero_then_variadic_args_t@1@@Z ; std::_Compressed_pair<doug_lea_alloc<FixedMAP<STextureList *,R_dsgraph::mapMatrixItems,doug_lea_allocator>::TNode *>,std::_Vector_val<std::_Simple_types<FixedMAP<STextureList *,R_dsgraph::mapMatrixItems,doug_lea_allocator>::TNode *> >,1>::_Compressed_pair<doug_lea_alloc<FixedMAP<STextureList *,R_dsgraph::mapMatrixItems,doug_lea_allocator>::TNode *>,std::_Vector_val<std::_Simple_types<FixedMAP<STextureList *,R_dsgraph::mapMatrixItems,doug_lea_allocator>::TNode *> >,1><>
PUBLIC	??0?$_Vector_val@U?$_Simple_types@PAUTNode@?$FixedMAP@PAUSTextureList@@UmapMatrixItems@R_dsgraph@@Udoug_lea_allocator@@@@@std@@@std@@QAE@XZ ; std::_Vector_val<std::_Simple_types<FixedMAP<STextureList *,R_dsgraph::mapMatrixItems,doug_lea_allocator>::TNode *> >::_Vector_val<std::_Simple_types<FixedMAP<STextureList *,R_dsgraph::mapMatrixItems,doug_lea_allocator>::TNode *> >
PUBLIC	??0?$doug_lea_alloc@PAUTNode@?$FixedMAP@PAUSTextureList@@UmapMatrixItems@R_dsgraph@@Udoug_lea_allocator@@@@@@QAE@XZ ; doug_lea_alloc<FixedMAP<STextureList *,R_dsgraph::mapMatrixItems,doug_lea_allocator>::TNode *>::doug_lea_alloc<FixedMAP<STextureList *,R_dsgraph::mapMatrixItems,doug_lea_allocator>::TNode *>
PUBLIC	??1?$xr_vector@PAUTNode@?$FixedMAP@PAUIDirect3DStateBlock9@@UmapMatrixTextures@R_dsgraph@@Udoug_lea_allocator@@@@V?$doug_lea_alloc@PAUTNode@?$FixedMAP@PAUIDirect3DStateBlock9@@UmapMatrixTextures@R_dsgraph@@Udoug_lea_allocator@@@@@@@@QAE@XZ ; xr_vector<FixedMAP<IDirect3DStateBlock9 *,R_dsgraph::mapMatrixTextures,doug_lea_allocator>::TNode *,doug_lea_alloc<FixedMAP<IDirect3DStateBlock9 *,R_dsgraph::mapMatrixTextures,doug_lea_allocator>::TNode *> >::~xr_vector<FixedMAP<IDirect3DStateBlock9 *,R_dsgraph::mapMatrixTextures,doug_lea_allocator>::TNode *,doug_lea_alloc<FixedMAP<IDirect3DStateBlock9 *,R_dsgraph::mapMatrixTextures,doug_lea_allocator>::TNode *> >
PUBLIC	??1?$vector@PAUTNode@?$FixedMAP@PAUIDirect3DStateBlock9@@UmapMatrixTextures@R_dsgraph@@Udoug_lea_allocator@@@@V?$doug_lea_alloc@PAUTNode@?$FixedMAP@PAUIDirect3DStateBlock9@@UmapMatrixTextures@R_dsgraph@@Udoug_lea_allocator@@@@@@@std@@QAE@XZ ; std::vector<FixedMAP<IDirect3DStateBlock9 *,R_dsgraph::mapMatrixTextures,doug_lea_allocator>::TNode *,doug_lea_alloc<FixedMAP<IDirect3DStateBlock9 *,R_dsgraph::mapMatrixTextures,doug_lea_allocator>::TNode *> >::~vector<FixedMAP<IDirect3DStateBlock9 *,R_dsgraph::mapMatrixTextures,doug_lea_allocator>::TNode *,doug_lea_alloc<FixedMAP<IDirect3DStateBlock9 *,R_dsgraph::mapMatrixTextures,doug_lea_allocator>::TNode *> >
PUBLIC	?_Tidy@?$vector@PAUTNode@?$FixedMAP@PAUIDirect3DStateBlock9@@UmapMatrixTextures@R_dsgraph@@Udoug_lea_allocator@@@@V?$doug_lea_alloc@PAUTNode@?$FixedMAP@PAUIDirect3DStateBlock9@@UmapMatrixTextures@R_dsgraph@@Udoug_lea_allocator@@@@@@@std@@AAEXXZ ; std::vector<FixedMAP<IDirect3DStateBlock9 *,R_dsgraph::mapMatrixTextures,doug_lea_allocator>::TNode *,doug_lea_alloc<FixedMAP<IDirect3DStateBlock9 *,R_dsgraph::mapMatrixTextures,doug_lea_allocator>::TNode *> >::_Tidy
PUBLIC	??0?$xr_vector@PAUTNode@?$FixedMAP@PAUIDirect3DStateBlock9@@UmapMatrixTextures@R_dsgraph@@Udoug_lea_allocator@@@@V?$doug_lea_alloc@PAUTNode@?$FixedMAP@PAUIDirect3DStateBlock9@@UmapMatrixTextures@R_dsgraph@@Udoug_lea_allocator@@@@@@@@QAE@XZ ; xr_vector<FixedMAP<IDirect3DStateBlock9 *,R_dsgraph::mapMatrixTextures,doug_lea_allocator>::TNode *,doug_lea_alloc<FixedMAP<IDirect3DStateBlock9 *,R_dsgraph::mapMatrixTextures,doug_lea_allocator>::TNode *> >::xr_vector<FixedMAP<IDirect3DStateBlock9 *,R_dsgraph::mapMatrixTextures,doug_lea_allocator>::TNode *,doug_lea_alloc<FixedMAP<IDirect3DStateBlock9 *,R_dsgraph::mapMatrixTextures,doug_lea_allocator>::TNode *> >
PUBLIC	??0?$vector@PAUTNode@?$FixedMAP@PAUIDirect3DStateBlock9@@UmapMatrixTextures@R_dsgraph@@Udoug_lea_allocator@@@@V?$doug_lea_alloc@PAUTNode@?$FixedMAP@PAUIDirect3DStateBlock9@@UmapMatrixTextures@R_dsgraph@@Udoug_lea_allocator@@@@@@@std@@QAE@XZ ; std::vector<FixedMAP<IDirect3DStateBlock9 *,R_dsgraph::mapMatrixTextures,doug_lea_allocator>::TNode *,doug_lea_alloc<FixedMAP<IDirect3DStateBlock9 *,R_dsgraph::mapMatrixTextures,doug_lea_allocator>::TNode *> >::vector<FixedMAP<IDirect3DStateBlock9 *,R_dsgraph::mapMatrixTextures,doug_lea_allocator>::TNode *,doug_lea_alloc<FixedMAP<IDirect3DStateBlock9 *,R_dsgraph::mapMatrixTextures,doug_lea_allocator>::TNode *> >
PUBLIC	??$?0$$V@?$_Compressed_pair@V?$doug_lea_alloc@PAUTNode@?$FixedMAP@PAUIDirect3DStateBlock9@@UmapMatrixTextures@R_dsgraph@@Udoug_lea_allocator@@@@@@V?$_Vector_val@U?$_Simple_types@PAUTNode@?$FixedMAP@PAUIDirect3DStateBlock9@@UmapMatrixTextures@R_dsgraph@@Udoug_lea_allocator@@@@@std@@@std@@$00@std@@QAE@U_Zero_then_variadic_args_t@1@@Z ; std::_Compressed_pair<doug_lea_alloc<FixedMAP<IDirect3DStateBlock9 *,R_dsgraph::mapMatrixTextures,doug_lea_allocator>::TNode *>,std::_Vector_val<std::_Simple_types<FixedMAP<IDirect3DStateBlock9 *,R_dsgraph::mapMatrixTextures,doug_lea_allocator>::TNode *> >,1>::_Compressed_pair<doug_lea_alloc<FixedMAP<IDirect3DStateBlock9 *,R_dsgraph::mapMatrixTextures,doug_lea_allocator>::TNode *>,std::_Vector_val<std::_Simple_types<FixedMAP<IDirect3DStateBlock9 *,R_dsgraph::mapMatrixTextures,doug_lea_allocator>::TNode *> >,1><>
PUBLIC	??0?$_Vector_val@U?$_Simple_types@PAUTNode@?$FixedMAP@PAUIDirect3DStateBlock9@@UmapMatrixTextures@R_dsgraph@@Udoug_lea_allocator@@@@@std@@@std@@QAE@XZ ; std::_Vector_val<std::_Simple_types<FixedMAP<IDirect3DStateBlock9 *,R_dsgraph::mapMatrixTextures,doug_lea_allocator>::TNode *> >::_Vector_val<std::_Simple_types<FixedMAP<IDirect3DStateBlock9 *,R_dsgraph::mapMatrixTextures,doug_lea_allocator>::TNode *> >
PUBLIC	??0?$doug_lea_alloc@PAUTNode@?$FixedMAP@PAUIDirect3DStateBlock9@@UmapMatrixTextures@R_dsgraph@@Udoug_lea_allocator@@@@@@QAE@XZ ; doug_lea_alloc<FixedMAP<IDirect3DStateBlock9 *,R_dsgraph::mapMatrixTextures,doug_lea_allocator>::TNode *>::doug_lea_alloc<FixedMAP<IDirect3DStateBlock9 *,R_dsgraph::mapMatrixTextures,doug_lea_allocator>::TNode *>
PUBLIC	??1?$xr_vector@PAUTNode@?$FixedMAP@PAVR_constant_table@@UmapMatrixStates@R_dsgraph@@Udoug_lea_allocator@@@@V?$doug_lea_alloc@PAUTNode@?$FixedMAP@PAVR_constant_table@@UmapMatrixStates@R_dsgraph@@Udoug_lea_allocator@@@@@@@@QAE@XZ ; xr_vector<FixedMAP<R_constant_table *,R_dsgraph::mapMatrixStates,doug_lea_allocator>::TNode *,doug_lea_alloc<FixedMAP<R_constant_table *,R_dsgraph::mapMatrixStates,doug_lea_allocator>::TNode *> >::~xr_vector<FixedMAP<R_constant_table *,R_dsgraph::mapMatrixStates,doug_lea_allocator>::TNode *,doug_lea_alloc<FixedMAP<R_constant_table *,R_dsgraph::mapMatrixStates,doug_lea_allocator>::TNode *> >
PUBLIC	??1?$vector@PAUTNode@?$FixedMAP@PAVR_constant_table@@UmapMatrixStates@R_dsgraph@@Udoug_lea_allocator@@@@V?$doug_lea_alloc@PAUTNode@?$FixedMAP@PAVR_constant_table@@UmapMatrixStates@R_dsgraph@@Udoug_lea_allocator@@@@@@@std@@QAE@XZ ; std::vector<FixedMAP<R_constant_table *,R_dsgraph::mapMatrixStates,doug_lea_allocator>::TNode *,doug_lea_alloc<FixedMAP<R_constant_table *,R_dsgraph::mapMatrixStates,doug_lea_allocator>::TNode *> >::~vector<FixedMAP<R_constant_table *,R_dsgraph::mapMatrixStates,doug_lea_allocator>::TNode *,doug_lea_alloc<FixedMAP<R_constant_table *,R_dsgraph::mapMatrixStates,doug_lea_allocator>::TNode *> >
PUBLIC	?_Tidy@?$vector@PAUTNode@?$FixedMAP@PAVR_constant_table@@UmapMatrixStates@R_dsgraph@@Udoug_lea_allocator@@@@V?$doug_lea_alloc@PAUTNode@?$FixedMAP@PAVR_constant_table@@UmapMatrixStates@R_dsgraph@@Udoug_lea_allocator@@@@@@@std@@AAEXXZ ; std::vector<FixedMAP<R_constant_table *,R_dsgraph::mapMatrixStates,doug_lea_allocator>::TNode *,doug_lea_alloc<FixedMAP<R_constant_table *,R_dsgraph::mapMatrixStates,doug_lea_allocator>::TNode *> >::_Tidy
PUBLIC	??0?$xr_vector@PAUTNode@?$FixedMAP@PAVR_constant_table@@UmapMatrixStates@R_dsgraph@@Udoug_lea_allocator@@@@V?$doug_lea_alloc@PAUTNode@?$FixedMAP@PAVR_constant_table@@UmapMatrixStates@R_dsgraph@@Udoug_lea_allocator@@@@@@@@QAE@XZ ; xr_vector<FixedMAP<R_constant_table *,R_dsgraph::mapMatrixStates,doug_lea_allocator>::TNode *,doug_lea_alloc<FixedMAP<R_constant_table *,R_dsgraph::mapMatrixStates,doug_lea_allocator>::TNode *> >::xr_vector<FixedMAP<R_constant_table *,R_dsgraph::mapMatrixStates,doug_lea_allocator>::TNode *,doug_lea_alloc<FixedMAP<R_constant_table *,R_dsgraph::mapMatrixStates,doug_lea_allocator>::TNode *> >
PUBLIC	??0?$vector@PAUTNode@?$FixedMAP@PAVR_constant_table@@UmapMatrixStates@R_dsgraph@@Udoug_lea_allocator@@@@V?$doug_lea_alloc@PAUTNode@?$FixedMAP@PAVR_constant_table@@UmapMatrixStates@R_dsgraph@@Udoug_lea_allocator@@@@@@@std@@QAE@XZ ; std::vector<FixedMAP<R_constant_table *,R_dsgraph::mapMatrixStates,doug_lea_allocator>::TNode *,doug_lea_alloc<FixedMAP<R_constant_table *,R_dsgraph::mapMatrixStates,doug_lea_allocator>::TNode *> >::vector<FixedMAP<R_constant_table *,R_dsgraph::mapMatrixStates,doug_lea_allocator>::TNode *,doug_lea_alloc<FixedMAP<R_constant_table *,R_dsgraph::mapMatrixStates,doug_lea_allocator>::TNode *> >
PUBLIC	??$?0$$V@?$_Compressed_pair@V?$doug_lea_alloc@PAUTNode@?$FixedMAP@PAVR_constant_table@@UmapMatrixStates@R_dsgraph@@Udoug_lea_allocator@@@@@@V?$_Vector_val@U?$_Simple_types@PAUTNode@?$FixedMAP@PAVR_constant_table@@UmapMatrixStates@R_dsgraph@@Udoug_lea_allocator@@@@@std@@@std@@$00@std@@QAE@U_Zero_then_variadic_args_t@1@@Z ; std::_Compressed_pair<doug_lea_alloc<FixedMAP<R_constant_table *,R_dsgraph::mapMatrixStates,doug_lea_allocator>::TNode *>,std::_Vector_val<std::_Simple_types<FixedMAP<R_constant_table *,R_dsgraph::mapMatrixStates,doug_lea_allocator>::TNode *> >,1>::_Compressed_pair<doug_lea_alloc<FixedMAP<R_constant_table *,R_dsgraph::mapMatrixStates,doug_lea_allocator>::TNode *>,std::_Vector_val<std::_Simple_types<FixedMAP<R_constant_table *,R_dsgraph::mapMatrixStates,doug_lea_allocator>::TNode *> >,1><>
PUBLIC	??0?$_Vector_val@U?$_Simple_types@PAUTNode@?$FixedMAP@PAVR_constant_table@@UmapMatrixStates@R_dsgraph@@Udoug_lea_allocator@@@@@std@@@std@@QAE@XZ ; std::_Vector_val<std::_Simple_types<FixedMAP<R_constant_table *,R_dsgraph::mapMatrixStates,doug_lea_allocator>::TNode *> >::_Vector_val<std::_Simple_types<FixedMAP<R_constant_table *,R_dsgraph::mapMatrixStates,doug_lea_allocator>::TNode *> >
PUBLIC	??0?$doug_lea_alloc@PAUTNode@?$FixedMAP@PAVR_constant_table@@UmapMatrixStates@R_dsgraph@@Udoug_lea_allocator@@@@@@QAE@XZ ; doug_lea_alloc<FixedMAP<R_constant_table *,R_dsgraph::mapMatrixStates,doug_lea_allocator>::TNode *>::doug_lea_alloc<FixedMAP<R_constant_table *,R_dsgraph::mapMatrixStates,doug_lea_allocator>::TNode *>
PUBLIC	??1?$xr_vector@PAUTNode@?$FixedMAP@PAUIDirect3DPixelShader9@@UmapMatrixCS@R_dsgraph@@Udoug_lea_allocator@@@@V?$doug_lea_alloc@PAUTNode@?$FixedMAP@PAUIDirect3DPixelShader9@@UmapMatrixCS@R_dsgraph@@Udoug_lea_allocator@@@@@@@@QAE@XZ ; xr_vector<FixedMAP<IDirect3DPixelShader9 *,R_dsgraph::mapMatrixCS,doug_lea_allocator>::TNode *,doug_lea_alloc<FixedMAP<IDirect3DPixelShader9 *,R_dsgraph::mapMatrixCS,doug_lea_allocator>::TNode *> >::~xr_vector<FixedMAP<IDirect3DPixelShader9 *,R_dsgraph::mapMatrixCS,doug_lea_allocator>::TNode *,doug_lea_alloc<FixedMAP<IDirect3DPixelShader9 *,R_dsgraph::mapMatrixCS,doug_lea_allocator>::TNode *> >
PUBLIC	??1?$vector@PAUTNode@?$FixedMAP@PAUIDirect3DPixelShader9@@UmapMatrixCS@R_dsgraph@@Udoug_lea_allocator@@@@V?$doug_lea_alloc@PAUTNode@?$FixedMAP@PAUIDirect3DPixelShader9@@UmapMatrixCS@R_dsgraph@@Udoug_lea_allocator@@@@@@@std@@QAE@XZ ; std::vector<FixedMAP<IDirect3DPixelShader9 *,R_dsgraph::mapMatrixCS,doug_lea_allocator>::TNode *,doug_lea_alloc<FixedMAP<IDirect3DPixelShader9 *,R_dsgraph::mapMatrixCS,doug_lea_allocator>::TNode *> >::~vector<FixedMAP<IDirect3DPixelShader9 *,R_dsgraph::mapMatrixCS,doug_lea_allocator>::TNode *,doug_lea_alloc<FixedMAP<IDirect3DPixelShader9 *,R_dsgraph::mapMatrixCS,doug_lea_allocator>::TNode *> >
PUBLIC	?_Tidy@?$vector@PAUTNode@?$FixedMAP@PAUIDirect3DPixelShader9@@UmapMatrixCS@R_dsgraph@@Udoug_lea_allocator@@@@V?$doug_lea_alloc@PAUTNode@?$FixedMAP@PAUIDirect3DPixelShader9@@UmapMatrixCS@R_dsgraph@@Udoug_lea_allocator@@@@@@@std@@AAEXXZ ; std::vector<FixedMAP<IDirect3DPixelShader9 *,R_dsgraph::mapMatrixCS,doug_lea_allocator>::TNode *,doug_lea_alloc<FixedMAP<IDirect3DPixelShader9 *,R_dsgraph::mapMatrixCS,doug_lea_allocator>::TNode *> >::_Tidy
PUBLIC	??0?$xr_vector@PAUTNode@?$FixedMAP@PAUIDirect3DPixelShader9@@UmapMatrixCS@R_dsgraph@@Udoug_lea_allocator@@@@V?$doug_lea_alloc@PAUTNode@?$FixedMAP@PAUIDirect3DPixelShader9@@UmapMatrixCS@R_dsgraph@@Udoug_lea_allocator@@@@@@@@QAE@XZ ; xr_vector<FixedMAP<IDirect3DPixelShader9 *,R_dsgraph::mapMatrixCS,doug_lea_allocator>::TNode *,doug_lea_alloc<FixedMAP<IDirect3DPixelShader9 *,R_dsgraph::mapMatrixCS,doug_lea_allocator>::TNode *> >::xr_vector<FixedMAP<IDirect3DPixelShader9 *,R_dsgraph::mapMatrixCS,doug_lea_allocator>::TNode *,doug_lea_alloc<FixedMAP<IDirect3DPixelShader9 *,R_dsgraph::mapMatrixCS,doug_lea_allocator>::TNode *> >
PUBLIC	??0?$vector@PAUTNode@?$FixedMAP@PAUIDirect3DPixelShader9@@UmapMatrixCS@R_dsgraph@@Udoug_lea_allocator@@@@V?$doug_lea_alloc@PAUTNode@?$FixedMAP@PAUIDirect3DPixelShader9@@UmapMatrixCS@R_dsgraph@@Udoug_lea_allocator@@@@@@@std@@QAE@XZ ; std::vector<FixedMAP<IDirect3DPixelShader9 *,R_dsgraph::mapMatrixCS,doug_lea_allocator>::TNode *,doug_lea_alloc<FixedMAP<IDirect3DPixelShader9 *,R_dsgraph::mapMatrixCS,doug_lea_allocator>::TNode *> >::vector<FixedMAP<IDirect3DPixelShader9 *,R_dsgraph::mapMatrixCS,doug_lea_allocator>::TNode *,doug_lea_alloc<FixedMAP<IDirect3DPixelShader9 *,R_dsgraph::mapMatrixCS,doug_lea_allocator>::TNode *> >
PUBLIC	??$?0$$V@?$_Compressed_pair@V?$doug_lea_alloc@PAUTNode@?$FixedMAP@PAUIDirect3DPixelShader9@@UmapMatrixCS@R_dsgraph@@Udoug_lea_allocator@@@@@@V?$_Vector_val@U?$_Simple_types@PAUTNode@?$FixedMAP@PAUIDirect3DPixelShader9@@UmapMatrixCS@R_dsgraph@@Udoug_lea_allocator@@@@@std@@@std@@$00@std@@QAE@U_Zero_then_variadic_args_t@1@@Z ; std::_Compressed_pair<doug_lea_alloc<FixedMAP<IDirect3DPixelShader9 *,R_dsgraph::mapMatrixCS,doug_lea_allocator>::TNode *>,std::_Vector_val<std::_Simple_types<FixedMAP<IDirect3DPixelShader9 *,R_dsgraph::mapMatrixCS,doug_lea_allocator>::TNode *> >,1>::_Compressed_pair<doug_lea_alloc<FixedMAP<IDirect3DPixelShader9 *,R_dsgraph::mapMatrixCS,doug_lea_allocator>::TNode *>,std::_Vector_val<std::_Simple_types<FixedMAP<IDirect3DPixelShader9 *,R_dsgraph::mapMatrixCS,doug_lea_allocator>::TNode *> >,1><>
PUBLIC	??0?$_Vector_val@U?$_Simple_types@PAUTNode@?$FixedMAP@PAUIDirect3DPixelShader9@@UmapMatrixCS@R_dsgraph@@Udoug_lea_allocator@@@@@std@@@std@@QAE@XZ ; std::_Vector_val<std::_Simple_types<FixedMAP<IDirect3DPixelShader9 *,R_dsgraph::mapMatrixCS,doug_lea_allocator>::TNode *> >::_Vector_val<std::_Simple_types<FixedMAP<IDirect3DPixelShader9 *,R_dsgraph::mapMatrixCS,doug_lea_allocator>::TNode *> >
PUBLIC	??0?$doug_lea_alloc@PAUTNode@?$FixedMAP@PAUIDirect3DPixelShader9@@UmapMatrixCS@R_dsgraph@@Udoug_lea_allocator@@@@@@QAE@XZ ; doug_lea_alloc<FixedMAP<IDirect3DPixelShader9 *,R_dsgraph::mapMatrixCS,doug_lea_allocator>::TNode *>::doug_lea_alloc<FixedMAP<IDirect3DPixelShader9 *,R_dsgraph::mapMatrixCS,doug_lea_allocator>::TNode *>
PUBLIC	??1?$xr_vector@PAUTNode@?$FixedMAP@PAUIDirect3DVertexShader9@@UmapMatrixPS@R_dsgraph@@Udoug_lea_allocator@@@@V?$doug_lea_alloc@PAUTNode@?$FixedMAP@PAUIDirect3DVertexShader9@@UmapMatrixPS@R_dsgraph@@Udoug_lea_allocator@@@@@@@@QAE@XZ ; xr_vector<FixedMAP<IDirect3DVertexShader9 *,R_dsgraph::mapMatrixPS,doug_lea_allocator>::TNode *,doug_lea_alloc<FixedMAP<IDirect3DVertexShader9 *,R_dsgraph::mapMatrixPS,doug_lea_allocator>::TNode *> >::~xr_vector<FixedMAP<IDirect3DVertexShader9 *,R_dsgraph::mapMatrixPS,doug_lea_allocator>::TNode *,doug_lea_alloc<FixedMAP<IDirect3DVertexShader9 *,R_dsgraph::mapMatrixPS,doug_lea_allocator>::TNode *> >
PUBLIC	??1?$vector@PAUTNode@?$FixedMAP@PAUIDirect3DVertexShader9@@UmapMatrixPS@R_dsgraph@@Udoug_lea_allocator@@@@V?$doug_lea_alloc@PAUTNode@?$FixedMAP@PAUIDirect3DVertexShader9@@UmapMatrixPS@R_dsgraph@@Udoug_lea_allocator@@@@@@@std@@QAE@XZ ; std::vector<FixedMAP<IDirect3DVertexShader9 *,R_dsgraph::mapMatrixPS,doug_lea_allocator>::TNode *,doug_lea_alloc<FixedMAP<IDirect3DVertexShader9 *,R_dsgraph::mapMatrixPS,doug_lea_allocator>::TNode *> >::~vector<FixedMAP<IDirect3DVertexShader9 *,R_dsgraph::mapMatrixPS,doug_lea_allocator>::TNode *,doug_lea_alloc<FixedMAP<IDirect3DVertexShader9 *,R_dsgraph::mapMatrixPS,doug_lea_allocator>::TNode *> >
PUBLIC	?_Tidy@?$vector@PAUTNode@?$FixedMAP@PAUIDirect3DVertexShader9@@UmapMatrixPS@R_dsgraph@@Udoug_lea_allocator@@@@V?$doug_lea_alloc@PAUTNode@?$FixedMAP@PAUIDirect3DVertexShader9@@UmapMatrixPS@R_dsgraph@@Udoug_lea_allocator@@@@@@@std@@AAEXXZ ; std::vector<FixedMAP<IDirect3DVertexShader9 *,R_dsgraph::mapMatrixPS,doug_lea_allocator>::TNode *,doug_lea_alloc<FixedMAP<IDirect3DVertexShader9 *,R_dsgraph::mapMatrixPS,doug_lea_allocator>::TNode *> >::_Tidy
PUBLIC	??0?$xr_vector@PAUTNode@?$FixedMAP@PAUIDirect3DVertexShader9@@UmapMatrixPS@R_dsgraph@@Udoug_lea_allocator@@@@V?$doug_lea_alloc@PAUTNode@?$FixedMAP@PAUIDirect3DVertexShader9@@UmapMatrixPS@R_dsgraph@@Udoug_lea_allocator@@@@@@@@QAE@XZ ; xr_vector<FixedMAP<IDirect3DVertexShader9 *,R_dsgraph::mapMatrixPS,doug_lea_allocator>::TNode *,doug_lea_alloc<FixedMAP<IDirect3DVertexShader9 *,R_dsgraph::mapMatrixPS,doug_lea_allocator>::TNode *> >::xr_vector<FixedMAP<IDirect3DVertexShader9 *,R_dsgraph::mapMatrixPS,doug_lea_allocator>::TNode *,doug_lea_alloc<FixedMAP<IDirect3DVertexShader9 *,R_dsgraph::mapMatrixPS,doug_lea_allocator>::TNode *> >
PUBLIC	??0?$vector@PAUTNode@?$FixedMAP@PAUIDirect3DVertexShader9@@UmapMatrixPS@R_dsgraph@@Udoug_lea_allocator@@@@V?$doug_lea_alloc@PAUTNode@?$FixedMAP@PAUIDirect3DVertexShader9@@UmapMatrixPS@R_dsgraph@@Udoug_lea_allocator@@@@@@@std@@QAE@XZ ; std::vector<FixedMAP<IDirect3DVertexShader9 *,R_dsgraph::mapMatrixPS,doug_lea_allocator>::TNode *,doug_lea_alloc<FixedMAP<IDirect3DVertexShader9 *,R_dsgraph::mapMatrixPS,doug_lea_allocator>::TNode *> >::vector<FixedMAP<IDirect3DVertexShader9 *,R_dsgraph::mapMatrixPS,doug_lea_allocator>::TNode *,doug_lea_alloc<FixedMAP<IDirect3DVertexShader9 *,R_dsgraph::mapMatrixPS,doug_lea_allocator>::TNode *> >
PUBLIC	??$?0$$V@?$_Compressed_pair@V?$doug_lea_alloc@PAUTNode@?$FixedMAP@PAUIDirect3DVertexShader9@@UmapMatrixPS@R_dsgraph@@Udoug_lea_allocator@@@@@@V?$_Vector_val@U?$_Simple_types@PAUTNode@?$FixedMAP@PAUIDirect3DVertexShader9@@UmapMatrixPS@R_dsgraph@@Udoug_lea_allocator@@@@@std@@@std@@$00@std@@QAE@U_Zero_then_variadic_args_t@1@@Z ; std::_Compressed_pair<doug_lea_alloc<FixedMAP<IDirect3DVertexShader9 *,R_dsgraph::mapMatrixPS,doug_lea_allocator>::TNode *>,std::_Vector_val<std::_Simple_types<FixedMAP<IDirect3DVertexShader9 *,R_dsgraph::mapMatrixPS,doug_lea_allocator>::TNode *> >,1>::_Compressed_pair<doug_lea_alloc<FixedMAP<IDirect3DVertexShader9 *,R_dsgraph::mapMatrixPS,doug_lea_allocator>::TNode *>,std::_Vector_val<std::_Simple_types<FixedMAP<IDirect3DVertexShader9 *,R_dsgraph::mapMatrixPS,doug_lea_allocator>::TNode *> >,1><>
PUBLIC	??0?$_Vector_val@U?$_Simple_types@PAUTNode@?$FixedMAP@PAUIDirect3DVertexShader9@@UmapMatrixPS@R_dsgraph@@Udoug_lea_allocator@@@@@std@@@std@@QAE@XZ ; std::_Vector_val<std::_Simple_types<FixedMAP<IDirect3DVertexShader9 *,R_dsgraph::mapMatrixPS,doug_lea_allocator>::TNode *> >::_Vector_val<std::_Simple_types<FixedMAP<IDirect3DVertexShader9 *,R_dsgraph::mapMatrixPS,doug_lea_allocator>::TNode *> >
PUBLIC	??0?$doug_lea_alloc@PAUTNode@?$FixedMAP@PAUIDirect3DVertexShader9@@UmapMatrixPS@R_dsgraph@@Udoug_lea_allocator@@@@@@QAE@XZ ; doug_lea_alloc<FixedMAP<IDirect3DVertexShader9 *,R_dsgraph::mapMatrixPS,doug_lea_allocator>::TNode *>::doug_lea_alloc<FixedMAP<IDirect3DVertexShader9 *,R_dsgraph::mapMatrixPS,doug_lea_allocator>::TNode *>
PUBLIC	??1?$xr_vector@PAUTNode@?$FixedMAP@PAUSTextureList@@UmapNormalItems@R_dsgraph@@Udoug_lea_allocator@@@@V?$doug_lea_alloc@PAUTNode@?$FixedMAP@PAUSTextureList@@UmapNormalItems@R_dsgraph@@Udoug_lea_allocator@@@@@@@@QAE@XZ ; xr_vector<FixedMAP<STextureList *,R_dsgraph::mapNormalItems,doug_lea_allocator>::TNode *,doug_lea_alloc<FixedMAP<STextureList *,R_dsgraph::mapNormalItems,doug_lea_allocator>::TNode *> >::~xr_vector<FixedMAP<STextureList *,R_dsgraph::mapNormalItems,doug_lea_allocator>::TNode *,doug_lea_alloc<FixedMAP<STextureList *,R_dsgraph::mapNormalItems,doug_lea_allocator>::TNode *> >
PUBLIC	??1?$vector@PAUTNode@?$FixedMAP@PAUSTextureList@@UmapNormalItems@R_dsgraph@@Udoug_lea_allocator@@@@V?$doug_lea_alloc@PAUTNode@?$FixedMAP@PAUSTextureList@@UmapNormalItems@R_dsgraph@@Udoug_lea_allocator@@@@@@@std@@QAE@XZ ; std::vector<FixedMAP<STextureList *,R_dsgraph::mapNormalItems,doug_lea_allocator>::TNode *,doug_lea_alloc<FixedMAP<STextureList *,R_dsgraph::mapNormalItems,doug_lea_allocator>::TNode *> >::~vector<FixedMAP<STextureList *,R_dsgraph::mapNormalItems,doug_lea_allocator>::TNode *,doug_lea_alloc<FixedMAP<STextureList *,R_dsgraph::mapNormalItems,doug_lea_allocator>::TNode *> >
PUBLIC	?_Tidy@?$vector@PAUTNode@?$FixedMAP@PAUSTextureList@@UmapNormalItems@R_dsgraph@@Udoug_lea_allocator@@@@V?$doug_lea_alloc@PAUTNode@?$FixedMAP@PAUSTextureList@@UmapNormalItems@R_dsgraph@@Udoug_lea_allocator@@@@@@@std@@AAEXXZ ; std::vector<FixedMAP<STextureList *,R_dsgraph::mapNormalItems,doug_lea_allocator>::TNode *,doug_lea_alloc<FixedMAP<STextureList *,R_dsgraph::mapNormalItems,doug_lea_allocator>::TNode *> >::_Tidy
PUBLIC	??0?$xr_vector@PAUTNode@?$FixedMAP@PAUSTextureList@@UmapNormalItems@R_dsgraph@@Udoug_lea_allocator@@@@V?$doug_lea_alloc@PAUTNode@?$FixedMAP@PAUSTextureList@@UmapNormalItems@R_dsgraph@@Udoug_lea_allocator@@@@@@@@QAE@XZ ; xr_vector<FixedMAP<STextureList *,R_dsgraph::mapNormalItems,doug_lea_allocator>::TNode *,doug_lea_alloc<FixedMAP<STextureList *,R_dsgraph::mapNormalItems,doug_lea_allocator>::TNode *> >::xr_vector<FixedMAP<STextureList *,R_dsgraph::mapNormalItems,doug_lea_allocator>::TNode *,doug_lea_alloc<FixedMAP<STextureList *,R_dsgraph::mapNormalItems,doug_lea_allocator>::TNode *> >
PUBLIC	??0?$vector@PAUTNode@?$FixedMAP@PAUSTextureList@@UmapNormalItems@R_dsgraph@@Udoug_lea_allocator@@@@V?$doug_lea_alloc@PAUTNode@?$FixedMAP@PAUSTextureList@@UmapNormalItems@R_dsgraph@@Udoug_lea_allocator@@@@@@@std@@QAE@XZ ; std::vector<FixedMAP<STextureList *,R_dsgraph::mapNormalItems,doug_lea_allocator>::TNode *,doug_lea_alloc<FixedMAP<STextureList *,R_dsgraph::mapNormalItems,doug_lea_allocator>::TNode *> >::vector<FixedMAP<STextureList *,R_dsgraph::mapNormalItems,doug_lea_allocator>::TNode *,doug_lea_alloc<FixedMAP<STextureList *,R_dsgraph::mapNormalItems,doug_lea_allocator>::TNode *> >
PUBLIC	??$?0$$V@?$_Compressed_pair@V?$doug_lea_alloc@PAUTNode@?$FixedMAP@PAUSTextureList@@UmapNormalItems@R_dsgraph@@Udoug_lea_allocator@@@@@@V?$_Vector_val@U?$_Simple_types@PAUTNode@?$FixedMAP@PAUSTextureList@@UmapNormalItems@R_dsgraph@@Udoug_lea_allocator@@@@@std@@@std@@$00@std@@QAE@U_Zero_then_variadic_args_t@1@@Z ; std::_Compressed_pair<doug_lea_alloc<FixedMAP<STextureList *,R_dsgraph::mapNormalItems,doug_lea_allocator>::TNode *>,std::_Vector_val<std::_Simple_types<FixedMAP<STextureList *,R_dsgraph::mapNormalItems,doug_lea_allocator>::TNode *> >,1>::_Compressed_pair<doug_lea_alloc<FixedMAP<STextureList *,R_dsgraph::mapNormalItems,doug_lea_allocator>::TNode *>,std::_Vector_val<std::_Simple_types<FixedMAP<STextureList *,R_dsgraph::mapNormalItems,doug_lea_allocator>::TNode *> >,1><>
PUBLIC	??0?$_Vector_val@U?$_Simple_types@PAUTNode@?$FixedMAP@PAUSTextureList@@UmapNormalItems@R_dsgraph@@Udoug_lea_allocator@@@@@std@@@std@@QAE@XZ ; std::_Vector_val<std::_Simple_types<FixedMAP<STextureList *,R_dsgraph::mapNormalItems,doug_lea_allocator>::TNode *> >::_Vector_val<std::_Simple_types<FixedMAP<STextureList *,R_dsgraph::mapNormalItems,doug_lea_allocator>::TNode *> >
PUBLIC	??0?$doug_lea_alloc@PAUTNode@?$FixedMAP@PAUSTextureList@@UmapNormalItems@R_dsgraph@@Udoug_lea_allocator@@@@@@QAE@XZ ; doug_lea_alloc<FixedMAP<STextureList *,R_dsgraph::mapNormalItems,doug_lea_allocator>::TNode *>::doug_lea_alloc<FixedMAP<STextureList *,R_dsgraph::mapNormalItems,doug_lea_allocator>::TNode *>
PUBLIC	??1?$xr_vector@PAUTNode@?$FixedMAP@PAUIDirect3DStateBlock9@@UmapNormalTextures@R_dsgraph@@Udoug_lea_allocator@@@@V?$doug_lea_alloc@PAUTNode@?$FixedMAP@PAUIDirect3DStateBlock9@@UmapNormalTextures@R_dsgraph@@Udoug_lea_allocator@@@@@@@@QAE@XZ ; xr_vector<FixedMAP<IDirect3DStateBlock9 *,R_dsgraph::mapNormalTextures,doug_lea_allocator>::TNode *,doug_lea_alloc<FixedMAP<IDirect3DStateBlock9 *,R_dsgraph::mapNormalTextures,doug_lea_allocator>::TNode *> >::~xr_vector<FixedMAP<IDirect3DStateBlock9 *,R_dsgraph::mapNormalTextures,doug_lea_allocator>::TNode *,doug_lea_alloc<FixedMAP<IDirect3DStateBlock9 *,R_dsgraph::mapNormalTextures,doug_lea_allocator>::TNode *> >
PUBLIC	??1?$vector@PAUTNode@?$FixedMAP@PAUIDirect3DStateBlock9@@UmapNormalTextures@R_dsgraph@@Udoug_lea_allocator@@@@V?$doug_lea_alloc@PAUTNode@?$FixedMAP@PAUIDirect3DStateBlock9@@UmapNormalTextures@R_dsgraph@@Udoug_lea_allocator@@@@@@@std@@QAE@XZ ; std::vector<FixedMAP<IDirect3DStateBlock9 *,R_dsgraph::mapNormalTextures,doug_lea_allocator>::TNode *,doug_lea_alloc<FixedMAP<IDirect3DStateBlock9 *,R_dsgraph::mapNormalTextures,doug_lea_allocator>::TNode *> >::~vector<FixedMAP<IDirect3DStateBlock9 *,R_dsgraph::mapNormalTextures,doug_lea_allocator>::TNode *,doug_lea_alloc<FixedMAP<IDirect3DStateBlock9 *,R_dsgraph::mapNormalTextures,doug_lea_allocator>::TNode *> >
PUBLIC	?_Tidy@?$vector@PAUTNode@?$FixedMAP@PAUIDirect3DStateBlock9@@UmapNormalTextures@R_dsgraph@@Udoug_lea_allocator@@@@V?$doug_lea_alloc@PAUTNode@?$FixedMAP@PAUIDirect3DStateBlock9@@UmapNormalTextures@R_dsgraph@@Udoug_lea_allocator@@@@@@@std@@AAEXXZ ; std::vector<FixedMAP<IDirect3DStateBlock9 *,R_dsgraph::mapNormalTextures,doug_lea_allocator>::TNode *,doug_lea_alloc<FixedMAP<IDirect3DStateBlock9 *,R_dsgraph::mapNormalTextures,doug_lea_allocator>::TNode *> >::_Tidy
PUBLIC	??0?$xr_vector@PAUTNode@?$FixedMAP@PAUIDirect3DStateBlock9@@UmapNormalTextures@R_dsgraph@@Udoug_lea_allocator@@@@V?$doug_lea_alloc@PAUTNode@?$FixedMAP@PAUIDirect3DStateBlock9@@UmapNormalTextures@R_dsgraph@@Udoug_lea_allocator@@@@@@@@QAE@XZ ; xr_vector<FixedMAP<IDirect3DStateBlock9 *,R_dsgraph::mapNormalTextures,doug_lea_allocator>::TNode *,doug_lea_alloc<FixedMAP<IDirect3DStateBlock9 *,R_dsgraph::mapNormalTextures,doug_lea_allocator>::TNode *> >::xr_vector<FixedMAP<IDirect3DStateBlock9 *,R_dsgraph::mapNormalTextures,doug_lea_allocator>::TNode *,doug_lea_alloc<FixedMAP<IDirect3DStateBlock9 *,R_dsgraph::mapNormalTextures,doug_lea_allocator>::TNode *> >
PUBLIC	??0?$vector@PAUTNode@?$FixedMAP@PAUIDirect3DStateBlock9@@UmapNormalTextures@R_dsgraph@@Udoug_lea_allocator@@@@V?$doug_lea_alloc@PAUTNode@?$FixedMAP@PAUIDirect3DStateBlock9@@UmapNormalTextures@R_dsgraph@@Udoug_lea_allocator@@@@@@@std@@QAE@XZ ; std::vector<FixedMAP<IDirect3DStateBlock9 *,R_dsgraph::mapNormalTextures,doug_lea_allocator>::TNode *,doug_lea_alloc<FixedMAP<IDirect3DStateBlock9 *,R_dsgraph::mapNormalTextures,doug_lea_allocator>::TNode *> >::vector<FixedMAP<IDirect3DStateBlock9 *,R_dsgraph::mapNormalTextures,doug_lea_allocator>::TNode *,doug_lea_alloc<FixedMAP<IDirect3DStateBlock9 *,R_dsgraph::mapNormalTextures,doug_lea_allocator>::TNode *> >
PUBLIC	??$?0$$V@?$_Compressed_pair@V?$doug_lea_alloc@PAUTNode@?$FixedMAP@PAUIDirect3DStateBlock9@@UmapNormalTextures@R_dsgraph@@Udoug_lea_allocator@@@@@@V?$_Vector_val@U?$_Simple_types@PAUTNode@?$FixedMAP@PAUIDirect3DStateBlock9@@UmapNormalTextures@R_dsgraph@@Udoug_lea_allocator@@@@@std@@@std@@$00@std@@QAE@U_Zero_then_variadic_args_t@1@@Z ; std::_Compressed_pair<doug_lea_alloc<FixedMAP<IDirect3DStateBlock9 *,R_dsgraph::mapNormalTextures,doug_lea_allocator>::TNode *>,std::_Vector_val<std::_Simple_types<FixedMAP<IDirect3DStateBlock9 *,R_dsgraph::mapNormalTextures,doug_lea_allocator>::TNode *> >,1>::_Compressed_pair<doug_lea_alloc<FixedMAP<IDirect3DStateBlock9 *,R_dsgraph::mapNormalTextures,doug_lea_allocator>::TNode *>,std::_Vector_val<std::_Simple_types<FixedMAP<IDirect3DStateBlock9 *,R_dsgraph::mapNormalTextures,doug_lea_allocator>::TNode *> >,1><>
PUBLIC	??0?$_Vector_val@U?$_Simple_types@PAUTNode@?$FixedMAP@PAUIDirect3DStateBlock9@@UmapNormalTextures@R_dsgraph@@Udoug_lea_allocator@@@@@std@@@std@@QAE@XZ ; std::_Vector_val<std::_Simple_types<FixedMAP<IDirect3DStateBlock9 *,R_dsgraph::mapNormalTextures,doug_lea_allocator>::TNode *> >::_Vector_val<std::_Simple_types<FixedMAP<IDirect3DStateBlock9 *,R_dsgraph::mapNormalTextures,doug_lea_allocator>::TNode *> >
PUBLIC	??0?$doug_lea_alloc@PAUTNode@?$FixedMAP@PAUIDirect3DStateBlock9@@UmapNormalTextures@R_dsgraph@@Udoug_lea_allocator@@@@@@QAE@XZ ; doug_lea_alloc<FixedMAP<IDirect3DStateBlock9 *,R_dsgraph::mapNormalTextures,doug_lea_allocator>::TNode *>::doug_lea_alloc<FixedMAP<IDirect3DStateBlock9 *,R_dsgraph::mapNormalTextures,doug_lea_allocator>::TNode *>
PUBLIC	??1?$xr_vector@PAUTNode@?$FixedMAP@PAVR_constant_table@@UmapNormalStates@R_dsgraph@@Udoug_lea_allocator@@@@V?$doug_lea_alloc@PAUTNode@?$FixedMAP@PAVR_constant_table@@UmapNormalStates@R_dsgraph@@Udoug_lea_allocator@@@@@@@@QAE@XZ ; xr_vector<FixedMAP<R_constant_table *,R_dsgraph::mapNormalStates,doug_lea_allocator>::TNode *,doug_lea_alloc<FixedMAP<R_constant_table *,R_dsgraph::mapNormalStates,doug_lea_allocator>::TNode *> >::~xr_vector<FixedMAP<R_constant_table *,R_dsgraph::mapNormalStates,doug_lea_allocator>::TNode *,doug_lea_alloc<FixedMAP<R_constant_table *,R_dsgraph::mapNormalStates,doug_lea_allocator>::TNode *> >
PUBLIC	??1?$vector@PAUTNode@?$FixedMAP@PAVR_constant_table@@UmapNormalStates@R_dsgraph@@Udoug_lea_allocator@@@@V?$doug_lea_alloc@PAUTNode@?$FixedMAP@PAVR_constant_table@@UmapNormalStates@R_dsgraph@@Udoug_lea_allocator@@@@@@@std@@QAE@XZ ; std::vector<FixedMAP<R_constant_table *,R_dsgraph::mapNormalStates,doug_lea_allocator>::TNode *,doug_lea_alloc<FixedMAP<R_constant_table *,R_dsgraph::mapNormalStates,doug_lea_allocator>::TNode *> >::~vector<FixedMAP<R_constant_table *,R_dsgraph::mapNormalStates,doug_lea_allocator>::TNode *,doug_lea_alloc<FixedMAP<R_constant_table *,R_dsgraph::mapNormalStates,doug_lea_allocator>::TNode *> >
PUBLIC	?_Tidy@?$vector@PAUTNode@?$FixedMAP@PAVR_constant_table@@UmapNormalStates@R_dsgraph@@Udoug_lea_allocator@@@@V?$doug_lea_alloc@PAUTNode@?$FixedMAP@PAVR_constant_table@@UmapNormalStates@R_dsgraph@@Udoug_lea_allocator@@@@@@@std@@AAEXXZ ; std::vector<FixedMAP<R_constant_table *,R_dsgraph::mapNormalStates,doug_lea_allocator>::TNode *,doug_lea_alloc<FixedMAP<R_constant_table *,R_dsgraph::mapNormalStates,doug_lea_allocator>::TNode *> >::_Tidy
PUBLIC	??0?$xr_vector@PAUTNode@?$FixedMAP@PAVR_constant_table@@UmapNormalStates@R_dsgraph@@Udoug_lea_allocator@@@@V?$doug_lea_alloc@PAUTNode@?$FixedMAP@PAVR_constant_table@@UmapNormalStates@R_dsgraph@@Udoug_lea_allocator@@@@@@@@QAE@XZ ; xr_vector<FixedMAP<R_constant_table *,R_dsgraph::mapNormalStates,doug_lea_allocator>::TNode *,doug_lea_alloc<FixedMAP<R_constant_table *,R_dsgraph::mapNormalStates,doug_lea_allocator>::TNode *> >::xr_vector<FixedMAP<R_constant_table *,R_dsgraph::mapNormalStates,doug_lea_allocator>::TNode *,doug_lea_alloc<FixedMAP<R_constant_table *,R_dsgraph::mapNormalStates,doug_lea_allocator>::TNode *> >
PUBLIC	??0?$vector@PAUTNode@?$FixedMAP@PAVR_constant_table@@UmapNormalStates@R_dsgraph@@Udoug_lea_allocator@@@@V?$doug_lea_alloc@PAUTNode@?$FixedMAP@PAVR_constant_table@@UmapNormalStates@R_dsgraph@@Udoug_lea_allocator@@@@@@@std@@QAE@XZ ; std::vector<FixedMAP<R_constant_table *,R_dsgraph::mapNormalStates,doug_lea_allocator>::TNode *,doug_lea_alloc<FixedMAP<R_constant_table *,R_dsgraph::mapNormalStates,doug_lea_allocator>::TNode *> >::vector<FixedMAP<R_constant_table *,R_dsgraph::mapNormalStates,doug_lea_allocator>::TNode *,doug_lea_alloc<FixedMAP<R_constant_table *,R_dsgraph::mapNormalStates,doug_lea_allocator>::TNode *> >
PUBLIC	??$?0$$V@?$_Compressed_pair@V?$doug_lea_alloc@PAUTNode@?$FixedMAP@PAVR_constant_table@@UmapNormalStates@R_dsgraph@@Udoug_lea_allocator@@@@@@V?$_Vector_val@U?$_Simple_types@PAUTNode@?$FixedMAP@PAVR_constant_table@@UmapNormalStates@R_dsgraph@@Udoug_lea_allocator@@@@@std@@@std@@$00@std@@QAE@U_Zero_then_variadic_args_t@1@@Z ; std::_Compressed_pair<doug_lea_alloc<FixedMAP<R_constant_table *,R_dsgraph::mapNormalStates,doug_lea_allocator>::TNode *>,std::_Vector_val<std::_Simple_types<FixedMAP<R_constant_table *,R_dsgraph::mapNormalStates,doug_lea_allocator>::TNode *> >,1>::_Compressed_pair<doug_lea_alloc<FixedMAP<R_constant_table *,R_dsgraph::mapNormalStates,doug_lea_allocator>::TNode *>,std::_Vector_val<std::_Simple_types<FixedMAP<R_constant_table *,R_dsgraph::mapNormalStates,doug_lea_allocator>::TNode *> >,1><>
PUBLIC	??0?$_Vector_val@U?$_Simple_types@PAUTNode@?$FixedMAP@PAVR_constant_table@@UmapNormalStates@R_dsgraph@@Udoug_lea_allocator@@@@@std@@@std@@QAE@XZ ; std::_Vector_val<std::_Simple_types<FixedMAP<R_constant_table *,R_dsgraph::mapNormalStates,doug_lea_allocator>::TNode *> >::_Vector_val<std::_Simple_types<FixedMAP<R_constant_table *,R_dsgraph::mapNormalStates,doug_lea_allocator>::TNode *> >
PUBLIC	??0?$doug_lea_alloc@PAUTNode@?$FixedMAP@PAVR_constant_table@@UmapNormalStates@R_dsgraph@@Udoug_lea_allocator@@@@@@QAE@XZ ; doug_lea_alloc<FixedMAP<R_constant_table *,R_dsgraph::mapNormalStates,doug_lea_allocator>::TNode *>::doug_lea_alloc<FixedMAP<R_constant_table *,R_dsgraph::mapNormalStates,doug_lea_allocator>::TNode *>
PUBLIC	??1?$xr_vector@PAUTNode@?$FixedMAP@PAUIDirect3DPixelShader9@@UmapNormalCS@R_dsgraph@@Udoug_lea_allocator@@@@V?$doug_lea_alloc@PAUTNode@?$FixedMAP@PAUIDirect3DPixelShader9@@UmapNormalCS@R_dsgraph@@Udoug_lea_allocator@@@@@@@@QAE@XZ ; xr_vector<FixedMAP<IDirect3DPixelShader9 *,R_dsgraph::mapNormalCS,doug_lea_allocator>::TNode *,doug_lea_alloc<FixedMAP<IDirect3DPixelShader9 *,R_dsgraph::mapNormalCS,doug_lea_allocator>::TNode *> >::~xr_vector<FixedMAP<IDirect3DPixelShader9 *,R_dsgraph::mapNormalCS,doug_lea_allocator>::TNode *,doug_lea_alloc<FixedMAP<IDirect3DPixelShader9 *,R_dsgraph::mapNormalCS,doug_lea_allocator>::TNode *> >
PUBLIC	??1?$vector@PAUTNode@?$FixedMAP@PAUIDirect3DPixelShader9@@UmapNormalCS@R_dsgraph@@Udoug_lea_allocator@@@@V?$doug_lea_alloc@PAUTNode@?$FixedMAP@PAUIDirect3DPixelShader9@@UmapNormalCS@R_dsgraph@@Udoug_lea_allocator@@@@@@@std@@QAE@XZ ; std::vector<FixedMAP<IDirect3DPixelShader9 *,R_dsgraph::mapNormalCS,doug_lea_allocator>::TNode *,doug_lea_alloc<FixedMAP<IDirect3DPixelShader9 *,R_dsgraph::mapNormalCS,doug_lea_allocator>::TNode *> >::~vector<FixedMAP<IDirect3DPixelShader9 *,R_dsgraph::mapNormalCS,doug_lea_allocator>::TNode *,doug_lea_alloc<FixedMAP<IDirect3DPixelShader9 *,R_dsgraph::mapNormalCS,doug_lea_allocator>::TNode *> >
PUBLIC	?_Tidy@?$vector@PAUTNode@?$FixedMAP@PAUIDirect3DPixelShader9@@UmapNormalCS@R_dsgraph@@Udoug_lea_allocator@@@@V?$doug_lea_alloc@PAUTNode@?$FixedMAP@PAUIDirect3DPixelShader9@@UmapNormalCS@R_dsgraph@@Udoug_lea_allocator@@@@@@@std@@AAEXXZ ; std::vector<FixedMAP<IDirect3DPixelShader9 *,R_dsgraph::mapNormalCS,doug_lea_allocator>::TNode *,doug_lea_alloc<FixedMAP<IDirect3DPixelShader9 *,R_dsgraph::mapNormalCS,doug_lea_allocator>::TNode *> >::_Tidy
PUBLIC	??0?$xr_vector@PAUTNode@?$FixedMAP@PAUIDirect3DPixelShader9@@UmapNormalCS@R_dsgraph@@Udoug_lea_allocator@@@@V?$doug_lea_alloc@PAUTNode@?$FixedMAP@PAUIDirect3DPixelShader9@@UmapNormalCS@R_dsgraph@@Udoug_lea_allocator@@@@@@@@QAE@XZ ; xr_vector<FixedMAP<IDirect3DPixelShader9 *,R_dsgraph::mapNormalCS,doug_lea_allocator>::TNode *,doug_lea_alloc<FixedMAP<IDirect3DPixelShader9 *,R_dsgraph::mapNormalCS,doug_lea_allocator>::TNode *> >::xr_vector<FixedMAP<IDirect3DPixelShader9 *,R_dsgraph::mapNormalCS,doug_lea_allocator>::TNode *,doug_lea_alloc<FixedMAP<IDirect3DPixelShader9 *,R_dsgraph::mapNormalCS,doug_lea_allocator>::TNode *> >
PUBLIC	??0?$vector@PAUTNode@?$FixedMAP@PAUIDirect3DPixelShader9@@UmapNormalCS@R_dsgraph@@Udoug_lea_allocator@@@@V?$doug_lea_alloc@PAUTNode@?$FixedMAP@PAUIDirect3DPixelShader9@@UmapNormalCS@R_dsgraph@@Udoug_lea_allocator@@@@@@@std@@QAE@XZ ; std::vector<FixedMAP<IDirect3DPixelShader9 *,R_dsgraph::mapNormalCS,doug_lea_allocator>::TNode *,doug_lea_alloc<FixedMAP<IDirect3DPixelShader9 *,R_dsgraph::mapNormalCS,doug_lea_allocator>::TNode *> >::vector<FixedMAP<IDirect3DPixelShader9 *,R_dsgraph::mapNormalCS,doug_lea_allocator>::TNode *,doug_lea_alloc<FixedMAP<IDirect3DPixelShader9 *,R_dsgraph::mapNormalCS,doug_lea_allocator>::TNode *> >
PUBLIC	??$?0$$V@?$_Compressed_pair@V?$doug_lea_alloc@PAUTNode@?$FixedMAP@PAUIDirect3DPixelShader9@@UmapNormalCS@R_dsgraph@@Udoug_lea_allocator@@@@@@V?$_Vector_val@U?$_Simple_types@PAUTNode@?$FixedMAP@PAUIDirect3DPixelShader9@@UmapNormalCS@R_dsgraph@@Udoug_lea_allocator@@@@@std@@@std@@$00@std@@QAE@U_Zero_then_variadic_args_t@1@@Z ; std::_Compressed_pair<doug_lea_alloc<FixedMAP<IDirect3DPixelShader9 *,R_dsgraph::mapNormalCS,doug_lea_allocator>::TNode *>,std::_Vector_val<std::_Simple_types<FixedMAP<IDirect3DPixelShader9 *,R_dsgraph::mapNormalCS,doug_lea_allocator>::TNode *> >,1>::_Compressed_pair<doug_lea_alloc<FixedMAP<IDirect3DPixelShader9 *,R_dsgraph::mapNormalCS,doug_lea_allocator>::TNode *>,std::_Vector_val<std::_Simple_types<FixedMAP<IDirect3DPixelShader9 *,R_dsgraph::mapNormalCS,doug_lea_allocator>::TNode *> >,1><>
PUBLIC	??0?$_Vector_val@U?$_Simple_types@PAUTNode@?$FixedMAP@PAUIDirect3DPixelShader9@@UmapNormalCS@R_dsgraph@@Udoug_lea_allocator@@@@@std@@@std@@QAE@XZ ; std::_Vector_val<std::_Simple_types<FixedMAP<IDirect3DPixelShader9 *,R_dsgraph::mapNormalCS,doug_lea_allocator>::TNode *> >::_Vector_val<std::_Simple_types<FixedMAP<IDirect3DPixelShader9 *,R_dsgraph::mapNormalCS,doug_lea_allocator>::TNode *> >
PUBLIC	??0?$doug_lea_alloc@PAUTNode@?$FixedMAP@PAUIDirect3DPixelShader9@@UmapNormalCS@R_dsgraph@@Udoug_lea_allocator@@@@@@QAE@XZ ; doug_lea_alloc<FixedMAP<IDirect3DPixelShader9 *,R_dsgraph::mapNormalCS,doug_lea_allocator>::TNode *>::doug_lea_alloc<FixedMAP<IDirect3DPixelShader9 *,R_dsgraph::mapNormalCS,doug_lea_allocator>::TNode *>
PUBLIC	??1?$xr_vector@PAUTNode@?$FixedMAP@PAUIDirect3DVertexShader9@@UmapNormalPS@R_dsgraph@@Udoug_lea_allocator@@@@V?$doug_lea_alloc@PAUTNode@?$FixedMAP@PAUIDirect3DVertexShader9@@UmapNormalPS@R_dsgraph@@Udoug_lea_allocator@@@@@@@@QAE@XZ ; xr_vector<FixedMAP<IDirect3DVertexShader9 *,R_dsgraph::mapNormalPS,doug_lea_allocator>::TNode *,doug_lea_alloc<FixedMAP<IDirect3DVertexShader9 *,R_dsgraph::mapNormalPS,doug_lea_allocator>::TNode *> >::~xr_vector<FixedMAP<IDirect3DVertexShader9 *,R_dsgraph::mapNormalPS,doug_lea_allocator>::TNode *,doug_lea_alloc<FixedMAP<IDirect3DVertexShader9 *,R_dsgraph::mapNormalPS,doug_lea_allocator>::TNode *> >
PUBLIC	??1?$vector@PAUTNode@?$FixedMAP@PAUIDirect3DVertexShader9@@UmapNormalPS@R_dsgraph@@Udoug_lea_allocator@@@@V?$doug_lea_alloc@PAUTNode@?$FixedMAP@PAUIDirect3DVertexShader9@@UmapNormalPS@R_dsgraph@@Udoug_lea_allocator@@@@@@@std@@QAE@XZ ; std::vector<FixedMAP<IDirect3DVertexShader9 *,R_dsgraph::mapNormalPS,doug_lea_allocator>::TNode *,doug_lea_alloc<FixedMAP<IDirect3DVertexShader9 *,R_dsgraph::mapNormalPS,doug_lea_allocator>::TNode *> >::~vector<FixedMAP<IDirect3DVertexShader9 *,R_dsgraph::mapNormalPS,doug_lea_allocator>::TNode *,doug_lea_alloc<FixedMAP<IDirect3DVertexShader9 *,R_dsgraph::mapNormalPS,doug_lea_allocator>::TNode *> >
PUBLIC	?_Tidy@?$vector@PAUTNode@?$FixedMAP@PAUIDirect3DVertexShader9@@UmapNormalPS@R_dsgraph@@Udoug_lea_allocator@@@@V?$doug_lea_alloc@PAUTNode@?$FixedMAP@PAUIDirect3DVertexShader9@@UmapNormalPS@R_dsgraph@@Udoug_lea_allocator@@@@@@@std@@AAEXXZ ; std::vector<FixedMAP<IDirect3DVertexShader9 *,R_dsgraph::mapNormalPS,doug_lea_allocator>::TNode *,doug_lea_alloc<FixedMAP<IDirect3DVertexShader9 *,R_dsgraph::mapNormalPS,doug_lea_allocator>::TNode *> >::_Tidy
PUBLIC	??0?$xr_vector@PAUTNode@?$FixedMAP@PAUIDirect3DVertexShader9@@UmapNormalPS@R_dsgraph@@Udoug_lea_allocator@@@@V?$doug_lea_alloc@PAUTNode@?$FixedMAP@PAUIDirect3DVertexShader9@@UmapNormalPS@R_dsgraph@@Udoug_lea_allocator@@@@@@@@QAE@XZ ; xr_vector<FixedMAP<IDirect3DVertexShader9 *,R_dsgraph::mapNormalPS,doug_lea_allocator>::TNode *,doug_lea_alloc<FixedMAP<IDirect3DVertexShader9 *,R_dsgraph::mapNormalPS,doug_lea_allocator>::TNode *> >::xr_vector<FixedMAP<IDirect3DVertexShader9 *,R_dsgraph::mapNormalPS,doug_lea_allocator>::TNode *,doug_lea_alloc<FixedMAP<IDirect3DVertexShader9 *,R_dsgraph::mapNormalPS,doug_lea_allocator>::TNode *> >
PUBLIC	??0?$vector@PAUTNode@?$FixedMAP@PAUIDirect3DVertexShader9@@UmapNormalPS@R_dsgraph@@Udoug_lea_allocator@@@@V?$doug_lea_alloc@PAUTNode@?$FixedMAP@PAUIDirect3DVertexShader9@@UmapNormalPS@R_dsgraph@@Udoug_lea_allocator@@@@@@@std@@QAE@XZ ; std::vector<FixedMAP<IDirect3DVertexShader9 *,R_dsgraph::mapNormalPS,doug_lea_allocator>::TNode *,doug_lea_alloc<FixedMAP<IDirect3DVertexShader9 *,R_dsgraph::mapNormalPS,doug_lea_allocator>::TNode *> >::vector<FixedMAP<IDirect3DVertexShader9 *,R_dsgraph::mapNormalPS,doug_lea_allocator>::TNode *,doug_lea_alloc<FixedMAP<IDirect3DVertexShader9 *,R_dsgraph::mapNormalPS,doug_lea_allocator>::TNode *> >
PUBLIC	??$?0$$V@?$_Compressed_pair@V?$doug_lea_alloc@PAUTNode@?$FixedMAP@PAUIDirect3DVertexShader9@@UmapNormalPS@R_dsgraph@@Udoug_lea_allocator@@@@@@V?$_Vector_val@U?$_Simple_types@PAUTNode@?$FixedMAP@PAUIDirect3DVertexShader9@@UmapNormalPS@R_dsgraph@@Udoug_lea_allocator@@@@@std@@@std@@$00@std@@QAE@U_Zero_then_variadic_args_t@1@@Z ; std::_Compressed_pair<doug_lea_alloc<FixedMAP<IDirect3DVertexShader9 *,R_dsgraph::mapNormalPS,doug_lea_allocator>::TNode *>,std::_Vector_val<std::_Simple_types<FixedMAP<IDirect3DVertexShader9 *,R_dsgraph::mapNormalPS,doug_lea_allocator>::TNode *> >,1>::_Compressed_pair<doug_lea_alloc<FixedMAP<IDirect3DVertexShader9 *,R_dsgraph::mapNormalPS,doug_lea_allocator>::TNode *>,std::_Vector_val<std::_Simple_types<FixedMAP<IDirect3DVertexShader9 *,R_dsgraph::mapNormalPS,doug_lea_allocator>::TNode *> >,1><>
PUBLIC	??0?$_Vector_val@U?$_Simple_types@PAUTNode@?$FixedMAP@PAUIDirect3DVertexShader9@@UmapNormalPS@R_dsgraph@@Udoug_lea_allocator@@@@@std@@@std@@QAE@XZ ; std::_Vector_val<std::_Simple_types<FixedMAP<IDirect3DVertexShader9 *,R_dsgraph::mapNormalPS,doug_lea_allocator>::TNode *> >::_Vector_val<std::_Simple_types<FixedMAP<IDirect3DVertexShader9 *,R_dsgraph::mapNormalPS,doug_lea_allocator>::TNode *> >
PUBLIC	??0?$doug_lea_alloc@PAUTNode@?$FixedMAP@PAUIDirect3DVertexShader9@@UmapNormalPS@R_dsgraph@@Udoug_lea_allocator@@@@@@QAE@XZ ; doug_lea_alloc<FixedMAP<IDirect3DVertexShader9 *,R_dsgraph::mapNormalPS,doug_lea_allocator>::TNode *>::doug_lea_alloc<FixedMAP<IDirect3DVertexShader9 *,R_dsgraph::mapNormalPS,doug_lea_allocator>::TNode *>
PUBLIC	??1?$FixedMAP@MU_MatrixItemS@R_dsgraph@@Udoug_lea_allocator@@@@QAE@XZ ; FixedMAP<float,R_dsgraph::_MatrixItemS,doug_lea_allocator>::~FixedMAP<float,R_dsgraph::_MatrixItemS,doug_lea_allocator>
PUBLIC	??0?$FixedMAP@MU_MatrixItemS@R_dsgraph@@Udoug_lea_allocator@@@@QAE@XZ ; FixedMAP<float,R_dsgraph::_MatrixItemS,doug_lea_allocator>::FixedMAP<float,R_dsgraph::_MatrixItemS,doug_lea_allocator>
PUBLIC	??1?$FixedMAP@MU_LodItem@R_dsgraph@@Udoug_lea_allocator@@@@QAE@XZ ; FixedMAP<float,R_dsgraph::_LodItem,doug_lea_allocator>::~FixedMAP<float,R_dsgraph::_LodItem,doug_lea_allocator>
PUBLIC	??0?$FixedMAP@MU_LodItem@R_dsgraph@@Udoug_lea_allocator@@@@QAE@XZ ; FixedMAP<float,R_dsgraph::_LodItem,doug_lea_allocator>::FixedMAP<float,R_dsgraph::_LodItem,doug_lea_allocator>
PUBLIC	??1mapMatrixVS@R_dsgraph@@QAE@XZ		; R_dsgraph::mapMatrixVS::~mapMatrixVS
PUBLIC	??1?$FixedMAP@PAUIDirect3DVertexShader9@@UmapMatrixPS@R_dsgraph@@Udoug_lea_allocator@@@@QAE@XZ ; FixedMAP<IDirect3DVertexShader9 *,R_dsgraph::mapMatrixPS,doug_lea_allocator>::~FixedMAP<IDirect3DVertexShader9 *,R_dsgraph::mapMatrixPS,doug_lea_allocator>
PUBLIC	??0mapMatrixVS@R_dsgraph@@QAE@XZ		; R_dsgraph::mapMatrixVS::mapMatrixVS
PUBLIC	??0?$FixedMAP@PAUIDirect3DVertexShader9@@UmapMatrixPS@R_dsgraph@@Udoug_lea_allocator@@@@QAE@XZ ; FixedMAP<IDirect3DVertexShader9 *,R_dsgraph::mapMatrixPS,doug_lea_allocator>::FixedMAP<IDirect3DVertexShader9 *,R_dsgraph::mapMatrixPS,doug_lea_allocator>
PUBLIC	??1mapNormalVS@R_dsgraph@@QAE@XZ		; R_dsgraph::mapNormalVS::~mapNormalVS
PUBLIC	??1?$FixedMAP@PAUIDirect3DVertexShader9@@UmapNormalPS@R_dsgraph@@Udoug_lea_allocator@@@@QAE@XZ ; FixedMAP<IDirect3DVertexShader9 *,R_dsgraph::mapNormalPS,doug_lea_allocator>::~FixedMAP<IDirect3DVertexShader9 *,R_dsgraph::mapNormalPS,doug_lea_allocator>
PUBLIC	??0mapNormalVS@R_dsgraph@@QAE@XZ		; R_dsgraph::mapNormalVS::mapNormalVS
PUBLIC	??0?$FixedMAP@PAUIDirect3DVertexShader9@@UmapNormalPS@R_dsgraph@@Udoug_lea_allocator@@@@QAE@XZ ; FixedMAP<IDirect3DVertexShader9 *,R_dsgraph::mapNormalPS,doug_lea_allocator>::FixedMAP<IDirect3DVertexShader9 *,R_dsgraph::mapNormalPS,doug_lea_allocator>
PUBLIC	??_GR_dsgraph_structure@@UAEPAXI@Z		; R_dsgraph_structure::`scalar deleting destructor'
PUBLIC	?memory_usage@R_dsgraph_structure@@UAEIXZ	; R_dsgraph_structure::memory_usage
PUBLIC	?set_Invisible@R_dsgraph_structure@@UAEXH@Z	; R_dsgraph_structure::set_Invisible
PUBLIC	?get_HUD@R_dsgraph_structure@@UAEHXZ		; R_dsgraph_structure::get_HUD
PUBLIC	?set_HUD@R_dsgraph_structure@@UAEXH@Z		; R_dsgraph_structure::set_HUD
PUBLIC	?set_Transform@R_dsgraph_structure@@UAEXPAU?$_matrix@M@@@Z ; R_dsgraph_structure::set_Transform
PUBLIC	??1R_dsgraph_structure@@UAE@XZ			; R_dsgraph_structure::~R_dsgraph_structure
PUBLIC	??0CPSLibrary@@QAE@XZ				; CPSLibrary::CPSLibrary
PUBLIC	??1?$xr_vector@PAVCPGDef@PS@@V?$xalloc@PAVCPGDef@PS@@@@@@QAE@XZ ; xr_vector<PS::CPGDef *,xalloc<PS::CPGDef *> >::~xr_vector<PS::CPGDef *,xalloc<PS::CPGDef *> >
PUBLIC	??1?$vector@PAVCPGDef@PS@@V?$xalloc@PAVCPGDef@PS@@@@@std@@QAE@XZ ; std::vector<PS::CPGDef *,xalloc<PS::CPGDef *> >::~vector<PS::CPGDef *,xalloc<PS::CPGDef *> >
PUBLIC	?_Tidy@?$vector@PAVCPGDef@PS@@V?$xalloc@PAVCPGDef@PS@@@@@std@@AAEXXZ ; std::vector<PS::CPGDef *,xalloc<PS::CPGDef *> >::_Tidy
PUBLIC	??0?$xr_vector@PAVCPGDef@PS@@V?$xalloc@PAVCPGDef@PS@@@@@@QAE@XZ ; xr_vector<PS::CPGDef *,xalloc<PS::CPGDef *> >::xr_vector<PS::CPGDef *,xalloc<PS::CPGDef *> >
PUBLIC	??0?$vector@PAVCPGDef@PS@@V?$xalloc@PAVCPGDef@PS@@@@@std@@QAE@XZ ; std::vector<PS::CPGDef *,xalloc<PS::CPGDef *> >::vector<PS::CPGDef *,xalloc<PS::CPGDef *> >
PUBLIC	??$?0$$V@?$_Compressed_pair@V?$xalloc@PAVCPGDef@PS@@@@V?$_Vector_val@U?$_Simple_types@PAVCPGDef@PS@@@std@@@std@@$00@std@@QAE@U_Zero_then_variadic_args_t@1@@Z ; std::_Compressed_pair<xalloc<PS::CPGDef *>,std::_Vector_val<std::_Simple_types<PS::CPGDef *> >,1>::_Compressed_pair<xalloc<PS::CPGDef *>,std::_Vector_val<std::_Simple_types<PS::CPGDef *> >,1><>
PUBLIC	??0?$_Vector_val@U?$_Simple_types@PAVCPGDef@PS@@@std@@@std@@QAE@XZ ; std::_Vector_val<std::_Simple_types<PS::CPGDef *> >::_Vector_val<std::_Simple_types<PS::CPGDef *> >
PUBLIC	??0?$xalloc@PAVCPGDef@PS@@@@QAE@XZ		; xalloc<PS::CPGDef *>::xalloc<PS::CPGDef *>
PUBLIC	??1?$xr_vector@PAVCPEDef@PS@@V?$xalloc@PAVCPEDef@PS@@@@@@QAE@XZ ; xr_vector<PS::CPEDef *,xalloc<PS::CPEDef *> >::~xr_vector<PS::CPEDef *,xalloc<PS::CPEDef *> >
PUBLIC	??1?$vector@PAVCPEDef@PS@@V?$xalloc@PAVCPEDef@PS@@@@@std@@QAE@XZ ; std::vector<PS::CPEDef *,xalloc<PS::CPEDef *> >::~vector<PS::CPEDef *,xalloc<PS::CPEDef *> >
PUBLIC	?_Tidy@?$vector@PAVCPEDef@PS@@V?$xalloc@PAVCPEDef@PS@@@@@std@@AAEXXZ ; std::vector<PS::CPEDef *,xalloc<PS::CPEDef *> >::_Tidy
PUBLIC	??0?$xr_vector@PAVCPEDef@PS@@V?$xalloc@PAVCPEDef@PS@@@@@@QAE@XZ ; xr_vector<PS::CPEDef *,xalloc<PS::CPEDef *> >::xr_vector<PS::CPEDef *,xalloc<PS::CPEDef *> >
PUBLIC	??0?$vector@PAVCPEDef@PS@@V?$xalloc@PAVCPEDef@PS@@@@@std@@QAE@XZ ; std::vector<PS::CPEDef *,xalloc<PS::CPEDef *> >::vector<PS::CPEDef *,xalloc<PS::CPEDef *> >
PUBLIC	??$?0$$V@?$_Compressed_pair@V?$xalloc@PAVCPEDef@PS@@@@V?$_Vector_val@U?$_Simple_types@PAVCPEDef@PS@@@std@@@std@@$00@std@@QAE@U_Zero_then_variadic_args_t@1@@Z ; std::_Compressed_pair<xalloc<PS::CPEDef *>,std::_Vector_val<std::_Simple_types<PS::CPEDef *> >,1>::_Compressed_pair<xalloc<PS::CPEDef *>,std::_Vector_val<std::_Simple_types<PS::CPEDef *> >,1><>
PUBLIC	??0?$_Vector_val@U?$_Simple_types@PAVCPEDef@PS@@@std@@@std@@QAE@XZ ; std::_Vector_val<std::_Simple_types<PS::CPEDef *> >::_Vector_val<std::_Simple_types<PS::CPEDef *> >
PUBLIC	??0?$xalloc@PAVCPEDef@PS@@@@QAE@XZ		; xalloc<PS::CPEDef *>::xalloc<PS::CPEDef *>
PUBLIC	??1CPSLibrary@@QAE@XZ				; CPSLibrary::~CPSLibrary
PUBLIC	?finalize@CLightProjector@@QAEXXZ		; CLightProjector::finalize
PUBLIC	?clear@?$xr_vector@PAVIRenderable@@V?$xalloc@PAVIRenderable@@@@@@QAEXXZ ; xr_vector<IRenderable *,xalloc<IRenderable *> >::clear
PUBLIC	?clear_and_free@?$xr_vector@PAVIRenderable@@V?$xalloc@PAVIRenderable@@@@@@QAEXXZ ; xr_vector<IRenderable *,xalloc<IRenderable *> >::clear_and_free
PUBLIC	?clear@?$vector@PAVIRenderable@@V?$xalloc@PAVIRenderable@@@@@std@@QAEXXZ ; std::vector<IRenderable *,xalloc<IRenderable *> >::clear
PUBLIC	?_Destroy@?$vector@PAVIRenderable@@V?$xalloc@PAVIRenderable@@@@@std@@AAEXPAPAVIRenderable@@0@Z ; std::vector<IRenderable *,xalloc<IRenderable *> >::_Destroy
PUBLIC	?_Getal@?$vector@PAVIRenderable@@V?$xalloc@PAVIRenderable@@@@@std@@AAEAAV?$xalloc@PAVIRenderable@@@@XZ ; std::vector<IRenderable *,xalloc<IRenderable *> >::_Getal
PUBLIC	?_Get_first@?$_Compressed_pair@V?$xalloc@PAVIRenderable@@@@V?$_Vector_val@U?$_Simple_types@PAVIRenderable@@@std@@@std@@$00@std@@QAEAAV?$xalloc@PAVIRenderable@@@@XZ ; std::_Compressed_pair<xalloc<IRenderable *>,std::_Vector_val<std::_Simple_types<IRenderable *> >,1>::_Get_first
PUBLIC	??$_Destroy_range@V?$xalloc@PAVIRenderable@@@@@std@@YAXPAPAVIRenderable@@QAPAV1@AAV?$xalloc@PAVIRenderable@@@@@Z ; std::_Destroy_range<xalloc<IRenderable *> >
PUBLIC	??$_Unfancy@PAVIRenderable@@@std@@YAPAPAVIRenderable@@PAPAV1@@Z ; std::_Unfancy<IRenderable *>
PUBLIC	??$destroy@PAVIRenderable@@@?$_Normal_allocator_traits@V?$xalloc@PAVIRenderable@@@@@std@@SAXAAV?$xalloc@PAVIRenderable@@@@PAPAVIRenderable@@@Z ; std::_Normal_allocator_traits<xalloc<IRenderable *> >::destroy<IRenderable *>
PUBLIC	?destroy@?$xalloc@PAVIRenderable@@@@QAEXPAPAVIRenderable@@@Z ; xalloc<IRenderable *>::destroy
PUBLIC	??$_Destroy_in_place@PAPAVIRenderable@@@std@@YAXAAPAPAVIRenderable@@@Z ; std::_Destroy_in_place<IRenderable * *>
PUBLIC	?make_string@@YA?AV?$basic_string@DU?$char_traits@D@std@@V?$allocator@D@2@@std@@PBDZZ ; make_string
PUBLIC	??1?$basic_string@DU?$char_traits@D@std@@V?$allocator@D@2@@std@@QAE@XZ ; std::basic_string<char,std::char_traits<char>,std::allocator<char> >::~basic_string<char,std::char_traits<char>,std::allocator<char> >
PUBLIC	?_Tidy_deallocate@?$basic_string@DU?$char_traits@D@std@@V?$allocator@D@2@@std@@AAEXXZ ; std::basic_string<char,std::char_traits<char>,std::allocator<char> >::_Tidy_deallocate
PUBLIC	?assign@?$_Narrow_char_traits@DH@std@@SAXAADABD@Z ; std::_Narrow_char_traits<char,int>::assign
PUBLIC	?deallocate@?$allocator@D@std@@QAEXQADI@Z	; std::allocator<char>::deallocate
PUBLIC	??$_Deallocate@$07$0A@@std@@YAXPAXI@Z		; std::_Deallocate<8,0>
PUBLIC	?_Adjust_manually_vector_aligned@std@@YAXAAPAXAAI@Z ; std::_Adjust_manually_vector_aligned
PUBLIC	??$_Destroy_in_place@PAD@std@@YAXAAPAD@Z	; std::_Destroy_in_place<char *>
PUBLIC	?_Getal@?$basic_string@DU?$char_traits@D@std@@V?$allocator@D@2@@std@@AAEAAV?$allocator@D@2@XZ ; std::basic_string<char,std::char_traits<char>,std::allocator<char> >::_Getal
PUBLIC	?_Get_first@?$_Compressed_pair@V?$allocator@D@std@@V?$_String_val@U?$_Simple_types@D@std@@@2@$00@std@@QAEAAV?$allocator@D@2@XZ ; std::_Compressed_pair<std::allocator<char>,std::_String_val<std::_Simple_types<char> >,1>::_Get_first
PUBLIC	?_Large_string_engaged@?$_String_val@U?$_Simple_types@D@std@@@std@@QBE_NXZ ; std::_String_val<std::_Simple_types<char> >::_Large_string_engaged
PUBLIC	??1?$_Compressed_pair@V?$allocator@D@std@@V?$_String_val@U?$_Simple_types@D@std@@@2@$00@std@@QAE@XZ ; std::_Compressed_pair<std::allocator<char>,std::_String_val<std::_Simple_types<char> >,1>::~_Compressed_pair<std::allocator<char>,std::_String_val<std::_Simple_types<char> >,1>
PUBLIC	??1?$_String_val@U?$_Simple_types@D@std@@@std@@QAE@XZ ; std::_String_val<std::_Simple_types<char> >::~_String_val<std::_Simple_types<char> >
PUBLIC	??1_Bxty@?$_String_val@U?$_Simple_types@D@std@@@std@@QAE@XZ ; std::_String_val<std::_Simple_types<char> >::_Bxty::~_Bxty
PUBLIC	??0?$basic_string@DU?$char_traits@D@std@@V?$allocator@D@2@@std@@QAE@QBD@Z ; std::basic_string<char,std::char_traits<char>,std::allocator<char> >::basic_string<char,std::char_traits<char>,std::allocator<char> >
PUBLIC	?assign@?$basic_string@DU?$char_traits@D@std@@V?$allocator@D@2@@std@@QAEAAV12@QBD@Z ; std::basic_string<char,std::char_traits<char>,std::allocator<char> >::assign
PUBLIC	?length@?$_Narrow_char_traits@DH@std@@SAIQBD@Z	; std::_Narrow_char_traits<char,int>::length
PUBLIC	?assign@?$basic_string@DU?$char_traits@D@std@@V?$allocator@D@2@@std@@QAEAAV12@QBDI@Z ; std::basic_string<char,std::char_traits<char>,std::allocator<char> >::assign
PUBLIC	??$_Reallocate_for@V<lambda_9366063389c5f42a00a5088cf24e69de>@@PBD@?$basic_string@DU?$char_traits@D@std@@V?$allocator@D@2@@std@@AAEAAV01@IV<lambda_9366063389c5f42a00a5088cf24e69de>@@PBD@Z ; std::basic_string<char,std::char_traits<char>,std::allocator<char> >::_Reallocate_for<<lambda_9366063389c5f42a00a5088cf24e69de>,char const *>
PUBLIC	??$_Construct_in_place@PADABQAD@std@@YAXAAPADABQAD@Z ; std::_Construct_in_place<char *,char * const &>
PUBLIC	??$forward@ABQAD@std@@YAABQADABQAD@Z		; std::forward<char * const &>
PUBLIC	??$addressof@PAD@std@@YAPAPADAAPAD@Z		; std::addressof<char *>
PUBLIC	??$_Voidify_iter@PAPAD@std@@YAPAXPAPAD@Z	; std::_Voidify_iter<char * *>
PUBLIC	??$_Unfancy@D@std@@YAPADPAD@Z			; std::_Unfancy<char>
PUBLIC	??R<lambda_9366063389c5f42a00a5088cf24e69de>@@QBE@QADIQBD@Z ; <lambda_9366063389c5f42a00a5088cf24e69de>::operator()
PUBLIC	?copy@?$_Char_traits@DH@std@@SAPADQADQBDI@Z	; std::_Char_traits<char,int>::copy
PUBLIC	?allocate@?$allocator@D@std@@QAEPADI@Z		; std::allocator<char>::allocate
PUBLIC	??$_Get_size_of_n@$00@std@@YAII@Z		; std::_Get_size_of_n<1>
PUBLIC	??$_Allocate@$07U_Default_allocate_traits@std@@$0A@@std@@YAPAXI@Z ; std::_Allocate<8,std::_Default_allocate_traits,0>
PUBLIC	?_Allocate@_Default_allocate_traits@std@@SAPAXI@Z ; std::_Default_allocate_traits::_Allocate
PUBLIC	??2@YAPAXI@Z					; operator new
PUBLIC	??$_Allocate_manually_vector_aligned@U_Default_allocate_traits@std@@@std@@YAPAXI@Z ; std::_Allocate_manually_vector_aligned<std::_Default_allocate_traits>
PUBLIC	?_Throw_bad_array_new_length@std@@YAXXZ		; std::_Throw_bad_array_new_length
PUBLIC	??0exception@std@@QAE@ABV01@@Z			; std::exception::exception
PUBLIC	?what@exception@std@@UBEPBDXZ			; std::exception::what
PUBLIC	??_Gexception@std@@UAEPAXI@Z			; std::exception::`scalar deleting destructor'
PUBLIC	??0bad_alloc@std@@QAE@ABV01@@Z			; std::bad_alloc::bad_alloc
PUBLIC	??_Gbad_alloc@std@@UAEPAXI@Z			; std::bad_alloc::`scalar deleting destructor'
PUBLIC	??1exception@std@@UAE@XZ			; std::exception::~exception
PUBLIC	??0bad_array_new_length@std@@QAE@ABV01@@Z	; std::bad_array_new_length::bad_array_new_length
PUBLIC	??_Gbad_array_new_length@std@@UAEPAXI@Z		; std::bad_array_new_length::`scalar deleting destructor'
PUBLIC	??1bad_alloc@std@@UAE@XZ			; std::bad_alloc::~bad_alloc
PUBLIC	??1bad_array_new_length@std@@UAE@XZ		; std::bad_array_new_length::~bad_array_new_length
PUBLIC	??0bad_array_new_length@std@@QAE@XZ		; std::bad_array_new_length::bad_array_new_length
PUBLIC	??0bad_alloc@std@@AAE@QBD@Z			; std::bad_alloc::bad_alloc
PUBLIC	??0exception@std@@QAE@QBDH@Z			; std::exception::exception
PUBLIC	?_Calculate_growth@?$basic_string@DU?$char_traits@D@std@@V?$allocator@D@2@@std@@ABEII@Z ; std::basic_string<char,std::char_traits<char>,std::allocator<char> >::_Calculate_growth
PUBLIC	?max_size@?$basic_string@DU?$char_traits@D@std@@V?$allocator@D@2@@std@@QBEIXZ ; std::basic_string<char,std::char_traits<char>,std::allocator<char> >::max_size
PUBLIC	??$max@I@std@@YAABIABI0@Z			; std::max<unsigned int>
PUBLIC	?_Getal@?$basic_string@DU?$char_traits@D@std@@V?$allocator@D@2@@std@@ABEABV?$allocator@D@2@XZ ; std::basic_string<char,std::char_traits<char>,std::allocator<char> >::_Getal
PUBLIC	?_Get_first@?$_Compressed_pair@V?$allocator@D@std@@V?$_String_val@U?$_Simple_types@D@std@@@2@$00@std@@QBEABV?$allocator@D@2@XZ ; std::_Compressed_pair<std::allocator<char>,std::_String_val<std::_Simple_types<char> >,1>::_Get_first
PUBLIC	?max_size@?$_Default_allocator_traits@V?$allocator@D@std@@@std@@SAIABV?$allocator@D@2@@Z ; std::_Default_allocator_traits<std::allocator<char> >::max_size
PUBLIC	?_Calculate_growth@?$basic_string@DU?$char_traits@D@std@@V?$allocator@D@2@@std@@CAIIII@Z ; std::basic_string<char,std::char_traits<char>,std::allocator<char> >::_Calculate_growth
PUBLIC	?_Xlen_string@std@@YAXXZ			; std::_Xlen_string
PUBLIC	?move@?$_Char_traits@DH@std@@SAPADQADQBDI@Z	; std::_Char_traits<char,int>::move
PUBLIC	?_Myptr@?$_String_val@U?$_Simple_types@D@std@@@std@@QAEPADXZ ; std::_String_val<std::_Simple_types<char> >::_Myptr
PUBLIC	?_Tidy_init@?$basic_string@DU?$char_traits@D@std@@V?$allocator@D@2@@std@@AAEXXZ ; std::basic_string<char,std::char_traits<char>,std::allocator<char> >::_Tidy_init
PUBLIC	??$?0$$V@?$_Compressed_pair@V?$allocator@D@std@@V?$_String_val@U?$_Simple_types@D@std@@@2@$00@std@@QAE@U_Zero_then_variadic_args_t@1@@Z ; std::_Compressed_pair<std::allocator<char>,std::_String_val<std::_Simple_types<char> >,1>::_Compressed_pair<std::allocator<char>,std::_String_val<std::_Simple_types<char> >,1><>
PUBLIC	??0?$_String_val@U?$_Simple_types@D@std@@@std@@QAE@XZ ; std::_String_val<std::_Simple_types<char> >::_String_val<std::_Simple_types<char> >
PUBLIC	??0_Bxty@?$_String_val@U?$_Simple_types@D@std@@@std@@QAE@XZ ; std::_String_val<std::_Simple_types<char> >::_Bxty::_Bxty
PUBLIC	??0?$allocator@D@std@@QAE@XZ			; std::allocator<char>::allocator<char>
PUBLIC	_vsprintf
PUBLIC	?size@?$basic_string@DU?$char_traits@D@std@@V?$xalloc@D@@@std@@QBEIXZ ; std::basic_string<char,std::char_traits<char>,xalloc<char> >::size
PUBLIC	?c_str@?$basic_string@DU?$char_traits@D@std@@V?$xalloc@D@@@std@@QBEPBDXZ ; std::basic_string<char,std::char_traits<char>,xalloc<char> >::c_str
PUBLIC	?_Myptr@?$_String_val@U?$_Simple_types@D@std@@@std@@QBEPBDXZ ; std::_String_val<std::_Simple_types<char> >::_Myptr
PUBLIC	??$_Unfancy@U_REG_INFO@@@std@@YAPAU_REG_INFO@@PAU1@@Z ; std::_Unfancy<_REG_INFO>
PUBLIC	?_Getal@?$vector@U_REG_INFO@@V?$xalloc@U_REG_INFO@@@@@std@@AAEAAV?$xalloc@U_REG_INFO@@@@XZ ; std::vector<_REG_INFO,xalloc<_REG_INFO> >::_Getal
PUBLIC	?_Get_first@?$_Compressed_pair@V?$xalloc@U_REG_INFO@@@@V?$_Vector_val@U?$_Simple_types@U_REG_INFO@@@std@@@std@@$00@std@@QAEAAV?$xalloc@U_REG_INFO@@@@XZ ; std::_Compressed_pair<xalloc<_REG_INFO>,std::_Vector_val<std::_Simple_types<_REG_INFO> >,1>::_Get_first
PUBLIC	??$destroy@U_REG_INFO@@@?$_Normal_allocator_traits@V?$xalloc@U_REG_INFO@@@@@std@@SAXAAV?$xalloc@U_REG_INFO@@@@PAU_REG_INFO@@@Z ; std::_Normal_allocator_traits<xalloc<_REG_INFO> >::destroy<_REG_INFO>
PUBLIC	?destroy@?$xalloc@U_REG_INFO@@@@QAEXPAU_REG_INFO@@@Z ; xalloc<_REG_INFO>::destroy
PUBLIC	??$_Destroy_in_place@PAU_REG_INFO@@@std@@YAXAAPAU_REG_INFO@@@Z ; std::_Destroy_in_place<_REG_INFO *>
PUBLIC	?_Destroy@?$vector@U_REG_INFO@@V?$xalloc@U_REG_INFO@@@@@std@@AAEXPAU_REG_INFO@@0@Z ; std::vector<_REG_INFO,xalloc<_REG_INFO> >::_Destroy
PUBLIC	??$_Destroy_range@V?$xalloc@U_REG_INFO@@@@@std@@YAXPAU_REG_INFO@@QAU1@AAV?$xalloc@U_REG_INFO@@@@@Z ; std::_Destroy_range<xalloc<_REG_INFO> >
PUBLIC	?deallocate@?$xalloc@U_REG_INFO@@@@QBEXPAU_REG_INFO@@I@Z ; xalloc<_REG_INFO>::deallocate
PUBLIC	??$xr_free@U_REG_INFO@@@@YAXAAPAU_REG_INFO@@@Z	; xr_free<_REG_INFO>
PUBLIC	?get_generation@CRender@@UAE?AW4GenerationLevel@IRender_interface@@XZ ; CRender::get_generation
PUBLIC	?getShaderPath@CRender@@UAEPBDXZ		; CRender::getShaderPath
PUBLIC	?model_Logging@CRender@@UAEXH@Z			; CRender::model_Logging
PUBLIC	?ps_library@CRender@@UAEPAVCPSLibrary@@XZ	; CRender::ps_library
PUBLIC	??$forward@AAPAPAVISpatial@@@std@@YAAAPAPAVISpatial@@AAPAPAV1@@Z ; std::forward<ISpatial * * &>
PUBLIC	??$swap@PAVISpatial@@$0A@@std@@YAXAAPAVISpatial@@0@Z ; std::swap<ISpatial *,0>
PUBLIC	??$_Med3_unchecked@PAPAVISpatial@@P6A_NPAV1@0@Z@std@@YAXPAPAVISpatial@@00P6A_NPAV1@1@Z@Z ; std::_Med3_unchecked<ISpatial * *,bool (__cdecl*)(ISpatial *,ISpatial *)>
PUBLIC	??$_Pop_heap_hole_unchecked@PAPAVISpatial@@PAV1@P6A_NPAV1@0@Z@std@@YAXPAPAVISpatial@@00$$QAPAV1@P6A_NPAV1@2@Z@Z ; std::_Pop_heap_hole_unchecked<ISpatial * *,ISpatial *,bool (__cdecl*)(ISpatial *,ISpatial *)>
PUBLIC	??$_Push_heap_by_index@PAPAVISpatial@@PAV1@P6A_NPAV1@0@Z@std@@YAXPAPAVISpatial@@HH$$QAPAV1@P6A_NPAV1@2@Z@Z ; std::_Push_heap_by_index<ISpatial * *,ISpatial *,bool (__cdecl*)(ISpatial *,ISpatial *)>
PUBLIC	??$forward@PAVISpatial@@@std@@YA$$QAPAVISpatial@@AAPAV1@@Z ; std::forward<ISpatial *>
PUBLIC	??$_To_address@PAPAVISpatial@@@std@@YA?A_PABQAPAVISpatial@@@Z ; std::_To_address<ISpatial * *>
PUBLIC	??$_Copy_backward_memmove@PAPAVISpatial@@PAPAV1@@std@@YAPAPAVISpatial@@PAPAV1@00@Z ; std::_Copy_backward_memmove<ISpatial * *,ISpatial * *>
PUBLIC	??$construct@U_REG_INFO@@U1@@?$_Normal_allocator_traits@V?$xalloc@U_REG_INFO@@@@@std@@SAXAAV?$xalloc@U_REG_INFO@@@@PAU_REG_INFO@@$$QAU3@@Z ; std::_Normal_allocator_traits<xalloc<_REG_INFO> >::construct<_REG_INFO,_REG_INFO>
PUBLIC	??$forward@U_REG_INFO@@@std@@YA$$QAU_REG_INFO@@AAU1@@Z ; std::forward<_REG_INFO>
PUBLIC	??$?0AAPAPAVISpatial@@AAPAPAV0@$0A@@?$pair@PAPAVISpatial@@PAPAV1@@std@@QAE@AAPAPAVISpatial@@0@Z ; std::pair<ISpatial * *,ISpatial * *>::pair<ISpatial * *,ISpatial * *><ISpatial * * &,ISpatial * * &,0>
PUBLIC	??$iter_swap@PAPAVISpatial@@PAPAV1@@std@@YAXPAPAVISpatial@@0@Z ; std::iter_swap<ISpatial * *,ISpatial * *>
PUBLIC	??$_Next_iter@PAPAVISpatial@@@std@@YAPAPAVISpatial@@PAPAV1@@Z ; std::_Next_iter<ISpatial * *>
PUBLIC	??$_Guess_median_unchecked@PAPAVISpatial@@P6A_NPAV1@0@Z@std@@YAXPAPAVISpatial@@00P6A_NPAV1@1@Z@Z ; std::_Guess_median_unchecked<ISpatial * *,bool (__cdecl*)(ISpatial *,ISpatial *)>
PUBLIC	??$_Prev_iter@PAPAVISpatial@@@std@@YAPAPAVISpatial@@PAPAV1@@Z ; std::_Prev_iter<ISpatial * *>
PUBLIC	??$_Pop_heap_unchecked@PAPAVISpatial@@P6A_NPAV1@0@Z@std@@YAXPAPAVISpatial@@0P6A_NPAV1@1@Z@Z ; std::_Pop_heap_unchecked<ISpatial * *,bool (__cdecl*)(ISpatial *,ISpatial *)>
PUBLIC	??$_Pop_heap_hole_by_index@PAPAVISpatial@@PAV1@P6A_NPAV1@0@Z@std@@YAXPAPAVISpatial@@HH$$QAPAV1@P6A_NPAV1@2@Z@Z ; std::_Pop_heap_hole_by_index<ISpatial * *,ISpatial *,bool (__cdecl*)(ISpatial *,ISpatial *)>
PUBLIC	??$_Move_backward_unchecked@PAPAVISpatial@@PAPAV1@@std@@YAPAPAVISpatial@@PAPAV1@00@Z ; std::_Move_backward_unchecked<ISpatial * *,ISpatial * *>
PUBLIC	??$move@AAPAVISpatial@@@std@@YA$$QAPAVISpatial@@AAPAV1@@Z ; std::move<ISpatial * &>
PUBLIC	??_GFS_File@@QAEPAXI@Z				; FS_File::`scalar deleting destructor'
PUBLIC	??$xr_free@U?$_Tree_node@UFS_File@@PAX@std@@@@YAXAAPAU?$_Tree_node@UFS_File@@PAX@std@@@Z ; xr_free<std::_Tree_node<FS_File,void *> >
PUBLIC	??$_Destroy_in_place@PAPAVIRender_Portal@@@std@@YAXAAPAPAVIRender_Portal@@@Z ; std::_Destroy_in_place<IRender_Portal * *>
PUBLIC	??$_Destroy_in_place@PAUFSlideWindowItem@@@std@@YAXAAPAUFSlideWindowItem@@@Z ; std::_Destroy_in_place<FSlideWindowItem *>
PUBLIC	??$_Destroy_in_place@PAV?$resptr_core@UShader@@Uresptrcode_shader@@@@@std@@YAXAAPAV?$resptr_core@UShader@@Uresptrcode_shader@@@@@Z ; std::_Destroy_in_place<resptr_core<Shader,resptrcode_shader> *>
PUBLIC	??$_Destroy_in_place@PAV?$svector@U_D3DVERTEXELEMENT9@@$0EB@@@@std@@YAXAAPAV?$svector@U_D3DVERTEXELEMENT9@@$0EB@@@@Z ; std::_Destroy_in_place<svector<_D3DVERTEXELEMENT9,65> *>
PUBLIC	??$_Destroy_in_place@PAPAUIDirect3DVertexBuffer9@@@std@@YAXAAPAPAUIDirect3DVertexBuffer9@@@Z ; std::_Destroy_in_place<IDirect3DVertexBuffer9 * *>
PUBLIC	??$_Destroy_in_place@PAPAUIDirect3DIndexBuffer9@@@std@@YAXAAPAPAUIDirect3DIndexBuffer9@@@Z ; std::_Destroy_in_place<IDirect3DIndexBuffer9 * *>
PUBLIC	?reflect@?$reflector@$07@detail@boost@@SAEE@Z	; boost::detail::reflector<8>::reflect
PUBLIC	??$_Emplace_back@U_REG_INFO@@@?$_Uninitialized_backout_al@V?$xalloc@U_REG_INFO@@@@@std@@QAEX$$QAU_REG_INFO@@@Z ; std::_Uninitialized_backout_al<xalloc<_REG_INFO> >::_Emplace_back<_REG_INFO>
PUBLIC	??$move@AAU_REG_INFO@@@std@@YA$$QAU_REG_INFO@@AAU1@@Z ; std::move<_REG_INFO &>
PUBLIC	??$forward@ABQAU?$_Tree_node@UFS_File@@PAX@std@@@std@@YAABQAU?$_Tree_node@UFS_File@@PAX@0@ABQAU10@@Z ; std::forward<std::_Tree_node<FS_File,void *> * const &>
PUBLIC	??$_Voidify_iter@PAPAU?$_Tree_node@UFS_File@@PAX@std@@@std@@YAPAXPAPAU?$_Tree_node@UFS_File@@PAX@0@@Z ; std::_Voidify_iter<std::_Tree_node<FS_File,void *> * *>
PUBLIC	??$addressof@PAU?$_Tree_node@UFS_File@@PAX@std@@@std@@YAPAPAU?$_Tree_node@UFS_File@@PAX@0@AAPAU10@@Z ; std::addressof<std::_Tree_node<FS_File,void *> *>
PUBLIC	??$_Destroy_in_place@PAU?$_Tree_node@UFS_File@@PAX@std@@@std@@YAXAAPAU?$_Tree_node@UFS_File@@PAX@0@@Z ; std::_Destroy_in_place<std::_Tree_node<FS_File,void *> *>
PUBLIC	??$destroy@UFS_File@@@?$_Normal_allocator_traits@V?$xalloc@U?$_Tree_node@UFS_File@@PAX@std@@@@@std@@SAXAAV?$xalloc@U?$_Tree_node@UFS_File@@PAX@std@@@@PAUFS_File@@@Z ; std::_Normal_allocator_traits<xalloc<std::_Tree_node<FS_File,void *> > >::destroy<FS_File>
PUBLIC	??$addressof@UFS_File@@@std@@YAPAUFS_File@@AAU1@@Z ; std::addressof<FS_File>
PUBLIC	??$_Partition_by_median_guess_unchecked@PAPAVISpatial@@P6A_NPAV1@0@Z@std@@YA?AU?$pair@PAPAVISpatial@@PAPAV1@@0@PAPAVISpatial@@0P6A_NPAV2@1@Z@Z ; std::_Partition_by_median_guess_unchecked<ISpatial * *,bool (__cdecl*)(ISpatial *,ISpatial *)>
PUBLIC	??$_Sort_heap_unchecked@PAPAVISpatial@@P6A_NPAV1@0@Z@std@@YAXPAPAVISpatial@@0P6A_NPAV1@1@Z@Z ; std::_Sort_heap_unchecked<ISpatial * *,bool (__cdecl*)(ISpatial *,ISpatial *)>
PUBLIC	??$_Make_heap_unchecked@PAPAVISpatial@@P6A_NPAV1@0@Z@std@@YAXPAPAVISpatial@@0P6A_NPAV1@1@Z@Z ; std::_Make_heap_unchecked<ISpatial * *,bool (__cdecl*)(ISpatial *,ISpatial *)>
PUBLIC	??$_Insertion_sort_unchecked@PAPAVISpatial@@P6A_NPAV1@0@Z@std@@YAPAPAVISpatial@@QAPAV1@0P6A_NPAV1@1@Z@Z ; std::_Insertion_sort_unchecked<ISpatial * *,bool (__cdecl*)(ISpatial *,ISpatial *)>
PUBLIC	?deallocate@?$xalloc@U?$_Tree_node@UFS_File@@PAX@std@@@@QBEXPAU?$_Tree_node@UFS_File@@PAX@std@@I@Z ; xalloc<std::_Tree_node<FS_File,void *> >::deallocate
PUBLIC	??0?$xalloc@U?$_Tree_node@UFS_File@@PAX@std@@@@QAE@XZ ; xalloc<std::_Tree_node<FS_File,void *> >::xalloc<std::_Tree_node<FS_File,void *> >
PUBLIC	?deallocate@?$_Normal_allocator_traits@V?$xalloc@U?$_Tree_node@UFS_File@@PAX@std@@@@@std@@SAXAAV?$xalloc@U?$_Tree_node@UFS_File@@PAX@std@@@@PAU?$_Tree_node@UFS_File@@PAX@2@I@Z ; std::_Normal_allocator_traits<xalloc<std::_Tree_node<FS_File,void *> > >::deallocate
PUBLIC	??0?$_Tree_val@U?$_Tree_simple_types@UFS_File@@@std@@@std@@QAE@XZ ; std::_Tree_val<std::_Tree_simple_types<FS_File> >::_Tree_val<std::_Tree_simple_types<FS_File> >
PUBLIC	?destroy@?$xalloc@PAVIRender_Portal@@@@QAEXPAPAVIRender_Portal@@@Z ; xalloc<IRender_Portal *>::destroy
PUBLIC	?destroy@?$xalloc@UFSlideWindowItem@@@@QAEXPAUFSlideWindowItem@@@Z ; xalloc<FSlideWindowItem>::destroy
PUBLIC	?destroy@?$xalloc@V?$resptr_core@UShader@@Uresptrcode_shader@@@@@@QAEXPAV?$resptr_core@UShader@@Uresptrcode_shader@@@@@Z ; xalloc<resptr_core<Shader,resptrcode_shader> >::destroy
PUBLIC	?destroy@?$xalloc@V?$svector@U_D3DVERTEXELEMENT9@@$0EB@@@@@QAEXPAV?$svector@U_D3DVERTEXELEMENT9@@$0EB@@@@Z ; xalloc<svector<_D3DVERTEXELEMENT9,65> >::destroy
PUBLIC	?destroy@?$xalloc@PAUIDirect3DVertexBuffer9@@@@QAEXPAPAUIDirect3DVertexBuffer9@@@Z ; xalloc<IDirect3DVertexBuffer9 *>::destroy
PUBLIC	?destroy@?$xalloc@PAUIDirect3DIndexBuffer9@@@@QAEXPAPAUIDirect3DIndexBuffer9@@@Z ; xalloc<IDirect3DIndexBuffer9 *>::destroy
PUBLIC	?reflect@?$crc_helper@$07$00@detail@boost@@SAEE@Z ; boost::detail::crc_helper<8,1>::reflect
PUBLIC	??0?$_Uninitialized_backout_al@V?$xalloc@U_REG_INFO@@@@@std@@QAE@PAU_REG_INFO@@AAV?$xalloc@U_REG_INFO@@@@@Z ; std::_Uninitialized_backout_al<xalloc<_REG_INFO> >::_Uninitialized_backout_al<xalloc<_REG_INFO> >
PUBLIC	??1?$_Uninitialized_backout_al@V?$xalloc@U_REG_INFO@@@@@std@@QAE@XZ ; std::_Uninitialized_backout_al<xalloc<_REG_INFO> >::~_Uninitialized_backout_al<xalloc<_REG_INFO> >
PUBLIC	?_Release@?$_Uninitialized_backout_al@V?$xalloc@U_REG_INFO@@@@@std@@QAEPAU_REG_INFO@@XZ ; std::_Uninitialized_backout_al<xalloc<_REG_INFO> >::_Release
PUBLIC	??$xr_alloc@U?$_Tree_node@UFS_File@@PAX@std@@@@YAPAU?$_Tree_node@UFS_File@@PAX@std@@I@Z ; xr_alloc<std::_Tree_node<FS_File,void *> >
PUBLIC	??$xr_alloc@U_REG_INFO@@@@YAPAU_REG_INFO@@I@Z	; xr_alloc<_REG_INFO>
PUBLIC	??$_Get_unwrapped@ABQAU_REG_INFO@@@std@@YA?A_TABQAU_REG_INFO@@@Z ; std::_Get_unwrapped<_REG_INFO * const &>
PUBLIC	??$_Uninitialized_move@PAU_REG_INFO@@V?$xalloc@U_REG_INFO@@@@@std@@YAPAU_REG_INFO@@QAU1@0PAU1@AAV?$xalloc@U_REG_INFO@@@@@Z ; std::_Uninitialized_move<_REG_INFO *,xalloc<_REG_INFO> >
PUBLIC	?reflect@?$reflector@$0CA@@detail@boost@@SAII@Z	; boost::detail::reflector<32>::reflect
PUBLIC	??$_Construct_in_place@PAU?$_Tree_node@UFS_File@@PAX@std@@ABQAU12@@std@@YAXAAPAU?$_Tree_node@UFS_File@@PAX@0@ABQAU10@@Z ; std::_Construct_in_place<std::_Tree_node<FS_File,void *> *,std::_Tree_node<FS_File,void *> * const &>
PUBLIC	??$destroy@PAVIRender_Portal@@@?$_Normal_allocator_traits@V?$xalloc@PAVIRender_Portal@@@@@std@@SAXAAV?$xalloc@PAVIRender_Portal@@@@PAPAVIRender_Portal@@@Z ; std::_Normal_allocator_traits<xalloc<IRender_Portal *> >::destroy<IRender_Portal *>
PUBLIC	??$_Unfancy@PAVIRender_Portal@@@std@@YAPAPAVIRender_Portal@@PAPAV1@@Z ; std::_Unfancy<IRender_Portal *>
PUBLIC	??$destroy@UFSlideWindowItem@@@?$_Normal_allocator_traits@V?$xalloc@UFSlideWindowItem@@@@@std@@SAXAAV?$xalloc@UFSlideWindowItem@@@@PAUFSlideWindowItem@@@Z ; std::_Normal_allocator_traits<xalloc<FSlideWindowItem> >::destroy<FSlideWindowItem>
PUBLIC	??$_Unfancy@UFSlideWindowItem@@@std@@YAPAUFSlideWindowItem@@PAU1@@Z ; std::_Unfancy<FSlideWindowItem>
PUBLIC	??$destroy@V?$resptr_core@UShader@@Uresptrcode_shader@@@@@?$_Normal_allocator_traits@V?$xalloc@V?$resptr_core@UShader@@Uresptrcode_shader@@@@@@@std@@SAXAAV?$xalloc@V?$resptr_core@UShader@@Uresptrcode_shader@@@@@@PAV?$resptr_core@UShader@@Uresptrcode_shader@@@@@Z ; std::_Normal_allocator_traits<xalloc<resptr_core<Shader,resptrcode_shader> > >::destroy<resptr_core<Shader,resptrcode_shader> >
PUBLIC	??$_Unfancy@V?$resptr_core@UShader@@Uresptrcode_shader@@@@@std@@YAPAV?$resptr_core@UShader@@Uresptrcode_shader@@@@PAV1@@Z ; std::_Unfancy<resptr_core<Shader,resptrcode_shader> >
PUBLIC	??$destroy@V?$svector@U_D3DVERTEXELEMENT9@@$0EB@@@@?$_Normal_allocator_traits@V?$xalloc@V?$svector@U_D3DVERTEXELEMENT9@@$0EB@@@@@@std@@SAXAAV?$xalloc@V?$svector@U_D3DVERTEXELEMENT9@@$0EB@@@@@PAV?$svector@U_D3DVERTEXELEMENT9@@$0EB@@@@Z ; std::_Normal_allocator_traits<xalloc<svector<_D3DVERTEXELEMENT9,65> > >::destroy<svector<_D3DVERTEXELEMENT9,65> >
PUBLIC	??$_Unfancy@V?$svector@U_D3DVERTEXELEMENT9@@$0EB@@@@std@@YAPAV?$svector@U_D3DVERTEXELEMENT9@@$0EB@@@PAV1@@Z ; std::_Unfancy<svector<_D3DVERTEXELEMENT9,65> >
PUBLIC	??$destroy@PAUIDirect3DVertexBuffer9@@@?$_Normal_allocator_traits@V?$xalloc@PAUIDirect3DVertexBuffer9@@@@@std@@SAXAAV?$xalloc@PAUIDirect3DVertexBuffer9@@@@PAPAUIDirect3DVertexBuffer9@@@Z ; std::_Normal_allocator_traits<xalloc<IDirect3DVertexBuffer9 *> >::destroy<IDirect3DVertexBuffer9 *>
PUBLIC	??$_Unfancy@PAUIDirect3DVertexBuffer9@@@std@@YAPAPAUIDirect3DVertexBuffer9@@PAPAU1@@Z ; std::_Unfancy<IDirect3DVertexBuffer9 *>
PUBLIC	??$destroy@PAUIDirect3DIndexBuffer9@@@?$_Normal_allocator_traits@V?$xalloc@PAUIDirect3DIndexBuffer9@@@@@std@@SAXAAV?$xalloc@PAUIDirect3DIndexBuffer9@@@@PAPAUIDirect3DIndexBuffer9@@@Z ; std::_Normal_allocator_traits<xalloc<IDirect3DIndexBuffer9 *> >::destroy<IDirect3DIndexBuffer9 *>
PUBLIC	??$_Unfancy@PAUIDirect3DIndexBuffer9@@@std@@YAPAPAUIDirect3DIndexBuffer9@@PAPAU1@@Z ; std::_Unfancy<IDirect3DIndexBuffer9 *>
PUBLIC	??$forward@ABU?$less@UFS_File@@@std@@@std@@YAABU?$less@UFS_File@@@0@ABU10@@Z ; std::forward<std::less<FS_File> const &>
PUBLIC	??$_Freenode0@V?$xalloc@U?$_Tree_node@UFS_File@@PAX@std@@@@@?$_Tree_node@UFS_File@@PAX@std@@SAXAAV?$xalloc@U?$_Tree_node@UFS_File@@PAX@std@@@@PAU01@@Z ; std::_Tree_node<FS_File,void *>::_Freenode0<xalloc<std::_Tree_node<FS_File,void *> > >
PUBLIC	??$_Freenode@V?$xalloc@U?$_Tree_node@UFS_File@@PAX@std@@@@@?$_Tree_node@UFS_File@@PAX@std@@SAXAAV?$xalloc@U?$_Tree_node@UFS_File@@PAX@std@@@@PAU01@@Z ; std::_Tree_node<FS_File,void *>::_Freenode<xalloc<std::_Tree_node<FS_File,void *> > >
PUBLIC	??$exchange@PAU?$_Tree_node@UFS_File@@PAX@std@@AAPAU12@@std@@YAPAU?$_Tree_node@UFS_File@@PAX@0@AAPAU10@0@Z ; std::exchange<std::_Tree_node<FS_File,void *> *,std::_Tree_node<FS_File,void *> * &>
PUBLIC	??$_Sort_unchecked@PAPAVISpatial@@P6A_NPAV1@0@Z@std@@YAXPAPAVISpatial@@0HP6A_NPAV1@1@Z@Z ; std::_Sort_unchecked<ISpatial * *,bool (__cdecl*)(ISpatial *,ISpatial *)>
PUBLIC	??$_Pass_fn@P6A_NPAVISpatial@@0@Z$0A@@std@@YAP6A_NPAVISpatial@@0@ZP6A_N00@Z@Z ; std::_Pass_fn<bool (__cdecl*)(ISpatial *,ISpatial *),0>
PUBLIC	??$_Adl_verify_range@V?$_Vector_iterator@V?$_Vector_val@U?$_Simple_types@PAVISpatial@@@std@@@std@@@std@@V12@@std@@YAXABV?$_Vector_iterator@V?$_Vector_val@U?$_Simple_types@PAVISpatial@@@std@@@std@@@0@0@Z ; std::_Adl_verify_range<std::_Vector_iterator<std::_Vector_val<std::_Simple_types<ISpatial *> > >,std::_Vector_iterator<std::_Vector_val<std::_Simple_types<ISpatial *> > > >
PUBLIC	??$?0$$V@?$_Compressed_pair@V?$xalloc@U?$_Tree_node@UFS_File@@PAX@std@@@@V?$_Tree_val@U?$_Tree_simple_types@UFS_File@@@std@@@std@@$00@std@@QAE@U_Zero_then_variadic_args_t@1@@Z ; std::_Compressed_pair<xalloc<std::_Tree_node<FS_File,void *> >,std::_Tree_val<std::_Tree_simple_types<FS_File> >,1>::_Compressed_pair<xalloc<std::_Tree_node<FS_File,void *> >,std::_Tree_val<std::_Tree_simple_types<FS_File> >,1><>
PUBLIC	?init_table@?$crc_table_t@$0CA@$0EMBBNLH@$00@detail@boost@@SAXXZ ; boost::detail::crc_table_t<32,79764919,1>::init_table
PUBLIC	?get_final_xor_value@?$crc_optimal@$0CA@$0EMBBNLH@$0PPPPPPPP@$0PPPPPPPP@$00$00@boost@@QBEIXZ ; boost::crc_optimal<32,79764919,4294967295,4294967295,1,1>::get_final_xor_value
PUBLIC	?max_size@?$xalloc@U_REG_INFO@@@@QBEIXZ		; xalloc<_REG_INFO>::max_size
PUBLIC	?_Get_first@?$_Compressed_pair@V?$xalloc@U_REG_INFO@@@@V?$_Vector_val@U?$_Simple_types@U_REG_INFO@@@std@@@std@@$00@std@@QBEABV?$xalloc@U_REG_INFO@@@@XZ ; std::_Compressed_pair<xalloc<_REG_INFO>,std::_Vector_val<std::_Simple_types<_REG_INFO> >,1>::_Get_first
PUBLIC	?max_size@?$_Normal_allocator_traits@V?$xalloc@U_REG_INFO@@@@@std@@SAIABV?$xalloc@U_REG_INFO@@@@@Z ; std::_Normal_allocator_traits<xalloc<_REG_INFO> >::max_size
PUBLIC	?capacity@?$vector@U_REG_INFO@@V?$xalloc@U_REG_INFO@@@@@std@@QBEIXZ ; std::vector<_REG_INFO,xalloc<_REG_INFO> >::capacity
PUBLIC	?_Umove_if_noexcept1@?$vector@U_REG_INFO@@V?$xalloc@U_REG_INFO@@@@@std@@AAEXPAU_REG_INFO@@00U?$integral_constant@_N$00@2@@Z ; std::vector<_REG_INFO,xalloc<_REG_INFO> >::_Umove_if_noexcept1
PUBLIC	?_Getal@?$vector@U_REG_INFO@@V?$xalloc@U_REG_INFO@@@@@std@@ABEABV?$xalloc@U_REG_INFO@@@@XZ ; std::vector<_REG_INFO,xalloc<_REG_INFO> >::_Getal
PUBLIC	?allocate@?$xalloc@U?$_Tree_node@UFS_File@@PAX@std@@@@QBEPAU?$_Tree_node@UFS_File@@PAX@std@@IPBX@Z ; xalloc<std::_Tree_node<FS_File,void *> >::allocate
PUBLIC	?allocate@?$xalloc@U_REG_INFO@@@@QBEPAU_REG_INFO@@IPBX@Z ; xalloc<_REG_INFO>::allocate
PUBLIC	?construct@?$xalloc@U_REG_INFO@@@@QAEXPAU_REG_INFO@@ABU2@@Z ; xalloc<_REG_INFO>::construct
PUBLIC	?max_size@?$vector@U_REG_INFO@@V?$xalloc@U_REG_INFO@@@@@std@@QBEIXZ ; std::vector<_REG_INFO,xalloc<_REG_INFO> >::max_size
PUBLIC	?_Umove@?$vector@U_REG_INFO@@V?$xalloc@U_REG_INFO@@@@@std@@AAEPAU_REG_INFO@@PAU3@00@Z ; std::vector<_REG_INFO,xalloc<_REG_INFO> >::_Umove
PUBLIC	?_Umove_if_noexcept@?$vector@U_REG_INFO@@V?$xalloc@U_REG_INFO@@@@@std@@AAEXPAU_REG_INFO@@00@Z ; std::vector<_REG_INFO,xalloc<_REG_INFO> >::_Umove_if_noexcept
PUBLIC	?_Calculate_growth@?$vector@U_REG_INFO@@V?$xalloc@U_REG_INFO@@@@@std@@ABEII@Z ; std::vector<_REG_INFO,xalloc<_REG_INFO> >::_Calculate_growth
PUBLIC	?_Change_array@?$vector@U_REG_INFO@@V?$xalloc@U_REG_INFO@@@@@std@@AAEXQAU_REG_INFO@@II@Z ; std::vector<_REG_INFO,xalloc<_REG_INFO> >::_Change_array
PUBLIC	?_Xlength@?$vector@U_REG_INFO@@V?$xalloc@U_REG_INFO@@@@@std@@CAXXZ ; std::vector<_REG_INFO,xalloc<_REG_INFO> >::_Xlength
PUBLIC	??0?$xalloc@PAVIRender_Portal@@@@QAE@XZ		; xalloc<IRender_Portal *>::xalloc<IRender_Portal *>
PUBLIC	??0?$_Vector_val@U?$_Simple_types@PAVIRender_Portal@@@std@@@std@@QAE@XZ ; std::_Vector_val<std::_Simple_types<IRender_Portal *> >::_Vector_val<std::_Simple_types<IRender_Portal *> >
PUBLIC	??0?$xalloc@UFSlideWindowItem@@@@QAE@XZ		; xalloc<FSlideWindowItem>::xalloc<FSlideWindowItem>
PUBLIC	??0?$_Vector_val@U?$_Simple_types@UFSlideWindowItem@@@std@@@std@@QAE@XZ ; std::_Vector_val<std::_Simple_types<FSlideWindowItem> >::_Vector_val<std::_Simple_types<FSlideWindowItem> >
PUBLIC	??0?$xalloc@V?$resptr_core@UShader@@Uresptrcode_shader@@@@@@QAE@XZ ; xalloc<resptr_core<Shader,resptrcode_shader> >::xalloc<resptr_core<Shader,resptrcode_shader> >
PUBLIC	??0?$_Vector_val@U?$_Simple_types@V?$resptr_core@UShader@@Uresptrcode_shader@@@@@std@@@std@@QAE@XZ ; std::_Vector_val<std::_Simple_types<resptr_core<Shader,resptrcode_shader> > >::_Vector_val<std::_Simple_types<resptr_core<Shader,resptrcode_shader> > >
PUBLIC	??0?$xalloc@V?$svector@U_D3DVERTEXELEMENT9@@$0EB@@@@@QAE@XZ ; xalloc<svector<_D3DVERTEXELEMENT9,65> >::xalloc<svector<_D3DVERTEXELEMENT9,65> >
PUBLIC	??0?$_Vector_val@U?$_Simple_types@V?$svector@U_D3DVERTEXELEMENT9@@$0EB@@@@std@@@std@@QAE@XZ ; std::_Vector_val<std::_Simple_types<svector<_D3DVERTEXELEMENT9,65> > >::_Vector_val<std::_Simple_types<svector<_D3DVERTEXELEMENT9,65> > >
PUBLIC	??0?$xalloc@PAUIDirect3DVertexBuffer9@@@@QAE@XZ	; xalloc<IDirect3DVertexBuffer9 *>::xalloc<IDirect3DVertexBuffer9 *>
PUBLIC	??0?$_Vector_val@U?$_Simple_types@PAUIDirect3DVertexBuffer9@@@std@@@std@@QAE@XZ ; std::_Vector_val<std::_Simple_types<IDirect3DVertexBuffer9 *> >::_Vector_val<std::_Simple_types<IDirect3DVertexBuffer9 *> >
PUBLIC	??0?$xalloc@PAUIDirect3DIndexBuffer9@@@@QAE@XZ	; xalloc<IDirect3DIndexBuffer9 *>::xalloc<IDirect3DIndexBuffer9 *>
PUBLIC	??0?$_Vector_val@U?$_Simple_types@PAUIDirect3DIndexBuffer9@@@std@@@std@@QAE@XZ ; std::_Vector_val<std::_Simple_types<IDirect3DIndexBuffer9 *> >::_Vector_val<std::_Simple_types<IDirect3DIndexBuffer9 *> >
PUBLIC	?_Unwrapped@?$_Vector_iterator@V?$_Vector_val@U?$_Simple_types@PAVISpatial@@@std@@@std@@@std@@QBEPAPAVISpatial@@XZ ; std::_Vector_iterator<std::_Vector_val<std::_Simple_types<ISpatial *> > >::_Unwrapped
PUBLIC	??R?$xr_special_free@$00VCLightR_Manager@@@@QAEXAAPAVCLightR_Manager@@@Z ; xr_special_free<1,CLightR_Manager>::operator()
PUBLIC	??R?$xr_special_free@$00VCModelPool@@@@QAEXAAPAVCModelPool@@@Z ; xr_special_free<1,CModelPool>::operator()
PUBLIC	??R?$xr_special_free@$00VCRenderTarget@@@@QAEXAAPAVCRenderTarget@@@Z ; xr_special_free<1,CRenderTarget>::operator()
PUBLIC	??R?$xr_special_free@$00VIRender_ObjectSpecific@@@@QAEXAAPAVIRender_ObjectSpecific@@@Z ; xr_special_free<1,IRender_ObjectSpecific>::operator()
PUBLIC	?reflect@?$crc_helper@$0CA@$00@detail@boost@@SAII@Z ; boost::detail::crc_helper<32,1>::reflect
PUBLIC	?index@?$crc_helper@$0CA@$00@detail@boost@@SAEIE@Z ; boost::detail::crc_helper<32,1>::index
PUBLIC	?shift@?$crc_helper@$0CA@$00@detail@boost@@SAII@Z ; boost::detail::crc_helper<32,1>::shift
PUBLIC	?reflect@?$crc_helper@$0CA@$0A@@detail@boost@@SAII@Z ; boost::detail::crc_helper<32,0>::reflect
PUBLIC	??$_Buyheadnode@V?$xalloc@U?$_Tree_node@UFS_File@@PAX@std@@@@@?$_Tree_node@UFS_File@@PAX@std@@SAPAU01@AAV?$xalloc@U?$_Tree_node@UFS_File@@PAX@std@@@@@Z ; std::_Tree_node<FS_File,void *>::_Buyheadnode<xalloc<std::_Tree_node<FS_File,void *> > >
PUBLIC	??$addressof@V?$_Vector_val@U?$_Simple_types@U_REG_INFO@@@std@@@std@@@std@@YAPAV?$_Vector_val@U?$_Simple_types@U_REG_INFO@@@std@@@0@AAV10@@Z ; std::addressof<std::_Vector_val<std::_Simple_types<_REG_INFO> > >
PUBLIC	??$xr_free@PAVIRender_Portal@@@@YAXAAPAPAVIRender_Portal@@@Z ; xr_free<IRender_Portal *>
PUBLIC	??$_Destroy_range@V?$xalloc@PAVIRender_Portal@@@@@std@@YAXPAPAVIRender_Portal@@QAPAV1@AAV?$xalloc@PAVIRender_Portal@@@@@Z ; std::_Destroy_range<xalloc<IRender_Portal *> >
PUBLIC	??$xr_free@UFSlideWindowItem@@@@YAXAAPAUFSlideWindowItem@@@Z ; xr_free<FSlideWindowItem>
PUBLIC	??$_Destroy_range@V?$xalloc@UFSlideWindowItem@@@@@std@@YAXPAUFSlideWindowItem@@QAU1@AAV?$xalloc@UFSlideWindowItem@@@@@Z ; std::_Destroy_range<xalloc<FSlideWindowItem> >
PUBLIC	??$xr_free@V?$resptr_core@UShader@@Uresptrcode_shader@@@@@@YAXAAPAV?$resptr_core@UShader@@Uresptrcode_shader@@@@@Z ; xr_free<resptr_core<Shader,resptrcode_shader> >
PUBLIC	??$_Destroy_range@V?$xalloc@V?$resptr_core@UShader@@Uresptrcode_shader@@@@@@@std@@YAXPAV?$resptr_core@UShader@@Uresptrcode_shader@@@@QAV1@AAV?$xalloc@V?$resptr_core@UShader@@Uresptrcode_shader@@@@@@@Z ; std::_Destroy_range<xalloc<resptr_core<Shader,resptrcode_shader> > >
PUBLIC	??$xr_free@V?$svector@U_D3DVERTEXELEMENT9@@$0EB@@@@@YAXAAPAV?$svector@U_D3DVERTEXELEMENT9@@$0EB@@@@Z ; xr_free<svector<_D3DVERTEXELEMENT9,65> >
PUBLIC	??$_Destroy_range@V?$xalloc@V?$svector@U_D3DVERTEXELEMENT9@@$0EB@@@@@@std@@YAXPAV?$svector@U_D3DVERTEXELEMENT9@@$0EB@@@QAV1@AAV?$xalloc@V?$svector@U_D3DVERTEXELEMENT9@@$0EB@@@@@@Z ; std::_Destroy_range<xalloc<svector<_D3DVERTEXELEMENT9,65> > >
PUBLIC	??$xr_free@PAUIDirect3DVertexBuffer9@@@@YAXAAPAPAUIDirect3DVertexBuffer9@@@Z ; xr_free<IDirect3DVertexBuffer9 *>
PUBLIC	??$_Destroy_range@V?$xalloc@PAUIDirect3DVertexBuffer9@@@@@std@@YAXPAPAUIDirect3DVertexBuffer9@@QAPAU1@AAV?$xalloc@PAUIDirect3DVertexBuffer9@@@@@Z ; std::_Destroy_range<xalloc<IDirect3DVertexBuffer9 *> >
PUBLIC	??$xr_free@PAUIDirect3DIndexBuffer9@@@@YAXAAPAPAUIDirect3DIndexBuffer9@@@Z ; xr_free<IDirect3DIndexBuffer9 *>
PUBLIC	??$_Destroy_range@V?$xalloc@PAUIDirect3DIndexBuffer9@@@@@std@@YAXPAPAUIDirect3DIndexBuffer9@@QAPAU1@AAV?$xalloc@PAUIDirect3DIndexBuffer9@@@@@Z ; std::_Destroy_range<xalloc<IDirect3DIndexBuffer9 *> >
PUBLIC	??$?0ABU?$less@UFS_File@@@std@@U_Zero_then_variadic_args_t@1@@?$_Compressed_pair@U?$less@UFS_File@@@std@@V?$_Compressed_pair@V?$xalloc@U?$_Tree_node@UFS_File@@PAX@std@@@@V?$_Tree_val@U?$_Tree_simple_types@UFS_File@@@std@@@std@@$00@2@$00@std@@QAE@U_One_then_variadic_args_t@1@ABU?$less@UFS_File@@@1@$$QAU_Zero_then_variadic_args_t@1@@Z ; std::_Compressed_pair<std::less<FS_File>,std::_Compressed_pair<xalloc<std::_Tree_node<FS_File,void *> >,std::_Tree_val<std::_Tree_simple_types<FS_File> >,1>,1>::_Compressed_pair<std::less<FS_File>,std::_Compressed_pair<xalloc<std::_Tree_node<FS_File,void *> >,std::_Tree_val<std::_Tree_simple_types<FS_File> >,1>,1><std::less<FS_File> const &,std::_Zero_then_variadic_args_t>
PUBLIC	??$addressof@V?$_Tree_val@U?$_Tree_simple_types@UFS_File@@@std@@@std@@@std@@YAPAV?$_Tree_val@U?$_Tree_simple_types@UFS_File@@@std@@@0@AAV10@@Z ; std::addressof<std::_Tree_val<std::_Tree_simple_types<FS_File> > >
PUBLIC	??$addressof@$$CBV?$_Tree_val@U?$_Tree_simple_types@UFS_File@@@std@@@std@@@std@@YAPBV?$_Tree_val@U?$_Tree_simple_types@UFS_File@@@std@@@0@ABV10@@Z ; std::addressof<std::_Tree_val<std::_Tree_simple_types<FS_File> > const >
PUBLIC	??$_Emplace_reallocate@ABU_REG_INFO@@@?$vector@U_REG_INFO@@V?$xalloc@U_REG_INFO@@@@@std@@QAEPAU_REG_INFO@@QAU2@ABU2@@Z ; std::vector<_REG_INFO,xalloc<_REG_INFO> >::_Emplace_reallocate<_REG_INFO const &>
PUBLIC	??$construct@U_REG_INFO@@ABU1@@?$_Normal_allocator_traits@V?$xalloc@U_REG_INFO@@@@@std@@SAXAAV?$xalloc@U_REG_INFO@@@@PAU_REG_INFO@@ABU3@@Z ; std::_Normal_allocator_traits<xalloc<_REG_INFO> >::construct<_REG_INFO,_REG_INFO const &>
PUBLIC	??$forward@ABU_REG_INFO@@@std@@YAABU_REG_INFO@@ABU1@@Z ; std::forward<_REG_INFO const &>
PUBLIC	??$?0$$V@?$_Compressed_pair@V?$xalloc@PAVIRender_Portal@@@@V?$_Vector_val@U?$_Simple_types@PAVIRender_Portal@@@std@@@std@@$00@std@@QAE@U_Zero_then_variadic_args_t@1@@Z ; std::_Compressed_pair<xalloc<IRender_Portal *>,std::_Vector_val<std::_Simple_types<IRender_Portal *> >,1>::_Compressed_pair<xalloc<IRender_Portal *>,std::_Vector_val<std::_Simple_types<IRender_Portal *> >,1><>
PUBLIC	??$?0$$V@?$_Compressed_pair@V?$xalloc@UFSlideWindowItem@@@@V?$_Vector_val@U?$_Simple_types@UFSlideWindowItem@@@std@@@std@@$00@std@@QAE@U_Zero_then_variadic_args_t@1@@Z ; std::_Compressed_pair<xalloc<FSlideWindowItem>,std::_Vector_val<std::_Simple_types<FSlideWindowItem> >,1>::_Compressed_pair<xalloc<FSlideWindowItem>,std::_Vector_val<std::_Simple_types<FSlideWindowItem> >,1><>
PUBLIC	??$addressof@V?$_Vector_val@U?$_Simple_types@UFSlideWindowItem@@@std@@@std@@@std@@YAPAV?$_Vector_val@U?$_Simple_types@UFSlideWindowItem@@@std@@@0@AAV10@@Z ; std::addressof<std::_Vector_val<std::_Simple_types<FSlideWindowItem> > >
PUBLIC	??$?0$$V@?$_Compressed_pair@V?$xalloc@V?$resptr_core@UShader@@Uresptrcode_shader@@@@@@V?$_Vector_val@U?$_Simple_types@V?$resptr_core@UShader@@Uresptrcode_shader@@@@@std@@@std@@$00@std@@QAE@U_Zero_then_variadic_args_t@1@@Z ; std::_Compressed_pair<xalloc<resptr_core<Shader,resptrcode_shader> >,std::_Vector_val<std::_Simple_types<resptr_core<Shader,resptrcode_shader> > >,1>::_Compressed_pair<xalloc<resptr_core<Shader,resptrcode_shader> >,std::_Vector_val<std::_Simple_types<resptr_core<Shader,resptrcode_shader> > >,1><>
PUBLIC	??$addressof@V?$_Vector_val@U?$_Simple_types@V?$resptr_core@UShader@@Uresptrcode_shader@@@@@std@@@std@@@std@@YAPAV?$_Vector_val@U?$_Simple_types@V?$resptr_core@UShader@@Uresptrcode_shader@@@@@std@@@0@AAV10@@Z ; std::addressof<std::_Vector_val<std::_Simple_types<resptr_core<Shader,resptrcode_shader> > > >
PUBLIC	??$?0$$V@?$_Compressed_pair@V?$xalloc@V?$svector@U_D3DVERTEXELEMENT9@@$0EB@@@@@V?$_Vector_val@U?$_Simple_types@V?$svector@U_D3DVERTEXELEMENT9@@$0EB@@@@std@@@std@@$00@std@@QAE@U_Zero_then_variadic_args_t@1@@Z ; std::_Compressed_pair<xalloc<svector<_D3DVERTEXELEMENT9,65> >,std::_Vector_val<std::_Simple_types<svector<_D3DVERTEXELEMENT9,65> > >,1>::_Compressed_pair<xalloc<svector<_D3DVERTEXELEMENT9,65> >,std::_Vector_val<std::_Simple_types<svector<_D3DVERTEXELEMENT9,65> > >,1><>
PUBLIC	??$addressof@V?$_Vector_val@U?$_Simple_types@V?$svector@U_D3DVERTEXELEMENT9@@$0EB@@@@std@@@std@@@std@@YAPAV?$_Vector_val@U?$_Simple_types@V?$svector@U_D3DVERTEXELEMENT9@@$0EB@@@@std@@@0@AAV10@@Z ; std::addressof<std::_Vector_val<std::_Simple_types<svector<_D3DVERTEXELEMENT9,65> > > >
PUBLIC	??$?0$$V@?$_Compressed_pair@V?$xalloc@PAUIDirect3DVertexBuffer9@@@@V?$_Vector_val@U?$_Simple_types@PAUIDirect3DVertexBuffer9@@@std@@@std@@$00@std@@QAE@U_Zero_then_variadic_args_t@1@@Z ; std::_Compressed_pair<xalloc<IDirect3DVertexBuffer9 *>,std::_Vector_val<std::_Simple_types<IDirect3DVertexBuffer9 *> >,1>::_Compressed_pair<xalloc<IDirect3DVertexBuffer9 *>,std::_Vector_val<std::_Simple_types<IDirect3DVertexBuffer9 *> >,1><>
PUBLIC	??$addressof@V?$_Vector_val@U?$_Simple_types@PAUIDirect3DVertexBuffer9@@@std@@@std@@@std@@YAPAV?$_Vector_val@U?$_Simple_types@PAUIDirect3DVertexBuffer9@@@std@@@0@AAV10@@Z ; std::addressof<std::_Vector_val<std::_Simple_types<IDirect3DVertexBuffer9 *> > >
PUBLIC	??$?0$$V@?$_Compressed_pair@V?$xalloc@PAUIDirect3DIndexBuffer9@@@@V?$_Vector_val@U?$_Simple_types@PAUIDirect3DIndexBuffer9@@@std@@@std@@$00@std@@QAE@U_Zero_then_variadic_args_t@1@@Z ; std::_Compressed_pair<xalloc<IDirect3DIndexBuffer9 *>,std::_Vector_val<std::_Simple_types<IDirect3DIndexBuffer9 *> >,1>::_Compressed_pair<xalloc<IDirect3DIndexBuffer9 *>,std::_Vector_val<std::_Simple_types<IDirect3DIndexBuffer9 *> >,1><>
PUBLIC	??$addressof@V?$_Vector_val@U?$_Simple_types@PAUIDirect3DIndexBuffer9@@@std@@@std@@@std@@YAPAV?$_Vector_val@U?$_Simple_types@PAUIDirect3DIndexBuffer9@@@std@@@0@AAV10@@Z ; std::addressof<std::_Vector_val<std::_Simple_types<IDirect3DIndexBuffer9 *> > >
PUBLIC	??$_Erase_head@V?$xalloc@U?$_Tree_node@UFS_File@@PAX@std@@@@@?$_Tree_val@U?$_Tree_simple_types@UFS_File@@@std@@@std@@QAEXAAV?$xalloc@U?$_Tree_node@UFS_File@@PAX@std@@@@@Z ; std::_Tree_val<std::_Tree_simple_types<FS_File> >::_Erase_head<xalloc<std::_Tree_node<FS_File,void *> > >
PUBLIC	??$_Erase_tree@V?$xalloc@U?$_Tree_node@UFS_File@@PAX@std@@@@@?$_Tree_val@U?$_Tree_simple_types@UFS_File@@@std@@@std@@QAEXAAV?$xalloc@U?$_Tree_node@UFS_File@@PAX@std@@@@PAU?$_Tree_node@UFS_File@@PAX@1@@Z ; std::_Tree_val<std::_Tree_simple_types<FS_File> >::_Erase_tree<xalloc<std::_Tree_node<FS_File,void *> > >
PUBLIC	??$strncpy_s@$02@@YAHAAY02DPBDI@Z		; strncpy_s<3>
PUBLIC	?checksum@?$crc_optimal@$0CA@$0EMBBNLH@$0PPPPPPPP@$0PPPPPPPP@$00$00@boost@@QBEIXZ ; boost::crc_optimal<32,79764919,4294967295,4294967295,1,1>::checksum
PUBLIC	?process_block@?$crc_optimal@$0CA@$0EMBBNLH@$0PPPPPPPP@$0PPPPPPPP@$00$00@boost@@QAEXPBX0@Z ; boost::crc_optimal<32,79764919,4294967295,4294967295,1,1>::process_block
PUBLIC	??0?$crc_optimal@$0CA@$0EMBBNLH@$0PPPPPPPP@$0PPPPPPPP@$00$00@boost@@QAE@I@Z ; boost::crc_optimal<32,79764919,4294967295,4294967295,1,1>::crc_optimal<32,79764919,4294967295,4294967295,1,1>
PUBLIC	??$xr_free@$$CBX@@YAXAAPBX@Z			; xr_free<void const >
PUBLIC	??$xr_alloc@E@@YAPAEI@Z				; xr_alloc<unsigned char>
PUBLIC	??$_Get_unwrapped@ABV?$_Vector_iterator@V?$_Vector_val@U?$_Simple_types@PAVISpatial@@@std@@@std@@@std@@@std@@YA?A_TABV?$_Vector_iterator@V?$_Vector_val@U?$_Simple_types@PAVISpatial@@@std@@@std@@@0@@Z ; std::_Get_unwrapped<std::_Vector_iterator<std::_Vector_val<std::_Simple_types<ISpatial *> > > const &>
PUBLIC	??$sort@V?$_Vector_iterator@V?$_Vector_val@U?$_Simple_types@PAVISpatial@@@std@@@std@@@std@@P6A_NPAVISpatial@@0@Z@std@@YAXV?$_Vector_iterator@V?$_Vector_val@U?$_Simple_types@PAVISpatial@@@std@@@std@@@0@0P6A_NPAVISpatial@@1@Z@Z ; std::sort<std::_Vector_iterator<std::_Vector_val<std::_Simple_types<ISpatial *> > >,bool (__cdecl*)(ISpatial *,ISpatial *)>
PUBLIC	??$xr_new@VCGlow@@@@YAPAVCGlow@@XZ		; xr_new<CGlow>
PUBLIC	??$xr_delete@VIRender_ObjectSpecific@@@@YAXAAPAVIRender_ObjectSpecific@@@Z ; xr_delete<IRender_ObjectSpecific>
PUBLIC	??$xr_new@VCROS_impl@@@@YAPAVCROS_impl@@XZ	; xr_new<CROS_impl>
PUBLIC	??$xr_delete@VCRenderTarget@@@@YAXAAPAVCRenderTarget@@@Z ; xr_delete<CRenderTarget>
PUBLIC	??$xr_delete@VCModelPool@@@@YAXAAPAVCModelPool@@@Z ; xr_delete<CModelPool>
PUBLIC	??$xr_delete@VCLightR_Manager@@@@YAXAAPAVCLightR_Manager@@@Z ; xr_delete<CLightR_Manager>
PUBLIC	??$xr_new@VCLightR_Manager@@@@YAPAVCLightR_Manager@@XZ ; xr_new<CLightR_Manager>
PUBLIC	??$xr_new@VCModelPool@@@@YAPAVCModelPool@@XZ	; xr_new<CModelPool>
PUBLIC	??$xr_new@VCRenderTarget@@@@YAPAVCRenderTarget@@XZ ; xr_new<CRenderTarget>
PUBLIC	?_Verify_offset@?$_Vector_const_iterator@V?$_Vector_val@U?$_Simple_types@U_REG_INFO@@@std@@@std@@@std@@QBEXH@Z ; std::_Vector_const_iterator<std::_Vector_val<std::_Simple_types<_REG_INFO> > >::_Verify_offset
PUBLIC	?clear@?$vector@U_REG_INFO@@V?$xalloc@U_REG_INFO@@@@@std@@QAEXXZ ; std::vector<_REG_INFO,xalloc<_REG_INFO> >::clear
PUBLIC	?_Verify_offset@?$_Vector_const_iterator@V?$_Vector_val@U?$_Simple_types@PAUIDirect3DIndexBuffer9@@@std@@@std@@@std@@QBEXH@Z ; std::_Vector_const_iterator<std::_Vector_val<std::_Simple_types<IDirect3DIndexBuffer9 *> > >::_Verify_offset
PUBLIC	?_Verify_offset@?$_Vector_const_iterator@V?$_Vector_val@U?$_Simple_types@PAUIDirect3DVertexBuffer9@@@std@@@std@@@std@@QBEXH@Z ; std::_Vector_const_iterator<std::_Vector_val<std::_Simple_types<IDirect3DVertexBuffer9 *> > >::_Verify_offset
PUBLIC	?_Verify_offset@?$_Vector_const_iterator@V?$_Vector_val@U?$_Simple_types@V?$svector@U_D3DVERTEXELEMENT9@@$0EB@@@@std@@@std@@@std@@QBEXH@Z ; std::_Vector_const_iterator<std::_Vector_val<std::_Simple_types<svector<_D3DVERTEXELEMENT9,65> > > >::_Verify_offset
PUBLIC	?_Verify_offset@?$_Vector_const_iterator@V?$_Vector_val@U?$_Simple_types@V?$resptr_core@UShader@@Uresptrcode_shader@@@@@std@@@std@@@std@@QBEXH@Z ; std::_Vector_const_iterator<std::_Vector_val<std::_Simple_types<resptr_core<Shader,resptrcode_shader> > > >::_Verify_offset
PUBLIC	?_Verify_offset@?$_Vector_const_iterator@V?$_Vector_val@U?$_Simple_types@UFSlideWindowItem@@@std@@@std@@@std@@QBEXH@Z ; std::_Vector_const_iterator<std::_Vector_val<std::_Simple_types<FSlideWindowItem> > >::_Verify_offset
PUBLIC	??Y?$_Vector_const_iterator@V?$_Vector_val@U?$_Simple_types@U_REG_INFO@@@std@@@std@@@std@@QAEAAV01@H@Z ; std::_Vector_const_iterator<std::_Vector_val<std::_Simple_types<_REG_INFO> > >::operator+=
PUBLIC	?clear_and_free@?$xr_vector@U_REG_INFO@@V?$xalloc@U_REG_INFO@@@@@@QAEXXZ ; xr_vector<_REG_INFO,xalloc<_REG_INFO> >::clear_and_free
PUBLIC	?_Get_first@?$_Compressed_pair@V?$xalloc@PAVIRender_Portal@@@@V?$_Vector_val@U?$_Simple_types@PAVIRender_Portal@@@std@@@std@@$00@std@@QAEAAV?$xalloc@PAVIRender_Portal@@@@XZ ; std::_Compressed_pair<xalloc<IRender_Portal *>,std::_Vector_val<std::_Simple_types<IRender_Portal *> >,1>::_Get_first
PUBLIC	?_Get_first@?$_Compressed_pair@V?$xalloc@UFSlideWindowItem@@@@V?$_Vector_val@U?$_Simple_types@UFSlideWindowItem@@@std@@@std@@$00@std@@QAEAAV?$xalloc@UFSlideWindowItem@@@@XZ ; std::_Compressed_pair<xalloc<FSlideWindowItem>,std::_Vector_val<std::_Simple_types<FSlideWindowItem> >,1>::_Get_first
PUBLIC	?_Get_first@?$_Compressed_pair@V?$xalloc@V?$resptr_core@UShader@@Uresptrcode_shader@@@@@@V?$_Vector_val@U?$_Simple_types@V?$resptr_core@UShader@@Uresptrcode_shader@@@@@std@@@std@@$00@std@@QAEAAV?$xalloc@V?$resptr_core@UShader@@Uresptrcode_shader@@@@@@XZ ; std::_Compressed_pair<xalloc<resptr_core<Shader,resptrcode_shader> >,std::_Vector_val<std::_Simple_types<resptr_core<Shader,resptrcode_shader> > >,1>::_Get_first
PUBLIC	?_Get_first@?$_Compressed_pair@V?$xalloc@V?$svector@U_D3DVERTEXELEMENT9@@$0EB@@@@@V?$_Vector_val@U?$_Simple_types@V?$svector@U_D3DVERTEXELEMENT9@@$0EB@@@@std@@@std@@$00@std@@QAEAAV?$xalloc@V?$svector@U_D3DVERTEXELEMENT9@@$0EB@@@@@XZ ; std::_Compressed_pair<xalloc<svector<_D3DVERTEXELEMENT9,65> >,std::_Vector_val<std::_Simple_types<svector<_D3DVERTEXELEMENT9,65> > >,1>::_Get_first
PUBLIC	?_Get_first@?$_Compressed_pair@V?$xalloc@PAUIDirect3DVertexBuffer9@@@@V?$_Vector_val@U?$_Simple_types@PAUIDirect3DVertexBuffer9@@@std@@@std@@$00@std@@QAEAAV?$xalloc@PAUIDirect3DVertexBuffer9@@@@XZ ; std::_Compressed_pair<xalloc<IDirect3DVertexBuffer9 *>,std::_Vector_val<std::_Simple_types<IDirect3DVertexBuffer9 *> >,1>::_Get_first
PUBLIC	?_Get_first@?$_Compressed_pair@V?$xalloc@PAUIDirect3DIndexBuffer9@@@@V?$_Vector_val@U?$_Simple_types@PAUIDirect3DIndexBuffer9@@@std@@@std@@$00@std@@QAEAAV?$xalloc@PAUIDirect3DIndexBuffer9@@@@XZ ; std::_Compressed_pair<xalloc<IDirect3DIndexBuffer9 *>,std::_Vector_val<std::_Simple_types<IDirect3DIndexBuffer9 *> >,1>::_Get_first
PUBLIC	??Y?$_Vector_const_iterator@V?$_Vector_val@U?$_Simple_types@PAUIDirect3DIndexBuffer9@@@std@@@std@@@std@@QAEAAV01@H@Z ; std::_Vector_const_iterator<std::_Vector_val<std::_Simple_types<IDirect3DIndexBuffer9 *> > >::operator+=
PUBLIC	??Y?$_Vector_const_iterator@V?$_Vector_val@U?$_Simple_types@PAUIDirect3DVertexBuffer9@@@std@@@std@@@std@@QAEAAV01@H@Z ; std::_Vector_const_iterator<std::_Vector_val<std::_Simple_types<IDirect3DVertexBuffer9 *> > >::operator+=
PUBLIC	??Y?$_Vector_const_iterator@V?$_Vector_val@U?$_Simple_types@V?$svector@U_D3DVERTEXELEMENT9@@$0EB@@@@std@@@std@@@std@@QAEAAV01@H@Z ; std::_Vector_const_iterator<std::_Vector_val<std::_Simple_types<svector<_D3DVERTEXELEMENT9,65> > > >::operator+=
PUBLIC	??Y?$_Vector_const_iterator@V?$_Vector_val@U?$_Simple_types@V?$resptr_core@UShader@@Uresptrcode_shader@@@@@std@@@std@@@std@@QAEAAV01@H@Z ; std::_Vector_const_iterator<std::_Vector_val<std::_Simple_types<resptr_core<Shader,resptrcode_shader> > > >::operator+=
PUBLIC	??Y?$_Vector_const_iterator@V?$_Vector_val@U?$_Simple_types@UFSlideWindowItem@@@std@@@std@@@std@@QAEAAV01@H@Z ; std::_Vector_const_iterator<std::_Vector_val<std::_Simple_types<FSlideWindowItem> > >::operator+=
PUBLIC	??0?$_Vector_const_iterator@V?$_Vector_val@U?$_Simple_types@U_REG_INFO@@@std@@@std@@@std@@QAE@PAU_REG_INFO@@PBU_Container_base0@1@@Z ; std::_Vector_const_iterator<std::_Vector_val<std::_Simple_types<_REG_INFO> > >::_Vector_const_iterator<std::_Vector_val<std::_Simple_types<_REG_INFO> > >
PUBLIC	??D?$_Vector_const_iterator@V?$_Vector_val@U?$_Simple_types@U_REG_INFO@@@std@@@std@@@std@@QBEABU_REG_INFO@@XZ ; std::_Vector_const_iterator<std::_Vector_val<std::_Simple_types<_REG_INFO> > >::operator*
PUBLIC	??Y?$_Vector_iterator@V?$_Vector_val@U?$_Simple_types@U_REG_INFO@@@std@@@std@@@std@@QAEAAV01@H@Z ; std::_Vector_iterator<std::_Vector_val<std::_Simple_types<_REG_INFO> > >::operator+=
PUBLIC	??0?$_Vector_iterator@V?$_Vector_val@U?$_Simple_types@U_REG_INFO@@@std@@@std@@@std@@QAE@PAU_REG_INFO@@PBU_Container_base0@1@@Z ; std::_Vector_iterator<std::_Vector_val<std::_Simple_types<_REG_INFO> > >::_Vector_iterator<std::_Vector_val<std::_Simple_types<_REG_INFO> > >
PUBLIC	?_Alloc_sentinel_and_proxy@?$_Tree@V?$_Tset_traits@UFS_File@@U?$less@UFS_File@@@std@@V?$xalloc@UFS_File@@@@$0A@@std@@@std@@IAEXXZ ; std::_Tree<std::_Tset_traits<FS_File,std::less<FS_File>,xalloc<FS_File>,0> >::_Alloc_sentinel_and_proxy
PUBLIC	?_Min@?$_Tree_val@U?$_Tree_simple_types@UFS_File@@@std@@@std@@SAPAU?$_Tree_node@UFS_File@@PAX@2@PAU32@@Z ; std::_Tree_val<std::_Tree_simple_types<FS_File> >::_Min
PUBLIC	?_Get_first@?$_Compressed_pair@V?$xalloc@U?$_Tree_node@UFS_File@@PAX@std@@@@V?$_Tree_val@U?$_Tree_simple_types@UFS_File@@@std@@@std@@$00@std@@QAEAAV?$xalloc@U?$_Tree_node@UFS_File@@PAX@std@@@@XZ ; std::_Compressed_pair<xalloc<std::_Tree_node<FS_File,void *> >,std::_Tree_val<std::_Tree_simple_types<FS_File> >,1>::_Get_first
PUBLIC	?pop_back@?$vector@U_REG_INFO@@V?$xalloc@U_REG_INFO@@@@@std@@QAEXXZ ; std::vector<_REG_INFO,xalloc<_REG_INFO> >::pop_back
PUBLIC	?begin@?$vector@U_REG_INFO@@V?$xalloc@U_REG_INFO@@@@@std@@QAE?AV?$_Vector_iterator@V?$_Vector_val@U?$_Simple_types@U_REG_INFO@@@std@@@std@@@2@XZ ; std::vector<_REG_INFO,xalloc<_REG_INFO> >::begin
PUBLIC	?empty@?$vector@U_REG_INFO@@V?$xalloc@U_REG_INFO@@@@@std@@QBE_NXZ ; std::vector<_REG_INFO,xalloc<_REG_INFO> >::empty
PUBLIC	?size@?$vector@U_REG_INFO@@V?$xalloc@U_REG_INFO@@@@@std@@QBEIXZ ; std::vector<_REG_INFO,xalloc<_REG_INFO> >::size
PUBLIC	?_Orphan_range@?$vector@U_REG_INFO@@V?$xalloc@U_REG_INFO@@@@@std@@ABEXPAU_REG_INFO@@0@Z ; std::vector<_REG_INFO,xalloc<_REG_INFO> >::_Orphan_range
PUBLIC	?clear@?$xr_vector@U_REG_INFO@@V?$xalloc@U_REG_INFO@@@@@@QAEXXZ ; xr_vector<_REG_INFO,xalloc<_REG_INFO> >::clear
PUBLIC	?deallocate@?$xalloc@PAVIRender_Portal@@@@QBEXPAPAVIRender_Portal@@I@Z ; xalloc<IRender_Portal *>::deallocate
PUBLIC	?_Destroy@?$vector@PAVIRender_Portal@@V?$xalloc@PAVIRender_Portal@@@@@std@@AAEXPAPAVIRender_Portal@@0@Z ; std::vector<IRender_Portal *,xalloc<IRender_Portal *> >::_Destroy
PUBLIC	?_Getal@?$vector@PAVIRender_Portal@@V?$xalloc@PAVIRender_Portal@@@@@std@@AAEAAV?$xalloc@PAVIRender_Portal@@@@XZ ; std::vector<IRender_Portal *,xalloc<IRender_Portal *> >::_Getal
PUBLIC	?deallocate@?$xalloc@UFSlideWindowItem@@@@QBEXPAUFSlideWindowItem@@I@Z ; xalloc<FSlideWindowItem>::deallocate
PUBLIC	?_Destroy@?$vector@UFSlideWindowItem@@V?$xalloc@UFSlideWindowItem@@@@@std@@AAEXPAUFSlideWindowItem@@0@Z ; std::vector<FSlideWindowItem,xalloc<FSlideWindowItem> >::_Destroy
PUBLIC	?_Getal@?$vector@UFSlideWindowItem@@V?$xalloc@UFSlideWindowItem@@@@@std@@AAEAAV?$xalloc@UFSlideWindowItem@@@@XZ ; std::vector<FSlideWindowItem,xalloc<FSlideWindowItem> >::_Getal
PUBLIC	?deallocate@?$xalloc@V?$resptr_core@UShader@@Uresptrcode_shader@@@@@@QBEXPAV?$resptr_core@UShader@@Uresptrcode_shader@@@@I@Z ; xalloc<resptr_core<Shader,resptrcode_shader> >::deallocate
PUBLIC	?_Destroy@?$vector@V?$resptr_core@UShader@@Uresptrcode_shader@@@@V?$xalloc@V?$resptr_core@UShader@@Uresptrcode_shader@@@@@@@std@@AAEXPAV?$resptr_core@UShader@@Uresptrcode_shader@@@@0@Z ; std::vector<resptr_core<Shader,resptrcode_shader>,xalloc<resptr_core<Shader,resptrcode_shader> > >::_Destroy
PUBLIC	?_Getal@?$vector@V?$resptr_core@UShader@@Uresptrcode_shader@@@@V?$xalloc@V?$resptr_core@UShader@@Uresptrcode_shader@@@@@@@std@@AAEAAV?$xalloc@V?$resptr_core@UShader@@Uresptrcode_shader@@@@@@XZ ; std::vector<resptr_core<Shader,resptrcode_shader>,xalloc<resptr_core<Shader,resptrcode_shader> > >::_Getal
PUBLIC	?deallocate@?$xalloc@V?$svector@U_D3DVERTEXELEMENT9@@$0EB@@@@@QBEXPAV?$svector@U_D3DVERTEXELEMENT9@@$0EB@@@I@Z ; xalloc<svector<_D3DVERTEXELEMENT9,65> >::deallocate
PUBLIC	?_Destroy@?$vector@V?$svector@U_D3DVERTEXELEMENT9@@$0EB@@@V?$xalloc@V?$svector@U_D3DVERTEXELEMENT9@@$0EB@@@@@@std@@AAEXPAV?$svector@U_D3DVERTEXELEMENT9@@$0EB@@@0@Z ; std::vector<svector<_D3DVERTEXELEMENT9,65>,xalloc<svector<_D3DVERTEXELEMENT9,65> > >::_Destroy
PUBLIC	?_Getal@?$vector@V?$svector@U_D3DVERTEXELEMENT9@@$0EB@@@V?$xalloc@V?$svector@U_D3DVERTEXELEMENT9@@$0EB@@@@@@std@@AAEAAV?$xalloc@V?$svector@U_D3DVERTEXELEMENT9@@$0EB@@@@@XZ ; std::vector<svector<_D3DVERTEXELEMENT9,65>,xalloc<svector<_D3DVERTEXELEMENT9,65> > >::_Getal
PUBLIC	?deallocate@?$xalloc@PAUIDirect3DVertexBuffer9@@@@QBEXPAPAUIDirect3DVertexBuffer9@@I@Z ; xalloc<IDirect3DVertexBuffer9 *>::deallocate
PUBLIC	?_Destroy@?$vector@PAUIDirect3DVertexBuffer9@@V?$xalloc@PAUIDirect3DVertexBuffer9@@@@@std@@AAEXPAPAUIDirect3DVertexBuffer9@@0@Z ; std::vector<IDirect3DVertexBuffer9 *,xalloc<IDirect3DVertexBuffer9 *> >::_Destroy
PUBLIC	?_Getal@?$vector@PAUIDirect3DVertexBuffer9@@V?$xalloc@PAUIDirect3DVertexBuffer9@@@@@std@@AAEAAV?$xalloc@PAUIDirect3DVertexBuffer9@@@@XZ ; std::vector<IDirect3DVertexBuffer9 *,xalloc<IDirect3DVertexBuffer9 *> >::_Getal
PUBLIC	?deallocate@?$xalloc@PAUIDirect3DIndexBuffer9@@@@QBEXPAPAUIDirect3DIndexBuffer9@@I@Z ; xalloc<IDirect3DIndexBuffer9 *>::deallocate
PUBLIC	?_Destroy@?$vector@PAUIDirect3DIndexBuffer9@@V?$xalloc@PAUIDirect3DIndexBuffer9@@@@@std@@AAEXPAPAUIDirect3DIndexBuffer9@@0@Z ; std::vector<IDirect3DIndexBuffer9 *,xalloc<IDirect3DIndexBuffer9 *> >::_Destroy
PUBLIC	?_Getal@?$vector@PAUIDirect3DIndexBuffer9@@V?$xalloc@PAUIDirect3DIndexBuffer9@@@@@std@@AAEAAV?$xalloc@PAUIDirect3DIndexBuffer9@@@@XZ ; std::vector<IDirect3DIndexBuffer9 *,xalloc<IDirect3DIndexBuffer9 *> >::_Getal
PUBLIC	??0?$_Vector_const_iterator@V?$_Vector_val@U?$_Simple_types@PAUIDirect3DIndexBuffer9@@@std@@@std@@@std@@QAE@PAPAUIDirect3DIndexBuffer9@@PBU_Container_base0@1@@Z ; std::_Vector_const_iterator<std::_Vector_val<std::_Simple_types<IDirect3DIndexBuffer9 *> > >::_Vector_const_iterator<std::_Vector_val<std::_Simple_types<IDirect3DIndexBuffer9 *> > >
PUBLIC	??D?$_Vector_const_iterator@V?$_Vector_val@U?$_Simple_types@PAUIDirect3DIndexBuffer9@@@std@@@std@@@std@@QBEABQAUIDirect3DIndexBuffer9@@XZ ; std::_Vector_const_iterator<std::_Vector_val<std::_Simple_types<IDirect3DIndexBuffer9 *> > >::operator*
PUBLIC	??Y?$_Vector_iterator@V?$_Vector_val@U?$_Simple_types@PAUIDirect3DIndexBuffer9@@@std@@@std@@@std@@QAEAAV01@H@Z ; std::_Vector_iterator<std::_Vector_val<std::_Simple_types<IDirect3DIndexBuffer9 *> > >::operator+=
PUBLIC	??0?$_Vector_const_iterator@V?$_Vector_val@U?$_Simple_types@PAUIDirect3DVertexBuffer9@@@std@@@std@@@std@@QAE@PAPAUIDirect3DVertexBuffer9@@PBU_Container_base0@1@@Z ; std::_Vector_const_iterator<std::_Vector_val<std::_Simple_types<IDirect3DVertexBuffer9 *> > >::_Vector_const_iterator<std::_Vector_val<std::_Simple_types<IDirect3DVertexBuffer9 *> > >
PUBLIC	??D?$_Vector_const_iterator@V?$_Vector_val@U?$_Simple_types@PAUIDirect3DVertexBuffer9@@@std@@@std@@@std@@QBEABQAUIDirect3DVertexBuffer9@@XZ ; std::_Vector_const_iterator<std::_Vector_val<std::_Simple_types<IDirect3DVertexBuffer9 *> > >::operator*
PUBLIC	??Y?$_Vector_iterator@V?$_Vector_val@U?$_Simple_types@PAUIDirect3DVertexBuffer9@@@std@@@std@@@std@@QAEAAV01@H@Z ; std::_Vector_iterator<std::_Vector_val<std::_Simple_types<IDirect3DVertexBuffer9 *> > >::operator+=
PUBLIC	??0?$_Vector_const_iterator@V?$_Vector_val@U?$_Simple_types@V?$svector@U_D3DVERTEXELEMENT9@@$0EB@@@@std@@@std@@@std@@QAE@PAV?$svector@U_D3DVERTEXELEMENT9@@$0EB@@@PBU_Container_base0@1@@Z ; std::_Vector_const_iterator<std::_Vector_val<std::_Simple_types<svector<_D3DVERTEXELEMENT9,65> > > >::_Vector_const_iterator<std::_Vector_val<std::_Simple_types<svector<_D3DVERTEXELEMENT9,65> > > >
PUBLIC	??D?$_Vector_const_iterator@V?$_Vector_val@U?$_Simple_types@V?$svector@U_D3DVERTEXELEMENT9@@$0EB@@@@std@@@std@@@std@@QBEABV?$svector@U_D3DVERTEXELEMENT9@@$0EB@@@XZ ; std::_Vector_const_iterator<std::_Vector_val<std::_Simple_types<svector<_D3DVERTEXELEMENT9,65> > > >::operator*
PUBLIC	??Y?$_Vector_iterator@V?$_Vector_val@U?$_Simple_types@V?$svector@U_D3DVERTEXELEMENT9@@$0EB@@@@std@@@std@@@std@@QAEAAV01@H@Z ; std::_Vector_iterator<std::_Vector_val<std::_Simple_types<svector<_D3DVERTEXELEMENT9,65> > > >::operator+=
PUBLIC	??0?$_Vector_const_iterator@V?$_Vector_val@U?$_Simple_types@V?$resptr_core@UShader@@Uresptrcode_shader@@@@@std@@@std@@@std@@QAE@PAV?$resptr_core@UShader@@Uresptrcode_shader@@@@PBU_Container_base0@1@@Z ; std::_Vector_const_iterator<std::_Vector_val<std::_Simple_types<resptr_core<Shader,resptrcode_shader> > > >::_Vector_const_iterator<std::_Vector_val<std::_Simple_types<resptr_core<Shader,resptrcode_shader> > > >
PUBLIC	??D?$_Vector_const_iterator@V?$_Vector_val@U?$_Simple_types@V?$resptr_core@UShader@@Uresptrcode_shader@@@@@std@@@std@@@std@@QBEABV?$resptr_core@UShader@@Uresptrcode_shader@@@@XZ ; std::_Vector_const_iterator<std::_Vector_val<std::_Simple_types<resptr_core<Shader,resptrcode_shader> > > >::operator*
PUBLIC	??Y?$_Vector_iterator@V?$_Vector_val@U?$_Simple_types@V?$resptr_core@UShader@@Uresptrcode_shader@@@@@std@@@std@@@std@@QAEAAV01@H@Z ; std::_Vector_iterator<std::_Vector_val<std::_Simple_types<resptr_core<Shader,resptrcode_shader> > > >::operator+=
PUBLIC	??0?$_Vector_const_iterator@V?$_Vector_val@U?$_Simple_types@UFSlideWindowItem@@@std@@@std@@@std@@QAE@PAUFSlideWindowItem@@PBU_Container_base0@1@@Z ; std::_Vector_const_iterator<std::_Vector_val<std::_Simple_types<FSlideWindowItem> > >::_Vector_const_iterator<std::_Vector_val<std::_Simple_types<FSlideWindowItem> > >
PUBLIC	??D?$_Vector_const_iterator@V?$_Vector_val@U?$_Simple_types@UFSlideWindowItem@@@std@@@std@@@std@@QBEABUFSlideWindowItem@@XZ ; std::_Vector_const_iterator<std::_Vector_val<std::_Simple_types<FSlideWindowItem> > >::operator*
PUBLIC	??Y?$_Vector_iterator@V?$_Vector_val@U?$_Simple_types@UFSlideWindowItem@@@std@@@std@@@std@@QAEAAV01@H@Z ; std::_Vector_iterator<std::_Vector_val<std::_Simple_types<FSlideWindowItem> > >::operator+=
PUBLIC	??D?$_Vector_iterator@V?$_Vector_val@U?$_Simple_types@U_REG_INFO@@@std@@@std@@@std@@QBEAAU_REG_INFO@@XZ ; std::_Vector_iterator<std::_Vector_val<std::_Simple_types<_REG_INFO> > >::operator*
PUBLIC	??H?$_Vector_iterator@V?$_Vector_val@U?$_Simple_types@U_REG_INFO@@@std@@@std@@@std@@QBE?AV01@H@Z ; std::_Vector_iterator<std::_Vector_val<std::_Simple_types<_REG_INFO> > >::operator+
PUBLIC	??0?$_Vector_iterator@V?$_Vector_val@U?$_Simple_types@UFSlideWindowItem@@@std@@@std@@@std@@QAE@PAUFSlideWindowItem@@PBU_Container_base0@1@@Z ; std::_Vector_iterator<std::_Vector_val<std::_Simple_types<FSlideWindowItem> > >::_Vector_iterator<std::_Vector_val<std::_Simple_types<FSlideWindowItem> > >
PUBLIC	??0?$_Vector_iterator@V?$_Vector_val@U?$_Simple_types@V?$resptr_core@UShader@@Uresptrcode_shader@@@@@std@@@std@@@std@@QAE@PAV?$resptr_core@UShader@@Uresptrcode_shader@@@@PBU_Container_base0@1@@Z ; std::_Vector_iterator<std::_Vector_val<std::_Simple_types<resptr_core<Shader,resptrcode_shader> > > >::_Vector_iterator<std::_Vector_val<std::_Simple_types<resptr_core<Shader,resptrcode_shader> > > >
PUBLIC	??0?$_Vector_iterator@V?$_Vector_val@U?$_Simple_types@V?$svector@U_D3DVERTEXELEMENT9@@$0EB@@@@std@@@std@@@std@@QAE@PAV?$svector@U_D3DVERTEXELEMENT9@@$0EB@@@PBU_Container_base0@1@@Z ; std::_Vector_iterator<std::_Vector_val<std::_Simple_types<svector<_D3DVERTEXELEMENT9,65> > > >::_Vector_iterator<std::_Vector_val<std::_Simple_types<svector<_D3DVERTEXELEMENT9,65> > > >
PUBLIC	??0?$_Vector_iterator@V?$_Vector_val@U?$_Simple_types@PAUIDirect3DVertexBuffer9@@@std@@@std@@@std@@QAE@PAPAUIDirect3DVertexBuffer9@@PBU_Container_base0@1@@Z ; std::_Vector_iterator<std::_Vector_val<std::_Simple_types<IDirect3DVertexBuffer9 *> > >::_Vector_iterator<std::_Vector_val<std::_Simple_types<IDirect3DVertexBuffer9 *> > >
PUBLIC	??0?$_Vector_iterator@V?$_Vector_val@U?$_Simple_types@PAUIDirect3DIndexBuffer9@@@std@@@std@@@std@@QAE@PAPAUIDirect3DIndexBuffer9@@PBU_Container_base0@1@@Z ; std::_Vector_iterator<std::_Vector_val<std::_Simple_types<IDirect3DIndexBuffer9 *> > >::_Vector_iterator<std::_Vector_val<std::_Simple_types<IDirect3DIndexBuffer9 *> > >
PUBLIC	??0?$_Tree@V?$_Tset_traits@UFS_File@@U?$less@UFS_File@@@std@@V?$xalloc@UFS_File@@@@$0A@@std@@@std@@QAE@ABU?$less@UFS_File@@@1@@Z ; std::_Tree<std::_Tset_traits<FS_File,std::less<FS_File>,xalloc<FS_File>,0> >::_Tree<std::_Tset_traits<FS_File,std::less<FS_File>,xalloc<FS_File>,0> >
PUBLIC	?_Getal@?$_Tree@V?$_Tset_traits@UFS_File@@U?$less@UFS_File@@@std@@V?$xalloc@UFS_File@@@@$0A@@std@@@std@@IAEAAV?$xalloc@U?$_Tree_node@UFS_File@@PAX@std@@@@XZ ; std::_Tree<std::_Tset_traits<FS_File,std::less<FS_File>,xalloc<FS_File>,0> >::_Getal
PUBLIC	?_Get_scary@?$_Tree@V?$_Tset_traits@UFS_File@@U?$less@UFS_File@@@std@@V?$xalloc@UFS_File@@@@$0A@@std@@@std@@IAEPAV?$_Tree_val@U?$_Tree_simple_types@UFS_File@@@std@@@2@XZ ; std::_Tree<std::_Tset_traits<FS_File,std::less<FS_File>,xalloc<FS_File>,0> >::_Get_scary
PUBLIC	?_Get_scary@?$_Tree@V?$_Tset_traits@UFS_File@@U?$less@UFS_File@@@std@@V?$xalloc@UFS_File@@@@$0A@@std@@@std@@IBEPBV?$_Tree_val@U?$_Tree_simple_types@UFS_File@@@std@@@2@XZ ; std::_Tree<std::_Tset_traits<FS_File,std::less<FS_File>,xalloc<FS_File>,0> >::_Get_scary
PUBLIC	?_Orphan_ptr@?$_Tree_val@U?$_Tree_simple_types@UFS_File@@@std@@@std@@QAEXQAU?$_Tree_node@UFS_File@@PAX@2@@Z ; std::_Tree_val<std::_Tree_simple_types<FS_File> >::_Orphan_ptr
PUBLIC	??$_Emplace_back_with_unused_capacity@ABU_REG_INFO@@@?$vector@U_REG_INFO@@V?$xalloc@U_REG_INFO@@@@@std@@AAE?A_TABU_REG_INFO@@@Z ; std::vector<_REG_INFO,xalloc<_REG_INFO> >::_Emplace_back_with_unused_capacity<_REG_INFO const &>
PUBLIC	??$emplace_back@ABU_REG_INFO@@@?$vector@U_REG_INFO@@V?$xalloc@U_REG_INFO@@@@@std@@QAE?A_TABU_REG_INFO@@@Z ; std::vector<_REG_INFO,xalloc<_REG_INFO> >::emplace_back<_REG_INFO const &>
PUBLIC	?push_back@?$vector@U_REG_INFO@@V?$xalloc@U_REG_INFO@@@@@std@@QAEXABU_REG_INFO@@@Z ; std::vector<_REG_INFO,xalloc<_REG_INFO> >::push_back
PUBLIC	?size@?$xr_vector@U_REG_INFO@@V?$xalloc@U_REG_INFO@@@@@@QBEIXZ ; xr_vector<_REG_INFO,xalloc<_REG_INFO> >::size
PUBLIC	??A?$xr_vector@U_REG_INFO@@V?$xalloc@U_REG_INFO@@@@@@QAEAAU_REG_INFO@@I@Z ; xr_vector<_REG_INFO,xalloc<_REG_INFO> >::operator[]
PUBLIC	?Resort@?$CRegistrator@VpureFrame@@@@QAEXXZ	; CRegistrator<pureFrame>::Resort
PUBLIC	??0?$vector@PAVIRender_Portal@@V?$xalloc@PAVIRender_Portal@@@@@std@@QAE@XZ ; std::vector<IRender_Portal *,xalloc<IRender_Portal *> >::vector<IRender_Portal *,xalloc<IRender_Portal *> >
PUBLIC	?_Tidy@?$vector@PAVIRender_Portal@@V?$xalloc@PAVIRender_Portal@@@@@std@@AAEXXZ ; std::vector<IRender_Portal *,xalloc<IRender_Portal *> >::_Tidy
PUBLIC	??0?$vector@UFSlideWindowItem@@V?$xalloc@UFSlideWindowItem@@@@@std@@QAE@XZ ; std::vector<FSlideWindowItem,xalloc<FSlideWindowItem> >::vector<FSlideWindowItem,xalloc<FSlideWindowItem> >
PUBLIC	?begin@?$vector@UFSlideWindowItem@@V?$xalloc@UFSlideWindowItem@@@@@std@@QAE?AV?$_Vector_iterator@V?$_Vector_val@U?$_Simple_types@UFSlideWindowItem@@@std@@@std@@@2@XZ ; std::vector<FSlideWindowItem,xalloc<FSlideWindowItem> >::begin
PUBLIC	?_Tidy@?$vector@UFSlideWindowItem@@V?$xalloc@UFSlideWindowItem@@@@@std@@AAEXXZ ; std::vector<FSlideWindowItem,xalloc<FSlideWindowItem> >::_Tidy
PUBLIC	??0?$vector@V?$resptr_core@UShader@@Uresptrcode_shader@@@@V?$xalloc@V?$resptr_core@UShader@@Uresptrcode_shader@@@@@@@std@@QAE@XZ ; std::vector<resptr_core<Shader,resptrcode_shader>,xalloc<resptr_core<Shader,resptrcode_shader> > >::vector<resptr_core<Shader,resptrcode_shader>,xalloc<resptr_core<Shader,resptrcode_shader> > >
PUBLIC	?begin@?$vector@V?$resptr_core@UShader@@Uresptrcode_shader@@@@V?$xalloc@V?$resptr_core@UShader@@Uresptrcode_shader@@@@@@@std@@QAE?AV?$_Vector_iterator@V?$_Vector_val@U?$_Simple_types@V?$resptr_core@UShader@@Uresptrcode_shader@@@@@std@@@std@@@2@XZ ; std::vector<resptr_core<Shader,resptrcode_shader>,xalloc<resptr_core<Shader,resptrcode_shader> > >::begin
PUBLIC	?_Tidy@?$vector@V?$resptr_core@UShader@@Uresptrcode_shader@@@@V?$xalloc@V?$resptr_core@UShader@@Uresptrcode_shader@@@@@@@std@@AAEXXZ ; std::vector<resptr_core<Shader,resptrcode_shader>,xalloc<resptr_core<Shader,resptrcode_shader> > >::_Tidy
PUBLIC	??0?$vector@V?$svector@U_D3DVERTEXELEMENT9@@$0EB@@@V?$xalloc@V?$svector@U_D3DVERTEXELEMENT9@@$0EB@@@@@@std@@QAE@XZ ; std::vector<svector<_D3DVERTEXELEMENT9,65>,xalloc<svector<_D3DVERTEXELEMENT9,65> > >::vector<svector<_D3DVERTEXELEMENT9,65>,xalloc<svector<_D3DVERTEXELEMENT9,65> > >
PUBLIC	?begin@?$vector@V?$svector@U_D3DVERTEXELEMENT9@@$0EB@@@V?$xalloc@V?$svector@U_D3DVERTEXELEMENT9@@$0EB@@@@@@std@@QAE?AV?$_Vector_iterator@V?$_Vector_val@U?$_Simple_types@V?$svector@U_D3DVERTEXELEMENT9@@$0EB@@@@std@@@std@@@2@XZ ; std::vector<svector<_D3DVERTEXELEMENT9,65>,xalloc<svector<_D3DVERTEXELEMENT9,65> > >::begin
PUBLIC	?_Tidy@?$vector@V?$svector@U_D3DVERTEXELEMENT9@@$0EB@@@V?$xalloc@V?$svector@U_D3DVERTEXELEMENT9@@$0EB@@@@@@std@@AAEXXZ ; std::vector<svector<_D3DVERTEXELEMENT9,65>,xalloc<svector<_D3DVERTEXELEMENT9,65> > >::_Tidy
PUBLIC	??0?$vector@PAUIDirect3DVertexBuffer9@@V?$xalloc@PAUIDirect3DVertexBuffer9@@@@@std@@QAE@XZ ; std::vector<IDirect3DVertexBuffer9 *,xalloc<IDirect3DVertexBuffer9 *> >::vector<IDirect3DVertexBuffer9 *,xalloc<IDirect3DVertexBuffer9 *> >
PUBLIC	?begin@?$vector@PAUIDirect3DVertexBuffer9@@V?$xalloc@PAUIDirect3DVertexBuffer9@@@@@std@@QAE?AV?$_Vector_iterator@V?$_Vector_val@U?$_Simple_types@PAUIDirect3DVertexBuffer9@@@std@@@std@@@2@XZ ; std::vector<IDirect3DVertexBuffer9 *,xalloc<IDirect3DVertexBuffer9 *> >::begin
PUBLIC	?_Tidy@?$vector@PAUIDirect3DVertexBuffer9@@V?$xalloc@PAUIDirect3DVertexBuffer9@@@@@std@@AAEXXZ ; std::vector<IDirect3DVertexBuffer9 *,xalloc<IDirect3DVertexBuffer9 *> >::_Tidy
PUBLIC	??0?$vector@PAUIDirect3DIndexBuffer9@@V?$xalloc@PAUIDirect3DIndexBuffer9@@@@@std@@QAE@XZ ; std::vector<IDirect3DIndexBuffer9 *,xalloc<IDirect3DIndexBuffer9 *> >::vector<IDirect3DIndexBuffer9 *,xalloc<IDirect3DIndexBuffer9 *> >
PUBLIC	?begin@?$vector@PAUIDirect3DIndexBuffer9@@V?$xalloc@PAUIDirect3DIndexBuffer9@@@@@std@@QAE?AV?$_Vector_iterator@V?$_Vector_val@U?$_Simple_types@PAUIDirect3DIndexBuffer9@@@std@@@std@@@2@XZ ; std::vector<IDirect3DIndexBuffer9 *,xalloc<IDirect3DIndexBuffer9 *> >::begin
PUBLIC	?_Tidy@?$vector@PAUIDirect3DIndexBuffer9@@V?$xalloc@PAUIDirect3DIndexBuffer9@@@@@std@@AAEXXZ ; std::vector<IDirect3DIndexBuffer9 *,xalloc<IDirect3DIndexBuffer9 *> >::_Tidy
PUBLIC	??0?$_Tree_unchecked_const_iterator@V?$_Tree_val@U?$_Tree_simple_types@UFS_File@@@std@@@std@@U_Iterator_base0@2@@std@@QAE@PAU?$_Tree_node@UFS_File@@PAX@1@PBV?$_Tree_val@U?$_Tree_simple_types@UFS_File@@@std@@@1@@Z ; std::_Tree_unchecked_const_iterator<std::_Tree_val<std::_Tree_simple_types<FS_File> >,std::_Iterator_base0>::_Tree_unchecked_const_iterator<std::_Tree_val<std::_Tree_simple_types<FS_File> >,std::_Iterator_base0>
PUBLIC	??E?$_Tree_unchecked_const_iterator@V?$_Tree_val@U?$_Tree_simple_types@UFS_File@@@std@@@std@@U_Iterator_base0@2@@std@@QAEAAV01@XZ ; std::_Tree_unchecked_const_iterator<std::_Tree_val<std::_Tree_simple_types<FS_File> >,std::_Iterator_base0>::operator++
PUBLIC	??8?$_Tree_const_iterator@V?$_Tree_val@U?$_Tree_simple_types@UFS_File@@@std@@@std@@@std@@QBE_NABV01@@Z ; std::_Tree_const_iterator<std::_Tree_val<std::_Tree_simple_types<FS_File> > >::operator==
PUBLIC	??D?$_Vector_iterator@V?$_Vector_val@U?$_Simple_types@PAUIDirect3DIndexBuffer9@@@std@@@std@@@std@@QBEAAPAUIDirect3DIndexBuffer9@@XZ ; std::_Vector_iterator<std::_Vector_val<std::_Simple_types<IDirect3DIndexBuffer9 *> > >::operator*
PUBLIC	??H?$_Vector_iterator@V?$_Vector_val@U?$_Simple_types@PAUIDirect3DIndexBuffer9@@@std@@@std@@@std@@QBE?AV01@H@Z ; std::_Vector_iterator<std::_Vector_val<std::_Simple_types<IDirect3DIndexBuffer9 *> > >::operator+
PUBLIC	??D?$_Vector_iterator@V?$_Vector_val@U?$_Simple_types@PAUIDirect3DVertexBuffer9@@@std@@@std@@@std@@QBEAAPAUIDirect3DVertexBuffer9@@XZ ; std::_Vector_iterator<std::_Vector_val<std::_Simple_types<IDirect3DVertexBuffer9 *> > >::operator*
PUBLIC	??H?$_Vector_iterator@V?$_Vector_val@U?$_Simple_types@PAUIDirect3DVertexBuffer9@@@std@@@std@@@std@@QBE?AV01@H@Z ; std::_Vector_iterator<std::_Vector_val<std::_Simple_types<IDirect3DVertexBuffer9 *> > >::operator+
PUBLIC	??D?$_Vector_iterator@V?$_Vector_val@U?$_Simple_types@V?$svector@U_D3DVERTEXELEMENT9@@$0EB@@@@std@@@std@@@std@@QBEAAV?$svector@U_D3DVERTEXELEMENT9@@$0EB@@@XZ ; std::_Vector_iterator<std::_Vector_val<std::_Simple_types<svector<_D3DVERTEXELEMENT9,65> > > >::operator*
PUBLIC	??H?$_Vector_iterator@V?$_Vector_val@U?$_Simple_types@V?$svector@U_D3DVERTEXELEMENT9@@$0EB@@@@std@@@std@@@std@@QBE?AV01@H@Z ; std::_Vector_iterator<std::_Vector_val<std::_Simple_types<svector<_D3DVERTEXELEMENT9,65> > > >::operator+
PUBLIC	??D?$_Vector_iterator@V?$_Vector_val@U?$_Simple_types@V?$resptr_core@UShader@@Uresptrcode_shader@@@@@std@@@std@@@std@@QBEAAV?$resptr_core@UShader@@Uresptrcode_shader@@@@XZ ; std::_Vector_iterator<std::_Vector_val<std::_Simple_types<resptr_core<Shader,resptrcode_shader> > > >::operator*
PUBLIC	??H?$_Vector_iterator@V?$_Vector_val@U?$_Simple_types@V?$resptr_core@UShader@@Uresptrcode_shader@@@@@std@@@std@@@std@@QBE?AV01@H@Z ; std::_Vector_iterator<std::_Vector_val<std::_Simple_types<resptr_core<Shader,resptrcode_shader> > > >::operator+
PUBLIC	??D?$_Vector_iterator@V?$_Vector_val@U?$_Simple_types@UFSlideWindowItem@@@std@@@std@@@std@@QBEAAUFSlideWindowItem@@XZ ; std::_Vector_iterator<std::_Vector_val<std::_Simple_types<FSlideWindowItem> > >::operator*
PUBLIC	??H?$_Vector_iterator@V?$_Vector_val@U?$_Simple_types@UFSlideWindowItem@@@std@@@std@@@std@@QBE?AV01@H@Z ; std::_Vector_iterator<std::_Vector_val<std::_Simple_types<FSlideWindowItem> > >::operator+
PUBLIC	??0?$_Tree_const_iterator@V?$_Tree_val@U?$_Tree_simple_types@UFS_File@@@std@@@std@@@std@@QAE@PAU?$_Tree_node@UFS_File@@PAX@1@PBV?$_Tree_val@U?$_Tree_simple_types@UFS_File@@@std@@@1@@Z ; std::_Tree_const_iterator<std::_Tree_val<std::_Tree_simple_types<FS_File> > >::_Tree_const_iterator<std::_Tree_val<std::_Tree_simple_types<FS_File> > >
PUBLIC	??1?$_Tree@V?$_Tset_traits@UFS_File@@U?$less@UFS_File@@@std@@V?$xalloc@UFS_File@@@@$0A@@std@@@std@@QAE@XZ ; std::_Tree<std::_Tset_traits<FS_File,std::less<FS_File>,xalloc<FS_File>,0> >::~_Tree<std::_Tset_traits<FS_File,std::less<FS_File>,xalloc<FS_File>,0> >
PUBLIC	?begin@?$_Tree@V?$_Tset_traits@UFS_File@@U?$less@UFS_File@@@std@@V?$xalloc@UFS_File@@@@$0A@@std@@@std@@QBE?AV?$_Tree_const_iterator@V?$_Tree_val@U?$_Tree_simple_types@UFS_File@@@std@@@std@@@2@XZ ; std::_Tree<std::_Tset_traits<FS_File,std::less<FS_File>,xalloc<FS_File>,0> >::begin
PUBLIC	?end@?$_Tree@V?$_Tset_traits@UFS_File@@U?$less@UFS_File@@@std@@V?$xalloc@UFS_File@@@@$0A@@std@@@std@@QBE?AV?$_Tree_const_iterator@V?$_Tree_val@U?$_Tree_simple_types@UFS_File@@@std@@@std@@@2@XZ ; std::_Tree<std::_Tset_traits<FS_File,std::less<FS_File>,xalloc<FS_File>,0> >::end
PUBLIC	?clear@?$_Tree@V?$_Tset_traits@UFS_File@@U?$less@UFS_File@@@std@@V?$xalloc@UFS_File@@@@$0A@@std@@@std@@QAEXXZ ; std::_Tree<std::_Tset_traits<FS_File,std::less<FS_File>,xalloc<FS_File>,0> >::clear
PUBLIC	??0?$set@UFS_File@@U?$less@UFS_File@@@std@@V?$xalloc@UFS_File@@@@@std@@QAE@XZ ; std::set<FS_File,std::less<FS_File>,xalloc<FS_File> >::set<FS_File,std::less<FS_File>,xalloc<FS_File> >
PUBLIC	?xform@?$_box3@M@@QAEAAV1@ABU?$_matrix@M@@@Z	; _box3<float>::xform
PUBLIC	?Add@?$CRegistrator@VpureFrame@@@@QAEXPAVpureFrame@@HI@Z ; CRegistrator<pureFrame>::Add
PUBLIC	?Remove@?$CRegistrator@VpureFrame@@@@QAEXPAVpureFrame@@@Z ; CRegistrator<pureFrame>::Remove
PUBLIC	?end@?$vector@PAVISpatial@@V?$xalloc@PAVISpatial@@@@@std@@QAE?AV?$_Vector_iterator@V?$_Vector_val@U?$_Simple_types@PAVISpatial@@@std@@@std@@@2@XZ ; std::vector<ISpatial *,xalloc<ISpatial *> >::end
PUBLIC	??1?$vector@PAVIRender_Portal@@V?$xalloc@PAVIRender_Portal@@@@@std@@QAE@XZ ; std::vector<IRender_Portal *,xalloc<IRender_Portal *> >::~vector<IRender_Portal *,xalloc<IRender_Portal *> >
PUBLIC	??0?$xr_vector@PAVIRender_Portal@@V?$xalloc@PAVIRender_Portal@@@@@@QAE@XZ ; xr_vector<IRender_Portal *,xalloc<IRender_Portal *> >::xr_vector<IRender_Portal *,xalloc<IRender_Portal *> >
PUBLIC	??1?$vector@UFSlideWindowItem@@V?$xalloc@UFSlideWindowItem@@@@@std@@QAE@XZ ; std::vector<FSlideWindowItem,xalloc<FSlideWindowItem> >::~vector<FSlideWindowItem,xalloc<FSlideWindowItem> >
PUBLIC	??0?$xr_vector@UFSlideWindowItem@@V?$xalloc@UFSlideWindowItem@@@@@@QAE@XZ ; xr_vector<FSlideWindowItem,xalloc<FSlideWindowItem> >::xr_vector<FSlideWindowItem,xalloc<FSlideWindowItem> >
PUBLIC	??A?$xr_vector@UFSlideWindowItem@@V?$xalloc@UFSlideWindowItem@@@@@@QAEAAUFSlideWindowItem@@I@Z ; xr_vector<FSlideWindowItem,xalloc<FSlideWindowItem> >::operator[]
PUBLIC	??1?$vector@V?$resptr_core@UShader@@Uresptrcode_shader@@@@V?$xalloc@V?$resptr_core@UShader@@Uresptrcode_shader@@@@@@@std@@QAE@XZ ; std::vector<resptr_core<Shader,resptrcode_shader>,xalloc<resptr_core<Shader,resptrcode_shader> > >::~vector<resptr_core<Shader,resptrcode_shader>,xalloc<resptr_core<Shader,resptrcode_shader> > >
PUBLIC	??0?$xr_vector@V?$resptr_core@UShader@@Uresptrcode_shader@@@@V?$xalloc@V?$resptr_core@UShader@@Uresptrcode_shader@@@@@@@@QAE@XZ ; xr_vector<resptr_core<Shader,resptrcode_shader>,xalloc<resptr_core<Shader,resptrcode_shader> > >::xr_vector<resptr_core<Shader,resptrcode_shader>,xalloc<resptr_core<Shader,resptrcode_shader> > >
PUBLIC	??A?$xr_vector@V?$resptr_core@UShader@@Uresptrcode_shader@@@@V?$xalloc@V?$resptr_core@UShader@@Uresptrcode_shader@@@@@@@@QAEAAV?$resptr_core@UShader@@Uresptrcode_shader@@@@I@Z ; xr_vector<resptr_core<Shader,resptrcode_shader>,xalloc<resptr_core<Shader,resptrcode_shader> > >::operator[]
PUBLIC	??1?$vector@V?$svector@U_D3DVERTEXELEMENT9@@$0EB@@@V?$xalloc@V?$svector@U_D3DVERTEXELEMENT9@@$0EB@@@@@@std@@QAE@XZ ; std::vector<svector<_D3DVERTEXELEMENT9,65>,xalloc<svector<_D3DVERTEXELEMENT9,65> > >::~vector<svector<_D3DVERTEXELEMENT9,65>,xalloc<svector<_D3DVERTEXELEMENT9,65> > >
PUBLIC	??0?$xr_vector@V?$svector@U_D3DVERTEXELEMENT9@@$0EB@@@V?$xalloc@V?$svector@U_D3DVERTEXELEMENT9@@$0EB@@@@@@@QAE@XZ ; xr_vector<svector<_D3DVERTEXELEMENT9,65>,xalloc<svector<_D3DVERTEXELEMENT9,65> > >::xr_vector<svector<_D3DVERTEXELEMENT9,65>,xalloc<svector<_D3DVERTEXELEMENT9,65> > >
PUBLIC	??A?$xr_vector@V?$svector@U_D3DVERTEXELEMENT9@@$0EB@@@V?$xalloc@V?$svector@U_D3DVERTEXELEMENT9@@$0EB@@@@@@@QAEAAV?$svector@U_D3DVERTEXELEMENT9@@$0EB@@@I@Z ; xr_vector<svector<_D3DVERTEXELEMENT9,65>,xalloc<svector<_D3DVERTEXELEMENT9,65> > >::operator[]
PUBLIC	??1?$vector@PAUIDirect3DVertexBuffer9@@V?$xalloc@PAUIDirect3DVertexBuffer9@@@@@std@@QAE@XZ ; std::vector<IDirect3DVertexBuffer9 *,xalloc<IDirect3DVertexBuffer9 *> >::~vector<IDirect3DVertexBuffer9 *,xalloc<IDirect3DVertexBuffer9 *> >
PUBLIC	??0?$xr_vector@PAUIDirect3DVertexBuffer9@@V?$xalloc@PAUIDirect3DVertexBuffer9@@@@@@QAE@XZ ; xr_vector<IDirect3DVertexBuffer9 *,xalloc<IDirect3DVertexBuffer9 *> >::xr_vector<IDirect3DVertexBuffer9 *,xalloc<IDirect3DVertexBuffer9 *> >
PUBLIC	??A?$xr_vector@PAUIDirect3DVertexBuffer9@@V?$xalloc@PAUIDirect3DVertexBuffer9@@@@@@QAEAAPAUIDirect3DVertexBuffer9@@I@Z ; xr_vector<IDirect3DVertexBuffer9 *,xalloc<IDirect3DVertexBuffer9 *> >::operator[]
PUBLIC	??1?$vector@PAUIDirect3DIndexBuffer9@@V?$xalloc@PAUIDirect3DIndexBuffer9@@@@@std@@QAE@XZ ; std::vector<IDirect3DIndexBuffer9 *,xalloc<IDirect3DIndexBuffer9 *> >::~vector<IDirect3DIndexBuffer9 *,xalloc<IDirect3DIndexBuffer9 *> >
PUBLIC	??0?$xr_vector@PAUIDirect3DIndexBuffer9@@V?$xalloc@PAUIDirect3DIndexBuffer9@@@@@@QAE@XZ ; xr_vector<IDirect3DIndexBuffer9 *,xalloc<IDirect3DIndexBuffer9 *> >::xr_vector<IDirect3DIndexBuffer9 *,xalloc<IDirect3DIndexBuffer9 *> >
PUBLIC	??A?$xr_vector@PAUIDirect3DIndexBuffer9@@V?$xalloc@PAUIDirect3DIndexBuffer9@@@@@@QAEAAPAUIDirect3DIndexBuffer9@@I@Z ; xr_vector<IDirect3DIndexBuffer9 *,xalloc<IDirect3DIndexBuffer9 *> >::operator[]
PUBLIC	?begin@?$svector@U_D3DVERTEXELEMENT9@@$0EB@@@QAEPAU_D3DVERTEXELEMENT9@@XZ ; svector<_D3DVERTEXELEMENT9,65>::begin
PUBLIC	??0?$resptr_core@VIRender_Glow@@Uresptrcode_glow@@@@QAE@PAVIRender_Glow@@_N@Z ; resptr_core<IRender_Glow,resptrcode_glow>::resptr_core<IRender_Glow,resptrcode_glow>
PUBLIC	??1?$resptr_core@VIRender_Glow@@Uresptrcode_glow@@@@QAE@XZ ; resptr_core<IRender_Glow,resptrcode_glow>::~resptr_core<IRender_Glow,resptrcode_glow>
PUBLIC	??D?$_Tree_const_iterator@V?$_Tree_val@U?$_Tree_simple_types@UFS_File@@@std@@@std@@@std@@QBEABUFS_File@@XZ ; std::_Tree_const_iterator<std::_Tree_val<std::_Tree_simple_types<FS_File> > >::operator*
PUBLIC	??E?$_Tree_const_iterator@V?$_Tree_val@U?$_Tree_simple_types@UFS_File@@@std@@@std@@@std@@QAEAAV01@XZ ; std::_Tree_const_iterator<std::_Tree_val<std::_Tree_simple_types<FS_File> > >::operator++
PUBLIC	??9?$_Tree_const_iterator@V?$_Tree_val@U?$_Tree_simple_types@UFS_File@@@std@@@std@@@std@@QBE_NABV01@@Z ; std::_Tree_const_iterator<std::_Tree_val<std::_Tree_simple_types<FS_File> > >::operator!=
PUBLIC	??0ID3DXInclude@@QAE@XZ				; ID3DXInclude::ID3DXInclude
PUBLIC	??0includer@@QAE@XZ				; includer::includer
PUBLIC	?shader_compile@CRender@@UAEJPBDPBKI00KAAPAX@Z	; CRender::shader_compile
PUBLIC	?Close@includer@@UAGJPBX@Z			; includer::Close
PUBLIC	?Open@includer@@UAGJW4_D3DXINCLUDE_TYPE@@PBDPBXPAPBXPAI@Z ; includer::Open
PUBLIC	?Statistics@CRender@@UAEXPAVCGameFont@@@Z	; CRender::Statistics
PUBLIC	?ApplyBlur4@CRender@@QAEXPAUTL4uv@FVF@@IIM@Z	; CRender::ApplyBlur4
PUBLIC	?Render@CRender@@UAEXXZ				; CRender::Render
PUBLIC	?rmNormal@CRender@@UAEXXZ			; CRender::rmNormal
PUBLIC	?rmFar@CRender@@UAEXXZ				; CRender::rmFar
PUBLIC	?rmNear@CRender@@UAEXXZ				; CRender::rmNear
PUBLIC	?Calculate@CRender@@UAEXXZ			; CRender::Calculate
PUBLIC	?pred_sp_sort@@YA_NPAVISpatial@@0@Z		; pred_sp_sort
PUBLIC	??1CRender@@UAE@XZ				; CRender::~CRender
PUBLIC	??1?$set@UFS_File@@U?$less@UFS_File@@@std@@V?$xalloc@UFS_File@@@@@std@@QAE@XZ ; std::set<FS_File,std::less<FS_File>,xalloc<FS_File> >::~set<FS_File,std::less<FS_File>,xalloc<FS_File> >
PUBLIC	??1?$xr_set@UFS_File@@U?$less@UFS_File@@@std@@V?$xalloc@UFS_File@@@@@@QAE@XZ ; xr_set<FS_File,std::less<FS_File>,xalloc<FS_File> >::~xr_set<FS_File,std::less<FS_File>,xalloc<FS_File> >
PUBLIC	??0?$xr_set@UFS_File@@U?$less@UFS_File@@@std@@V?$xalloc@UFS_File@@@@@@QAE@XZ ; xr_set<FS_File,std::less<FS_File>,xalloc<FS_File> >::xr_set<FS_File,std::less<FS_File>,xalloc<FS_File> >
PUBLIC	??0cl_light_XFORM@@QAE@XZ			; cl_light_XFORM::cl_light_XFORM
PUBLIC	??0cl_light_C@@QAE@XZ				; cl_light_C::cl_light_C
PUBLIC	??0cl_light_PR@@QAE@XZ				; cl_light_PR::cl_light_PR
PUBLIC	??1?$xr_vector@PAUIDirect3DIndexBuffer9@@V?$xalloc@PAUIDirect3DIndexBuffer9@@@@@@QAE@XZ ; xr_vector<IDirect3DIndexBuffer9 *,xalloc<IDirect3DIndexBuffer9 *> >::~xr_vector<IDirect3DIndexBuffer9 *,xalloc<IDirect3DIndexBuffer9 *> >
PUBLIC	??1?$xr_vector@PAUIDirect3DVertexBuffer9@@V?$xalloc@PAUIDirect3DVertexBuffer9@@@@@@QAE@XZ ; xr_vector<IDirect3DVertexBuffer9 *,xalloc<IDirect3DVertexBuffer9 *> >::~xr_vector<IDirect3DVertexBuffer9 *,xalloc<IDirect3DVertexBuffer9 *> >
PUBLIC	??1?$xr_vector@V?$svector@U_D3DVERTEXELEMENT9@@$0EB@@@V?$xalloc@V?$svector@U_D3DVERTEXELEMENT9@@$0EB@@@@@@@QAE@XZ ; xr_vector<svector<_D3DVERTEXELEMENT9,65>,xalloc<svector<_D3DVERTEXELEMENT9,65> > >::~xr_vector<svector<_D3DVERTEXELEMENT9,65>,xalloc<svector<_D3DVERTEXELEMENT9,65> > >
PUBLIC	??1?$xr_vector@V?$resptr_core@UShader@@Uresptrcode_shader@@@@V?$xalloc@V?$resptr_core@UShader@@Uresptrcode_shader@@@@@@@@QAE@XZ ; xr_vector<resptr_core<Shader,resptrcode_shader>,xalloc<resptr_core<Shader,resptrcode_shader> > >::~xr_vector<resptr_core<Shader,resptrcode_shader>,xalloc<resptr_core<Shader,resptrcode_shader> > >
PUBLIC	??1?$xr_vector@UFSlideWindowItem@@V?$xalloc@UFSlideWindowItem@@@@@@QAE@XZ ; xr_vector<FSlideWindowItem,xalloc<FSlideWindowItem> >::~xr_vector<FSlideWindowItem,xalloc<FSlideWindowItem> >
PUBLIC	??1?$xr_vector@PAVIRender_Portal@@V?$xalloc@PAVIRender_Portal@@@@@@QAE@XZ ; xr_vector<IRender_Portal *,xalloc<IRender_Portal *> >::~xr_vector<IRender_Portal *,xalloc<IRender_Portal *> >
PUBLIC	??_GCRender@@UAEPAXI@Z				; CRender::`scalar deleting destructor'
PUBLIC	??0CRender@@QAE@XZ				; CRender::CRender
PUBLIC	?gm_SetNearer@@YAXH@Z				; gm_SetNearer
PUBLIC	?set_Object@CRender@@UAEXPAVIRenderable@@@Z	; CRender::set_Object
PUBLIC	?add_Occluder@CRender@@UAEXAAV?$_box2@M@@@Z	; CRender::add_Occluder
PUBLIC	?add_SkeletonWallmark@CRender@@UAEXPBU?$_matrix@M@@PAVCKinematics@@AAV?$resptr_core@UShader@@Uresptrcode_shader@@@@ABU?$_vector3@M@@3M@Z ; CRender::add_SkeletonWallmark
PUBLIC	?add_SkeletonWallmark@CRender@@UAEXV?$intrusive_ptr@VCSkeletonWallmark@@Uintrusive_base@@@@@Z ; CRender::add_SkeletonWallmark
PUBLIC	?clear_static_wallmarks@CRender@@UAEXXZ		; CRender::clear_static_wallmarks
PUBLIC	?add_StaticWallmark@CRender@@UAEXAAV?$resptr_core@UShader@@Uresptrcode_shader@@@@ABU?$_vector3@M@@MPAVTRI@CDB@@PAU3@@Z ; CRender::add_StaticWallmark
PUBLIC	?add_Geometry@CRender@@UAEXPAVIRender_Visual@@@Z ; CRender::add_Geometry
PUBLIC	?add_Visual@CRender@@UAEXPAVIRender_Visual@@@Z	; CRender::add_Visual
PUBLIC	?occ_visible@CRender@@UAEHAAV?$_box3@M@@@Z	; CRender::occ_visible
PUBLIC	?occ_visible@CRender@@UAEHAAV?$svector@U?$_vector3@M@@$0DA@@@@Z ; CRender::occ_visible
PUBLIC	?occ_visible@CRender@@UAEHAAUvis_data@@@Z	; CRender::occ_visible
PUBLIC	?flush@CRender@@UAEXXZ				; CRender::flush
PUBLIC	?glow_create@CRender@@UAEPAVIRender_Glow@@XZ	; CRender::glow_create
PUBLIC	?light_create@CRender@@UAEPAVIRender_Light@@XZ	; CRender::light_create
PUBLIC	?getTarget@CRender@@UAEPAVIRender_Target@@XZ	; CRender::getTarget
PUBLIC	?getSector@CRender@@UAEPAVIRender_Sector@@H@Z	; CRender::getSector
PUBLIC	?getShader@CRender@@UAE?AV?$resptr_core@UShader@@Uresptrcode_shader@@@@H@Z ; CRender::getShader
PUBLIC	?models_Clear@CRender@@UAEXH@Z			; CRender::models_Clear
PUBLIC	?models_Prefetch@CRender@@UAEXXZ		; CRender::models_Prefetch
PUBLIC	?model_CreateParticles@CRender@@UAEPAVIRender_Visual@@PBD@Z ; CRender::model_CreateParticles
PUBLIC	?model_Delete@CRender@@UAEXAAPAVIRender_DetailModel@@@Z ; CRender::model_Delete
PUBLIC	?model_CreateDM@CRender@@UAEPAVIRender_DetailModel@@PAVIReader@@@Z ; CRender::model_CreateDM
PUBLIC	?model_Delete@CRender@@UAEXAAPAVIRender_Visual@@H@Z ; CRender::model_Delete
PUBLIC	?model_Duplicate@CRender@@UAEPAVIRender_Visual@@PAV2@@Z ; CRender::model_Duplicate
PUBLIC	?model_CreateChild@CRender@@UAEPAVIRender_Visual@@PBDPAVIReader@@@Z ; CRender::model_CreateChild
PUBLIC	?model_Create@CRender@@UAEPAVIRender_Visual@@PBDPAVIReader@@@Z ; CRender::model_Create
PUBLIC	?ros_destroy@CRender@@UAEXAAPAVIRender_ObjectSpecific@@@Z ; CRender::ros_destroy
PUBLIC	?ros_create@CRender@@UAEPAVIRender_ObjectSpecific@@PAVIRenderable@@@Z ; CRender::ros_create
PUBLIC	?OnFrame@CRender@@UAEXXZ			; CRender::OnFrame
PUBLIC	?reset_end@CRender@@UAEXXZ			; CRender::reset_end
PUBLIC	?reset_begin@CRender@@UAEXXZ			; CRender::reset_begin
PUBLIC	?destroy@CRender@@UAEXXZ			; CRender::destroy
PUBLIC	?create@CRender@@UAEXXZ				; CRender::create
PUBLIC	?get_sun@CROS_impl@@QAEMXZ			; CROS_impl::get_sun
PUBLIC	?getPortal@CRender@@QAEPAVIRender_Portal@@H@Z	; CRender::getPortal
PUBLIC	?getVisual@CRender@@UAEPAVIRender_Visual@@H@Z	; CRender::getVisual
PUBLIC	?apply_object@CRender@@QAEXPAVIRenderable@@@Z	; CRender::apply_object
PUBLIC	?rimp_select_sh_dynamic@CRender@@QAEPAUShaderElement@@PAVIRender_Visual@@M@Z ; CRender::rimp_select_sh_dynamic
PUBLIC	?rimp_select_sh_static@CRender@@QAEPAUShaderElement@@PAVIRender_Visual@@M@Z ; CRender::rimp_select_sh_static
PUBLIC	?model_CreatePE@CRender@@QAEPAVIRender_Visual@@PBD@Z ; CRender::model_CreatePE
PUBLIC	?getVB_Format@CRender@@QAEPAU_D3DVERTEXELEMENT9@@H@Z ; CRender::getVB_Format
PUBLIC	?getVB@CRender@@QAEPAUIDirect3DVertexBuffer9@@H@Z ; CRender::getVB
PUBLIC	?getIB@CRender@@QAEPAUIDirect3DIndexBuffer9@@H@Z ; CRender::getIB
PUBLIC	?getSWI@CRender@@QAEPAUFSlideWindowItem@@H@Z	; CRender::getSWI
PUBLIC	?RImplementation@@3VCRender@@A			; RImplementation
EXTRN	??_ER_dsgraph_structure@@UAEPAXI@Z:PROC		; R_dsgraph_structure::`vector deleting destructor'
EXTRN	??_Eexception@std@@UAEPAXI@Z:PROC		; std::exception::`vector deleting destructor'
EXTRN	??_Ebad_alloc@std@@UAEPAXI@Z:PROC		; std::bad_alloc::`vector deleting destructor'
EXTRN	??_Ebad_array_new_length@std@@UAEPAXI@Z:PROC	; std::bad_array_new_length::`vector deleting destructor'
EXTRN	??_ECRender@@UAEPAXI@Z:PROC			; CRender::`vector deleting destructor'
?gm_Nearer@@3HA DD 01H DUP (?)				; gm_Nearer
?RImplementation@@3VCRender@@A DB 0458H DUP (?)		; RImplementation
_BSS	ENDS
;	COMDAT xdata$x
xdata$x	SEGMENT
__ehfuncinfo$??$_Emplace_reallocate@ABU_REG_INFO@@@?$vector@U_REG_INFO@@V?$xalloc@U_REG_INFO@@@@@std@@QAEPAU_REG_INFO@@QAU2@ABU2@@Z DD 019930522H
	DD	02H
	DD	FLAT:__unwindtable$??$_Emplace_reallocate@ABU_REG_INFO@@@?$vector@U_REG_INFO@@V?$xalloc@U_REG_INFO@@@@@std@@QAEPAU_REG_INFO@@QAU2@ABU2@@Z
	DD	01H
	DD	FLAT:__tryblocktable$??$_Emplace_reallocate@ABU_REG_INFO@@@?$vector@U_REG_INFO@@V?$xalloc@U_REG_INFO@@@@@std@@QAEPAU_REG_INFO@@QAU2@ABU2@@Z
	DD	2 DUP(00H)
	DD	00H
	DD	00H
__unwindtable$??$_Emplace_reallocate@ABU_REG_INFO@@@?$vector@U_REG_INFO@@V?$xalloc@U_REG_INFO@@@@@std@@QAEPAU_REG_INFO@@QAU2@ABU2@@Z DD 0ffffffffH
	DD	00H
	DD	0ffffffffH
	DD	00H
__tryblocktable$??$_Emplace_reallocate@ABU_REG_INFO@@@?$vector@U_REG_INFO@@V?$xalloc@U_REG_INFO@@@@@std@@QAEPAU_REG_INFO@@QAU2@ABU2@@Z DD 00H
	DD	00H
	DD	01H
	DD	01H
	DD	FLAT:__catchsym$??$_Emplace_reallocate@ABU_REG_INFO@@@?$vector@U_REG_INFO@@V?$xalloc@U_REG_INFO@@@@@std@@QAEPAU_REG_INFO@@QAU2@ABU2@@Z$2
__catchsym$??$_Emplace_reallocate@ABU_REG_INFO@@@?$vector@U_REG_INFO@@V?$xalloc@U_REG_INFO@@@@@std@@QAEPAU_REG_INFO@@QAU2@ABU2@@Z$2 DD 00H
	DD	00H
	DD	00H
	DD	FLAT:__catch$??$_Emplace_reallocate@ABU_REG_INFO@@@?$vector@U_REG_INFO@@V?$xalloc@U_REG_INFO@@@@@std@@QAEPAU_REG_INFO@@QAU2@ABU2@@Z$0
_volmd	DD	0ffffffffH
	DDSymXIndex: 	FLAT:?Render@CRender@@UAEXXZ
	DD	0145H
	DD	0334H
?RImplementation$initializer$@@3P6AXXZA DD FLAT:??__ERImplementation@@YAXXZ ; RImplementation$initializer$
; Function compile flags: /Ogtpy
; File I:\Vitalya\mine\NSProjectX\layers\xrRenderPC_R1\FStaticRender.cpp
; File C:\Program Files\Microsoft Visual Studio\2022\Community\VC\Tools\MSVC\14.29.30133\include\vector
; File I:\Vitalya\mine\NSProjectX\layers\xrRenderPC_R1\FStaticRender.cpp
_TEXT	SEGMENT
_id$ = 8						; size = 4
?getSWI@CRender@@QAEPAUFSlideWindowItem@@H@Z PROC	; CRender::getSWI
; _this$dead$ = ecx
; File C:\Program Files\Microsoft Visual Studio\2022\Community\VC\Tools\MSVC\14.29.30133\include\vector

; 119  :         _Ptr += _Off;

	mov	eax, DWORD PTR _id$[esp-4]
	lea	ecx, DWORD PTR [eax+eax*2]
	mov	eax, DWORD PTR ?RImplementation@@3VCRender@@A+884
	lea	eax, DWORD PTR [eax+ecx*8]
; File I:\Vitalya\mine\NSProjectX\layers\xrRenderPC_R1\FStaticRender.cpp

; 181  : FSlideWindowItem*		CRender::getSWI					(int id)			{ VERIFY(id<int(SWIs.size()));		return &SWIs[id];	}

	ret	4
?getSWI@CRender@@QAEPAUFSlideWindowItem@@H@Z ENDP	; CRender::getSWI
_TEXT	ENDS
; Function compile flags: /Ogtpy
; File I:\Vitalya\mine\NSProjectX\layers\xrRenderPC_R1\FStaticRender.cpp
_TEXT	SEGMENT
_id$ = 8						; size = 4
?getIB@CRender@@QAEPAUIDirect3DIndexBuffer9@@H@Z PROC	; CRender::getIB
; _this$dead$ = ecx

; 179  : IDirect3DIndexBuffer9*	CRender::getIB					(int id)			{ VERIFY(id<int(IB.size()));		return IB[id];		}

	mov	ecx, DWORD PTR _id$[esp-4]
	mov	eax, DWORD PTR ?RImplementation@@3VCRender@@A+932
	mov	eax, DWORD PTR [eax+ecx*4]
	ret	4
?getIB@CRender@@QAEPAUIDirect3DIndexBuffer9@@H@Z ENDP	; CRender::getIB
_TEXT	ENDS
; Function compile flags: /Ogtpy
; File I:\Vitalya\mine\NSProjectX\layers\xrRenderPC_R1\FStaticRender.cpp
_TEXT	SEGMENT
_id$ = 8						; size = 4
?getVB@CRender@@QAEPAUIDirect3DVertexBuffer9@@H@Z PROC	; CRender::getVB
; _this$dead$ = ecx

; 178  : IDirect3DVertexBuffer9*	CRender::getVB					(int id)			{ VERIFY(id<int(VB.size()));		return VB[id];		}

	mov	ecx, DWORD PTR _id$[esp-4]
	mov	eax, DWORD PTR ?RImplementation@@3VCRender@@A+920
	mov	eax, DWORD PTR [eax+ecx*4]
	ret	4
?getVB@CRender@@QAEPAUIDirect3DVertexBuffer9@@H@Z ENDP	; CRender::getVB
_TEXT	ENDS
; Function compile flags: /Ogtpy
; File I:\Vitalya\mine\NSProjectX\layers\xrRenderPC_R1\FStaticRender.cpp
; File C:\Program Files\Microsoft Visual Studio\2022\Community\VC\Tools\MSVC\14.29.30133\include\vector
; File I:\Vitalya\mine\NSProjectX\layers\xrRenderPC_R1\FStaticRender.cpp
_TEXT	SEGMENT
_id$ = 8						; size = 4
?getVB_Format@CRender@@QAEPAU_D3DVERTEXELEMENT9@@H@Z PROC ; CRender::getVB_Format
; _this$dead$ = ecx
; File C:\Program Files\Microsoft Visual Studio\2022\Community\VC\Tools\MSVC\14.29.30133\include\vector

; 119  :         _Ptr += _Off;

	imul	eax, DWORD PTR _id$[esp-4], 524
	add	eax, DWORD PTR ?RImplementation@@3VCRender@@A+908
; File I:\Vitalya\mine\NSProjectX\layers\xrRenderPC_R1\FStaticRender.cpp

; 177  : D3DVERTEXELEMENT9*		CRender::getVB_Format			(int id)			{ VERIFY(id<int(DCL.size()));		return DCL[id].begin();	}

	ret	4
?getVB_Format@CRender@@QAEPAU_D3DVERTEXELEMENT9@@H@Z ENDP ; CRender::getVB_Format
_TEXT	ENDS
; Function compile flags: /Ogtpy
; File I:\Vitalya\mine\NSProjectX\layers\xrRenderPC_R1\FStaticRender.cpp
; File I:\Vitalya\mine\NSProjectX\layers\xrRender\PSLibrary.cpp
; File C:\Program Files\Microsoft Visual Studio\2022\Community\VC\Tools\MSVC\14.29.30133\include\vector
; File I:\Vitalya\mine\NSProjectX\layers\xrRender\PSLibrary.cpp
; File I:\Vitalya\mine\NSProjectX\layers\xrRenderPC_R1\FStaticRender.cpp
_TEXT	SEGMENT
_it$1 = -4						; size = 4
_name$ = 8						; size = 4
?model_CreatePE@CRender@@QAEPAVIRender_Visual@@PBD@Z PROC ; CRender::model_CreatePE
; _this$dead$ = ecx

; 155  : { 

	push	ecx
	push	esi
; File I:\Vitalya\mine\NSProjectX\layers\xrRender\PSLibrary.cpp

; 61   : 	PS::PEDIt it = FindPEDIt(Name);

	push	DWORD PTR _name$[esp+4]
	lea	eax, DWORD PTR _it$1[esp+12]
	mov	ecx, OFFSET ?RImplementation@@3VCRender@@A+956
	push	eax
	call	?FindPEDIt@CPSLibrary@@QAE?AV?$_Vector_iterator@V?$_Vector_val@U?$_Simple_types@PAVCPEDef@PS@@@std@@@std@@@std@@PBD@Z ; CPSLibrary::FindPEDIt
; File C:\Program Files\Microsoft Visual Studio\2022\Community\VC\Tools\MSVC\14.29.30133\include\vector

; 150  :         return _Ptr == _Right._Ptr;

	mov	eax, DWORD PTR _it$1[esp+8]
	cmp	eax, DWORD PTR ?RImplementation@@3VCRender@@A+960
; File I:\Vitalya\mine\NSProjectX\layers\xrRender\PSLibrary.cpp

; 62   :     return (it==m_PEDs.end())?0:*it;

	jne	SHORT $LN9@model_Crea
	xor	esi, esi
	jmp	SHORT $LN10@model_Crea
$LN9@model_Crea:
	mov	esi, DWORD PTR [eax]
$LN10@model_Crea:
; File I:\Vitalya\mine\NSProjectX\layers\xrRenderPC_R1\FStaticRender.cpp

; 156  : 	PS::CPEDef*	SE		= PSLibrary.FindPED	(name);		R_ASSERT3(SE,"Particle effect doesn't exist",name);

	cmp	BYTE PTR ?ignore_always@?3??model_CreatePE@CRender@@QAEPAVIRender_Visual@@PBD@Z@4_NA, 0
	jne	SHORT $LN2@model_Crea
	test	esi, esi
	jne	SHORT $LN2@model_Crea
	mov	ecx, DWORD PTR __imp_?Debug@@3VxrDebug@@A
	push	OFFSET ?ignore_always@?3??model_CreatePE@CRender@@QAEPAVIRender_Visual@@PBD@Z@4_NA
	push	OFFSET ??_C@_0BI@HOANMMBE@CRender?3?3model_CreatePE@
	push	156					; 0000009cH
	push	OFFSET ??_C@_0EC@GAKMNDAB@I?3?2Vitalya?2mine?2NSProjectX?2laye@
	push	DWORD PTR _name$[esp+20]
	push	OFFSET ??_C@_0BO@PKGKJKHO@Particle?5effect?5doesn?8t?5exist@
	push	OFFSET ??_C@_02ODEKANEE@SE@
	call	DWORD PTR __imp_?fail@xrDebug@@QAEXPBD000H0AA_N@Z
$LN2@model_Crea:

; 157  : 	return				Models->CreatePE	(SE);

	push	esi
	call	?CreatePE@CModelPool@@QAEPAVIRender_Visual@@PAVCPEDef@PS@@@Z ; CModelPool::CreatePE
	pop	esi

; 158  : }

	pop	ecx
	ret	4
?model_CreatePE@CRender@@QAEPAVIRender_Visual@@PBD@Z ENDP ; CRender::model_CreatePE
_TEXT	ENDS
; Function compile flags: /Ogtpy
; File I:\Vitalya\mine\NSProjectX\layers\xrRenderPC_R1\FStaticRender.cpp
; File C:\Program Files (x86)\Windows Kits\10\Include\10.0.22000.0\ucrt\corecrt_math.h
; File I:\Vitalya\mine\NSProjectX\layers\xrRenderPC_R1\FStaticRender.cpp
_TEXT	SEGMENT
_pVisual$ = 8						; size = 4
_cdist_sq$ = 12						; size = 4
?rimp_select_sh_static@CRender@@QAEPAUShaderElement@@PAVIRender_Visual@@M@Z PROC ; CRender::rimp_select_sh_static
; _this$ = ecx

; 36   : 	switch (phase)		{

	mov	ecx, DWORD PTR [ecx+292]
	mov	eax, DWORD PTR _pVisual$[esp-4]
	sub	ecx, 0
	je	SHORT $LN4@rimp_selec
	mov	eax, DWORD PTR [eax+64]
	sub	ecx, 1
	je	SHORT $LN5@rimp_selec

; 39   : 	case PHASE_SPOT:	return pVisual->shader->E[SE_R1_LSPOT]._get();

	mov	eax, DWORD PTR [eax+20]

; 40   : 	default:			NODEFAULT;
; 41   : 	}
; 42   : #ifdef DEBUG
; 43   : 	return	0;
; 44   : #endif
; 45   : }

	ret	8
$LN5@rimp_selec:

; 38   : 	case PHASE_POINT:	return pVisual->shader->E[SE_R1_LPOINT]._get();

	mov	eax, DWORD PTR [eax+16]

; 40   : 	default:			NODEFAULT;
; 41   : 	}
; 42   : #ifdef DEBUG
; 43   : 	return	0;
; 44   : #endif
; 45   : }

	ret	8
$LN4@rimp_selec:
; File C:\Program Files (x86)\Windows Kits\10\Include\10.0.22000.0\ucrt\corecrt_math.h

; 764  :             return (float)sqrt(_X);

	sqrtss	xmm1, DWORD PTR _cdist_sq$[esp-4]
; File I:\Vitalya\mine\NSProjectX\layers\xrRenderPC_R1\FStaticRender.cpp

; 37   : 	case PHASE_NORMAL:	return (((_sqrt(cdist_sq) - pVisual->vis.sphere.R)<44)?pVisual->shader->E[SE_R1_NORMAL_HQ]:pVisual->shader->E[SE_R1_NORMAL_LQ])._get();

	movss	xmm0, DWORD PTR __real@42300000
	subss	xmm1, DWORD PTR [eax+20]
	mov	eax, DWORD PTR [eax+64]
	comiss	xmm0, xmm1
	jbe	SHORT $LN9@rimp_selec
	add	eax, 8
	mov	eax, DWORD PTR [eax]

; 40   : 	default:			NODEFAULT;
; 41   : 	}
; 42   : #ifdef DEBUG
; 43   : 	return	0;
; 44   : #endif
; 45   : }

	ret	8
$LN9@rimp_selec:

; 37   : 	case PHASE_NORMAL:	return (((_sqrt(cdist_sq) - pVisual->vis.sphere.R)<44)?pVisual->shader->E[SE_R1_NORMAL_HQ]:pVisual->shader->E[SE_R1_NORMAL_LQ])._get();

	add	eax, 12					; 0000000cH
	mov	eax, DWORD PTR [eax]

; 40   : 	default:			NODEFAULT;
; 41   : 	}
; 42   : #ifdef DEBUG
; 43   : 	return	0;
; 44   : #endif
; 45   : }

	ret	8
?rimp_select_sh_static@CRender@@QAEPAUShaderElement@@PAVIRender_Visual@@M@Z ENDP ; CRender::rimp_select_sh_static
_TEXT	ENDS
; Function compile flags: /Ogtpy
; File I:\Vitalya\mine\NSProjectX\layers\xrRenderPC_R1\FStaticRender.cpp
; File I:\Vitalya\mine\NSProjectX\layers\xrRenderPC_R1\lightProjector.h
; File I:\Vitalya\mine\NSProjectX\layers\xrRenderPC_R1\FStaticRender.cpp
_TEXT	SEGMENT
_pVisual$ = 8						; size = 4
_cdist_sq$dead$ = 12					; size = 4
?rimp_select_sh_dynamic@CRender@@QAEPAUShaderElement@@PAVIRender_Visual@@M@Z PROC ; CRender::rimp_select_sh_dynamic
; _this$ = ecx

; 23   : 	switch (phase)		{

	mov	eax, DWORD PTR [ecx+292]
	mov	edx, DWORD PTR _pVisual$[esp-4]
	sub	eax, 0
	je	SHORT $LN4@rimp_selec
	sub	eax, 1
	mov	eax, DWORD PTR [edx+64]
	je	SHORT $LN5@rimp_selec

; 26   : 	case PHASE_SPOT:	return pVisual->shader->E[SE_R1_LSPOT]._get();

	mov	eax, DWORD PTR [eax+20]

; 27   : 	default:			NODEFAULT;
; 28   : 	}
; 29   : #ifdef DEBUG
; 30   : 	return	0;
; 31   : #endif
; 32   : }

	ret	8
$LN5@rimp_selec:

; 25   : 	case PHASE_POINT:	return pVisual->shader->E[SE_R1_LPOINT]._get();

	mov	eax, DWORD PTR [eax+16]

; 27   : 	default:			NODEFAULT;
; 28   : 	}
; 29   : #ifdef DEBUG
; 30   : 	return	0;
; 31   : #endif
; 32   : }

	ret	8
$LN4@rimp_selec:
; File I:\Vitalya\mine\NSProjectX\layers\xrRenderPC_R1\lightProjector.h

; 43   : 	BOOL					shadowing		()			{ return current!=0;	}

	mov	eax, DWORD PTR ?RImplementation@@3VCRender@@A+992
	cmp	DWORD PTR [eax+4], 0
; File I:\Vitalya\mine\NSProjectX\layers\xrRenderPC_R1\FStaticRender.cpp

; 24   : 	case PHASE_NORMAL:	return (RImplementation.L_Projector->shadowing()?pVisual->shader->E[SE_R1_NORMAL_HQ]:pVisual->shader->E[SE_R1_NORMAL_LQ])._get();

	mov	eax, DWORD PTR [edx+64]
	je	SHORT $LN9@rimp_selec
	add	eax, 8
	mov	eax, DWORD PTR [eax]

; 27   : 	default:			NODEFAULT;
; 28   : 	}
; 29   : #ifdef DEBUG
; 30   : 	return	0;
; 31   : #endif
; 32   : }

	ret	8
$LN9@rimp_selec:

; 24   : 	case PHASE_NORMAL:	return (RImplementation.L_Projector->shadowing()?pVisual->shader->E[SE_R1_NORMAL_HQ]:pVisual->shader->E[SE_R1_NORMAL_LQ])._get();

	add	eax, 12					; 0000000cH
	mov	eax, DWORD PTR [eax]

; 27   : 	default:			NODEFAULT;
; 28   : 	}
; 29   : #ifdef DEBUG
; 30   : 	return	0;
; 31   : #endif
; 32   : }

	ret	8
?rimp_select_sh_dynamic@CRender@@QAEPAUShaderElement@@PAVIRender_Visual@@M@Z ENDP ; CRender::rimp_select_sh_dynamic
_TEXT	ENDS
; Function compile flags: /Ogtpy
; File I:\Vitalya\mine\NSProjectX\layers\xrRenderPC_R1\FStaticRender.cpp
; File I:\Vitalya\mine\NSProjectX\layers\xrRender\LightTrack.h
; File I:\Vitalya\mine\NSProjectX\layers\xrRender\LightTrack.cpp
; File I:\Vitalya\mine\NSProjectX\xrCore\vector.h
; File I:\Vitalya\mine\NSProjectX\layers\xrRender\LightTrack.cpp
; File I:\Vitalya\mine\NSProjectX\layers\xrRenderPC_R1\FStaticRender.cpp
; File I:\Vitalya\mine\NSProjectX\layers\xrRender\lighttrack.h
; File I:\Vitalya\mine\NSProjectX\layers\xrRenderPC_R1\FStaticRender.cpp
; File I:\Vitalya\mine\NSProjectX\layers\xrRender\lighttrack.h
; File I:\Vitalya\mine\NSProjectX\layers\xrRenderPC_R1\FStaticRender.cpp
; File I:\Vitalya\mine\NSProjectX\layers\xrRender\lighttrack.h
; File I:\Vitalya\mine\NSProjectX\layers\xrRender\LightTrack.cpp
; File I:\Vitalya\mine\NSProjectX\xrCore\vector.h
; File I:\Vitalya\mine\NSProjectX\layers\xrRender\LightTrack.cpp
; File I:\Vitalya\mine\NSProjectX\layers\xrRenderPC_R1\FStaticRender.cpp
; File I:\Vitalya\mine\NSProjectX\xrEngine\R_Backend.h
; File I:\Vitalya\mine\NSProjectX\layers\xrRenderPC_R1\FStaticRender.cpp
; File I:\Vitalya\mine\NSProjectX\xrEngine\R_Backend.h
; File I:\Vitalya\mine\NSProjectX\xrCore\xr_resource.h
; File I:\Vitalya\mine\NSProjectX\xrEngine\R_Backend.h
; File I:\Vitalya\mine\NSProjectX\xrCore\_vector4.h
; File I:\Vitalya\mine\NSProjectX\xrEngine\R_Backend.h
; File I:\Vitalya\mine\NSProjectX\xrEngine\r_constants_cache.h
; File I:\Vitalya\mine\NSProjectX\xrEngine\R_Backend.h
; File I:\Vitalya\mine\NSProjectX\xrCore\_vector4.h
; File I:\Vitalya\mine\NSProjectX\xrEngine\r_constants_cache.h
; File I:\Vitalya\mine\NSProjectX\xrCore\_vector4.h
; File I:\Vitalya\mine\NSProjectX\xrEngine\r_constants_cache.h
; File I:\Vitalya\mine\NSProjectX\xrCore\xr_resource.h
; File I:\Vitalya\mine\NSProjectX\layers\xrRenderPC_R1\FStaticRender.cpp
_TEXT	SEGMENT
_this$1$ = -32						; size = 4
_o_sun$1$ = -28						; size = 4
_o_hemi$1$ = -24					; size = 4
$T1 = -20						; size = 4
_data$2 = -16						; size = 16
_O$ = 8							; size = 4
?apply_object@CRender@@QAEXPAVIRenderable@@@Z PROC	; CRender::apply_object
; _this$dead$ = ecx

; 249  : {

	push	ebp
	mov	ebp, esp
	and	esp, -8					; fffffff8H
	sub	esp, 36					; 00000024H
	push	ebx

; 250  : 	if (0==O)			return	;

	mov	ebx, DWORD PTR _O$[ebp]
	push	esi
	push	edi
	test	ebx, ebx
	je	$LN10@apply_obje

; 251  : 	if (PHASE_NORMAL==phase	&& O->renderable_ROS())		{

	cmp	DWORD PTR ?RImplementation@@3VCRender@@A+292, 0
	jne	$LN10@apply_obje
	mov	ecx, ebx
	call	DWORD PTR __imp_?renderable_ROS@IRenderable@@QAEPAVIRender_ObjectSpecific@@XZ
	test	eax, eax
	je	$LN10@apply_obje

; 252  : 		CROS_impl& LT		= *((CROS_impl*)O->renderable.pROS);

	mov	esi, DWORD PTR [ebx+72]
; File I:\Vitalya\mine\NSProjectX\layers\xrRender\LightTrack.h

; 66   : 		if (dwFrameSmooth!=Device.dwFrame)		update_smooth();

	xorps	xmm5, xmm5
	mov	eax, DWORD PTR __imp_?Device@@3VCRenderDevice@@A
	movss	xmm2, DWORD PTR __real@3f800000
	mov	edx, DWORD PTR [esi+12]
	mov	ecx, DWORD PTR [eax+244]
	cmp	edx, ecx
	je	SHORT $LN117@apply_obje
; File I:\Vitalya\mine\NSProjectX\layers\xrRender\LightTrack.cpp

; 260  : 	dwFrameSmooth			=	Device.dwFrame					;

	mov	DWORD PTR [esi+12], ecx

; 261  : 	if (O && (0==result_count))	update(O)						;	// First time only
; 262  : 	float	l_f				=	Device.fTimeDelta*ps_r2_lt_smooth;

	mov	eax, DWORD PTR __imp_?Device@@3VCRenderDevice@@A
	movss	xmm3, DWORD PTR [eax+468]
; File I:\Vitalya\mine\NSProjectX\xrCore\vector.h

; 92   : 	if( val<_low ) val = _low; else if( val>_high ) val = _high;

	comiss	xmm5, xmm3
	jbe	SHORT $LN20@apply_obje
	movaps	xmm3, xmm5
	jmp	SHORT $LN22@apply_obje
$LN20@apply_obje:
	comiss	xmm3, xmm2
	jbe	SHORT $LN22@apply_obje
	movaps	xmm3, xmm2
$LN22@apply_obje:
; File I:\Vitalya\mine\NSProjectX\layers\xrRender\LightTrack.cpp

; 264  : 	float	l_i				=	1.f-l_f							;

	movaps	xmm1, xmm2

; 265  : 	hemi_smooth				=	hemi_value*l_f + hemi_smooth*l_i;

	movaps	xmm4, xmm3
	mulss	xmm4, DWORD PTR [esi+1932]
	subss	xmm1, xmm3

; 266  : 	sun_smooth				=	sun_value *l_f + sun_smooth *l_i;

	mov	edx, ecx
	mulss	xmm3, DWORD PTR [esi+1940]
	movaps	xmm0, xmm1
	mulss	xmm1, DWORD PTR [esi+1944]
	mulss	xmm0, DWORD PTR [esi+1936]
	addss	xmm3, xmm1
	addss	xmm4, xmm0
	movss	DWORD PTR [esi+1944], xmm3
	movss	DWORD PTR [esi+1936], xmm4
	jmp	SHORT $LN15@apply_obje
$LN117@apply_obje:
	movss	xmm4, DWORD PTR [esi+1936]
$LN15@apply_obje:
; File I:\Vitalya\mine\NSProjectX\layers\xrRenderPC_R1\FStaticRender.cpp

; 255  : 		float o_hemi		= 0.5f*LT.get_hemi						();

	movss	xmm3, DWORD PTR __real@3f000000
	movaps	xmm0, xmm4
; File I:\Vitalya\mine\NSProjectX\layers\xrRender\lighttrack.h

; 70   : 		if (dwFrameSmooth!=Device.dwFrame)		update_smooth();

	mov	eax, DWORD PTR __imp_?Device@@3VCRenderDevice@@A
; File I:\Vitalya\mine\NSProjectX\layers\xrRenderPC_R1\FStaticRender.cpp

; 255  : 		float o_hemi		= 0.5f*LT.get_hemi						();

	mulss	xmm0, xmm3
; File I:\Vitalya\mine\NSProjectX\layers\xrRender\lighttrack.h

; 70   : 		if (dwFrameSmooth!=Device.dwFrame)		update_smooth();

	mov	eax, DWORD PTR [eax+244]
; File I:\Vitalya\mine\NSProjectX\layers\xrRenderPC_R1\FStaticRender.cpp

; 255  : 		float o_hemi		= 0.5f*LT.get_hemi						();

	movss	DWORD PTR _o_hemi$1$[esp+48], xmm0
; File I:\Vitalya\mine\NSProjectX\layers\xrRender\lighttrack.h

; 70   : 		if (dwFrameSmooth!=Device.dwFrame)		update_smooth();

	cmp	edx, eax
	je	SHORT $LN118@apply_obje
; File I:\Vitalya\mine\NSProjectX\layers\xrRender\LightTrack.cpp

; 260  : 	dwFrameSmooth			=	Device.dwFrame					;

	mov	DWORD PTR [esi+12], eax

; 261  : 	if (O && (0==result_count))	update(O)						;	// First time only
; 262  : 	float	l_f				=	Device.fTimeDelta*ps_r2_lt_smooth;

	mov	eax, DWORD PTR __imp_?Device@@3VCRenderDevice@@A
	movss	xmm1, DWORD PTR [eax+468]
; File I:\Vitalya\mine\NSProjectX\xrCore\vector.h

; 92   : 	if( val<_low ) val = _low; else if( val>_high ) val = _high;

	comiss	xmm5, xmm1
	jbe	SHORT $LN32@apply_obje
	movaps	xmm1, xmm5
	jmp	SHORT $LN34@apply_obje
$LN32@apply_obje:
	comiss	xmm1, xmm2
	jbe	SHORT $LN34@apply_obje
	movaps	xmm1, xmm2
$LN34@apply_obje:
; File I:\Vitalya\mine\NSProjectX\layers\xrRender\LightTrack.cpp

; 264  : 	float	l_i				=	1.f-l_f							;

	subss	xmm2, xmm1

; 265  : 	hemi_smooth				=	hemi_value*l_f + hemi_smooth*l_i;

	movaps	xmm0, xmm1
	mulss	xmm0, DWORD PTR [esi+1932]

; 266  : 	sun_smooth				=	sun_value *l_f + sun_smooth *l_i;

	mulss	xmm1, DWORD PTR [esi+1940]
	mulss	xmm4, xmm2
	mulss	xmm2, DWORD PTR [esi+1944]
	addss	xmm0, xmm4
	addss	xmm1, xmm2
	movss	DWORD PTR [esi+1936], xmm0
	movss	DWORD PTR [esi+1944], xmm1
	jmp	SHORT $LN27@apply_obje
$LN118@apply_obje:
	movss	xmm1, DWORD PTR [esi+1944]
$LN27@apply_obje:
; File I:\Vitalya\mine\NSProjectX\layers\xrRenderPC_R1\FStaticRender.cpp

; 257  : 		RCache.set_c		(c_ldynamic_props,o_sun,o_sun,o_sun,o_hemi);

	mov	eax, DWORD PTR __imp_?RCache@@3VCBackend@@A
	mulss	xmm1, xmm3
	mov	DWORD PTR _this$1$[esp+48], eax
; File I:\Vitalya\mine\NSProjectX\xrEngine\R_Backend.h

; 207  : 	ICF	void						set_c(shared_str& n, float x, float y, float z, float w) { if (ctable)	set_c(&*ctable->get(n), x, y, z, w); }

	mov	ecx, DWORD PTR [eax+8864]
; File I:\Vitalya\mine\NSProjectX\layers\xrRenderPC_R1\FStaticRender.cpp

; 256  : 		float o_sun			= 0.5f*LT.get_sun						();

	movss	DWORD PTR _o_sun$1$[esp+48], xmm1
; File I:\Vitalya\mine\NSProjectX\xrEngine\R_Backend.h

; 207  : 	ICF	void						set_c(shared_str& n, float x, float y, float z, float w) { if (ctable)	set_c(&*ctable->get(n), x, y, z, w); }

	test	ecx, ecx
	je	$LN37@apply_obje
	push	OFFSET ?RImplementation@@3VCRender@@A+1100
	lea	eax, DWORD PTR $T1[esp+52]
	push	eax
	call	DWORD PTR __imp_?get@R_constant_table@@QAE?AV?$resptr_core@UR_constant@@V?$resptr_base@UR_constant@@@@@@AAVshared_str@@@Z
; File I:\Vitalya\mine\NSProjectX\xrCore\xr_resource.h

; 70   : 	T &					operator*() const												{	return *p_;	}

	mov	edi, DWORD PTR [eax]
; File I:\Vitalya\mine\NSProjectX\xrEngine\R_Backend.h

; 191  : 	ICF	void						set_c(R_constant* C, float x, float y, float z, float w) { if (C)		constants.set(C, x, y, z, w); }

	test	edi, edi
	je	$LN50@apply_obje
; File I:\Vitalya\mine\NSProjectX\xrCore\_vector4.h

; 17   : 	IC	SelfRef 	set(T _x, T _y, T _z, T _w=1)		{ x=_x;		y=_y;		z=_z;		w=_w;		return *this; }

	movss	xmm0, DWORD PTR _o_sun$1$[esp+48]
; File I:\Vitalya\mine\NSProjectX\xrEngine\R_Backend.h

; 191  : 	ICF	void						set_c(R_constant* C, float x, float y, float z, float w) { if (C)		constants.set(C, x, y, z, w); }

	mov	ecx, DWORD PTR _this$1$[esp+48]
; File I:\Vitalya\mine\NSProjectX\xrEngine\r_constants_cache.h

; 147  : 		if (C->destination & 1) { a_pixel.set(C, C->ps, A); a_pixel.b_dirty = TRUE; }

	movzx	eax, WORD PTR [edi+10]
; File I:\Vitalya\mine\NSProjectX\xrEngine\R_Backend.h

; 191  : 	ICF	void						set_c(R_constant* C, float x, float y, float z, float w) { if (C)		constants.set(C, x, y, z, w); }

	add	ecx, 608				; 00000260H
; File I:\Vitalya\mine\NSProjectX\xrCore\_vector4.h

; 17   : 	IC	SelfRef 	set(T _x, T _y, T _z, T _w=1)		{ x=_x;		y=_y;		z=_z;		w=_w;		return *this; }

	movss	DWORD PTR _data$2[esp+48], xmm0
; File I:\Vitalya\mine\NSProjectX\xrEngine\r_constants_cache.h

; 147  : 		if (C->destination & 1) { a_pixel.set(C, C->ps, A); a_pixel.b_dirty = TRUE; }

	mov	edx, eax
; File I:\Vitalya\mine\NSProjectX\xrCore\_vector4.h

; 17   : 	IC	SelfRef 	set(T _x, T _y, T _z, T _w=1)		{ x=_x;		y=_y;		z=_z;		w=_w;		return *this; }

	movss	DWORD PTR _data$2[esp+52], xmm0
	movss	DWORD PTR _data$2[esp+56], xmm0
	movss	xmm0, DWORD PTR _o_hemi$1$[esp+48]
	movss	DWORD PTR _data$2[esp+60], xmm0
; File I:\Vitalya\mine\NSProjectX\xrEngine\r_constants_cache.h

; 147  : 		if (C->destination & 1) { a_pixel.set(C, C->ps, A); a_pixel.b_dirty = TRUE; }

	test	al, 1
	je	SHORT $LN49@apply_obje
	lea	eax, DWORD PTR _data$2[esp+48]
	push	eax
	lea	eax, DWORD PTR [edi+12]
	push	eax
	push	edi
	call	?set@R_constant_array@@QAEXPAUR_constant@@AAUR_constant_load@@ABU?$_vector4@M@@@Z ; R_constant_array::set
	mov	ecx, DWORD PTR _this$1$[esp+48]
	add	ecx, 608				; 00000260H
	mov	DWORD PTR [ecx+4112], 1
	movzx	edx, WORD PTR [edi+10]
$LN49@apply_obje:

; 148  : 		if (C->destination & 2) { a_vertex.set(C, C->vs, A); a_vertex.b_dirty = TRUE; }

	test	dl, 2
	je	SHORT $LN50@apply_obje
	lea	eax, DWORD PTR _data$2[esp+48]
	add	ecx, 4128				; 00001020H
	push	eax
	lea	eax, DWORD PTR [edi+16]
	push	eax
	push	edi
	call	?set@R_constant_array@@QAEXPAUR_constant@@AAUR_constant_load@@ABU?$_vector4@M@@@Z ; R_constant_array::set
	mov	eax, DWORD PTR _this$1$[esp+48]
	mov	DWORD PTR [eax+8848], 1
$LN50@apply_obje:
; File I:\Vitalya\mine\NSProjectX\xrCore\xr_resource.h

; 64   : 						~resptr_core	()												{	_dec();						}

	lea	ecx, DWORD PTR $T1[esp+48]
	call	?_dec@?$resptr_base@UR_constant@@@@IAEXXZ ; resptr_base<R_constant>::_dec
$LN37@apply_obje:
; File I:\Vitalya\mine\NSProjectX\layers\xrRenderPC_R1\FStaticRender.cpp

; 259  : 		if ((LT.shadow_recv_frame==Device.dwFrame) && O->renderable_ShadowReceive())	

	mov	eax, DWORD PTR __imp_?Device@@3VCRenderDevice@@A
	mov	edx, DWORD PTR [esi+1924]
	cmp	edx, DWORD PTR [eax+244]
	jne	SHORT $LN10@apply_obje
	mov	eax, DWORD PTR [ebx]
	mov	ecx, ebx
	call	DWORD PTR [eax+12]
	test	eax, eax
	je	SHORT $LN10@apply_obje

; 260  : 			RImplementation.L_Projector->setup	(LT.shadow_recv_slot);

	push	DWORD PTR [esi+1928]
	mov	ecx, DWORD PTR ?RImplementation@@3VCRender@@A+992
	call	?setup@CLightProjector@@QAEXH@Z		; CLightProjector::setup
$LN10@apply_obje:

; 261  : 	}
; 262  : }

	pop	edi
	pop	esi
	pop	ebx
	mov	esp, ebp
	pop	ebp
	ret	4
?apply_object@CRender@@QAEXPAVIRenderable@@@Z ENDP	; CRender::apply_object
_TEXT	ENDS
; Function compile flags: /Ogtpy
; File I:\Vitalya\mine\NSProjectX\layers\xrRenderPC_R1\FStaticRender.cpp
_TEXT	SEGMENT
_id$ = 8						; size = 4
?getVisual@CRender@@UAEPAVIRender_Visual@@H@Z PROC	; CRender::getVisual
; _this$ = ecx

; 176  : IRender_Visual*			CRender::getVisual				(int id)			{ VERIFY(id<int(Visuals.size()));	return Visuals[id];	}

	mov	ecx, DWORD PTR [ecx+944]
	mov	eax, DWORD PTR _id$[esp-4]
	mov	eax, DWORD PTR [ecx+eax*4]
	ret	4
?getVisual@CRender@@UAEPAVIRender_Visual@@H@Z ENDP	; CRender::getVisual
_TEXT	ENDS
; Function compile flags: /Ogtpy
; File I:\Vitalya\mine\NSProjectX\layers\xrRenderPC_R1\FStaticRender.cpp
_TEXT	SEGMENT
_id$ = 8						; size = 4
?getPortal@CRender@@QAEPAVIRender_Portal@@H@Z PROC	; CRender::getPortal
; _this$dead$ = ecx

; 173  : IRender_Portal*			CRender::getPortal				(int id)			{ VERIFY(id<int(Portals.size()));	return Portals[id];	}

	mov	ecx, DWORD PTR _id$[esp-4]
	mov	eax, DWORD PTR ?RImplementation@@3VCRender@@A+660
	mov	eax, DWORD PTR [eax+ecx*4]
	ret	4
?getPortal@CRender@@QAEPAVIRender_Portal@@H@Z ENDP	; CRender::getPortal
_TEXT	ENDS
; Function compile flags: /Ogtpy
; File I:\Vitalya\mine\NSProjectX\layers\xrRender\lighttrack.h
; File I:\Vitalya\mine\NSProjectX\xrCore\vector.h
; File I:\Vitalya\mine\NSProjectX\layers\xrRender\LightTrack.cpp
; File I:\Vitalya\mine\NSProjectX\xrCore\vector.h
; File I:\Vitalya\mine\NSProjectX\layers\xrRender\LightTrack.cpp
; File I:\Vitalya\mine\NSProjectX\layers\xrRender\lighttrack.h
; File I:\Vitalya\mine\NSProjectX\layers\xrRender\LightTrack.cpp
; File I:\Vitalya\mine\NSProjectX\layers\xrRender\lighttrack.h
; File I:\Vitalya\mine\NSProjectX\layers\xrRender\LightTrack.cpp
; File I:\Vitalya\mine\NSProjectX\layers\xrRender\lighttrack.h
;	COMDAT ?get_sun@CROS_impl@@QAEMXZ
_TEXT	SEGMENT
$T1 = -4						; size = 4
?get_sun@CROS_impl@@QAEMXZ PROC				; CROS_impl::get_sun, COMDAT
; _this$ = ecx

; 69   : 	ICF	float				get_sun				()	{

	push	ebp
	mov	ebp, esp
	and	esp, -8					; fffffff8H

; 70   : 		if (dwFrameSmooth!=Device.dwFrame)		update_smooth();

	mov	eax, DWORD PTR __imp_?Device@@3VCRenderDevice@@A
	sub	esp, 8
	mov	eax, DWORD PTR [eax+244]
	cmp	DWORD PTR [ecx+12], eax
	je	SHORT $LN14@get_sun
; File I:\Vitalya\mine\NSProjectX\xrCore\vector.h

; 92   : 	if( val<_low ) val = _low; else if( val>_high ) val = _high;

	movss	xmm3, DWORD PTR __real@3f800000
	xorps	xmm0, xmm0
; File I:\Vitalya\mine\NSProjectX\layers\xrRender\LightTrack.cpp

; 260  : 	dwFrameSmooth			=	Device.dwFrame					;

	mov	DWORD PTR [ecx+12], eax

; 261  : 	if (O && (0==result_count))	update(O)						;	// First time only
; 262  : 	float	l_f				=	Device.fTimeDelta*ps_r2_lt_smooth;

	mov	eax, DWORD PTR __imp_?Device@@3VCRenderDevice@@A
	movss	xmm2, DWORD PTR [eax+468]
; File I:\Vitalya\mine\NSProjectX\xrCore\vector.h

; 92   : 	if( val<_low ) val = _low; else if( val>_high ) val = _high;

	comiss	xmm0, xmm2
	jbe	SHORT $LN9@get_sun
	movaps	xmm2, xmm0
	jmp	SHORT $LN11@get_sun
$LN9@get_sun:
	comiss	xmm2, xmm3
	jbe	SHORT $LN11@get_sun
	movaps	xmm2, xmm3
$LN11@get_sun:
; File I:\Vitalya\mine\NSProjectX\layers\xrRender\LightTrack.cpp

; 264  : 	float	l_i				=	1.f-l_f							;

	subss	xmm3, xmm2

; 265  : 	hemi_smooth				=	hemi_value*l_f + hemi_smooth*l_i;

	movaps	xmm1, xmm2

; 266  : 	sun_smooth				=	sun_value *l_f + sun_smooth *l_i;

	mulss	xmm2, DWORD PTR [ecx+1940]
	mulss	xmm1, DWORD PTR [ecx+1932]
	movaps	xmm0, xmm3
	mulss	xmm3, DWORD PTR [ecx+1944]
	mulss	xmm0, DWORD PTR [ecx+1936]
	addss	xmm2, xmm3
	addss	xmm1, xmm0
	movss	DWORD PTR $T1[esp+8], xmm2
; File I:\Vitalya\mine\NSProjectX\layers\xrRender\lighttrack.h

; 72   : 	}

	fld	DWORD PTR $T1[esp+8]
; File I:\Vitalya\mine\NSProjectX\layers\xrRender\LightTrack.cpp

; 265  : 	hemi_smooth				=	hemi_value*l_f + hemi_smooth*l_i;

	movss	DWORD PTR [ecx+1936], xmm1

; 266  : 	sun_smooth				=	sun_value *l_f + sun_smooth *l_i;

	movss	DWORD PTR [ecx+1944], xmm2
; File I:\Vitalya\mine\NSProjectX\layers\xrRender\lighttrack.h

; 72   : 	}

	mov	esp, ebp
	pop	ebp
	ret	0
$LN14@get_sun:
; File I:\Vitalya\mine\NSProjectX\layers\xrRender\LightTrack.cpp

; 266  : 	sun_smooth				=	sun_value *l_f + sun_smooth *l_i;

	movss	xmm0, DWORD PTR [ecx+1944]
	movss	DWORD PTR $T1[esp+8], xmm0
; File I:\Vitalya\mine\NSProjectX\layers\xrRender\lighttrack.h

; 72   : 	}

	fld	DWORD PTR $T1[esp+8]
	mov	esp, ebp
	pop	ebp
	ret	0
?get_sun@CROS_impl@@QAEMXZ ENDP				; CROS_impl::get_sun
_TEXT	ENDS
; Function compile flags: /Ogtpy
; File I:\Vitalya\mine\NSProjectX\layers\xrRenderPC_R1\FStaticRender.cpp
; File C:\Program Files\Microsoft Visual Studio\2022\Community\VC\Tools\MSVC\14.29.30133\include\vector
; File I:\Vitalya\mine\NSProjectX\layers\xrRenderPC_R1\FStaticRender.cpp
; File I:\Vitalya\mine\NSProjectX\layers\xrRender\HOM.cpp
; File I:\Vitalya\mine\NSProjectX\xrCore\xrMemory.h
; File I:\Vitalya\mine\NSProjectX\layers\xrRender\HOM.cpp
; File C:\Program Files\Microsoft Visual Studio\2022\Community\VC\Tools\MSVC\14.29.30133\include\vector
; File I:\Vitalya\mine\NSProjectX\layers\xrRenderPC_R1\FStaticRender.cpp
; File I:\Vitalya\mine\NSProjectX\xrCore\xrstring.h
; File C:\Program Files\Microsoft Visual Studio\2022\Community\VC\Tools\MSVC\14.29.30133\include\xtree
; File I:\Vitalya\mine\NSProjectX\xrCore\xrMemory.h
; File I:\Vitalya\mine\NSProjectX\layers\xrRenderPC_R1\FStaticRender.cpp
; File C:\Program Files\Microsoft Visual Studio\2022\Community\VC\Tools\MSVC\14.29.30133\include\xtree
; File I:\Vitalya\mine\NSProjectX\layers\xrRenderPC_R1\FStaticRender.cpp
;	COMDAT ??__ERImplementation@@YAXXZ
text$di	SEGMENT
??__ERImplementation@@YAXXZ PROC			; `dynamic initializer for 'RImplementation'', COMDAT

; 282  : {

	call	??0R_dsgraph_structure@@QAE@XZ		; R_dsgraph_structure::R_dsgraph_structure
	mov	ecx, OFFSET ?RImplementation@@3VCRender@@A+684
	mov	DWORD PTR ?RImplementation@@3VCRender@@A, OFFSET ??_7CRender@@6BIRender_interface@@@
	mov	DWORD PTR ?RImplementation@@3VCRender@@A+256, OFFSET ??_7CRender@@6BpureFrame@@@
; File C:\Program Files\Microsoft Visual Studio\2022\Community\VC\Tools\MSVC\14.29.30133\include\vector

; 390  :     _CONSTEXPR20_CONTAINER _Vector_val() noexcept : _Myfirst(), _Mylast(), _Myend() {}

	mov	DWORD PTR ?RImplementation@@3VCRender@@A+660, 0
	mov	DWORD PTR ?RImplementation@@3VCRender@@A+664, 0
	mov	DWORD PTR ?RImplementation@@3VCRender@@A+668, 0
	mov	DWORD PTR ?RImplementation@@3VCRender@@A+672, 0
	mov	DWORD PTR ?RImplementation@@3VCRender@@A+676, 0
	mov	DWORD PTR ?RImplementation@@3VCRender@@A+680, 0
; File I:\Vitalya\mine\NSProjectX\layers\xrRenderPC_R1\FStaticRender.cpp

; 282  : {

	call	DWORD PTR __imp_??0xrXRC@@QAE@XZ
; File I:\Vitalya\mine\NSProjectX\layers\xrRender\HOM.cpp

; 31   : {

	mov	ecx, OFFSET ?RImplementation@@3VCRender@@A+712
	call	DWORD PTR __imp_??0xrXRC@@QAE@XZ
	mov	ecx, OFFSET ?RImplementation@@3VCRender@@A+876
	call	DWORD PTR __imp_??0xrCriticalSection@@QAE@XZ
; File I:\Vitalya\mine\NSProjectX\xrCore\xrMemory.h

; 107  : 	IC T*		xr_alloc	(u32 count)				{	return  (T*)Memory.mem_alloc(count*sizeof(T));	}

	mov	ecx, DWORD PTR __imp_?Memory@@3VxrMemory@@A
	push	64					; 00000040H
; File I:\Vitalya\mine\NSProjectX\layers\xrRender\HOM.cpp

; 32   : 	bEnabled		= FALSE;

	mov	DWORD PTR ?RImplementation@@3VCRender@@A+744, 0

; 33   : 	m_pModel		= 0;

	mov	DWORD PTR ?RImplementation@@3VCRender@@A+736, 0

; 34   : 	m_pTris			= 0;

	mov	DWORD PTR ?RImplementation@@3VCRender@@A+740, 0
; File C:\Program Files\Microsoft Visual Studio\2022\Community\VC\Tools\MSVC\14.29.30133\include\vector

; 390  :     _CONSTEXPR20_CONTAINER _Vector_val() noexcept : _Myfirst(), _Mylast(), _Myend() {}

	mov	DWORD PTR ?RImplementation@@3VCRender@@A+884, 0
	mov	DWORD PTR ?RImplementation@@3VCRender@@A+888, 0
	mov	DWORD PTR ?RImplementation@@3VCRender@@A+892, 0
	mov	DWORD PTR ?RImplementation@@3VCRender@@A+896, 0
	mov	DWORD PTR ?RImplementation@@3VCRender@@A+900, 0
	mov	DWORD PTR ?RImplementation@@3VCRender@@A+904, 0
	mov	DWORD PTR ?RImplementation@@3VCRender@@A+908, 0
	mov	DWORD PTR ?RImplementation@@3VCRender@@A+912, 0
	mov	DWORD PTR ?RImplementation@@3VCRender@@A+916, 0
	mov	DWORD PTR ?RImplementation@@3VCRender@@A+920, 0
	mov	DWORD PTR ?RImplementation@@3VCRender@@A+924, 0
	mov	DWORD PTR ?RImplementation@@3VCRender@@A+928, 0
	mov	DWORD PTR ?RImplementation@@3VCRender@@A+932, 0
	mov	DWORD PTR ?RImplementation@@3VCRender@@A+936, 0
	mov	DWORD PTR ?RImplementation@@3VCRender@@A+940, 0
	mov	DWORD PTR ?RImplementation@@3VCRender@@A+944, 0
	mov	DWORD PTR ?RImplementation@@3VCRender@@A+948, 0
	mov	DWORD PTR ?RImplementation@@3VCRender@@A+952, 0
	mov	DWORD PTR ?RImplementation@@3VCRender@@A+956, 0
	mov	DWORD PTR ?RImplementation@@3VCRender@@A+960, 0
	mov	DWORD PTR ?RImplementation@@3VCRender@@A+964, 0
	mov	DWORD PTR ?RImplementation@@3VCRender@@A+968, 0
	mov	DWORD PTR ?RImplementation@@3VCRender@@A+972, 0
	mov	DWORD PTR ?RImplementation@@3VCRender@@A+976, 0
; File I:\Vitalya\mine\NSProjectX\layers\xrRenderPC_R1\FStaticRender.cpp

; 282  : {

	mov	DWORD PTR ?RImplementation@@3VCRender@@A+1088, OFFSET ??_7cl_light_PR@@6B@
	mov	DWORD PTR ?RImplementation@@3VCRender@@A+1092, OFFSET ??_7cl_light_C@@6B@
	mov	DWORD PTR ?RImplementation@@3VCRender@@A+1096, OFFSET ??_7cl_light_XFORM@@6B@
; File I:\Vitalya\mine\NSProjectX\xrCore\xrstring.h

; 57   : 						shared_str	()								{	p_ = 0;											}

	mov	DWORD PTR ?RImplementation@@3VCRender@@A+1100, 0
; File C:\Program Files\Microsoft Visual Studio\2022\Community\VC\Tools\MSVC\14.29.30133\include\xtree

; 435  :     _Tree_val() noexcept : _Myhead(), _Mysize(0) {}

	mov	DWORD PTR ?RImplementation@@3VCRender@@A+1104, 0
	mov	DWORD PTR ?RImplementation@@3VCRender@@A+1108, 0
; File I:\Vitalya\mine\NSProjectX\xrCore\xrMemory.h

; 107  : 	IC T*		xr_alloc	(u32 count)				{	return  (T*)Memory.mem_alloc(count*sizeof(T));	}

	call	DWORD PTR __imp_?mem_alloc@xrMemory@@QAEPAXI@Z
; File I:\Vitalya\mine\NSProjectX\layers\xrRenderPC_R1\FStaticRender.cpp

; 18   : CRender													RImplementation;

	push	OFFSET ??__FRImplementation@@YAXXZ	; `dynamic atexit destructor for 'RImplementation''
; File C:\Program Files\Microsoft Visual Studio\2022\Community\VC\Tools\MSVC\14.29.30133\include\xtree

; 345  :         _Construct_in_place(_Pnode->_Left, _Pnode);

	mov	DWORD PTR [eax], eax

; 346  :         _Construct_in_place(_Pnode->_Parent, _Pnode);

	mov	DWORD PTR [eax+4], eax

; 347  :         _Construct_in_place(_Pnode->_Right, _Pnode);

	mov	DWORD PTR [eax+8], eax

; 348  :         _Pnode->_Color = _Black;

	mov	WORD PTR [eax+12], 257			; 00000101H

; 1917 :         _Scary->_Myhead = _Node::_Buyheadnode(_Getal());

	mov	DWORD PTR ?RImplementation@@3VCRender@@A+1104, eax
; File I:\Vitalya\mine\NSProjectX\layers\xrRenderPC_R1\FStaticRender.cpp

; 18   : CRender													RImplementation;

	call	_atexit
	pop	ecx
	ret	0
??__ERImplementation@@YAXXZ ENDP			; `dynamic initializer for 'RImplementation''
text$di	ENDS
; Function compile flags: /Ogtpy
;	COMDAT ??__FRImplementation@@YAXXZ
text$yd	SEGMENT
??__FRImplementation@@YAXXZ PROC			; `dynamic atexit destructor for 'RImplementation'', COMDAT
	mov	ecx, OFFSET ?RImplementation@@3VCRender@@A ; RImplementation
	jmp	??1CRender@@UAE@XZ			; CRender::~CRender
??__FRImplementation@@YAXXZ ENDP			; `dynamic atexit destructor for 'RImplementation''
text$yd	ENDS
; Function compile flags: /Ogtpy
; File I:\Vitalya\mine\NSProjectX\layers\xrRenderPC_R1\FStaticRender.cpp
; File I:\Vitalya\mine\NSProjectX\xrEngine\pure.h
; File I:\Vitalya\mine\NSProjectX\layers\xrRenderPC_R1\FStaticRender.cpp
; File I:\Vitalya\mine\NSProjectX\xrEngine\pure.h
; File I:\Vitalya\mine\NSProjectX\layers\xrRenderPC_R1\FStaticRender.cpp
; File I:\Vitalya\mine\NSProjectX\xrEngine\pure.h
; File C:\Program Files\Microsoft Visual Studio\2022\Community\VC\Tools\MSVC\14.29.30133\include\vector
; File I:\Vitalya\mine\NSProjectX\xrCore\_stl_extensions.h
; File C:\Program Files\Microsoft Visual Studio\2022\Community\VC\Tools\MSVC\14.29.30133\include\vector
; File I:\Vitalya\mine\NSProjectX\xrEngine\pure.h
; File I:\Vitalya\mine\NSProjectX\layers\xrRenderPC_R1\FStaticRender.cpp
; File C:\Program Files (x86)\Windows Kits\10\Include\10.0.22000.0\ucrt\string.h
; File I:\Vitalya\mine\NSProjectX\layers\xrRenderPC_R1\FStaticRender.cpp
; File C:\Program Files (x86)\Windows Kits\10\Include\10.0.22000.0\ucrt\string.h
; File I:\Vitalya\mine\NSProjectX\layers\xrRenderPC_R1\FStaticRender.cpp
; File C:\Program Files (x86)\Windows Kits\10\Include\10.0.22000.0\ucrt\string.h
; File I:\Vitalya\mine\NSProjectX\layers\xrRenderPC_R1\FStaticRender.cpp
; File C:\Program Files (x86)\Windows Kits\10\Include\10.0.22000.0\ucrt\string.h
; File I:\Vitalya\mine\NSProjectX\layers\xrRenderPC_R1\FStaticRender.cpp
; File C:\Program Files (x86)\Windows Kits\10\Include\10.0.22000.0\ucrt\string.h
; File I:\Vitalya\mine\NSProjectX\layers\xrRenderPC_R1\FStaticRender.cpp
; File C:\Program Files (x86)\Windows Kits\10\Include\10.0.22000.0\ucrt\string.h
; File I:\Vitalya\mine\NSProjectX\layers\xrRenderPC_R1\FStaticRender.cpp
; File I:\Vitalya\mine\NSProjectX\xrCore\xrstring.h
; File I:\Vitalya\mine\NSProjectX\layers\xrRenderPC_R1\FStaticRender.cpp
; File I:\Vitalya\mine\NSProjectX\xrCore\xrMemory_subst_msvc.h
; File I:\Vitalya\mine\NSProjectX\layers\xrRenderPC_R1\FStaticRender.cpp
; File I:\Vitalya\mine\NSProjectX\xrCore\xrMemory_subst_msvc.h
; File I:\Vitalya\mine\NSProjectX\xrCore\xrMemory.h
; File I:\Vitalya\mine\NSProjectX\layers\xrRender\ModelPool.cpp
; File C:\Program Files\Microsoft Visual Studio\2022\Community\VC\Tools\MSVC\14.29.30133\include\vector
; File C:\Program Files\Microsoft Visual Studio\2022\Community\VC\Tools\MSVC\14.29.30133\include\xtree
; File I:\Vitalya\mine\NSProjectX\xrCore\xrMemory.h
; File C:\Program Files\Microsoft Visual Studio\2022\Community\VC\Tools\MSVC\14.29.30133\include\xtree
; File I:\Vitalya\mine\NSProjectX\xrCore\xrMemory.h
; File I:\Vitalya\mine\NSProjectX\xrCore\xrMemory_subst_msvc.h
; File C:\Program Files\Microsoft Visual Studio\2022\Community\VC\Tools\MSVC\14.29.30133\include\xtree
; File I:\Vitalya\mine\NSProjectX\layers\xrRender\ModelPool.cpp
; File I:\Vitalya\mine\NSProjectX\xrCore\xrMemory_subst_msvc.h
; File I:\Vitalya\mine\NSProjectX\layers\xrRender\ModelPool.cpp
; File I:\Vitalya\mine\NSProjectX\xrCore\xrMemory_subst_msvc.h
; File I:\Vitalya\mine\NSProjectX\layers\xrRender\ModelPool.cpp
; File I:\Vitalya\mine\NSProjectX\layers\xrRenderPC_R1\FStaticRender.cpp
; File I:\Vitalya\mine\NSProjectX\xrCore\xrMemory_subst_msvc.h
; File I:\Vitalya\mine\NSProjectX\layers\xrRenderPC_R1\LightPPA.cpp
; File C:\Program Files\Microsoft Visual Studio\2022\Community\VC\Tools\MSVC\14.29.30133\include\vector
; File I:\Vitalya\mine\NSProjectX\layers\xrRenderPC_R1\FStaticRender.cpp
; File C:\Program Files\Microsoft Visual Studio\2022\Community\VC\Tools\MSVC\14.29.30133\include\vector
; File I:\Vitalya\mine\NSProjectX\layers\xrRenderPC_R1\FStaticRender.cpp
; File I:\Vitalya\mine\NSProjectX\layers\xrRender\xrRender_console.cpp
; File I:\Vitalya\mine\NSProjectX\layers\xrRender\r__sector_traversal.cpp
; File I:\Vitalya\mine\NSProjectX\layers\xrRenderPC_R1\FStaticRender.cpp
_TEXT	SEGMENT
_I$1 = -12						; size = 12
?create@CRender@@UAEXXZ PROC				; CRender::create
; _this$ = ecx

; 49   : {

	sub	esp, 12					; 0000000cH
	push	ebx
	mov	ebx, ecx
; File I:\Vitalya\mine\NSProjectX\xrEngine\pure.h

; 54   : 		I.Prio = priority;

	mov	DWORD PTR _I$1[esp+20], 1164413355	; 456789abH
; File I:\Vitalya\mine\NSProjectX\layers\xrRenderPC_R1\FStaticRender.cpp

; 49   : {

	push	esi
	push	edi
; File I:\Vitalya\mine\NSProjectX\xrEngine\pure.h

; 55   : 		I.Flags = flags;

	mov	DWORD PTR _I$1[esp+32], 0
; File I:\Vitalya\mine\NSProjectX\layers\xrRenderPC_R1\FStaticRender.cpp

; 50   : 	L_DB				= 0;

	mov	DWORD PTR [ebx+980], 0

; 51   : 	L_Shadows			= 0;
; 52   : 	L_Projector			= 0;
; 53   : 
; 54   : 	Device.seqFrame.Add	(this,REG_PRIORITY_HIGH+0x12345678);

	lea	ecx, DWORD PTR [ebx+256]
	mov	DWORD PTR [ebx+988], 0
	mov	DWORD PTR [ebx+992], 0
	mov	esi, DWORD PTR __imp_?Device@@3VCRenderDevice@@A
	add	esi, 372				; 00000174H
; File I:\Vitalya\mine\NSProjectX\xrEngine\pure.h

; 53   : 		I.Object = obj;

	mov	DWORD PTR _I$1[esp+24], ecx
; File C:\Program Files\Microsoft Visual Studio\2022\Community\VC\Tools\MSVC\14.29.30133\include\vector

; 730  :         if (_Mylast != _My_data._Myend) {

	mov	eax, DWORD PTR [esi+4]
	cmp	eax, DWORD PTR [esi+8]
	je	SHORT $LN15@create
; File I:\Vitalya\mine\NSProjectX\xrCore\_stl_extensions.h

; 84   : 							void					construct		(pointer p, const T& _Val)				{	::new((void*)p) value_type (_Val); }

	mov	DWORD PTR [eax], ecx
	mov	DWORD PTR [eax+4], 1164413355		; 456789abH
	mov	DWORD PTR [eax+8], 0
; File C:\Program Files\Microsoft Visual Studio\2022\Community\VC\Tools\MSVC\14.29.30133\include\vector

; 716  :         ++_Mylast;

	add	DWORD PTR [esi+4], 12			; 0000000cH

; 731  :             return _Emplace_back_with_unused_capacity(_STD forward<_Valty>(_Val)...);

	jmp	SHORT $LN14@create
$LN15@create:

; 732  :         }
; 733  : 
; 734  :         _Ty& _Result = *_Emplace_reallocate(_Mylast, _STD forward<_Valty>(_Val)...);

	lea	ecx, DWORD PTR _I$1[esp+24]
	push	ecx
	push	eax
	mov	ecx, esi
	call	??$_Emplace_reallocate@ABU_REG_INFO@@@?$vector@U_REG_INFO@@V?$xalloc@U_REG_INFO@@@@@std@@QAEPAU_REG_INFO@@QAU2@ABU2@@Z ; std::vector<_REG_INFO,xalloc<_REG_INFO> >::_Emplace_reallocate<_REG_INFO const &>
$LN14@create:
; File I:\Vitalya\mine\NSProjectX\xrEngine\pure.h

; 58   : 		if (in_process)		changed = true;

	mov	eax, DWORD PTR [esi+12]
	test	al, 1
	je	SHORT $LN9@create
	or	eax, 2
	mov	DWORD PTR [esi+12], eax
	jmp	SHORT $LN10@create
$LN9@create:

; 59   : 		else Resort();

	mov	ecx, esi
	call	?Resort@?$CRegistrator@VpureFrame@@@@QAEXXZ ; CRegistrator<pureFrame>::Resort
$LN10@create:
; File I:\Vitalya\mine\NSProjectX\layers\xrRenderPC_R1\FStaticRender.cpp

; 57   : 	::Device.Resources->RegisterConstantSetup("L_dynamic_pos",		&r1_dlight_binder_PR);

	mov	ecx, DWORD PTR __imp_?Device@@3VCRenderDevice@@A
	lea	eax, DWORD PTR [ebx+1088]
	push	eax
	push	OFFSET ??_C@_0O@MLKAHID@L_dynamic_pos@
	mov	ecx, DWORD PTR [ecx+432]
	call	DWORD PTR __imp_?RegisterConstantSetup@CResourceManager@@QAEXPBDPAVR_constant_setup@@@Z

; 58   : 	::Device.Resources->RegisterConstantSetup("L_dynamic_color",	&r1_dlight_binder_color);

	mov	ecx, DWORD PTR __imp_?Device@@3VCRenderDevice@@A
	lea	eax, DWORD PTR [ebx+1092]
	push	eax
	push	OFFSET ??_C@_0BA@FNHAPCAE@L_dynamic_color@
	mov	ecx, DWORD PTR [ecx+432]
	call	DWORD PTR __imp_?RegisterConstantSetup@CResourceManager@@QAEXPBDPAVR_constant_setup@@@Z

; 59   : 	::Device.Resources->RegisterConstantSetup("L_dynamic_xform",	&r1_dlight_binder_xform);

	mov	ecx, DWORD PTR __imp_?Device@@3VCRenderDevice@@A
	lea	eax, DWORD PTR [ebx+1096]
	push	eax
	push	OFFSET ??_C@_0BA@PCGAPDHO@L_dynamic_xform@
	mov	ecx, DWORD PTR [ecx+432]
	call	DWORD PTR __imp_?RegisterConstantSetup@CResourceManager@@QAEXPBDPAVR_constant_setup@@@Z

; 62   : 	u32		v_dev	= CAP_VERSION(HW.Caps.raster_major, HW.Caps.raster_minor);

	mov	edx, DWORD PTR __imp_?HW@@3VCHW@@A
; File C:\Program Files (x86)\Windows Kits\10\Include\10.0.22000.0\ucrt\string.h

; 520  :         return const_cast<char*>(strstr(static_cast<char const*>(_String), _SubString));

	mov	esi, DWORD PTR __imp__strstr
	push	OFFSET ??_C@_0L@CBIMIPPL@?9nodistort@
; File I:\Vitalya\mine\NSProjectX\layers\xrRenderPC_R1\FStaticRender.cpp

; 62   : 	u32		v_dev	= CAP_VERSION(HW.Caps.raster_major, HW.Caps.raster_minor);

	movzx	eax, WORD PTR [edx+60]
	lea	ecx, DWORD PTR [eax+eax*4]
	movzx	eax, WORD PTR [edx+62]
	lea	edi, DWORD PTR [eax+ecx*2]

; 63   : 	u32		v_need	= CAP_VERSION(1,4);

	mov	ecx, DWORD PTR [ebx+628]

; 66   : 	if (strstr(Core.Params,"-nodistort"))		o.distortion = FALSE;

	mov	eax, ecx
	or	ecx, 2
	and	eax, -3					; fffffffdH
	cmp	edi, 14					; 0000000eH
	cmovb	ecx, eax
	mov	DWORD PTR [ebx+628], ecx
	mov	eax, DWORD PTR __imp_?Core@@3VxrCore@@A
	add	eax, 1232				; 000004d0H
; File C:\Program Files (x86)\Windows Kits\10\Include\10.0.22000.0\ucrt\string.h

; 520  :         return const_cast<char*>(strstr(static_cast<char const*>(_String), _SubString));

	push	eax
	call	esi
	mov	ecx, DWORD PTR [ebx+628]
	add	esp, 8
; File I:\Vitalya\mine\NSProjectX\layers\xrRenderPC_R1\FStaticRender.cpp

; 66   : 	if (strstr(Core.Params,"-nodistort"))		o.distortion = FALSE;

	test	eax, eax
	je	SHORT $LN126@create
	and	ecx, -3					; fffffffdH
	mov	DWORD PTR [ebx+628], ecx
$LN126@create:

; 67   : 	Msg				("* distortion: %s, dev(%d),need(%d)",o.distortion?"used":"unavailable",v_dev,v_need);

	test	cl, 2
	mov	eax, OFFSET ??_C@_04DOOIMPEH@used@
	push	14					; 0000000eH
	mov	ecx, OFFSET ??_C@_0M@JGJOANLK@unavailable@
	push	edi
	cmove	eax, ecx
	push	eax
	push	OFFSET ??_C@_0CD@DCBDPIBM@?$CK?5distortion?3?5?$CFs?0?5dev?$CI?$CFd?$CJ?0need?$CI@
	call	DWORD PTR __imp_?Msg@@YAXPBDZZ

; 68   : 	m_skinning					= -1;

	mov	DWORD PTR [ebx+4], -1

; 71   : 	o.disasm					= (strstr(Core.Params,"-disasm"))?		TRUE	:FALSE	;

	mov	eax, DWORD PTR __imp_?Core@@3VxrCore@@A
	add	eax, 1232				; 000004d0H
; File C:\Program Files (x86)\Windows Kits\10\Include\10.0.22000.0\ucrt\string.h

; 520  :         return const_cast<char*>(strstr(static_cast<char const*>(_String), _SubString));

	push	OFFSET ??_C@_07BDKAKIOP@?9disasm@
	push	eax
	call	esi
; File I:\Vitalya\mine\NSProjectX\layers\xrRenderPC_R1\FStaticRender.cpp

; 71   : 	o.disasm					= (strstr(Core.Params,"-disasm"))?		TRUE	:FALSE	;

	mov	ecx, DWORD PTR [ebx+628]
	neg	eax
; File C:\Program Files (x86)\Windows Kits\10\Include\10.0.22000.0\ucrt\string.h

; 520  :         return const_cast<char*>(strstr(static_cast<char const*>(_String), _SubString));

	push	OFFSET ??_C@_06MLLEPAHM@?9skinw@
; File I:\Vitalya\mine\NSProjectX\layers\xrRenderPC_R1\FStaticRender.cpp

; 71   : 	o.disasm					= (strstr(Core.Params,"-disasm"))?		TRUE	:FALSE	;

	sbb	eax, eax
	and	ecx, -5					; fffffffbH
	and	eax, 4
	or	ecx, eax
	mov	DWORD PTR [ebx+628], ecx

; 72   : 	o.forceskinw				= (strstr(Core.Params,"-skinw"))?		TRUE	:FALSE	;

	mov	eax, DWORD PTR __imp_?Core@@3VxrCore@@A
	add	eax, 1232				; 000004d0H
; File C:\Program Files (x86)\Windows Kits\10\Include\10.0.22000.0\ucrt\string.h

; 520  :         return const_cast<char*>(strstr(static_cast<char const*>(_String), _SubString));

	push	eax
	call	esi
; File I:\Vitalya\mine\NSProjectX\layers\xrRenderPC_R1\FStaticRender.cpp

; 72   : 	o.forceskinw				= (strstr(Core.Params,"-skinw"))?		TRUE	:FALSE	;

	mov	ecx, DWORD PTR [ebx+628]
; File C:\Program Files (x86)\Windows Kits\10\Include\10.0.22000.0\ucrt\string.h

; 520  :         return const_cast<char*>(strstr(static_cast<char const*>(_String), _SubString));

	add	esp, 32					; 00000020H
; File I:\Vitalya\mine\NSProjectX\layers\xrRenderPC_R1\FStaticRender.cpp

; 72   : 	o.forceskinw				= (strstr(Core.Params,"-skinw"))?		TRUE	:FALSE	;

	neg	eax
	sbb	eax, eax
	and	ecx, -9					; fffffff7H
	and	eax, 8
	or	ecx, eax
	mov	DWORD PTR [ebx+628], ecx
; File I:\Vitalya\mine\NSProjectX\xrCore\xrstring.h

; 52   : 	void				_set		(str_c rhs) 					{	str_value* v = g_pStringContainer->dock(rhs); if (0!=v) v->dwReference++; _dec(); p_ = v;	}

	mov	ecx, DWORD PTR __imp_?g_pStringContainer@@3PAVstr_container@@A
	push	OFFSET ??_C@_0BA@FMJGKLOA@L_dynamic_props@
	mov	ecx, DWORD PTR [ecx]
	call	DWORD PTR __imp_?dock@str_container@@QAEPAUstr_value@@PBD@Z
	test	eax, eax
	je	SHORT $LN32@create
	inc	DWORD PTR [eax]
$LN32@create:

; 50   : 	void				_dec		()								{	if (0==p_) return;	p_->dwReference--; 	if (0==p_->dwReference)	p_=0;						}

	mov	ecx, DWORD PTR [ebx+1100]
	test	ecx, ecx
	je	SHORT $LN36@create
	dec	DWORD PTR [ecx]
$LN36@create:

