; Listing generated by Microsoft (R) Optimizing Compiler Version 19.29.30146.0 

	TITLE	i:\vitalya\mine\nsprojectx\nspx_build\intermediate\release-win32\xrrender_r1\lightshadows.obj
	.686P
	.XMM
	include listing.inc
	.model	flat

INCLUDELIB OLDNAMES

PUBLIC	??_C@_0N@MGAGAIMH@$user$shadow@			; `string'
PUBLIC	??_C@_0L@GLCIELMM@$user$temp@			; `string'
PUBLIC	??_C@_01IHBHIGKO@?0@				; `string'
PUBLIC	??_C@_0BF@CDILBIKA@effects?2shadow_world@	; `string'
PUBLIC	??_C@_05OHHNHFCG@blur4@				; `string'
PUBLIC	??_C@_0BD@KGPINAGD@effects?2screen_set@		; `string'
;	COMDAT ??_C@_0BD@KGPINAGD@effects?2screen_set@
CONST	SEGMENT
??_C@_0BD@KGPINAGD@effects?2screen_set@ DB 'effects\screen_set', 00H ; `string'
CONST	ENDS
;	COMDAT ??_C@_05OHHNHFCG@blur4@
CONST	SEGMENT
??_C@_05OHHNHFCG@blur4@ DB 'blur4', 00H			; `string'
CONST	ENDS
;	COMDAT ??_C@_0BF@CDILBIKA@effects?2shadow_world@
CONST	SEGMENT
??_C@_0BF@CDILBIKA@effects?2shadow_world@ DB 'effects\shadow_world', 00H ; `string'
CONST	ENDS
;	COMDAT ??_C@_01IHBHIGKO@?0@
CONST	SEGMENT
??_C@_01IHBHIGKO@?0@ DB ',', 00H			; `string'
CONST	ENDS
;	COMDAT ??_C@_0L@GLCIELMM@$user$temp@
CONST	SEGMENT
??_C@_0L@GLCIELMM@$user$temp@ DB '$user$temp', 00H	; `string'
CONST	ENDS
;	COMDAT ??_C@_0N@MGAGAIMH@$user$shadow@
CONST	SEGMENT
??_C@_0N@MGAGAIMH@$user$shadow@ DB '$user$shadow', 00H	; `string'
?_Fake_alloc@std@@3U_Fake_allocator@1@B	ORG $+1		; std::_Fake_alloc
	ORG $+2
?S_ambient@@3HB DD 020H					; S_ambient
PUBLIC	??0cache_item@CLightShadows@@QAE@XZ		; CLightShadows::cache_item::cache_item
PUBLIC	??$_Emplace_back@Ucache_item@CLightShadows@@@?$_Uninitialized_backout_al@V?$xalloc@Ucache_item@CLightShadows@@@@@std@@QAEX$$QAUcache_item@CLightShadows@@@Z ; std::_Uninitialized_backout_al<xalloc<CLightShadows::cache_item> >::_Emplace_back<CLightShadows::cache_item>
PUBLIC	??$construct@U_MatrixItem@R_dsgraph@@U12@@?$_Normal_allocator_traits@V?$xalloc@U_MatrixItem@R_dsgraph@@@@@std@@SAXAAV?$xalloc@U_MatrixItem@R_dsgraph@@@@PAU_MatrixItem@R_dsgraph@@$$QAU34@@Z ; std::_Normal_allocator_traits<xalloc<R_dsgraph::_MatrixItem> >::construct<R_dsgraph::_MatrixItem,R_dsgraph::_MatrixItem>
PUBLIC	??$construct@PAUcaster@CLightShadows@@PAU12@@?$_Normal_allocator_traits@V?$xalloc@PAUcaster@CLightShadows@@@@@std@@SAXAAV?$xalloc@PAUcaster@CLightShadows@@@@PAPAUcaster@CLightShadows@@$$QAPAU34@@Z ; std::_Normal_allocator_traits<xalloc<CLightShadows::caster *> >::construct<CLightShadows::caster *,CLightShadows::caster *>
PUBLIC	??$forward@PAUcaster@CLightShadows@@@std@@YA$$QAPAUcaster@CLightShadows@@AAPAU12@@Z ; std::forward<CLightShadows::caster *>
PUBLIC	??0?$_Uninitialized_backout_al@V?$xalloc@Ucache_item@CLightShadows@@@@@std@@QAE@PAUcache_item@CLightShadows@@AAV?$xalloc@Ucache_item@CLightShadows@@@@@Z ; std::_Uninitialized_backout_al<xalloc<CLightShadows::cache_item> >::_Uninitialized_backout_al<xalloc<CLightShadows::cache_item> >
PUBLIC	??1?$_Uninitialized_backout_al@V?$xalloc@Ucache_item@CLightShadows@@@@@std@@QAE@XZ ; std::_Uninitialized_backout_al<xalloc<CLightShadows::cache_item> >::~_Uninitialized_backout_al<xalloc<CLightShadows::cache_item> >
PUBLIC	?_Release@?$_Uninitialized_backout_al@V?$xalloc@Ucache_item@CLightShadows@@@@@std@@QAEPAUcache_item@CLightShadows@@XZ ; std::_Uninitialized_backout_al<xalloc<CLightShadows::cache_item> >::_Release
PUBLIC	??$_Destroy_in_place@PAUshadow@CLightShadows@@@std@@YAXAAPAUshadow@CLightShadows@@@Z ; std::_Destroy_in_place<CLightShadows::shadow *>
PUBLIC	??$_Destroy_in_place@PAUtess_tri@CLightShadows@@@std@@YAXAAPAUtess_tri@CLightShadows@@@Z ; std::_Destroy_in_place<CLightShadows::tess_tri *>
PUBLIC	??$xr_alloc@Ucache_item@CLightShadows@@@@YAPAUcache_item@CLightShadows@@I@Z ; xr_alloc<CLightShadows::cache_item>
PUBLIC	??$_Get_unwrapped@ABQAUcache_item@CLightShadows@@@std@@YA?A_TABQAUcache_item@CLightShadows@@@Z ; std::_Get_unwrapped<CLightShadows::cache_item * const &>
PUBLIC	??$_Uninitialized_move@PAUcache_item@CLightShadows@@V?$xalloc@Ucache_item@CLightShadows@@@@@std@@YAPAUcache_item@CLightShadows@@QAU12@0PAU12@AAV?$xalloc@Ucache_item@CLightShadows@@@@@Z ; std::_Uninitialized_move<CLightShadows::cache_item *,xalloc<CLightShadows::cache_item> >
PUBLIC	??$_Refancy@PAUcache_item@CLightShadows@@$0A@@std@@YAPAUcache_item@CLightShadows@@PAU12@@Z ; std::_Refancy<CLightShadows::cache_item *,0>
PUBLIC	??$_Emplace_back@U_MatrixItem@R_dsgraph@@@?$_Uninitialized_backout_al@V?$xalloc@U_MatrixItem@R_dsgraph@@@@@std@@QAEX$$QAU_MatrixItem@R_dsgraph@@@Z ; std::_Uninitialized_backout_al<xalloc<R_dsgraph::_MatrixItem> >::_Emplace_back<R_dsgraph::_MatrixItem>
PUBLIC	??$_Emplace_back@PAUcaster@CLightShadows@@@?$_Uninitialized_backout_al@V?$xalloc@PAUcaster@CLightShadows@@@@@std@@QAEX$$QAPAUcaster@CLightShadows@@@Z ; std::_Uninitialized_backout_al<xalloc<CLightShadows::caster *> >::_Emplace_back<CLightShadows::caster *>
PUBLIC	??$move@AAPAUcaster@CLightShadows@@@std@@YA$$QAPAUcaster@CLightShadows@@AAPAU12@@Z ; std::move<CLightShadows::caster * &>
PUBLIC	??$_Emplace_back@Ushadow@CLightShadows@@@?$_Uninitialized_backout_al@V?$xalloc@Ushadow@CLightShadows@@@@@std@@QAEX$$QAUshadow@CLightShadows@@@Z ; std::_Uninitialized_backout_al<xalloc<CLightShadows::shadow> >::_Emplace_back<CLightShadows::shadow>
PUBLIC	??$_Emplace_back@Utess_tri@CLightShadows@@@?$_Uninitialized_backout_al@V?$xalloc@Utess_tri@CLightShadows@@@@@std@@QAEX$$QAUtess_tri@CLightShadows@@@Z ; std::_Uninitialized_backout_al<xalloc<CLightShadows::tess_tri> >::_Emplace_back<CLightShadows::tess_tri>
PUBLIC	??$_Copy_backward_memmove@PAUcache_item@CLightShadows@@PAU12@@std@@YAPAUcache_item@CLightShadows@@PAU12@00@Z ; std::_Copy_backward_memmove<CLightShadows::cache_item *,CLightShadows::cache_item *>
PUBLIC	??$forward@Ucache_item@CLightShadows@@@std@@YA$$QAUcache_item@CLightShadows@@AAU12@@Z ; std::forward<CLightShadows::cache_item>
PUBLIC	??$forward@AAPAUcache_item@CLightShadows@@@std@@YAAAPAUcache_item@CLightShadows@@AAPAU12@@Z ; std::forward<CLightShadows::cache_item * &>
PUBLIC	??$advance@PAUcache_item@CLightShadows@@H@std@@YAXAAPAUcache_item@CLightShadows@@H@Z ; std::advance<CLightShadows::cache_item *,int>
PUBLIC	?max_size@?$xalloc@Ucache_item@CLightShadows@@@@QBEIXZ ; xalloc<CLightShadows::cache_item>::max_size
PUBLIC	?_Get_first@?$_Compressed_pair@V?$xalloc@Ucache_item@CLightShadows@@@@V?$_Vector_val@U?$_Simple_types@Ucache_item@CLightShadows@@@std@@@std@@$00@std@@QBEABV?$xalloc@Ucache_item@CLightShadows@@@@XZ ; std::_Compressed_pair<xalloc<CLightShadows::cache_item>,std::_Vector_val<std::_Simple_types<CLightShadows::cache_item> >,1>::_Get_first
PUBLIC	?max_size@?$_Normal_allocator_traits@V?$xalloc@Ucache_item@CLightShadows@@@@@std@@SAIABV?$xalloc@Ucache_item@CLightShadows@@@@@Z ; std::_Normal_allocator_traits<xalloc<CLightShadows::cache_item> >::max_size
PUBLIC	?capacity@?$vector@Ucache_item@CLightShadows@@V?$xalloc@Ucache_item@CLightShadows@@@@@std@@QBEIXZ ; std::vector<CLightShadows::cache_item,xalloc<CLightShadows::cache_item> >::capacity
PUBLIC	?_Umove_if_noexcept1@?$vector@Ucache_item@CLightShadows@@V?$xalloc@Ucache_item@CLightShadows@@@@@std@@AAEXPAUcache_item@CLightShadows@@00U?$integral_constant@_N$00@2@@Z ; std::vector<CLightShadows::cache_item,xalloc<CLightShadows::cache_item> >::_Umove_if_noexcept1
PUBLIC	?_Getal@?$vector@Ucache_item@CLightShadows@@V?$xalloc@Ucache_item@CLightShadows@@@@@std@@ABEABV?$xalloc@Ucache_item@CLightShadows@@@@XZ ; std::vector<CLightShadows::cache_item,xalloc<CLightShadows::cache_item> >::_Getal
PUBLIC	??0?$_Vector_val@U?$_Simple_types@U_MatrixItem@R_dsgraph@@@std@@@std@@QAE@XZ ; std::_Vector_val<std::_Simple_types<R_dsgraph::_MatrixItem> >::_Vector_val<std::_Simple_types<R_dsgraph::_MatrixItem> >
PUBLIC	??0?$xalloc@U_MatrixItem@R_dsgraph@@@@QAE@XZ	; xalloc<R_dsgraph::_MatrixItem>::xalloc<R_dsgraph::_MatrixItem>
PUBLIC	?destroy@?$xalloc@U_MatrixItem@R_dsgraph@@@@QAEXPAU_MatrixItem@R_dsgraph@@@Z ; xalloc<R_dsgraph::_MatrixItem>::destroy
PUBLIC	?destroy@?$xalloc@Ushadow@CLightShadows@@@@QAEXPAUshadow@CLightShadows@@@Z ; xalloc<CLightShadows::shadow>::destroy
PUBLIC	?destroy@?$xalloc@Utess_tri@CLightShadows@@@@QAEXPAUtess_tri@CLightShadows@@@Z ; xalloc<CLightShadows::tess_tri>::destroy
PUBLIC	?allocate@?$xalloc@Ucache_item@CLightShadows@@@@QBEPAUcache_item@CLightShadows@@IPBX@Z ; xalloc<CLightShadows::cache_item>::allocate
PUBLIC	?construct@?$xalloc@Ucache_item@CLightShadows@@@@QAEXPAUcache_item@CLightShadows@@ABU23@@Z ; xalloc<CLightShadows::cache_item>::construct
PUBLIC	?max_size@?$vector@Ucache_item@CLightShadows@@V?$xalloc@Ucache_item@CLightShadows@@@@@std@@QBEIXZ ; std::vector<CLightShadows::cache_item,xalloc<CLightShadows::cache_item> >::max_size
PUBLIC	?_Umove@?$vector@Ucache_item@CLightShadows@@V?$xalloc@Ucache_item@CLightShadows@@@@@std@@AAEPAUcache_item@CLightShadows@@PAU34@00@Z ; std::vector<CLightShadows::cache_item,xalloc<CLightShadows::cache_item> >::_Umove
PUBLIC	?_Umove_if_noexcept@?$vector@Ucache_item@CLightShadows@@V?$xalloc@Ucache_item@CLightShadows@@@@@std@@AAEXPAUcache_item@CLightShadows@@00@Z ; std::vector<CLightShadows::cache_item,xalloc<CLightShadows::cache_item> >::_Umove_if_noexcept
PUBLIC	?_Calculate_growth@?$vector@Ucache_item@CLightShadows@@V?$xalloc@Ucache_item@CLightShadows@@@@@std@@ABEII@Z ; std::vector<CLightShadows::cache_item,xalloc<CLightShadows::cache_item> >::_Calculate_growth
PUBLIC	?_Change_array@?$vector@Ucache_item@CLightShadows@@V?$xalloc@Ucache_item@CLightShadows@@@@@std@@AAEXQAUcache_item@CLightShadows@@II@Z ; std::vector<CLightShadows::cache_item,xalloc<CLightShadows::cache_item> >::_Change_array
PUBLIC	?_Xlength@?$vector@Ucache_item@CLightShadows@@V?$xalloc@Ucache_item@CLightShadows@@@@@std@@CAXXZ ; std::vector<CLightShadows::cache_item,xalloc<CLightShadows::cache_item> >::_Xlength
PUBLIC	?_Seek_to@?$_Vector_const_iterator@V?$_Vector_val@U?$_Simple_types@Ucache_item@CLightShadows@@@std@@@std@@@std@@QAEXPBUcache_item@CLightShadows@@@Z ; std::_Vector_const_iterator<std::_Vector_val<std::_Simple_types<CLightShadows::cache_item> > >::_Seek_to
PUBLIC	??0?$_Uninitialized_backout_al@V?$xalloc@Utess_tri@CLightShadows@@@@@std@@QAE@PAUtess_tri@CLightShadows@@AAV?$xalloc@Utess_tri@CLightShadows@@@@@Z ; std::_Uninitialized_backout_al<xalloc<CLightShadows::tess_tri> >::_Uninitialized_backout_al<xalloc<CLightShadows::tess_tri> >
PUBLIC	??1?$_Uninitialized_backout_al@V?$xalloc@Utess_tri@CLightShadows@@@@@std@@QAE@XZ ; std::_Uninitialized_backout_al<xalloc<CLightShadows::tess_tri> >::~_Uninitialized_backout_al<xalloc<CLightShadows::tess_tri> >
PUBLIC	?_Release@?$_Uninitialized_backout_al@V?$xalloc@Utess_tri@CLightShadows@@@@@std@@QAEPAUtess_tri@CLightShadows@@XZ ; std::_Uninitialized_backout_al<xalloc<CLightShadows::tess_tri> >::_Release
PUBLIC	??0?$_Uninitialized_backout_al@V?$xalloc@Ushadow@CLightShadows@@@@@std@@QAE@PAUshadow@CLightShadows@@AAV?$xalloc@Ushadow@CLightShadows@@@@@Z ; std::_Uninitialized_backout_al<xalloc<CLightShadows::shadow> >::_Uninitialized_backout_al<xalloc<CLightShadows::shadow> >
PUBLIC	??1?$_Uninitialized_backout_al@V?$xalloc@Ushadow@CLightShadows@@@@@std@@QAE@XZ ; std::_Uninitialized_backout_al<xalloc<CLightShadows::shadow> >::~_Uninitialized_backout_al<xalloc<CLightShadows::shadow> >
PUBLIC	?_Release@?$_Uninitialized_backout_al@V?$xalloc@Ushadow@CLightShadows@@@@@std@@QAEPAUshadow@CLightShadows@@XZ ; std::_Uninitialized_backout_al<xalloc<CLightShadows::shadow> >::_Release
PUBLIC	??0?$_Uninitialized_backout_al@V?$xalloc@PAUcaster@CLightShadows@@@@@std@@QAE@PAPAUcaster@CLightShadows@@AAV?$xalloc@PAUcaster@CLightShadows@@@@@Z ; std::_Uninitialized_backout_al<xalloc<CLightShadows::caster *> >::_Uninitialized_backout_al<xalloc<CLightShadows::caster *> >
PUBLIC	??1?$_Uninitialized_backout_al@V?$xalloc@PAUcaster@CLightShadows@@@@@std@@QAE@XZ ; std::_Uninitialized_backout_al<xalloc<CLightShadows::caster *> >::~_Uninitialized_backout_al<xalloc<CLightShadows::caster *> >
PUBLIC	?_Release@?$_Uninitialized_backout_al@V?$xalloc@PAUcaster@CLightShadows@@@@@std@@QAEPAPAUcaster@CLightShadows@@XZ ; std::_Uninitialized_backout_al<xalloc<CLightShadows::caster *> >::_Release
PUBLIC	??0?$_Uninitialized_backout_al@V?$xalloc@U_MatrixItem@R_dsgraph@@@@@std@@QAE@PAU_MatrixItem@R_dsgraph@@AAV?$xalloc@U_MatrixItem@R_dsgraph@@@@@Z ; std::_Uninitialized_backout_al<xalloc<R_dsgraph::_MatrixItem> >::_Uninitialized_backout_al<xalloc<R_dsgraph::_MatrixItem> >
PUBLIC	??1?$_Uninitialized_backout_al@V?$xalloc@U_MatrixItem@R_dsgraph@@@@@std@@QAE@XZ ; std::_Uninitialized_backout_al<xalloc<R_dsgraph::_MatrixItem> >::~_Uninitialized_backout_al<xalloc<R_dsgraph::_MatrixItem> >
PUBLIC	?_Release@?$_Uninitialized_backout_al@V?$xalloc@U_MatrixItem@R_dsgraph@@@@@std@@QAEPAU_MatrixItem@R_dsgraph@@XZ ; std::_Uninitialized_backout_al<xalloc<R_dsgraph::_MatrixItem> >::_Release
PUBLIC	??$?0$$V@?$_Compressed_pair@V?$xalloc@U_MatrixItem@R_dsgraph@@@@V?$_Vector_val@U?$_Simple_types@U_MatrixItem@R_dsgraph@@@std@@@std@@$00@std@@QAE@U_Zero_then_variadic_args_t@1@@Z ; std::_Compressed_pair<xalloc<R_dsgraph::_MatrixItem>,std::_Vector_val<std::_Simple_types<R_dsgraph::_MatrixItem> >,1>::_Compressed_pair<xalloc<R_dsgraph::_MatrixItem>,std::_Vector_val<std::_Simple_types<R_dsgraph::_MatrixItem> >,1><>
PUBLIC	??$xr_alloc@U_MatrixItem@R_dsgraph@@@@YAPAU_MatrixItem@R_dsgraph@@I@Z ; xr_alloc<R_dsgraph::_MatrixItem>
PUBLIC	??$xr_free@U_MatrixItem@R_dsgraph@@@@YAXAAPAU_MatrixItem@R_dsgraph@@@Z ; xr_free<R_dsgraph::_MatrixItem>
PUBLIC	??$_Uninitialized_move@PAU_MatrixItem@R_dsgraph@@V?$xalloc@U_MatrixItem@R_dsgraph@@@@@std@@YAPAU_MatrixItem@R_dsgraph@@QAU12@0PAU12@AAV?$xalloc@U_MatrixItem@R_dsgraph@@@@@Z ; std::_Uninitialized_move<R_dsgraph::_MatrixItem *,xalloc<R_dsgraph::_MatrixItem> >
PUBLIC	??$xr_alloc@PAUcaster@CLightShadows@@@@YAPAPAUcaster@CLightShadows@@I@Z ; xr_alloc<CLightShadows::caster *>
PUBLIC	??$_Destroy_in_place@PAPAUcaster@CLightShadows@@@std@@YAXAAPAPAUcaster@CLightShadows@@@Z ; std::_Destroy_in_place<CLightShadows::caster * *>
PUBLIC	??$_Get_unwrapped@ABQAPAUcaster@CLightShadows@@@std@@YA?A_TABQAPAUcaster@CLightShadows@@@Z ; std::_Get_unwrapped<CLightShadows::caster * * const &>
PUBLIC	??$_Uninitialized_move@PAPAUcaster@CLightShadows@@V?$xalloc@PAUcaster@CLightShadows@@@@@std@@YAPAPAUcaster@CLightShadows@@QAPAU12@0PAPAU12@AAV?$xalloc@PAUcaster@CLightShadows@@@@@Z ; std::_Uninitialized_move<CLightShadows::caster * *,xalloc<CLightShadows::caster *> >
PUBLIC	??$xr_alloc@Ushadow@CLightShadows@@@@YAPAUshadow@CLightShadows@@I@Z ; xr_alloc<CLightShadows::shadow>
PUBLIC	??$_Get_unwrapped@ABQAUshadow@CLightShadows@@@std@@YA?A_TABQAUshadow@CLightShadows@@@Z ; std::_Get_unwrapped<CLightShadows::shadow * const &>
PUBLIC	??$_Uninitialized_move@PAUshadow@CLightShadows@@V?$xalloc@Ushadow@CLightShadows@@@@@std@@YAPAUshadow@CLightShadows@@QAU12@0PAU12@AAV?$xalloc@Ushadow@CLightShadows@@@@@Z ; std::_Uninitialized_move<CLightShadows::shadow *,xalloc<CLightShadows::shadow> >
PUBLIC	??$_Get_unwrapped@ABQAUtess_tri@CLightShadows@@@std@@YA?A_TABQAUtess_tri@CLightShadows@@@Z ; std::_Get_unwrapped<CLightShadows::tess_tri * const &>
PUBLIC	??$_Uninitialized_move@PAUtess_tri@CLightShadows@@V?$xalloc@Utess_tri@CLightShadows@@@@@std@@YAPAUtess_tri@CLightShadows@@QAU12@0PAU12@AAV?$xalloc@Utess_tri@CLightShadows@@@@@Z ; std::_Uninitialized_move<CLightShadows::tess_tri *,xalloc<CLightShadows::tess_tri> >
PUBLIC	??$_Destroy_in_place@PAUcache_item@CLightShadows@@@std@@YAXAAPAUcache_item@CLightShadows@@@Z ; std::_Destroy_in_place<CLightShadows::cache_item *>
PUBLIC	??$destroy@U_MatrixItem@R_dsgraph@@@?$_Normal_allocator_traits@V?$xalloc@U_MatrixItem@R_dsgraph@@@@@std@@SAXAAV?$xalloc@U_MatrixItem@R_dsgraph@@@@PAU_MatrixItem@R_dsgraph@@@Z ; std::_Normal_allocator_traits<xalloc<R_dsgraph::_MatrixItem> >::destroy<R_dsgraph::_MatrixItem>
PUBLIC	??$destroy@Ushadow@CLightShadows@@@?$_Normal_allocator_traits@V?$xalloc@Ushadow@CLightShadows@@@@@std@@SAXAAV?$xalloc@Ushadow@CLightShadows@@@@PAUshadow@CLightShadows@@@Z ; std::_Normal_allocator_traits<xalloc<CLightShadows::shadow> >::destroy<CLightShadows::shadow>
PUBLIC	??$destroy@Utess_tri@CLightShadows@@@?$_Normal_allocator_traits@V?$xalloc@Utess_tri@CLightShadows@@@@@std@@SAXAAV?$xalloc@Utess_tri@CLightShadows@@@@PAUtess_tri@CLightShadows@@@Z ; std::_Normal_allocator_traits<xalloc<CLightShadows::tess_tri> >::destroy<CLightShadows::tess_tri>
PUBLIC	??$_Emplace_reallocate@ABUcache_item@CLightShadows@@@?$vector@Ucache_item@CLightShadows@@V?$xalloc@Ucache_item@CLightShadows@@@@@std@@QAEPAUcache_item@CLightShadows@@QAU23@ABU23@@Z ; std::vector<CLightShadows::cache_item,xalloc<CLightShadows::cache_item> >::_Emplace_reallocate<CLightShadows::cache_item const &>
PUBLIC	??$_Move_backward_unchecked@PAUcache_item@CLightShadows@@PAU12@@std@@YAPAUcache_item@CLightShadows@@PAU12@00@Z ; std::_Move_backward_unchecked<CLightShadows::cache_item *,CLightShadows::cache_item *>
PUBLIC	??$construct@Ucache_item@CLightShadows@@U12@@?$_Normal_allocator_traits@V?$xalloc@Ucache_item@CLightShadows@@@@@std@@SAXAAV?$xalloc@Ucache_item@CLightShadows@@@@PAUcache_item@CLightShadows@@$$QAU34@@Z ; std::_Normal_allocator_traits<xalloc<CLightShadows::cache_item> >::construct<CLightShadows::cache_item,CLightShadows::cache_item>
PUBLIC	??$addressof@Ucache_item@CLightShadows@@@std@@YAPAUcache_item@CLightShadows@@AAU12@@Z ; std::addressof<CLightShadows::cache_item>
PUBLIC	??$?0ABUcache_item@CLightShadows@@@?$_Alloc_temporary2@V?$xalloc@Ucache_item@CLightShadows@@@@@std@@QAE@AAV?$xalloc@Ucache_item@CLightShadows@@@@ABUcache_item@CLightShadows@@@Z ; std::_Alloc_temporary2<xalloc<CLightShadows::cache_item> >::_Alloc_temporary2<xalloc<CLightShadows::cache_item> ><CLightShadows::cache_item const &>
PUBLIC	??$construct@Ucache_item@CLightShadows@@ABU12@@?$_Normal_allocator_traits@V?$xalloc@Ucache_item@CLightShadows@@@@@std@@SAXAAV?$xalloc@Ucache_item@CLightShadows@@@@PAUcache_item@CLightShadows@@ABU34@@Z ; std::_Normal_allocator_traits<xalloc<CLightShadows::cache_item> >::construct<CLightShadows::cache_item,CLightShadows::cache_item const &>
PUBLIC	??$forward@ABUcache_item@CLightShadows@@@std@@YAABUcache_item@CLightShadows@@ABU12@@Z ; std::forward<CLightShadows::cache_item const &>
PUBLIC	??$move@AAUcache_item@CLightShadows@@@std@@YA$$QAUcache_item@CLightShadows@@AAU12@@Z ; std::move<CLightShadows::cache_item &>
PUBLIC	??$_To_address@PAUcache_item@CLightShadows@@@std@@YA?A_PABQAUcache_item@CLightShadows@@@Z ; std::_To_address<CLightShadows::cache_item *>
PUBLIC	??$_Copy_memmove@PAUcache_item@CLightShadows@@PAU12@@std@@YAPAUcache_item@CLightShadows@@PAU12@00@Z ; std::_Copy_memmove<CLightShadows::cache_item *,CLightShadows::cache_item *>
PUBLIC	??$_Seek_wrapped@V?$_Vector_iterator@V?$_Vector_val@U?$_Simple_types@Ucache_item@CLightShadows@@@std@@@std@@@std@@AAPAUcache_item@CLightShadows@@@std@@YAXAAV?$_Vector_iterator@V?$_Vector_val@U?$_Simple_types@Ucache_item@CLightShadows@@@std@@@std@@@0@AAPAUcache_item@CLightShadows@@@Z ; std::_Seek_wrapped<std::_Vector_iterator<std::_Vector_val<std::_Simple_types<CLightShadows::cache_item> > >,CLightShadows::cache_item * &>
PUBLIC	??$_Next_iter@PAUcache_item@CLightShadows@@@std@@YAPAUcache_item@CLightShadows@@PAU12@@Z ; std::_Next_iter<CLightShadows::cache_item *>
PUBLIC	??$next@PAUcache_item@CLightShadows@@@std@@YAPAUcache_item@CLightShadows@@PAU12@H@Z ; std::next<CLightShadows::cache_item *>
PUBLIC	??$distance@PAUcache_item@CLightShadows@@@std@@YAHPAUcache_item@CLightShadows@@0@Z ; std::distance<CLightShadows::cache_item *>
PUBLIC	??$_Adl_verify_range@V?$_Vector_iterator@V?$_Vector_val@U?$_Simple_types@Ucache_item@CLightShadows@@@std@@@std@@@std@@V12@@std@@YAXABV?$_Vector_iterator@V?$_Vector_val@U?$_Simple_types@Ucache_item@CLightShadows@@@std@@@std@@@0@0@Z ; std::_Adl_verify_range<std::_Vector_iterator<std::_Vector_val<std::_Simple_types<CLightShadows::cache_item> > >,std::_Vector_iterator<std::_Vector_val<std::_Simple_types<CLightShadows::cache_item> > > >
PUBLIC	?max_size@?$xalloc@U_MatrixItem@R_dsgraph@@@@QBEIXZ ; xalloc<R_dsgraph::_MatrixItem>::max_size
PUBLIC	?_Get_first@?$_Compressed_pair@V?$xalloc@U_MatrixItem@R_dsgraph@@@@V?$_Vector_val@U?$_Simple_types@U_MatrixItem@R_dsgraph@@@std@@@std@@$00@std@@QBEABV?$xalloc@U_MatrixItem@R_dsgraph@@@@XZ ; std::_Compressed_pair<xalloc<R_dsgraph::_MatrixItem>,std::_Vector_val<std::_Simple_types<R_dsgraph::_MatrixItem> >,1>::_Get_first
PUBLIC	?max_size@?$xalloc@PAUcaster@CLightShadows@@@@QBEIXZ ; xalloc<CLightShadows::caster *>::max_size
PUBLIC	?_Get_first@?$_Compressed_pair@V?$xalloc@PAUcaster@CLightShadows@@@@V?$_Vector_val@U?$_Simple_types@PAUcaster@CLightShadows@@@std@@@std@@$00@std@@QBEABV?$xalloc@PAUcaster@CLightShadows@@@@XZ ; std::_Compressed_pair<xalloc<CLightShadows::caster *>,std::_Vector_val<std::_Simple_types<CLightShadows::caster *> >,1>::_Get_first
PUBLIC	?max_size@?$xalloc@Ushadow@CLightShadows@@@@QBEIXZ ; xalloc<CLightShadows::shadow>::max_size
PUBLIC	?_Get_first@?$_Compressed_pair@V?$xalloc@Ushadow@CLightShadows@@@@V?$_Vector_val@U?$_Simple_types@Ushadow@CLightShadows@@@std@@@std@@$00@std@@QBEABV?$xalloc@Ushadow@CLightShadows@@@@XZ ; std::_Compressed_pair<xalloc<CLightShadows::shadow>,std::_Vector_val<std::_Simple_types<CLightShadows::shadow> >,1>::_Get_first
PUBLIC	?max_size@?$xalloc@Utess_tri@CLightShadows@@@@QBEIXZ ; xalloc<CLightShadows::tess_tri>::max_size
PUBLIC	?_Get_first@?$_Compressed_pair@V?$xalloc@Utess_tri@CLightShadows@@@@V?$_Vector_val@U?$_Simple_types@Utess_tri@CLightShadows@@@std@@@std@@$00@std@@QBEABV?$xalloc@Utess_tri@CLightShadows@@@@XZ ; std::_Compressed_pair<xalloc<CLightShadows::tess_tri>,std::_Vector_val<std::_Simple_types<CLightShadows::tess_tri> >,1>::_Get_first
PUBLIC	?max_size@?$_Normal_allocator_traits@V?$xalloc@U_MatrixItem@R_dsgraph@@@@@std@@SAIABV?$xalloc@U_MatrixItem@R_dsgraph@@@@@Z ; std::_Normal_allocator_traits<xalloc<R_dsgraph::_MatrixItem> >::max_size
PUBLIC	??0?$vector@U_MatrixItem@R_dsgraph@@V?$xalloc@U_MatrixItem@R_dsgraph@@@@@std@@QAE@XZ ; std::vector<R_dsgraph::_MatrixItem,xalloc<R_dsgraph::_MatrixItem> >::vector<R_dsgraph::_MatrixItem,xalloc<R_dsgraph::_MatrixItem> >
PUBLIC	?capacity@?$vector@U_MatrixItem@R_dsgraph@@V?$xalloc@U_MatrixItem@R_dsgraph@@@@@std@@QBEIXZ ; std::vector<R_dsgraph::_MatrixItem,xalloc<R_dsgraph::_MatrixItem> >::capacity
PUBLIC	?_Umove_if_noexcept1@?$vector@U_MatrixItem@R_dsgraph@@V?$xalloc@U_MatrixItem@R_dsgraph@@@@@std@@AAEXPAU_MatrixItem@R_dsgraph@@00U?$integral_constant@_N$00@2@@Z ; std::vector<R_dsgraph::_MatrixItem,xalloc<R_dsgraph::_MatrixItem> >::_Umove_if_noexcept1
PUBLIC	?_Tidy@?$vector@U_MatrixItem@R_dsgraph@@V?$xalloc@U_MatrixItem@R_dsgraph@@@@@std@@AAEXXZ ; std::vector<R_dsgraph::_MatrixItem,xalloc<R_dsgraph::_MatrixItem> >::_Tidy
PUBLIC	?_Getal@?$vector@U_MatrixItem@R_dsgraph@@V?$xalloc@U_MatrixItem@R_dsgraph@@@@@std@@ABEABV?$xalloc@U_MatrixItem@R_dsgraph@@@@XZ ; std::vector<R_dsgraph::_MatrixItem,xalloc<R_dsgraph::_MatrixItem> >::_Getal
PUBLIC	?max_size@?$_Normal_allocator_traits@V?$xalloc@PAUcaster@CLightShadows@@@@@std@@SAIABV?$xalloc@PAUcaster@CLightShadows@@@@@Z ; std::_Normal_allocator_traits<xalloc<CLightShadows::caster *> >::max_size
PUBLIC	?capacity@?$vector@PAUcaster@CLightShadows@@V?$xalloc@PAUcaster@CLightShadows@@@@@std@@QBEIXZ ; std::vector<CLightShadows::caster *,xalloc<CLightShadows::caster *> >::capacity
PUBLIC	?_Umove_if_noexcept1@?$vector@PAUcaster@CLightShadows@@V?$xalloc@PAUcaster@CLightShadows@@@@@std@@AAEXPAPAUcaster@CLightShadows@@00U?$integral_constant@_N$00@2@@Z ; std::vector<CLightShadows::caster *,xalloc<CLightShadows::caster *> >::_Umove_if_noexcept1
PUBLIC	?_Getal@?$vector@PAUcaster@CLightShadows@@V?$xalloc@PAUcaster@CLightShadows@@@@@std@@ABEABV?$xalloc@PAUcaster@CLightShadows@@@@XZ ; std::vector<CLightShadows::caster *,xalloc<CLightShadows::caster *> >::_Getal
PUBLIC	?max_size@?$_Normal_allocator_traits@V?$xalloc@Ushadow@CLightShadows@@@@@std@@SAIABV?$xalloc@Ushadow@CLightShadows@@@@@Z ; std::_Normal_allocator_traits<xalloc<CLightShadows::shadow> >::max_size
PUBLIC	?capacity@?$vector@Ushadow@CLightShadows@@V?$xalloc@Ushadow@CLightShadows@@@@@std@@QBEIXZ ; std::vector<CLightShadows::shadow,xalloc<CLightShadows::shadow> >::capacity
PUBLIC	?_Umove_if_noexcept1@?$vector@Ushadow@CLightShadows@@V?$xalloc@Ushadow@CLightShadows@@@@@std@@AAEXPAUshadow@CLightShadows@@00U?$integral_constant@_N$00@2@@Z ; std::vector<CLightShadows::shadow,xalloc<CLightShadows::shadow> >::_Umove_if_noexcept1
PUBLIC	?_Getal@?$vector@Ushadow@CLightShadows@@V?$xalloc@Ushadow@CLightShadows@@@@@std@@ABEABV?$xalloc@Ushadow@CLightShadows@@@@XZ ; std::vector<CLightShadows::shadow,xalloc<CLightShadows::shadow> >::_Getal
PUBLIC	?max_size@?$_Normal_allocator_traits@V?$xalloc@Utess_tri@CLightShadows@@@@@std@@SAIABV?$xalloc@Utess_tri@CLightShadows@@@@@Z ; std::_Normal_allocator_traits<xalloc<CLightShadows::tess_tri> >::max_size
PUBLIC	?capacity@?$vector@Utess_tri@CLightShadows@@V?$xalloc@Utess_tri@CLightShadows@@@@@std@@QBEIXZ ; std::vector<CLightShadows::tess_tri,xalloc<CLightShadows::tess_tri> >::capacity
PUBLIC	?_Umove_if_noexcept1@?$vector@Utess_tri@CLightShadows@@V?$xalloc@Utess_tri@CLightShadows@@@@@std@@AAEXPAUtess_tri@CLightShadows@@00U?$integral_constant@_N$00@2@@Z ; std::vector<CLightShadows::tess_tri,xalloc<CLightShadows::tess_tri> >::_Umove_if_noexcept1
PUBLIC	?_Getal@?$vector@Utess_tri@CLightShadows@@V?$xalloc@Utess_tri@CLightShadows@@@@@std@@ABEABV?$xalloc@Utess_tri@CLightShadows@@@@XZ ; std::vector<CLightShadows::tess_tri,xalloc<CLightShadows::tess_tri> >::_Getal
PUBLIC	??1caster@CLightShadows@@QAE@XZ			; CLightShadows::caster::~caster
PUBLIC	??_Gcaster@CLightShadows@@QAEPAXI@Z		; CLightShadows::caster::`scalar deleting destructor'
PUBLIC	?allocate@?$xalloc@U_MatrixItem@R_dsgraph@@@@QBEPAU_MatrixItem@R_dsgraph@@IPBX@Z ; xalloc<R_dsgraph::_MatrixItem>::allocate
PUBLIC	?deallocate@?$xalloc@U_MatrixItem@R_dsgraph@@@@QBEXPAU_MatrixItem@R_dsgraph@@I@Z ; xalloc<R_dsgraph::_MatrixItem>::deallocate
PUBLIC	?construct@?$xalloc@U_MatrixItem@R_dsgraph@@@@QAEXPAU_MatrixItem@R_dsgraph@@ABU23@@Z ; xalloc<R_dsgraph::_MatrixItem>::construct
PUBLIC	??1?$vector@U_MatrixItem@R_dsgraph@@V?$xalloc@U_MatrixItem@R_dsgraph@@@@@std@@QAE@XZ ; std::vector<R_dsgraph::_MatrixItem,xalloc<R_dsgraph::_MatrixItem> >::~vector<R_dsgraph::_MatrixItem,xalloc<R_dsgraph::_MatrixItem> >
PUBLIC	?max_size@?$vector@U_MatrixItem@R_dsgraph@@V?$xalloc@U_MatrixItem@R_dsgraph@@@@@std@@QBEIXZ ; std::vector<R_dsgraph::_MatrixItem,xalloc<R_dsgraph::_MatrixItem> >::max_size
PUBLIC	?_Umove@?$vector@U_MatrixItem@R_dsgraph@@V?$xalloc@U_MatrixItem@R_dsgraph@@@@@std@@AAEPAU_MatrixItem@R_dsgraph@@PAU34@00@Z ; std::vector<R_dsgraph::_MatrixItem,xalloc<R_dsgraph::_MatrixItem> >::_Umove
PUBLIC	?_Umove_if_noexcept@?$vector@U_MatrixItem@R_dsgraph@@V?$xalloc@U_MatrixItem@R_dsgraph@@@@@std@@AAEXPAU_MatrixItem@R_dsgraph@@00@Z ; std::vector<R_dsgraph::_MatrixItem,xalloc<R_dsgraph::_MatrixItem> >::_Umove_if_noexcept
PUBLIC	?_Calculate_growth@?$vector@U_MatrixItem@R_dsgraph@@V?$xalloc@U_MatrixItem@R_dsgraph@@@@@std@@ABEII@Z ; std::vector<R_dsgraph::_MatrixItem,xalloc<R_dsgraph::_MatrixItem> >::_Calculate_growth
PUBLIC	?_Change_array@?$vector@U_MatrixItem@R_dsgraph@@V?$xalloc@U_MatrixItem@R_dsgraph@@@@@std@@AAEXQAU_MatrixItem@R_dsgraph@@II@Z ; std::vector<R_dsgraph::_MatrixItem,xalloc<R_dsgraph::_MatrixItem> >::_Change_array
PUBLIC	?_Xlength@?$vector@U_MatrixItem@R_dsgraph@@V?$xalloc@U_MatrixItem@R_dsgraph@@@@@std@@CAXXZ ; std::vector<R_dsgraph::_MatrixItem,xalloc<R_dsgraph::_MatrixItem> >::_Xlength
PUBLIC	??0?$xr_vector@U_MatrixItem@R_dsgraph@@V?$xalloc@U_MatrixItem@R_dsgraph@@@@@@QAE@XZ ; xr_vector<R_dsgraph::_MatrixItem,xalloc<R_dsgraph::_MatrixItem> >::xr_vector<R_dsgraph::_MatrixItem,xalloc<R_dsgraph::_MatrixItem> >
PUBLIC	??0?$xalloc@PAUcaster@CLightShadows@@@@QAE@XZ	; xalloc<CLightShadows::caster *>::xalloc<CLightShadows::caster *>
PUBLIC	?allocate@?$xalloc@PAUcaster@CLightShadows@@@@QBEPAPAUcaster@CLightShadows@@IPBX@Z ; xalloc<CLightShadows::caster *>::allocate
PUBLIC	?construct@?$xalloc@PAUcaster@CLightShadows@@@@QAEXPAPAUcaster@CLightShadows@@ABQAU23@@Z ; xalloc<CLightShadows::caster *>::construct
PUBLIC	?destroy@?$xalloc@PAUcaster@CLightShadows@@@@QAEXPAPAUcaster@CLightShadows@@@Z ; xalloc<CLightShadows::caster *>::destroy
PUBLIC	?max_size@?$vector@PAUcaster@CLightShadows@@V?$xalloc@PAUcaster@CLightShadows@@@@@std@@QBEIXZ ; std::vector<CLightShadows::caster *,xalloc<CLightShadows::caster *> >::max_size
PUBLIC	?_Umove@?$vector@PAUcaster@CLightShadows@@V?$xalloc@PAUcaster@CLightShadows@@@@@std@@AAEPAPAUcaster@CLightShadows@@PAPAU34@00@Z ; std::vector<CLightShadows::caster *,xalloc<CLightShadows::caster *> >::_Umove
PUBLIC	?_Umove_if_noexcept@?$vector@PAUcaster@CLightShadows@@V?$xalloc@PAUcaster@CLightShadows@@@@@std@@AAEXPAPAUcaster@CLightShadows@@00@Z ; std::vector<CLightShadows::caster *,xalloc<CLightShadows::caster *> >::_Umove_if_noexcept
PUBLIC	?_Calculate_growth@?$vector@PAUcaster@CLightShadows@@V?$xalloc@PAUcaster@CLightShadows@@@@@std@@ABEII@Z ; std::vector<CLightShadows::caster *,xalloc<CLightShadows::caster *> >::_Calculate_growth
PUBLIC	?_Change_array@?$vector@PAUcaster@CLightShadows@@V?$xalloc@PAUcaster@CLightShadows@@@@@std@@AAEXQAPAUcaster@CLightShadows@@II@Z ; std::vector<CLightShadows::caster *,xalloc<CLightShadows::caster *> >::_Change_array
PUBLIC	?_Xlength@?$vector@PAUcaster@CLightShadows@@V?$xalloc@PAUcaster@CLightShadows@@@@@std@@CAXXZ ; std::vector<CLightShadows::caster *,xalloc<CLightShadows::caster *> >::_Xlength
PUBLIC	??0?$_Vector_val@U?$_Simple_types@PAUcaster@CLightShadows@@@std@@@std@@QAE@XZ ; std::_Vector_val<std::_Simple_types<CLightShadows::caster *> >::_Vector_val<std::_Simple_types<CLightShadows::caster *> >
PUBLIC	??0?$xalloc@Ushadow@CLightShadows@@@@QAE@XZ	; xalloc<CLightShadows::shadow>::xalloc<CLightShadows::shadow>
PUBLIC	?allocate@?$xalloc@Ushadow@CLightShadows@@@@QBEPAUshadow@CLightShadows@@IPBX@Z ; xalloc<CLightShadows::shadow>::allocate
PUBLIC	?construct@?$xalloc@Ushadow@CLightShadows@@@@QAEXPAUshadow@CLightShadows@@ABU23@@Z ; xalloc<CLightShadows::shadow>::construct
PUBLIC	?max_size@?$vector@Ushadow@CLightShadows@@V?$xalloc@Ushadow@CLightShadows@@@@@std@@QBEIXZ ; std::vector<CLightShadows::shadow,xalloc<CLightShadows::shadow> >::max_size
PUBLIC	?_Umove@?$vector@Ushadow@CLightShadows@@V?$xalloc@Ushadow@CLightShadows@@@@@std@@AAEPAUshadow@CLightShadows@@PAU34@00@Z ; std::vector<CLightShadows::shadow,xalloc<CLightShadows::shadow> >::_Umove
PUBLIC	?_Umove_if_noexcept@?$vector@Ushadow@CLightShadows@@V?$xalloc@Ushadow@CLightShadows@@@@@std@@AAEXPAUshadow@CLightShadows@@00@Z ; std::vector<CLightShadows::shadow,xalloc<CLightShadows::shadow> >::_Umove_if_noexcept
PUBLIC	?_Calculate_growth@?$vector@Ushadow@CLightShadows@@V?$xalloc@Ushadow@CLightShadows@@@@@std@@ABEII@Z ; std::vector<CLightShadows::shadow,xalloc<CLightShadows::shadow> >::_Calculate_growth
PUBLIC	?_Change_array@?$vector@Ushadow@CLightShadows@@V?$xalloc@Ushadow@CLightShadows@@@@@std@@AAEXQAUshadow@CLightShadows@@II@Z ; std::vector<CLightShadows::shadow,xalloc<CLightShadows::shadow> >::_Change_array
PUBLIC	?_Xlength@?$vector@Ushadow@CLightShadows@@V?$xalloc@Ushadow@CLightShadows@@@@@std@@CAXXZ ; std::vector<CLightShadows::shadow,xalloc<CLightShadows::shadow> >::_Xlength
PUBLIC	??0?$_Vector_val@U?$_Simple_types@Ushadow@CLightShadows@@@std@@@std@@QAE@XZ ; std::_Vector_val<std::_Simple_types<CLightShadows::shadow> >::_Vector_val<std::_Simple_types<CLightShadows::shadow> >
PUBLIC	??0?$xalloc@Utess_tri@CLightShadows@@@@QAE@XZ	; xalloc<CLightShadows::tess_tri>::xalloc<CLightShadows::tess_tri>
PUBLIC	?allocate@?$xalloc@Utess_tri@CLightShadows@@@@QBEPAUtess_tri@CLightShadows@@IPBX@Z ; xalloc<CLightShadows::tess_tri>::allocate
PUBLIC	?construct@?$xalloc@Utess_tri@CLightShadows@@@@QAEXPAUtess_tri@CLightShadows@@ABU23@@Z ; xalloc<CLightShadows::tess_tri>::construct
PUBLIC	?max_size@?$vector@Utess_tri@CLightShadows@@V?$xalloc@Utess_tri@CLightShadows@@@@@std@@QBEIXZ ; std::vector<CLightShadows::tess_tri,xalloc<CLightShadows::tess_tri> >::max_size
PUBLIC	?_Umove@?$vector@Utess_tri@CLightShadows@@V?$xalloc@Utess_tri@CLightShadows@@@@@std@@AAEPAUtess_tri@CLightShadows@@PAU34@00@Z ; std::vector<CLightShadows::tess_tri,xalloc<CLightShadows::tess_tri> >::_Umove
PUBLIC	?_Umove_if_noexcept@?$vector@Utess_tri@CLightShadows@@V?$xalloc@Utess_tri@CLightShadows@@@@@std@@AAEXPAUtess_tri@CLightShadows@@00@Z ; std::vector<CLightShadows::tess_tri,xalloc<CLightShadows::tess_tri> >::_Umove_if_noexcept
PUBLIC	?_Calculate_growth@?$vector@Utess_tri@CLightShadows@@V?$xalloc@Utess_tri@CLightShadows@@@@@std@@ABEII@Z ; std::vector<CLightShadows::tess_tri,xalloc<CLightShadows::tess_tri> >::_Calculate_growth
PUBLIC	?_Change_array@?$vector@Utess_tri@CLightShadows@@V?$xalloc@Utess_tri@CLightShadows@@@@@std@@AAEXQAUtess_tri@CLightShadows@@II@Z ; std::vector<CLightShadows::tess_tri,xalloc<CLightShadows::tess_tri> >::_Change_array
PUBLIC	?_Xlength@?$vector@Utess_tri@CLightShadows@@V?$xalloc@Utess_tri@CLightShadows@@@@@std@@CAXXZ ; std::vector<CLightShadows::tess_tri,xalloc<CLightShadows::tess_tri> >::_Xlength
PUBLIC	??0?$_Vector_val@U?$_Simple_types@Utess_tri@CLightShadows@@@std@@@std@@QAE@XZ ; std::_Vector_val<std::_Simple_types<CLightShadows::tess_tri> >::_Vector_val<std::_Simple_types<CLightShadows::tess_tri> >
PUBLIC	??0?$xalloc@Ucache_item@CLightShadows@@@@QAE@XZ	; xalloc<CLightShadows::cache_item>::xalloc<CLightShadows::cache_item>
PUBLIC	?destroy@?$xalloc@Ucache_item@CLightShadows@@@@QAEXPAUcache_item@CLightShadows@@@Z ; xalloc<CLightShadows::cache_item>::destroy
PUBLIC	?_Make_iterator@?$vector@Ucache_item@CLightShadows@@V?$xalloc@Ucache_item@CLightShadows@@@@@std@@AAE?AV?$_Vector_iterator@V?$_Vector_val@U?$_Simple_types@Ucache_item@CLightShadows@@@std@@@std@@@2@QAUcache_item@CLightShadows@@@Z ; std::vector<CLightShadows::cache_item,xalloc<CLightShadows::cache_item> >::_Make_iterator
PUBLIC	??0?$_Vector_val@U?$_Simple_types@Ucache_item@CLightShadows@@@std@@@std@@QAE@XZ ; std::_Vector_val<std::_Simple_types<CLightShadows::cache_item> >::_Vector_val<std::_Simple_types<CLightShadows::cache_item> >
PUBLIC	?_Unwrapped@?$_Vector_iterator@V?$_Vector_val@U?$_Simple_types@Ucache_item@CLightShadows@@@std@@@std@@@std@@QBEPAUcache_item@CLightShadows@@XZ ; std::_Vector_iterator<std::_Vector_val<std::_Simple_types<CLightShadows::cache_item> > >::_Unwrapped
PUBLIC	??R?$xr_special_free@$0A@Ucaster@CLightShadows@@@@QAEXAAPAUcaster@CLightShadows@@@Z ; xr_special_free<0,CLightShadows::caster>::operator()
PUBLIC	?_Get_value@?$_Alloc_temporary2@V?$xalloc@Ucache_item@CLightShadows@@@@@std@@QAEAAUcache_item@CLightShadows@@XZ ; std::_Alloc_temporary2<xalloc<CLightShadows::cache_item> >::_Get_value
PUBLIC	??1?$_Alloc_temporary2@V?$xalloc@Ucache_item@CLightShadows@@@@@std@@QAE@XZ ; std::_Alloc_temporary2<xalloc<CLightShadows::cache_item> >::~_Alloc_temporary2<xalloc<CLightShadows::cache_item> >
PUBLIC	??1?$xr_vector@U_MatrixItem@R_dsgraph@@V?$xalloc@U_MatrixItem@R_dsgraph@@@@@@QAE@XZ ; xr_vector<R_dsgraph::_MatrixItem,xalloc<R_dsgraph::_MatrixItem> >::~xr_vector<R_dsgraph::_MatrixItem,xalloc<R_dsgraph::_MatrixItem> >
PUBLIC	??0caster@CLightShadows@@QAE@XZ			; CLightShadows::caster::caster
PUBLIC	??$_Destroy_range@V?$xalloc@U_MatrixItem@R_dsgraph@@@@@std@@YAXPAU_MatrixItem@R_dsgraph@@QAU12@AAV?$xalloc@U_MatrixItem@R_dsgraph@@@@@Z ; std::_Destroy_range<xalloc<R_dsgraph::_MatrixItem> >
PUBLIC	??$xr_free@PAUcaster@CLightShadows@@@@YAXAAPAPAUcaster@CLightShadows@@@Z ; xr_free<CLightShadows::caster *>
PUBLIC	??$_Destroy_range@V?$xalloc@PAUcaster@CLightShadows@@@@@std@@YAXPAPAUcaster@CLightShadows@@QAPAU12@AAV?$xalloc@PAUcaster@CLightShadows@@@@@Z ; std::_Destroy_range<xalloc<CLightShadows::caster *> >
PUBLIC	??$xr_free@Ushadow@CLightShadows@@@@YAXAAPAUshadow@CLightShadows@@@Z ; xr_free<CLightShadows::shadow>
PUBLIC	??$_Destroy_range@V?$xalloc@Ushadow@CLightShadows@@@@@std@@YAXPAUshadow@CLightShadows@@QAU12@AAV?$xalloc@Ushadow@CLightShadows@@@@@Z ; std::_Destroy_range<xalloc<CLightShadows::shadow> >
PUBLIC	??$_Destroy_range@V?$xalloc@Utess_tri@CLightShadows@@@@@std@@YAXPAUtess_tri@CLightShadows@@QAU12@AAV?$xalloc@Utess_tri@CLightShadows@@@@@Z ; std::_Destroy_range<xalloc<CLightShadows::tess_tri> >
PUBLIC	??$xr_free@Ucache_item@CLightShadows@@@@YAXAAPAUcache_item@CLightShadows@@@Z ; xr_free<CLightShadows::cache_item>
PUBLIC	??$_Destroy_range@V?$xalloc@Ucache_item@CLightShadows@@@@@std@@YAXPAUcache_item@CLightShadows@@QAU12@AAV?$xalloc@Ucache_item@CLightShadows@@@@@Z ; std::_Destroy_range<xalloc<CLightShadows::cache_item> >
PUBLIC	??$?0$$V@?$_Compressed_pair@V?$xalloc@PAUcaster@CLightShadows@@@@V?$_Vector_val@U?$_Simple_types@PAUcaster@CLightShadows@@@std@@@std@@$00@std@@QAE@U_Zero_then_variadic_args_t@1@@Z ; std::_Compressed_pair<xalloc<CLightShadows::caster *>,std::_Vector_val<std::_Simple_types<CLightShadows::caster *> >,1>::_Compressed_pair<xalloc<CLightShadows::caster *>,std::_Vector_val<std::_Simple_types<CLightShadows::caster *> >,1><>
PUBLIC	??$addressof@V?$_Vector_val@U?$_Simple_types@PAUcaster@CLightShadows@@@std@@@std@@@std@@YAPAV?$_Vector_val@U?$_Simple_types@PAUcaster@CLightShadows@@@std@@@0@AAV10@@Z ; std::addressof<std::_Vector_val<std::_Simple_types<CLightShadows::caster *> > >
PUBLIC	??$?0$$V@?$_Compressed_pair@V?$xalloc@Ushadow@CLightShadows@@@@V?$_Vector_val@U?$_Simple_types@Ushadow@CLightShadows@@@std@@@std@@$00@std@@QAE@U_Zero_then_variadic_args_t@1@@Z ; std::_Compressed_pair<xalloc<CLightShadows::shadow>,std::_Vector_val<std::_Simple_types<CLightShadows::shadow> >,1>::_Compressed_pair<xalloc<CLightShadows::shadow>,std::_Vector_val<std::_Simple_types<CLightShadows::shadow> >,1><>
PUBLIC	??$addressof@V?$_Vector_val@U?$_Simple_types@Ushadow@CLightShadows@@@std@@@std@@@std@@YAPAV?$_Vector_val@U?$_Simple_types@Ushadow@CLightShadows@@@std@@@0@AAV10@@Z ; std::addressof<std::_Vector_val<std::_Simple_types<CLightShadows::shadow> > >
PUBLIC	??$?0$$V@?$_Compressed_pair@V?$xalloc@Utess_tri@CLightShadows@@@@V?$_Vector_val@U?$_Simple_types@Utess_tri@CLightShadows@@@std@@@std@@$00@std@@QAE@U_Zero_then_variadic_args_t@1@@Z ; std::_Compressed_pair<xalloc<CLightShadows::tess_tri>,std::_Vector_val<std::_Simple_types<CLightShadows::tess_tri> >,1>::_Compressed_pair<xalloc<CLightShadows::tess_tri>,std::_Vector_val<std::_Simple_types<CLightShadows::tess_tri> >,1><>
PUBLIC	??$?0$$V@?$_Compressed_pair@V?$xalloc@Ucache_item@CLightShadows@@@@V?$_Vector_val@U?$_Simple_types@Ucache_item@CLightShadows@@@std@@@std@@$00@std@@QAE@U_Zero_then_variadic_args_t@1@@Z ; std::_Compressed_pair<xalloc<CLightShadows::cache_item>,std::_Vector_val<std::_Simple_types<CLightShadows::cache_item> >,1>::_Compressed_pair<xalloc<CLightShadows::cache_item>,std::_Vector_val<std::_Simple_types<CLightShadows::cache_item> >,1><>
PUBLIC	??$_Emplace_reallocate@ABU_MatrixItem@R_dsgraph@@@?$vector@U_MatrixItem@R_dsgraph@@V?$xalloc@U_MatrixItem@R_dsgraph@@@@@std@@QAEPAU_MatrixItem@R_dsgraph@@QAU23@ABU23@@Z ; std::vector<R_dsgraph::_MatrixItem,xalloc<R_dsgraph::_MatrixItem> >::_Emplace_reallocate<R_dsgraph::_MatrixItem const &>
PUBLIC	??$construct@U_MatrixItem@R_dsgraph@@ABU12@@?$_Normal_allocator_traits@V?$xalloc@U_MatrixItem@R_dsgraph@@@@@std@@SAXAAV?$xalloc@U_MatrixItem@R_dsgraph@@@@PAU_MatrixItem@R_dsgraph@@ABU34@@Z ; std::_Normal_allocator_traits<xalloc<R_dsgraph::_MatrixItem> >::construct<R_dsgraph::_MatrixItem,R_dsgraph::_MatrixItem const &>
PUBLIC	??$_Emplace_reallocate@ABQAUcaster@CLightShadows@@@?$vector@PAUcaster@CLightShadows@@V?$xalloc@PAUcaster@CLightShadows@@@@@std@@QAEPAPAUcaster@CLightShadows@@QAPAU23@ABQAU23@@Z ; std::vector<CLightShadows::caster *,xalloc<CLightShadows::caster *> >::_Emplace_reallocate<CLightShadows::caster * const &>
PUBLIC	??$construct@PAUcaster@CLightShadows@@ABQAU12@@?$_Normal_allocator_traits@V?$xalloc@PAUcaster@CLightShadows@@@@@std@@SAXAAV?$xalloc@PAUcaster@CLightShadows@@@@PAPAUcaster@CLightShadows@@ABQAU34@@Z ; std::_Normal_allocator_traits<xalloc<CLightShadows::caster *> >::construct<CLightShadows::caster *,CLightShadows::caster * const &>
PUBLIC	??$forward@ABQAUcaster@CLightShadows@@@std@@YAABQAUcaster@CLightShadows@@ABQAU12@@Z ; std::forward<CLightShadows::caster * const &>
PUBLIC	??$destroy@PAUcaster@CLightShadows@@@?$_Normal_allocator_traits@V?$xalloc@PAUcaster@CLightShadows@@@@@std@@SAXAAV?$xalloc@PAUcaster@CLightShadows@@@@PAPAUcaster@CLightShadows@@@Z ; std::_Normal_allocator_traits<xalloc<CLightShadows::caster *> >::destroy<CLightShadows::caster *>
PUBLIC	??$_Unfancy@PAUcaster@CLightShadows@@@std@@YAPAPAUcaster@CLightShadows@@PAPAU12@@Z ; std::_Unfancy<CLightShadows::caster *>
PUBLIC	??$_Emplace_reallocate@Ushadow@CLightShadows@@@?$vector@Ushadow@CLightShadows@@V?$xalloc@Ushadow@CLightShadows@@@@@std@@QAEPAUshadow@CLightShadows@@QAU23@$$QAU23@@Z ; std::vector<CLightShadows::shadow,xalloc<CLightShadows::shadow> >::_Emplace_reallocate<CLightShadows::shadow>
PUBLIC	??$construct@Ushadow@CLightShadows@@U12@@?$_Normal_allocator_traits@V?$xalloc@Ushadow@CLightShadows@@@@@std@@SAXAAV?$xalloc@Ushadow@CLightShadows@@@@PAUshadow@CLightShadows@@$$QAU34@@Z ; std::_Normal_allocator_traits<xalloc<CLightShadows::shadow> >::construct<CLightShadows::shadow,CLightShadows::shadow>
PUBLIC	??$_Unfancy@Ushadow@CLightShadows@@@std@@YAPAUshadow@CLightShadows@@PAU12@@Z ; std::_Unfancy<CLightShadows::shadow>
PUBLIC	??$forward@Ushadow@CLightShadows@@@std@@YA$$QAUshadow@CLightShadows@@AAU12@@Z ; std::forward<CLightShadows::shadow>
PUBLIC	??$move@AAUshadow@CLightShadows@@@std@@YA$$QAUshadow@CLightShadows@@AAU12@@Z ; std::move<CLightShadows::shadow &>
PUBLIC	??$_Emplace_reallocate@Utess_tri@CLightShadows@@@?$vector@Utess_tri@CLightShadows@@V?$xalloc@Utess_tri@CLightShadows@@@@@std@@QAEPAUtess_tri@CLightShadows@@QAU23@$$QAU23@@Z ; std::vector<CLightShadows::tess_tri,xalloc<CLightShadows::tess_tri> >::_Emplace_reallocate<CLightShadows::tess_tri>
PUBLIC	??$construct@Utess_tri@CLightShadows@@U12@@?$_Normal_allocator_traits@V?$xalloc@Utess_tri@CLightShadows@@@@@std@@SAXAAV?$xalloc@Utess_tri@CLightShadows@@@@PAUtess_tri@CLightShadows@@$$QAU34@@Z ; std::_Normal_allocator_traits<xalloc<CLightShadows::tess_tri> >::construct<CLightShadows::tess_tri,CLightShadows::tess_tri>
PUBLIC	??$_Unfancy@Utess_tri@CLightShadows@@@std@@YAPAUtess_tri@CLightShadows@@PAU12@@Z ; std::_Unfancy<CLightShadows::tess_tri>
PUBLIC	??$forward@Utess_tri@CLightShadows@@@std@@YA$$QAUtess_tri@CLightShadows@@AAU12@@Z ; std::forward<CLightShadows::tess_tri>
PUBLIC	??$move@AAUtess_tri@CLightShadows@@@std@@YA$$QAUtess_tri@CLightShadows@@AAU12@@Z ; std::move<CLightShadows::tess_tri &>
PUBLIC	??$addressof@V?$_Vector_val@U?$_Simple_types@Utess_tri@CLightShadows@@@std@@@std@@@std@@YAPAV?$_Vector_val@U?$_Simple_types@Utess_tri@CLightShadows@@@std@@@0@AAV10@@Z ; std::addressof<std::_Vector_val<std::_Simple_types<CLightShadows::tess_tri> > >
PUBLIC	??$_Emplace_back_with_unused_capacity@ABUcache_item@CLightShadows@@@?$vector@Ucache_item@CLightShadows@@V?$xalloc@Ucache_item@CLightShadows@@@@@std@@AAE?A_TABUcache_item@CLightShadows@@@Z ; std::vector<CLightShadows::cache_item,xalloc<CLightShadows::cache_item> >::_Emplace_back_with_unused_capacity<CLightShadows::cache_item const &>
PUBLIC	??$emplace@ABUcache_item@CLightShadows@@@?$vector@Ucache_item@CLightShadows@@V?$xalloc@Ucache_item@CLightShadows@@@@@std@@QAE?AV?$_Vector_iterator@V?$_Vector_val@U?$_Simple_types@Ucache_item@CLightShadows@@@std@@@std@@@1@V?$_Vector_const_iterator@V?$_Vector_val@U?$_Simple_types@Ucache_item@CLightShadows@@@std@@@std@@@1@ABUcache_item@CLightShadows@@@Z ; std::vector<CLightShadows::cache_item,xalloc<CLightShadows::cache_item> >::emplace<CLightShadows::cache_item const &>
PUBLIC	??$destroy@Ucache_item@CLightShadows@@@?$_Normal_allocator_traits@V?$xalloc@Ucache_item@CLightShadows@@@@@std@@SAXAAV?$xalloc@Ucache_item@CLightShadows@@@@PAUcache_item@CLightShadows@@@Z ; std::_Normal_allocator_traits<xalloc<CLightShadows::cache_item> >::destroy<CLightShadows::cache_item>
PUBLIC	??$_Unfancy@Ucache_item@CLightShadows@@@std@@YAPAUcache_item@CLightShadows@@PAU12@@Z ; std::_Unfancy<CLightShadows::cache_item>
PUBLIC	??$_Move_unchecked@PAUcache_item@CLightShadows@@PAU12@@std@@YAPAUcache_item@CLightShadows@@PAU12@00@Z ; std::_Move_unchecked<CLightShadows::cache_item *,CLightShadows::cache_item *>
PUBLIC	??$addressof@V?$_Vector_val@U?$_Simple_types@Ucache_item@CLightShadows@@@std@@@std@@@std@@YAPAV?$_Vector_val@U?$_Simple_types@Ucache_item@CLightShadows@@@std@@@0@AAV10@@Z ; std::addressof<std::_Vector_val<std::_Simple_types<CLightShadows::cache_item> > >
PUBLIC	??$xr_alloc@Utess_tri@CLightShadows@@@@YAPAUtess_tri@CLightShadows@@I@Z ; xr_alloc<CLightShadows::tess_tri>
PUBLIC	??$_Get_unwrapped@ABV?$_Vector_iterator@V?$_Vector_val@U?$_Simple_types@Ucache_item@CLightShadows@@@std@@@std@@@std@@@std@@YA?A_TABV?$_Vector_iterator@V?$_Vector_val@U?$_Simple_types@Ucache_item@CLightShadows@@@std@@@std@@@0@@Z ; std::_Get_unwrapped<std::_Vector_iterator<std::_Vector_val<std::_Simple_types<CLightShadows::cache_item> > > const &>
PUBLIC	??$_Get_unwrapped@AAV?$_Vector_iterator@V?$_Vector_val@U?$_Simple_types@Ucache_item@CLightShadows@@@std@@@std@@@std@@@std@@YA?A_TAAV?$_Vector_iterator@V?$_Vector_val@U?$_Simple_types@Ucache_item@CLightShadows@@@std@@@std@@@0@@Z ; std::_Get_unwrapped<std::_Vector_iterator<std::_Vector_val<std::_Simple_types<CLightShadows::cache_item> > > &>
PUBLIC	??$lower_bound@V?$_Vector_iterator@V?$_Vector_val@U?$_Simple_types@Ucache_item@CLightShadows@@@std@@@std@@@std@@Ucache_item@CLightShadows@@P6A_NABU34@0@Z@std@@YA?AV?$_Vector_iterator@V?$_Vector_val@U?$_Simple_types@Ucache_item@CLightShadows@@@std@@@std@@@0@V10@V10@ABUcache_item@CLightShadows@@P6A_N22@Z@Z ; std::lower_bound<std::_Vector_iterator<std::_Vector_val<std::_Simple_types<CLightShadows::cache_item> > >,CLightShadows::cache_item,bool (__cdecl*)(CLightShadows::cache_item const &,CLightShadows::cache_item const &)>
PUBLIC	??$xr_new@Ucaster@CLightShadows@@@@YAPAUcaster@CLightShadows@@XZ ; xr_new<CLightShadows::caster>
PUBLIC	??$xr_free@Utess_tri@CLightShadows@@@@YAXAAPAUtess_tri@CLightShadows@@@Z ; xr_free<CLightShadows::tess_tri>
PUBLIC	??$xr_delete@Ucaster@CLightShadows@@@@YAXAAPAUcaster@CLightShadows@@@Z ; xr_delete<CLightShadows::caster>
PUBLIC	?_Verify_offset@?$_Vector_const_iterator@V?$_Vector_val@U?$_Simple_types@Ushadow@CLightShadows@@@std@@@std@@@std@@QBEXH@Z ; std::_Vector_const_iterator<std::_Vector_val<std::_Simple_types<CLightShadows::shadow> > >::_Verify_offset
PUBLIC	?_Verify_offset@?$_Vector_const_iterator@V?$_Vector_val@U?$_Simple_types@PAUcaster@CLightShadows@@@std@@@std@@@std@@QBEXH@Z ; std::_Vector_const_iterator<std::_Vector_val<std::_Simple_types<CLightShadows::caster *> > >::_Verify_offset
PUBLIC	?_Verify_offset@?$_Vector_const_iterator@V?$_Vector_val@U?$_Simple_types@U_MatrixItem@R_dsgraph@@@std@@@std@@@std@@QBEXH@Z ; std::_Vector_const_iterator<std::_Vector_val<std::_Simple_types<R_dsgraph::_MatrixItem> > >::_Verify_offset
PUBLIC	?_Destroy@?$vector@U_MatrixItem@R_dsgraph@@V?$xalloc@U_MatrixItem@R_dsgraph@@@@@std@@AAEXPAU_MatrixItem@R_dsgraph@@0@Z ; std::vector<R_dsgraph::_MatrixItem,xalloc<R_dsgraph::_MatrixItem> >::_Destroy
PUBLIC	?_Verify_offset@?$_Vector_const_iterator@V?$_Vector_val@U?$_Simple_types@Ucache_item@CLightShadows@@@std@@@std@@@std@@QBEXH@Z ; std::_Vector_const_iterator<std::_Vector_val<std::_Simple_types<CLightShadows::cache_item> > >::_Verify_offset
PUBLIC	??Y?$_Vector_const_iterator@V?$_Vector_val@U?$_Simple_types@Ushadow@CLightShadows@@@std@@@std@@@std@@QAEAAV01@H@Z ; std::_Vector_const_iterator<std::_Vector_val<std::_Simple_types<CLightShadows::shadow> > >::operator+=
PUBLIC	??Y?$_Vector_const_iterator@V?$_Vector_val@U?$_Simple_types@PAUcaster@CLightShadows@@@std@@@std@@@std@@QAEAAV01@H@Z ; std::_Vector_const_iterator<std::_Vector_val<std::_Simple_types<CLightShadows::caster *> > >::operator+=
PUBLIC	??Y?$_Vector_const_iterator@V?$_Vector_val@U?$_Simple_types@U_MatrixItem@R_dsgraph@@@std@@@std@@@std@@QAEAAV01@H@Z ; std::_Vector_const_iterator<std::_Vector_val<std::_Simple_types<R_dsgraph::_MatrixItem> > >::operator+=
PUBLIC	?clear@?$vector@U_MatrixItem@R_dsgraph@@V?$xalloc@U_MatrixItem@R_dsgraph@@@@@std@@QAEXXZ ; std::vector<R_dsgraph::_MatrixItem,xalloc<R_dsgraph::_MatrixItem> >::clear
PUBLIC	?_Get_first@?$_Compressed_pair@V?$xalloc@U_MatrixItem@R_dsgraph@@@@V?$_Vector_val@U?$_Simple_types@U_MatrixItem@R_dsgraph@@@std@@@std@@$00@std@@QAEAAV?$xalloc@U_MatrixItem@R_dsgraph@@@@XZ ; std::_Compressed_pair<xalloc<R_dsgraph::_MatrixItem>,std::_Vector_val<std::_Simple_types<R_dsgraph::_MatrixItem> >,1>::_Get_first
PUBLIC	?deallocate@?$xalloc@PAUcaster@CLightShadows@@@@QBEXPAPAUcaster@CLightShadows@@I@Z ; xalloc<CLightShadows::caster *>::deallocate
PUBLIC	?clear@?$vector@PAUcaster@CLightShadows@@V?$xalloc@PAUcaster@CLightShadows@@@@@std@@QAEXXZ ; std::vector<CLightShadows::caster *,xalloc<CLightShadows::caster *> >::clear
PUBLIC	?_Destroy@?$vector@PAUcaster@CLightShadows@@V?$xalloc@PAUcaster@CLightShadows@@@@@std@@AAEXPAPAUcaster@CLightShadows@@0@Z ; std::vector<CLightShadows::caster *,xalloc<CLightShadows::caster *> >::_Destroy
PUBLIC	?_Get_first@?$_Compressed_pair@V?$xalloc@PAUcaster@CLightShadows@@@@V?$_Vector_val@U?$_Simple_types@PAUcaster@CLightShadows@@@std@@@std@@$00@std@@QAEAAV?$xalloc@PAUcaster@CLightShadows@@@@XZ ; std::_Compressed_pair<xalloc<CLightShadows::caster *>,std::_Vector_val<std::_Simple_types<CLightShadows::caster *> >,1>::_Get_first
PUBLIC	?deallocate@?$xalloc@Ushadow@CLightShadows@@@@QBEXPAUshadow@CLightShadows@@I@Z ; xalloc<CLightShadows::shadow>::deallocate
PUBLIC	?clear@?$vector@Ushadow@CLightShadows@@V?$xalloc@Ushadow@CLightShadows@@@@@std@@QAEXXZ ; std::vector<CLightShadows::shadow,xalloc<CLightShadows::shadow> >::clear
PUBLIC	?_Destroy@?$vector@Ushadow@CLightShadows@@V?$xalloc@Ushadow@CLightShadows@@@@@std@@AAEXPAUshadow@CLightShadows@@0@Z ; std::vector<CLightShadows::shadow,xalloc<CLightShadows::shadow> >::_Destroy
PUBLIC	?_Get_first@?$_Compressed_pair@V?$xalloc@Ushadow@CLightShadows@@@@V?$_Vector_val@U?$_Simple_types@Ushadow@CLightShadows@@@std@@@std@@$00@std@@QAEAAV?$xalloc@Ushadow@CLightShadows@@@@XZ ; std::_Compressed_pair<xalloc<CLightShadows::shadow>,std::_Vector_val<std::_Simple_types<CLightShadows::shadow> >,1>::_Get_first
PUBLIC	?deallocate@?$xalloc@Utess_tri@CLightShadows@@@@QBEXPAUtess_tri@CLightShadows@@I@Z ; xalloc<CLightShadows::tess_tri>::deallocate
PUBLIC	?clear@?$vector@Utess_tri@CLightShadows@@V?$xalloc@Utess_tri@CLightShadows@@@@@std@@QAEXXZ ; std::vector<CLightShadows::tess_tri,xalloc<CLightShadows::tess_tri> >::clear
PUBLIC	?_Destroy@?$vector@Utess_tri@CLightShadows@@V?$xalloc@Utess_tri@CLightShadows@@@@@std@@AAEXPAUtess_tri@CLightShadows@@0@Z ; std::vector<CLightShadows::tess_tri,xalloc<CLightShadows::tess_tri> >::_Destroy
PUBLIC	?_Get_first@?$_Compressed_pair@V?$xalloc@Utess_tri@CLightShadows@@@@V?$_Vector_val@U?$_Simple_types@Utess_tri@CLightShadows@@@std@@@std@@$00@std@@QAEAAV?$xalloc@Utess_tri@CLightShadows@@@@XZ ; std::_Compressed_pair<xalloc<CLightShadows::tess_tri>,std::_Vector_val<std::_Simple_types<CLightShadows::tess_tri> >,1>::_Get_first
PUBLIC	?deallocate@?$xalloc@Ucache_item@CLightShadows@@@@QBEXPAUcache_item@CLightShadows@@I@Z ; xalloc<CLightShadows::cache_item>::deallocate
PUBLIC	?clear@?$vector@Ucache_item@CLightShadows@@V?$xalloc@Ucache_item@CLightShadows@@@@@std@@QAEXXZ ; std::vector<CLightShadows::cache_item,xalloc<CLightShadows::cache_item> >::clear
PUBLIC	?_Destroy@?$vector@Ucache_item@CLightShadows@@V?$xalloc@Ucache_item@CLightShadows@@@@@std@@AAEXPAUcache_item@CLightShadows@@0@Z ; std::vector<CLightShadows::cache_item,xalloc<CLightShadows::cache_item> >::_Destroy
PUBLIC	?_Get_first@?$_Compressed_pair@V?$xalloc@Ucache_item@CLightShadows@@@@V?$_Vector_val@U?$_Simple_types@Ucache_item@CLightShadows@@@std@@@std@@$00@std@@QAEAAV?$xalloc@Ucache_item@CLightShadows@@@@XZ ; std::_Compressed_pair<xalloc<CLightShadows::cache_item>,std::_Vector_val<std::_Simple_types<CLightShadows::cache_item> >,1>::_Get_first
PUBLIC	??Y?$_Vector_const_iterator@V?$_Vector_val@U?$_Simple_types@Ucache_item@CLightShadows@@@std@@@std@@@std@@QAEAAV01@H@Z ; std::_Vector_const_iterator<std::_Vector_val<std::_Simple_types<CLightShadows::cache_item> > >::operator+=
PUBLIC	??0?$_Vector_const_iterator@V?$_Vector_val@U?$_Simple_types@Ushadow@CLightShadows@@@std@@@std@@@std@@QAE@PAUshadow@CLightShadows@@PBU_Container_base0@1@@Z ; std::_Vector_const_iterator<std::_Vector_val<std::_Simple_types<CLightShadows::shadow> > >::_Vector_const_iterator<std::_Vector_val<std::_Simple_types<CLightShadows::shadow> > >
PUBLIC	??D?$_Vector_const_iterator@V?$_Vector_val@U?$_Simple_types@Ushadow@CLightShadows@@@std@@@std@@@std@@QBEABUshadow@CLightShadows@@XZ ; std::_Vector_const_iterator<std::_Vector_val<std::_Simple_types<CLightShadows::shadow> > >::operator*
PUBLIC	??Y?$_Vector_iterator@V?$_Vector_val@U?$_Simple_types@Ushadow@CLightShadows@@@std@@@std@@@std@@QAEAAV01@H@Z ; std::_Vector_iterator<std::_Vector_val<std::_Simple_types<CLightShadows::shadow> > >::operator+=
PUBLIC	??0?$_Vector_const_iterator@V?$_Vector_val@U?$_Simple_types@PAUcaster@CLightShadows@@@std@@@std@@@std@@QAE@PAPAUcaster@CLightShadows@@PBU_Container_base0@1@@Z ; std::_Vector_const_iterator<std::_Vector_val<std::_Simple_types<CLightShadows::caster *> > >::_Vector_const_iterator<std::_Vector_val<std::_Simple_types<CLightShadows::caster *> > >
PUBLIC	??D?$_Vector_const_iterator@V?$_Vector_val@U?$_Simple_types@PAUcaster@CLightShadows@@@std@@@std@@@std@@QBEABQAUcaster@CLightShadows@@XZ ; std::_Vector_const_iterator<std::_Vector_val<std::_Simple_types<CLightShadows::caster *> > >::operator*
PUBLIC	??Y?$_Vector_iterator@V?$_Vector_val@U?$_Simple_types@PAUcaster@CLightShadows@@@std@@@std@@@std@@QAEAAV01@H@Z ; std::_Vector_iterator<std::_Vector_val<std::_Simple_types<CLightShadows::caster *> > >::operator+=
PUBLIC	??Y?$_Vector_iterator@V?$_Vector_val@U?$_Simple_types@U_MatrixItem@R_dsgraph@@@std@@@std@@@std@@QAEAAV01@H@Z ; std::_Vector_iterator<std::_Vector_val<std::_Simple_types<R_dsgraph::_MatrixItem> > >::operator+=
PUBLIC	??0?$_Vector_iterator@V?$_Vector_val@U?$_Simple_types@PAUcaster@CLightShadows@@@std@@@std@@@std@@QAE@PAPAUcaster@CLightShadows@@PBU_Container_base0@1@@Z ; std::_Vector_iterator<std::_Vector_val<std::_Simple_types<CLightShadows::caster *> > >::_Vector_iterator<std::_Vector_val<std::_Simple_types<CLightShadows::caster *> > >
PUBLIC	??0?$_Vector_iterator@V?$_Vector_val@U?$_Simple_types@Ushadow@CLightShadows@@@std@@@std@@@std@@QAE@PAUshadow@CLightShadows@@PBU_Container_base0@1@@Z ; std::_Vector_iterator<std::_Vector_val<std::_Simple_types<CLightShadows::shadow> > >::_Vector_iterator<std::_Vector_val<std::_Simple_types<CLightShadows::shadow> > >
PUBLIC	?begin@?$vector@U_MatrixItem@R_dsgraph@@V?$xalloc@U_MatrixItem@R_dsgraph@@@@@std@@QAE?AV?$_Vector_iterator@V?$_Vector_val@U?$_Simple_types@U_MatrixItem@R_dsgraph@@@std@@@std@@@2@XZ ; std::vector<R_dsgraph::_MatrixItem,xalloc<R_dsgraph::_MatrixItem> >::begin
PUBLIC	?size@?$vector@U_MatrixItem@R_dsgraph@@V?$xalloc@U_MatrixItem@R_dsgraph@@@@@std@@QBEIXZ ; std::vector<R_dsgraph::_MatrixItem,xalloc<R_dsgraph::_MatrixItem> >::size
PUBLIC	?_Orphan_range@?$vector@U_MatrixItem@R_dsgraph@@V?$xalloc@U_MatrixItem@R_dsgraph@@@@@std@@ABEXPAU_MatrixItem@R_dsgraph@@0@Z ; std::vector<R_dsgraph::_MatrixItem,xalloc<R_dsgraph::_MatrixItem> >::_Orphan_range
PUBLIC	?_Getal@?$vector@U_MatrixItem@R_dsgraph@@V?$xalloc@U_MatrixItem@R_dsgraph@@@@@std@@AAEAAV?$xalloc@U_MatrixItem@R_dsgraph@@@@XZ ; std::vector<R_dsgraph::_MatrixItem,xalloc<R_dsgraph::_MatrixItem> >::_Getal
PUBLIC	?clear_and_free@?$xr_vector@U_MatrixItem@R_dsgraph@@V?$xalloc@U_MatrixItem@R_dsgraph@@@@@@QAEXXZ ; xr_vector<R_dsgraph::_MatrixItem,xalloc<R_dsgraph::_MatrixItem> >::clear_and_free
PUBLIC	??0?$vector@PAUcaster@CLightShadows@@V?$xalloc@PAUcaster@CLightShadows@@@@@std@@QAE@XZ ; std::vector<CLightShadows::caster *,xalloc<CLightShadows::caster *> >::vector<CLightShadows::caster *,xalloc<CLightShadows::caster *> >
PUBLIC	?begin@?$vector@PAUcaster@CLightShadows@@V?$xalloc@PAUcaster@CLightShadows@@@@@std@@QAE?AV?$_Vector_iterator@V?$_Vector_val@U?$_Simple_types@PAUcaster@CLightShadows@@@std@@@std@@@2@XZ ; std::vector<CLightShadows::caster *,xalloc<CLightShadows::caster *> >::begin
PUBLIC	?size@?$vector@PAUcaster@CLightShadows@@V?$xalloc@PAUcaster@CLightShadows@@@@@std@@QBEIXZ ; std::vector<CLightShadows::caster *,xalloc<CLightShadows::caster *> >::size
PUBLIC	?_Tidy@?$vector@PAUcaster@CLightShadows@@V?$xalloc@PAUcaster@CLightShadows@@@@@std@@AAEXXZ ; std::vector<CLightShadows::caster *,xalloc<CLightShadows::caster *> >::_Tidy
PUBLIC	?_Orphan_range@?$vector@PAUcaster@CLightShadows@@V?$xalloc@PAUcaster@CLightShadows@@@@@std@@ABEXPAPAUcaster@CLightShadows@@0@Z ; std::vector<CLightShadows::caster *,xalloc<CLightShadows::caster *> >::_Orphan_range
PUBLIC	?_Getal@?$vector@PAUcaster@CLightShadows@@V?$xalloc@PAUcaster@CLightShadows@@@@@std@@AAEAAV?$xalloc@PAUcaster@CLightShadows@@@@XZ ; std::vector<CLightShadows::caster *,xalloc<CLightShadows::caster *> >::_Getal
PUBLIC	?clear_and_free@?$xr_vector@PAUcaster@CLightShadows@@V?$xalloc@PAUcaster@CLightShadows@@@@@@QAEXXZ ; xr_vector<CLightShadows::caster *,xalloc<CLightShadows::caster *> >::clear_and_free
PUBLIC	??0?$vector@Ushadow@CLightShadows@@V?$xalloc@Ushadow@CLightShadows@@@@@std@@QAE@XZ ; std::vector<CLightShadows::shadow,xalloc<CLightShadows::shadow> >::vector<CLightShadows::shadow,xalloc<CLightShadows::shadow> >
PUBLIC	?begin@?$vector@Ushadow@CLightShadows@@V?$xalloc@Ushadow@CLightShadows@@@@@std@@QAE?AV?$_Vector_iterator@V?$_Vector_val@U?$_Simple_types@Ushadow@CLightShadows@@@std@@@std@@@2@XZ ; std::vector<CLightShadows::shadow,xalloc<CLightShadows::shadow> >::begin
PUBLIC	?size@?$vector@Ushadow@CLightShadows@@V?$xalloc@Ushadow@CLightShadows@@@@@std@@QBEIXZ ; std::vector<CLightShadows::shadow,xalloc<CLightShadows::shadow> >::size
PUBLIC	?_Tidy@?$vector@Ushadow@CLightShadows@@V?$xalloc@Ushadow@CLightShadows@@@@@std@@AAEXXZ ; std::vector<CLightShadows::shadow,xalloc<CLightShadows::shadow> >::_Tidy
PUBLIC	?_Orphan_range@?$vector@Ushadow@CLightShadows@@V?$xalloc@Ushadow@CLightShadows@@@@@std@@ABEXPAUshadow@CLightShadows@@0@Z ; std::vector<CLightShadows::shadow,xalloc<CLightShadows::shadow> >::_Orphan_range
PUBLIC	?_Getal@?$vector@Ushadow@CLightShadows@@V?$xalloc@Ushadow@CLightShadows@@@@@std@@AAEAAV?$xalloc@Ushadow@CLightShadows@@@@XZ ; std::vector<CLightShadows::shadow,xalloc<CLightShadows::shadow> >::_Getal
PUBLIC	?clear_and_free@?$xr_vector@Ushadow@CLightShadows@@V?$xalloc@Ushadow@CLightShadows@@@@@@QAEXXZ ; xr_vector<CLightShadows::shadow,xalloc<CLightShadows::shadow> >::clear_and_free
PUBLIC	??0?$vector@Utess_tri@CLightShadows@@V?$xalloc@Utess_tri@CLightShadows@@@@@std@@QAE@XZ ; std::vector<CLightShadows::tess_tri,xalloc<CLightShadows::tess_tri> >::vector<CLightShadows::tess_tri,xalloc<CLightShadows::tess_tri> >
PUBLIC	?size@?$vector@Utess_tri@CLightShadows@@V?$xalloc@Utess_tri@CLightShadows@@@@@std@@QBEIXZ ; std::vector<CLightShadows::tess_tri,xalloc<CLightShadows::tess_tri> >::size
PUBLIC	?_Tidy@?$vector@Utess_tri@CLightShadows@@V?$xalloc@Utess_tri@CLightShadows@@@@@std@@AAEXXZ ; std::vector<CLightShadows::tess_tri,xalloc<CLightShadows::tess_tri> >::_Tidy
PUBLIC	?_Orphan_range@?$vector@Utess_tri@CLightShadows@@V?$xalloc@Utess_tri@CLightShadows@@@@@std@@ABEXPAUtess_tri@CLightShadows@@0@Z ; std::vector<CLightShadows::tess_tri,xalloc<CLightShadows::tess_tri> >::_Orphan_range
PUBLIC	?_Getal@?$vector@Utess_tri@CLightShadows@@V?$xalloc@Utess_tri@CLightShadows@@@@@std@@AAEAAV?$xalloc@Utess_tri@CLightShadows@@@@XZ ; std::vector<CLightShadows::tess_tri,xalloc<CLightShadows::tess_tri> >::_Getal
PUBLIC	?clear_and_free@?$xr_vector@Utess_tri@CLightShadows@@V?$xalloc@Utess_tri@CLightShadows@@@@@@QAEXXZ ; xr_vector<CLightShadows::tess_tri,xalloc<CLightShadows::tess_tri> >::clear_and_free
PUBLIC	??0?$vector@Ucache_item@CLightShadows@@V?$xalloc@Ucache_item@CLightShadows@@@@@std@@QAE@XZ ; std::vector<CLightShadows::cache_item,xalloc<CLightShadows::cache_item> >::vector<CLightShadows::cache_item,xalloc<CLightShadows::cache_item> >
PUBLIC	?size@?$vector@Ucache_item@CLightShadows@@V?$xalloc@Ucache_item@CLightShadows@@@@@std@@QBEIXZ ; std::vector<CLightShadows::cache_item,xalloc<CLightShadows::cache_item> >::size
PUBLIC	?_Tidy@?$vector@Ucache_item@CLightShadows@@V?$xalloc@Ucache_item@CLightShadows@@@@@std@@AAEXXZ ; std::vector<CLightShadows::cache_item,xalloc<CLightShadows::cache_item> >::_Tidy
PUBLIC	?_Orphan_range@?$vector@Ucache_item@CLightShadows@@V?$xalloc@Ucache_item@CLightShadows@@@@@std@@ABEXPAUcache_item@CLightShadows@@0@Z ; std::vector<CLightShadows::cache_item,xalloc<CLightShadows::cache_item> >::_Orphan_range
PUBLIC	?_Getal@?$vector@Ucache_item@CLightShadows@@V?$xalloc@Ucache_item@CLightShadows@@@@@std@@AAEAAV?$xalloc@Ucache_item@CLightShadows@@@@XZ ; std::vector<CLightShadows::cache_item,xalloc<CLightShadows::cache_item> >::_Getal
PUBLIC	?clear_and_free@?$xr_vector@Ucache_item@CLightShadows@@V?$xalloc@Ucache_item@CLightShadows@@@@@@QAEXXZ ; xr_vector<CLightShadows::cache_item,xalloc<CLightShadows::cache_item> >::clear_and_free
PUBLIC	??0?$_Vector_const_iterator@V?$_Vector_val@U?$_Simple_types@Ucache_item@CLightShadows@@@std@@@std@@@std@@QAE@PAUcache_item@CLightShadows@@PBU_Container_base0@1@@Z ; std::_Vector_const_iterator<std::_Vector_val<std::_Simple_types<CLightShadows::cache_item> > >::_Vector_const_iterator<std::_Vector_val<std::_Simple_types<CLightShadows::cache_item> > >
PUBLIC	??D?$_Vector_const_iterator@V?$_Vector_val@U?$_Simple_types@Ucache_item@CLightShadows@@@std@@@std@@@std@@QBEABUcache_item@CLightShadows@@XZ ; std::_Vector_const_iterator<std::_Vector_val<std::_Simple_types<CLightShadows::cache_item> > >::operator*
PUBLIC	?_Compat@?$_Vector_const_iterator@V?$_Vector_val@U?$_Simple_types@Ucache_item@CLightShadows@@@std@@@std@@@std@@QBEXABV12@@Z ; std::_Vector_const_iterator<std::_Vector_val<std::_Simple_types<CLightShadows::cache_item> > >::_Compat
PUBLIC	??Y?$_Vector_iterator@V?$_Vector_val@U?$_Simple_types@Ucache_item@CLightShadows@@@std@@@std@@@std@@QAEAAV01@H@Z ; std::_Vector_iterator<std::_Vector_val<std::_Simple_types<CLightShadows::cache_item> > >::operator+=
PUBLIC	??0?$_Vector_const_iterator@V?$_Vector_val@U?$_Simple_types@Utess_tri@CLightShadows@@@std@@@std@@@std@@QAE@PAUtess_tri@CLightShadows@@PBU_Container_base0@1@@Z ; std::_Vector_const_iterator<std::_Vector_val<std::_Simple_types<CLightShadows::tess_tri> > >::_Vector_const_iterator<std::_Vector_val<std::_Simple_types<CLightShadows::tess_tri> > >
PUBLIC	??D?$_Vector_const_iterator@V?$_Vector_val@U?$_Simple_types@Utess_tri@CLightShadows@@@std@@@std@@@std@@QBEABUtess_tri@CLightShadows@@XZ ; std::_Vector_const_iterator<std::_Vector_val<std::_Simple_types<CLightShadows::tess_tri> > >::operator*
PUBLIC	??D?$_Vector_iterator@V?$_Vector_val@U?$_Simple_types@Ushadow@CLightShadows@@@std@@@std@@@std@@QBEAAUshadow@CLightShadows@@XZ ; std::_Vector_iterator<std::_Vector_val<std::_Simple_types<CLightShadows::shadow> > >::operator*
PUBLIC	??H?$_Vector_iterator@V?$_Vector_val@U?$_Simple_types@Ushadow@CLightShadows@@@std@@@std@@@std@@QBE?AV01@H@Z ; std::_Vector_iterator<std::_Vector_val<std::_Simple_types<CLightShadows::shadow> > >::operator+
PUBLIC	??D?$_Vector_iterator@V?$_Vector_val@U?$_Simple_types@PAUcaster@CLightShadows@@@std@@@std@@@std@@QBEAAPAUcaster@CLightShadows@@XZ ; std::_Vector_iterator<std::_Vector_val<std::_Simple_types<CLightShadows::caster *> > >::operator*
PUBLIC	??H?$_Vector_iterator@V?$_Vector_val@U?$_Simple_types@PAUcaster@CLightShadows@@@std@@@std@@@std@@QBE?AV01@H@Z ; std::_Vector_iterator<std::_Vector_val<std::_Simple_types<CLightShadows::caster *> > >::operator+
PUBLIC	??H?$_Vector_iterator@V?$_Vector_val@U?$_Simple_types@U_MatrixItem@R_dsgraph@@@std@@@std@@@std@@QBE?AV01@H@Z ; std::_Vector_iterator<std::_Vector_val<std::_Simple_types<R_dsgraph::_MatrixItem> > >::operator+
PUBLIC	??0?$_Vector_iterator@V?$_Vector_val@U?$_Simple_types@Utess_tri@CLightShadows@@@std@@@std@@@std@@QAE@PAUtess_tri@CLightShadows@@PBU_Container_base0@1@@Z ; std::_Vector_iterator<std::_Vector_val<std::_Simple_types<CLightShadows::tess_tri> > >::_Vector_iterator<std::_Vector_val<std::_Simple_types<CLightShadows::tess_tri> > >
PUBLIC	??0?$_Vector_iterator@V?$_Vector_val@U?$_Simple_types@Ucache_item@CLightShadows@@@std@@@std@@@std@@QAE@PAUcache_item@CLightShadows@@PBU_Container_base0@1@@Z ; std::_Vector_iterator<std::_Vector_val<std::_Simple_types<CLightShadows::cache_item> > >::_Vector_iterator<std::_Vector_val<std::_Simple_types<CLightShadows::cache_item> > >
PUBLIC	?build_unit_normal@?$_plane@M@@QAEAAV1@ABU?$_vector3@M@@0@Z ; _plane<float>::build_unit_normal
PUBLIC	??$_Emplace_back_with_unused_capacity@ABU_MatrixItem@R_dsgraph@@@?$vector@U_MatrixItem@R_dsgraph@@V?$xalloc@U_MatrixItem@R_dsgraph@@@@@std@@AAE?A_TABU_MatrixItem@R_dsgraph@@@Z ; std::vector<R_dsgraph::_MatrixItem,xalloc<R_dsgraph::_MatrixItem> >::_Emplace_back_with_unused_capacity<R_dsgraph::_MatrixItem const &>
PUBLIC	??$emplace_back@ABU_MatrixItem@R_dsgraph@@@?$vector@U_MatrixItem@R_dsgraph@@V?$xalloc@U_MatrixItem@R_dsgraph@@@@@std@@QAE?A_TABU_MatrixItem@R_dsgraph@@@Z ; std::vector<R_dsgraph::_MatrixItem,xalloc<R_dsgraph::_MatrixItem> >::emplace_back<R_dsgraph::_MatrixItem const &>
PUBLIC	?push_back@?$vector@U_MatrixItem@R_dsgraph@@V?$xalloc@U_MatrixItem@R_dsgraph@@@@@std@@QAEXABU_MatrixItem@R_dsgraph@@@Z ; std::vector<R_dsgraph::_MatrixItem,xalloc<R_dsgraph::_MatrixItem> >::push_back
PUBLIC	?empty@?$vector@U_MatrixItem@R_dsgraph@@V?$xalloc@U_MatrixItem@R_dsgraph@@@@@std@@QBE_NXZ ; std::vector<R_dsgraph::_MatrixItem,xalloc<R_dsgraph::_MatrixItem> >::empty
PUBLIC	?size@?$xr_vector@U_MatrixItem@R_dsgraph@@V?$xalloc@U_MatrixItem@R_dsgraph@@@@@@QBEIXZ ; xr_vector<R_dsgraph::_MatrixItem,xalloc<R_dsgraph::_MatrixItem> >::size
PUBLIC	?clear@?$xr_vector@U_MatrixItem@R_dsgraph@@V?$xalloc@U_MatrixItem@R_dsgraph@@@@@@QAEXXZ ; xr_vector<R_dsgraph::_MatrixItem,xalloc<R_dsgraph::_MatrixItem> >::clear
PUBLIC	??A?$xr_vector@U_MatrixItem@R_dsgraph@@V?$xalloc@U_MatrixItem@R_dsgraph@@@@@@QAEAAU_MatrixItem@R_dsgraph@@I@Z ; xr_vector<R_dsgraph::_MatrixItem,xalloc<R_dsgraph::_MatrixItem> >::operator[]
PUBLIC	??1?$vector@PAUcaster@CLightShadows@@V?$xalloc@PAUcaster@CLightShadows@@@@@std@@QAE@XZ ; std::vector<CLightShadows::caster *,xalloc<CLightShadows::caster *> >::~vector<CLightShadows::caster *,xalloc<CLightShadows::caster *> >
PUBLIC	??$_Emplace_back_with_unused_capacity@ABQAUcaster@CLightShadows@@@?$vector@PAUcaster@CLightShadows@@V?$xalloc@PAUcaster@CLightShadows@@@@@std@@AAE?A_TABQAUcaster@CLightShadows@@@Z ; std::vector<CLightShadows::caster *,xalloc<CLightShadows::caster *> >::_Emplace_back_with_unused_capacity<CLightShadows::caster * const &>
PUBLIC	??$emplace_back@ABQAUcaster@CLightShadows@@@?$vector@PAUcaster@CLightShadows@@V?$xalloc@PAUcaster@CLightShadows@@@@@std@@QAE?A_TABQAUcaster@CLightShadows@@@Z ; std::vector<CLightShadows::caster *,xalloc<CLightShadows::caster *> >::emplace_back<CLightShadows::caster * const &>
PUBLIC	?push_back@?$vector@PAUcaster@CLightShadows@@V?$xalloc@PAUcaster@CLightShadows@@@@@std@@QAEXABQAUcaster@CLightShadows@@@Z ; std::vector<CLightShadows::caster *,xalloc<CLightShadows::caster *> >::push_back
PUBLIC	?pop_back@?$vector@PAUcaster@CLightShadows@@V?$xalloc@PAUcaster@CLightShadows@@@@@std@@QAEXXZ ; std::vector<CLightShadows::caster *,xalloc<CLightShadows::caster *> >::pop_back
PUBLIC	?empty@?$vector@PAUcaster@CLightShadows@@V?$xalloc@PAUcaster@CLightShadows@@@@@std@@QBE_NXZ ; std::vector<CLightShadows::caster *,xalloc<CLightShadows::caster *> >::empty
PUBLIC	?back@?$vector@PAUcaster@CLightShadows@@V?$xalloc@PAUcaster@CLightShadows@@@@@std@@QAEAAPAUcaster@CLightShadows@@XZ ; std::vector<CLightShadows::caster *,xalloc<CLightShadows::caster *> >::back
PUBLIC	??0?$xr_vector@PAUcaster@CLightShadows@@V?$xalloc@PAUcaster@CLightShadows@@@@@@QAE@XZ ; xr_vector<CLightShadows::caster *,xalloc<CLightShadows::caster *> >::xr_vector<CLightShadows::caster *,xalloc<CLightShadows::caster *> >
PUBLIC	?size@?$xr_vector@PAUcaster@CLightShadows@@V?$xalloc@PAUcaster@CLightShadows@@@@@@QBEIXZ ; xr_vector<CLightShadows::caster *,xalloc<CLightShadows::caster *> >::size
PUBLIC	?clear@?$xr_vector@PAUcaster@CLightShadows@@V?$xalloc@PAUcaster@CLightShadows@@@@@@QAEXXZ ; xr_vector<CLightShadows::caster *,xalloc<CLightShadows::caster *> >::clear
PUBLIC	??A?$xr_vector@PAUcaster@CLightShadows@@V?$xalloc@PAUcaster@CLightShadows@@@@@@QAEAAPAUcaster@CLightShadows@@I@Z ; xr_vector<CLightShadows::caster *,xalloc<CLightShadows::caster *> >::operator[]
PUBLIC	??1?$vector@Ushadow@CLightShadows@@V?$xalloc@Ushadow@CLightShadows@@@@@std@@QAE@XZ ; std::vector<CLightShadows::shadow,xalloc<CLightShadows::shadow> >::~vector<CLightShadows::shadow,xalloc<CLightShadows::shadow> >
PUBLIC	??$_Emplace_back_with_unused_capacity@Ushadow@CLightShadows@@@?$vector@Ushadow@CLightShadows@@V?$xalloc@Ushadow@CLightShadows@@@@@std@@AAE?A_T$$QAUshadow@CLightShadows@@@Z ; std::vector<CLightShadows::shadow,xalloc<CLightShadows::shadow> >::_Emplace_back_with_unused_capacity<CLightShadows::shadow>
PUBLIC	??$emplace_back@Ushadow@CLightShadows@@@?$vector@Ushadow@CLightShadows@@V?$xalloc@Ushadow@CLightShadows@@@@@std@@QAE?A_T$$QAUshadow@CLightShadows@@@Z ; std::vector<CLightShadows::shadow,xalloc<CLightShadows::shadow> >::emplace_back<CLightShadows::shadow>
PUBLIC	?push_back@?$vector@Ushadow@CLightShadows@@V?$xalloc@Ushadow@CLightShadows@@@@@std@@QAEX$$QAUshadow@CLightShadows@@@Z ; std::vector<CLightShadows::shadow,xalloc<CLightShadows::shadow> >::push_back
PUBLIC	?back@?$vector@Ushadow@CLightShadows@@V?$xalloc@Ushadow@CLightShadows@@@@@std@@QAEAAUshadow@CLightShadows@@XZ ; std::vector<CLightShadows::shadow,xalloc<CLightShadows::shadow> >::back
PUBLIC	??0?$xr_vector@Ushadow@CLightShadows@@V?$xalloc@Ushadow@CLightShadows@@@@@@QAE@XZ ; xr_vector<CLightShadows::shadow,xalloc<CLightShadows::shadow> >::xr_vector<CLightShadows::shadow,xalloc<CLightShadows::shadow> >
PUBLIC	?size@?$xr_vector@Ushadow@CLightShadows@@V?$xalloc@Ushadow@CLightShadows@@@@@@QBEIXZ ; xr_vector<CLightShadows::shadow,xalloc<CLightShadows::shadow> >::size
PUBLIC	?clear@?$xr_vector@Ushadow@CLightShadows@@V?$xalloc@Ushadow@CLightShadows@@@@@@QAEXXZ ; xr_vector<CLightShadows::shadow,xalloc<CLightShadows::shadow> >::clear
PUBLIC	??A?$xr_vector@Ushadow@CLightShadows@@V?$xalloc@Ushadow@CLightShadows@@@@@@QAEAAUshadow@CLightShadows@@I@Z ; xr_vector<CLightShadows::shadow,xalloc<CLightShadows::shadow> >::operator[]
PUBLIC	??1?$vector@Utess_tri@CLightShadows@@V?$xalloc@Utess_tri@CLightShadows@@@@@std@@QAE@XZ ; std::vector<CLightShadows::tess_tri,xalloc<CLightShadows::tess_tri> >::~vector<CLightShadows::tess_tri,xalloc<CLightShadows::tess_tri> >
PUBLIC	??$_Emplace_back_with_unused_capacity@Utess_tri@CLightShadows@@@?$vector@Utess_tri@CLightShadows@@V?$xalloc@Utess_tri@CLightShadows@@@@@std@@AAE?A_T$$QAUtess_tri@CLightShadows@@@Z ; std::vector<CLightShadows::tess_tri,xalloc<CLightShadows::tess_tri> >::_Emplace_back_with_unused_capacity<CLightShadows::tess_tri>
PUBLIC	??$emplace_back@Utess_tri@CLightShadows@@@?$vector@Utess_tri@CLightShadows@@V?$xalloc@Utess_tri@CLightShadows@@@@@std@@QAE?A_T$$QAUtess_tri@CLightShadows@@@Z ; std::vector<CLightShadows::tess_tri,xalloc<CLightShadows::tess_tri> >::emplace_back<CLightShadows::tess_tri>
PUBLIC	?push_back@?$vector@Utess_tri@CLightShadows@@V?$xalloc@Utess_tri@CLightShadows@@@@@std@@QAEX$$QAUtess_tri@CLightShadows@@@Z ; std::vector<CLightShadows::tess_tri,xalloc<CLightShadows::tess_tri> >::push_back
PUBLIC	?begin@?$vector@Utess_tri@CLightShadows@@V?$xalloc@Utess_tri@CLightShadows@@@@@std@@QAE?AV?$_Vector_iterator@V?$_Vector_val@U?$_Simple_types@Utess_tri@CLightShadows@@@std@@@std@@@2@XZ ; std::vector<CLightShadows::tess_tri,xalloc<CLightShadows::tess_tri> >::begin
PUBLIC	?back@?$vector@Utess_tri@CLightShadows@@V?$xalloc@Utess_tri@CLightShadows@@@@@std@@QAEAAUtess_tri@CLightShadows@@XZ ; std::vector<CLightShadows::tess_tri,xalloc<CLightShadows::tess_tri> >::back
PUBLIC	??0?$xr_vector@Utess_tri@CLightShadows@@V?$xalloc@Utess_tri@CLightShadows@@@@@@QAE@XZ ; xr_vector<CLightShadows::tess_tri,xalloc<CLightShadows::tess_tri> >::xr_vector<CLightShadows::tess_tri,xalloc<CLightShadows::tess_tri> >
PUBLIC	?size@?$xr_vector@Utess_tri@CLightShadows@@V?$xalloc@Utess_tri@CLightShadows@@@@@@QBEIXZ ; xr_vector<CLightShadows::tess_tri,xalloc<CLightShadows::tess_tri> >::size
PUBLIC	?clear@?$xr_vector@Utess_tri@CLightShadows@@V?$xalloc@Utess_tri@CLightShadows@@@@@@QAEXXZ ; xr_vector<CLightShadows::tess_tri,xalloc<CLightShadows::tess_tri> >::clear
PUBLIC	??1?$vector@Ucache_item@CLightShadows@@V?$xalloc@Ucache_item@CLightShadows@@@@@std@@QAE@XZ ; std::vector<CLightShadows::cache_item,xalloc<CLightShadows::cache_item> >::~vector<CLightShadows::cache_item,xalloc<CLightShadows::cache_item> >
PUBLIC	?insert@?$vector@Ucache_item@CLightShadows@@V?$xalloc@Ucache_item@CLightShadows@@@@@std@@QAE?AV?$_Vector_iterator@V?$_Vector_val@U?$_Simple_types@Ucache_item@CLightShadows@@@std@@@std@@@2@V?$_Vector_const_iterator@V?$_Vector_val@U?$_Simple_types@Ucache_item@CLightShadows@@@std@@@std@@@2@ABUcache_item@CLightShadows@@@Z ; std::vector<CLightShadows::cache_item,xalloc<CLightShadows::cache_item> >::insert
PUBLIC	?erase@?$vector@Ucache_item@CLightShadows@@V?$xalloc@Ucache_item@CLightShadows@@@@@std@@QAE?AV?$_Vector_iterator@V?$_Vector_val@U?$_Simple_types@Ucache_item@CLightShadows@@@std@@@std@@@2@V?$_Vector_const_iterator@V?$_Vector_val@U?$_Simple_types@Ucache_item@CLightShadows@@@std@@@std@@@2@@Z ; std::vector<CLightShadows::cache_item,xalloc<CLightShadows::cache_item> >::erase
PUBLIC	?begin@?$vector@Ucache_item@CLightShadows@@V?$xalloc@Ucache_item@CLightShadows@@@@@std@@QAE?AV?$_Vector_iterator@V?$_Vector_val@U?$_Simple_types@Ucache_item@CLightShadows@@@std@@@std@@@2@XZ ; std::vector<CLightShadows::cache_item,xalloc<CLightShadows::cache_item> >::begin
PUBLIC	?end@?$vector@Ucache_item@CLightShadows@@V?$xalloc@Ucache_item@CLightShadows@@@@@std@@QAE?AV?$_Vector_iterator@V?$_Vector_val@U?$_Simple_types@Ucache_item@CLightShadows@@@std@@@std@@@2@XZ ; std::vector<CLightShadows::cache_item,xalloc<CLightShadows::cache_item> >::end
PUBLIC	??0?$xr_vector@Ucache_item@CLightShadows@@V?$xalloc@Ucache_item@CLightShadows@@@@@@QAE@XZ ; xr_vector<CLightShadows::cache_item,xalloc<CLightShadows::cache_item> >::xr_vector<CLightShadows::cache_item,xalloc<CLightShadows::cache_item> >
PUBLIC	?size@?$xr_vector@Ucache_item@CLightShadows@@V?$xalloc@Ucache_item@CLightShadows@@@@@@QBEIXZ ; xr_vector<CLightShadows::cache_item,xalloc<CLightShadows::cache_item> >::size
PUBLIC	?clear@?$xr_vector@Ucache_item@CLightShadows@@V?$xalloc@Ucache_item@CLightShadows@@@@@@QAEXXZ ; xr_vector<CLightShadows::cache_item,xalloc<CLightShadows::cache_item> >::clear
PUBLIC	??A?$xr_vector@Ucache_item@CLightShadows@@V?$xalloc@Ucache_item@CLightShadows@@@@@@QAEAAUcache_item@CLightShadows@@I@Z ; xr_vector<CLightShadows::cache_item,xalloc<CLightShadows::cache_item> >::operator[]
PUBLIC	??8?$_Vector_const_iterator@V?$_Vector_val@U?$_Simple_types@Ucache_item@CLightShadows@@@std@@@std@@@std@@QBE_NABV01@@Z ; std::_Vector_const_iterator<std::_Vector_val<std::_Simple_types<CLightShadows::cache_item> > >::operator==
PUBLIC	??D?$_Vector_iterator@V?$_Vector_val@U?$_Simple_types@Ucache_item@CLightShadows@@@std@@@std@@@std@@QBEAAUcache_item@CLightShadows@@XZ ; std::_Vector_iterator<std::_Vector_val<std::_Simple_types<CLightShadows::cache_item> > >::operator*
PUBLIC	??C?$_Vector_iterator@V?$_Vector_val@U?$_Simple_types@Ucache_item@CLightShadows@@@std@@@std@@@std@@QBEPAUcache_item@CLightShadows@@XZ ; std::_Vector_iterator<std::_Vector_val<std::_Simple_types<CLightShadows::cache_item> > >::operator->
PUBLIC	??H?$_Vector_iterator@V?$_Vector_val@U?$_Simple_types@Ucache_item@CLightShadows@@@std@@@std@@@std@@QBE?AV01@H@Z ; std::_Vector_iterator<std::_Vector_val<std::_Simple_types<CLightShadows::cache_item> > >::operator+
PUBLIC	??D?$_Vector_iterator@V?$_Vector_val@U?$_Simple_types@Utess_tri@CLightShadows@@@std@@@std@@@std@@QBEAAUtess_tri@CLightShadows@@XZ ; std::_Vector_iterator<std::_Vector_val<std::_Simple_types<CLightShadows::tess_tri> > >::operator*
PUBLIC	?cache_search@@YA_NABUcache_item@CLightShadows@@0@Z ; cache_search
PUBLIC	?PLC_calc@@YAHAAU?$_vector3@M@@0PAVlight@@M0@Z	; PLC_calc
PUBLIC	?PLC_energy@@YAMAAU?$_vector3@M@@0PAVlight@@M@Z	; PLC_energy
PUBLIC	??1?$xr_vector@Ucache_item@CLightShadows@@V?$xalloc@Ucache_item@CLightShadows@@@@@@QAE@XZ ; xr_vector<CLightShadows::cache_item,xalloc<CLightShadows::cache_item> >::~xr_vector<CLightShadows::cache_item,xalloc<CLightShadows::cache_item> >
PUBLIC	??1?$xr_vector@Utess_tri@CLightShadows@@V?$xalloc@Utess_tri@CLightShadows@@@@@@QAE@XZ ; xr_vector<CLightShadows::tess_tri,xalloc<CLightShadows::tess_tri> >::~xr_vector<CLightShadows::tess_tri,xalloc<CLightShadows::tess_tri> >
PUBLIC	??1?$xr_vector@Ushadow@CLightShadows@@V?$xalloc@Ushadow@CLightShadows@@@@@@QAE@XZ ; xr_vector<CLightShadows::shadow,xalloc<CLightShadows::shadow> >::~xr_vector<CLightShadows::shadow,xalloc<CLightShadows::shadow> >
PUBLIC	??1?$xr_vector@PAUcaster@CLightShadows@@V?$xalloc@PAUcaster@CLightShadows@@@@@@QAE@XZ ; xr_vector<CLightShadows::caster *,xalloc<CLightShadows::caster *> >::~xr_vector<CLightShadows::caster *,xalloc<CLightShadows::caster *> >
PUBLIC	??0CLightShadows@@QAE@XZ			; CLightShadows::CLightShadows
PUBLIC	??1CLightShadows@@QAE@XZ			; CLightShadows::~CLightShadows
PUBLIC	?set_object@CLightShadows@@QAEXPAVIRenderable@@@Z ; CLightShadows::set_object
PUBLIC	?calculate@CLightShadows@@QAEXXZ		; CLightShadows::calculate
PUBLIC	?render@CLightShadows@@QAEXXZ			; CLightShadows::render
PUBLIC	?add_element@CLightShadows@@QAEXAAU_MatrixItem@R_dsgraph@@@Z ; CLightShadows::add_element
;	COMDAT xdata$x
xdata$x	SEGMENT
__ehfuncinfo$??$_Emplace_reallocate@Utess_tri@CLightShadows@@@?$vector@Utess_tri@CLightShadows@@V?$xalloc@Utess_tri@CLightShadows@@@@@std@@QAEPAUtess_tri@CLightShadows@@QAU23@$$QAU23@@Z DD 019930522H
	DD	02H
	DD	FLAT:__unwindtable$??$_Emplace_reallocate@Utess_tri@CLightShadows@@@?$vector@Utess_tri@CLightShadows@@V?$xalloc@Utess_tri@CLightShadows@@@@@std@@QAEPAUtess_tri@CLightShadows@@QAU23@$$QAU23@@Z
	DD	01H
	DD	FLAT:__tryblocktable$??$_Emplace_reallocate@Utess_tri@CLightShadows@@@?$vector@Utess_tri@CLightShadows@@V?$xalloc@Utess_tri@CLightShadows@@@@@std@@QAEPAUtess_tri@CLightShadows@@QAU23@$$QAU23@@Z
	DD	2 DUP(00H)
	DD	00H
	DD	00H
__unwindtable$??$_Emplace_reallocate@Utess_tri@CLightShadows@@@?$vector@Utess_tri@CLightShadows@@V?$xalloc@Utess_tri@CLightShadows@@@@@std@@QAEPAUtess_tri@CLightShadows@@QAU23@$$QAU23@@Z DD 0ffffffffH
	DD	00H
	DD	0ffffffffH
	DD	00H
__tryblocktable$??$_Emplace_reallocate@Utess_tri@CLightShadows@@@?$vector@Utess_tri@CLightShadows@@V?$xalloc@Utess_tri@CLightShadows@@@@@std@@QAEPAUtess_tri@CLightShadows@@QAU23@$$QAU23@@Z DD 00H
	DD	00H
	DD	01H
	DD	01H
	DD	FLAT:__catchsym$??$_Emplace_reallocate@Utess_tri@CLightShadows@@@?$vector@Utess_tri@CLightShadows@@V?$xalloc@Utess_tri@CLightShadows@@@@@std@@QAEPAUtess_tri@CLightShadows@@QAU23@$$QAU23@@Z$2
__catchsym$??$_Emplace_reallocate@Utess_tri@CLightShadows@@@?$vector@Utess_tri@CLightShadows@@V?$xalloc@Utess_tri@CLightShadows@@@@@std@@QAEPAUtess_tri@CLightShadows@@QAU23@$$QAU23@@Z$2 DD 00H
	DD	00H
	DD	00H
	DD	FLAT:__catch$??$_Emplace_reallocate@Utess_tri@CLightShadows@@@?$vector@Utess_tri@CLightShadows@@V?$xalloc@Utess_tri@CLightShadows@@@@@std@@QAEPAUtess_tri@CLightShadows@@QAU23@$$QAU23@@Z$0
xdata$x	ENDS
;	COMDAT xdata$x
xdata$x	SEGMENT
__ehfuncinfo$??$_Emplace_reallocate@Ushadow@CLightShadows@@@?$vector@Ushadow@CLightShadows@@V?$xalloc@Ushadow@CLightShadows@@@@@std@@QAEPAUshadow@CLightShadows@@QAU23@$$QAU23@@Z DD 019930522H
	DD	02H
	DD	FLAT:__unwindtable$??$_Emplace_reallocate@Ushadow@CLightShadows@@@?$vector@Ushadow@CLightShadows@@V?$xalloc@Ushadow@CLightShadows@@@@@std@@QAEPAUshadow@CLightShadows@@QAU23@$$QAU23@@Z
	DD	01H
	DD	FLAT:__tryblocktable$??$_Emplace_reallocate@Ushadow@CLightShadows@@@?$vector@Ushadow@CLightShadows@@V?$xalloc@Ushadow@CLightShadows@@@@@std@@QAEPAUshadow@CLightShadows@@QAU23@$$QAU23@@Z
	DD	2 DUP(00H)
	DD	00H
	DD	00H
__unwindtable$??$_Emplace_reallocate@Ushadow@CLightShadows@@@?$vector@Ushadow@CLightShadows@@V?$xalloc@Ushadow@CLightShadows@@@@@std@@QAEPAUshadow@CLightShadows@@QAU23@$$QAU23@@Z DD 0ffffffffH
	DD	00H
	DD	0ffffffffH
	DD	00H
__tryblocktable$??$_Emplace_reallocate@Ushadow@CLightShadows@@@?$vector@Ushadow@CLightShadows@@V?$xalloc@Ushadow@CLightShadows@@@@@std@@QAEPAUshadow@CLightShadows@@QAU23@$$QAU23@@Z DD 00H
	DD	00H
	DD	01H
	DD	01H
	DD	FLAT:__catchsym$??$_Emplace_reallocate@Ushadow@CLightShadows@@@?$vector@Ushadow@CLightShadows@@V?$xalloc@Ushadow@CLightShadows@@@@@std@@QAEPAUshadow@CLightShadows@@QAU23@$$QAU23@@Z$2
__catchsym$??$_Emplace_reallocate@Ushadow@CLightShadows@@@?$vector@Ushadow@CLightShadows@@V?$xalloc@Ushadow@CLightShadows@@@@@std@@QAEPAUshadow@CLightShadows@@QAU23@$$QAU23@@Z$2 DD 00H
	DD	00H
	DD	00H
	DD	FLAT:__catch$??$_Emplace_reallocate@Ushadow@CLightShadows@@@?$vector@Ushadow@CLightShadows@@V?$xalloc@Ushadow@CLightShadows@@@@@std@@QAEPAUshadow@CLightShadows@@QAU23@$$QAU23@@Z$0
xdata$x	ENDS
;	COMDAT xdata$x
xdata$x	SEGMENT
__ehfuncinfo$??$_Emplace_reallocate@ABQAUcaster@CLightShadows@@@?$vector@PAUcaster@CLightShadows@@V?$xalloc@PAUcaster@CLightShadows@@@@@std@@QAEPAPAUcaster@CLightShadows@@QAPAU23@ABQAU23@@Z DD 019930522H
	DD	02H
	DD	FLAT:__unwindtable$??$_Emplace_reallocate@ABQAUcaster@CLightShadows@@@?$vector@PAUcaster@CLightShadows@@V?$xalloc@PAUcaster@CLightShadows@@@@@std@@QAEPAPAUcaster@CLightShadows@@QAPAU23@ABQAU23@@Z
	DD	01H
	DD	FLAT:__tryblocktable$??$_Emplace_reallocate@ABQAUcaster@CLightShadows@@@?$vector@PAUcaster@CLightShadows@@V?$xalloc@PAUcaster@CLightShadows@@@@@std@@QAEPAPAUcaster@CLightShadows@@QAPAU23@ABQAU23@@Z
	DD	2 DUP(00H)
	DD	00H
	DD	00H
__unwindtable$??$_Emplace_reallocate@ABQAUcaster@CLightShadows@@@?$vector@PAUcaster@CLightShadows@@V?$xalloc@PAUcaster@CLightShadows@@@@@std@@QAEPAPAUcaster@CLightShadows@@QAPAU23@ABQAU23@@Z DD 0ffffffffH
	DD	00H
	DD	0ffffffffH
	DD	00H
__tryblocktable$??$_Emplace_reallocate@ABQAUcaster@CLightShadows@@@?$vector@PAUcaster@CLightShadows@@V?$xalloc@PAUcaster@CLightShadows@@@@@std@@QAEPAPAUcaster@CLightShadows@@QAPAU23@ABQAU23@@Z DD 00H
	DD	00H
	DD	01H
	DD	01H
	DD	FLAT:__catchsym$??$_Emplace_reallocate@ABQAUcaster@CLightShadows@@@?$vector@PAUcaster@CLightShadows@@V?$xalloc@PAUcaster@CLightShadows@@@@@std@@QAEPAPAUcaster@CLightShadows@@QAPAU23@ABQAU23@@Z$2
__catchsym$??$_Emplace_reallocate@ABQAUcaster@CLightShadows@@@?$vector@PAUcaster@CLightShadows@@V?$xalloc@PAUcaster@CLightShadows@@@@@std@@QAEPAPAUcaster@CLightShadows@@QAPAU23@ABQAU23@@Z$2 DD 00H
	DD	00H
	DD	00H
	DD	FLAT:__catch$??$_Emplace_reallocate@ABQAUcaster@CLightShadows@@@?$vector@PAUcaster@CLightShadows@@V?$xalloc@PAUcaster@CLightShadows@@@@@std@@QAEPAPAUcaster@CLightShadows@@QAPAU23@ABQAU23@@Z$0
xdata$x	ENDS
;	COMDAT xdata$x
xdata$x	SEGMENT
__ehfuncinfo$??$_Emplace_reallocate@ABU_MatrixItem@R_dsgraph@@@?$vector@U_MatrixItem@R_dsgraph@@V?$xalloc@U_MatrixItem@R_dsgraph@@@@@std@@QAEPAU_MatrixItem@R_dsgraph@@QAU23@ABU23@@Z DD 019930522H
	DD	02H
	DD	FLAT:__unwindtable$??$_Emplace_reallocate@ABU_MatrixItem@R_dsgraph@@@?$vector@U_MatrixItem@R_dsgraph@@V?$xalloc@U_MatrixItem@R_dsgraph@@@@@std@@QAEPAU_MatrixItem@R_dsgraph@@QAU23@ABU23@@Z
	DD	01H
	DD	FLAT:__tryblocktable$??$_Emplace_reallocate@ABU_MatrixItem@R_dsgraph@@@?$vector@U_MatrixItem@R_dsgraph@@V?$xalloc@U_MatrixItem@R_dsgraph@@@@@std@@QAEPAU_MatrixItem@R_dsgraph@@QAU23@ABU23@@Z
	DD	2 DUP(00H)
	DD	00H
	DD	00H
__unwindtable$??$_Emplace_reallocate@ABU_MatrixItem@R_dsgraph@@@?$vector@U_MatrixItem@R_dsgraph@@V?$xalloc@U_MatrixItem@R_dsgraph@@@@@std@@QAEPAU_MatrixItem@R_dsgraph@@QAU23@ABU23@@Z DD 0ffffffffH
	DD	00H
	DD	0ffffffffH
	DD	00H
__tryblocktable$??$_Emplace_reallocate@ABU_MatrixItem@R_dsgraph@@@?$vector@U_MatrixItem@R_dsgraph@@V?$xalloc@U_MatrixItem@R_dsgraph@@@@@std@@QAEPAU_MatrixItem@R_dsgraph@@QAU23@ABU23@@Z DD 00H
	DD	00H
	DD	01H
	DD	01H
	DD	FLAT:__catchsym$??$_Emplace_reallocate@ABU_MatrixItem@R_dsgraph@@@?$vector@U_MatrixItem@R_dsgraph@@V?$xalloc@U_MatrixItem@R_dsgraph@@@@@std@@QAEPAU_MatrixItem@R_dsgraph@@QAU23@ABU23@@Z$2
__catchsym$??$_Emplace_reallocate@ABU_MatrixItem@R_dsgraph@@@?$vector@U_MatrixItem@R_dsgraph@@V?$xalloc@U_MatrixItem@R_dsgraph@@@@@std@@QAEPAU_MatrixItem@R_dsgraph@@QAU23@ABU23@@Z$2 DD 00H
	DD	00H
	DD	00H
	DD	FLAT:__catch$??$_Emplace_reallocate@ABU_MatrixItem@R_dsgraph@@@?$vector@U_MatrixItem@R_dsgraph@@V?$xalloc@U_MatrixItem@R_dsgraph@@@@@std@@QAEPAU_MatrixItem@R_dsgraph@@QAU23@ABU23@@Z$0
xdata$x	ENDS
;	COMDAT xdata$x
xdata$x	SEGMENT
__ehfuncinfo$??$_Emplace_reallocate@ABUcache_item@CLightShadows@@@?$vector@Ucache_item@CLightShadows@@V?$xalloc@Ucache_item@CLightShadows@@@@@std@@QAEPAUcache_item@CLightShadows@@QAU23@ABU23@@Z DD 019930522H
	DD	02H
	DD	FLAT:__unwindtable$??$_Emplace_reallocate@ABUcache_item@CLightShadows@@@?$vector@Ucache_item@CLightShadows@@V?$xalloc@Ucache_item@CLightShadows@@@@@std@@QAEPAUcache_item@CLightShadows@@QAU23@ABU23@@Z
	DD	01H
	DD	FLAT:__tryblocktable$??$_Emplace_reallocate@ABUcache_item@CLightShadows@@@?$vector@Ucache_item@CLightShadows@@V?$xalloc@Ucache_item@CLightShadows@@@@@std@@QAEPAUcache_item@CLightShadows@@QAU23@ABU23@@Z
	DD	2 DUP(00H)
	DD	00H
	DD	00H
__unwindtable$??$_Emplace_reallocate@ABUcache_item@CLightShadows@@@?$vector@Ucache_item@CLightShadows@@V?$xalloc@Ucache_item@CLightShadows@@@@@std@@QAEPAUcache_item@CLightShadows@@QAU23@ABU23@@Z DD 0ffffffffH
	DD	00H
	DD	0ffffffffH
	DD	00H
__tryblocktable$??$_Emplace_reallocate@ABUcache_item@CLightShadows@@@?$vector@Ucache_item@CLightShadows@@V?$xalloc@Ucache_item@CLightShadows@@@@@std@@QAEPAUcache_item@CLightShadows@@QAU23@ABU23@@Z DD 00H
	DD	00H
	DD	01H
	DD	01H
	DD	FLAT:__catchsym$??$_Emplace_reallocate@ABUcache_item@CLightShadows@@@?$vector@Ucache_item@CLightShadows@@V?$xalloc@Ucache_item@CLightShadows@@@@@std@@QAEPAUcache_item@CLightShadows@@QAU23@ABU23@@Z$2
__catchsym$??$_Emplace_reallocate@ABUcache_item@CLightShadows@@@?$vector@Ucache_item@CLightShadows@@V?$xalloc@Ucache_item@CLightShadows@@@@@std@@QAEPAUcache_item@CLightShadows@@QAU23@ABU23@@Z$2 DD 00H
	DD	00H
	DD	00H
	DD	FLAT:__catch$??$_Emplace_reallocate@ABUcache_item@CLightShadows@@@?$vector@Ucache_item@CLightShadows@@V?$xalloc@Ucache_item@CLightShadows@@@@@std@@QAEPAUcache_item@CLightShadows@@QAU23@ABU23@@Z$0
; Function compile flags: /Ogtpy
; File I:\Vitalya\mine\NSProjectX\layers\xrRenderPC_R1\LightShadows.cpp
; File C:\Program Files\Microsoft Visual Studio\2022\Community\VC\Tools\MSVC\14.29.30133\include\vector
; File I:\Vitalya\mine\NSProjectX\xrCore\_stl_extensions.h
; File C:\Program Files\Microsoft Visual Studio\2022\Community\VC\Tools\MSVC\14.29.30133\include\vector
; File I:\Vitalya\mine\NSProjectX\layers\xrRenderPC_R1\LightShadows.cpp
; File C:\Program Files\Microsoft Visual Studio\2022\Community\VC\Tools\MSVC\14.29.30133\include\vector
; File I:\Vitalya\mine\NSProjectX\layers\xrRenderPC_R1\LightShadows.cpp
_TEXT	SEGMENT
_N$ = 8							; size = 4
?add_element@CLightShadows@@QAEXAAU_MatrixItem@R_dsgraph@@@Z PROC ; CLightShadows::add_element
; _this$ = ecx

; 128  : 	if (0==current)										return;

	cmp	DWORD PTR [ecx], 0
	je	SHORT $LN12@add_elemen

; 129  : 	VERIFY2	(casters.back()->nodes.size()<24,"Object exceeds limit of 24 renderable parts/materials");
; 130  : 	if (0==N.pVisual->shader->E[SE_R1_LMODELS]._get())	return;

	mov	edx, DWORD PTR _N$[esp-4]
	mov	eax, DWORD PTR [edx+8]
	mov	eax, DWORD PTR [eax+64]
	cmp	DWORD PTR [eax+24], 0
	je	SHORT $LN12@add_elemen

; 131  : 	casters.back()->nodes.push_back		(N);

	mov	eax, DWORD PTR [ecx+20]
	push	edi
	mov	eax, DWORD PTR [eax-4]
; File C:\Program Files\Microsoft Visual Studio\2022\Community\VC\Tools\MSVC\14.29.30133\include\vector

; 730  :         if (_Mylast != _My_data._Myend) {

	mov	edi, DWORD PTR [eax+24]
	cmp	edi, DWORD PTR [eax+28]
	je	SHORT $LN13@add_elemen
; File I:\Vitalya\mine\NSProjectX\xrCore\_stl_extensions.h

; 84   : 							void					construct		(pointer p, const T& _Val)				{	::new((void*)p) value_type (_Val); }

	push	esi
	mov	ecx, 19					; 00000013H
	mov	esi, edx
	rep movsd
; File C:\Program Files\Microsoft Visual Studio\2022\Community\VC\Tools\MSVC\14.29.30133\include\vector

; 716  :         ++_Mylast;

	add	DWORD PTR [eax+24], 76			; 0000004cH
	pop	esi
	pop	edi
; File I:\Vitalya\mine\NSProjectX\layers\xrRenderPC_R1\LightShadows.cpp

; 132  : }

	ret	4
$LN13@add_elemen:
; File C:\Program Files\Microsoft Visual Studio\2022\Community\VC\Tools\MSVC\14.29.30133\include\vector

; 734  :         _Ty& _Result = *_Emplace_reallocate(_Mylast, _STD forward<_Valty>(_Val)...);

	push	edx
	push	edi
	lea	ecx, DWORD PTR [eax+20]
	call	??$_Emplace_reallocate@ABU_MatrixItem@R_dsgraph@@@?$vector@U_MatrixItem@R_dsgraph@@V?$xalloc@U_MatrixItem@R_dsgraph@@@@@std@@QAEPAU_MatrixItem@R_dsgraph@@QAU23@ABU23@@Z ; std::vector<R_dsgraph::_MatrixItem,xalloc<R_dsgraph::_MatrixItem> >::_Emplace_reallocate<R_dsgraph::_MatrixItem const &>
	pop	edi
$LN12@add_elemen:
; File I:\Vitalya\mine\NSProjectX\layers\xrRenderPC_R1\LightShadows.cpp

; 132  : }

	ret	4
?add_element@CLightShadows@@QAEXAAU_MatrixItem@R_dsgraph@@@Z ENDP ; CLightShadows::add_element
_TEXT	ENDS
; Function compile flags: /Ogtpy
; File I:\Vitalya\mine\NSProjectX\layers\xrRenderPC_R1\LightShadows.cpp
; File I:\Vitalya\mine\NSProjectX\xrEngine\xr_area.h
; File I:\Vitalya\mine\NSProjectX\layers\xrRenderPC_R1\LightShadows.cpp
; File I:\Vitalya\mine\NSProjectX\xrEngine\xr_area.h
; File I:\Vitalya\mine\NSProjectX\xrCDB\xrCDB.h
; File I:\Vitalya\mine\NSProjectX\xrEngine\xr_area.h
; File I:\Vitalya\mine\NSProjectX\xrCDB\xrCDB.h
; File I:\Vitalya\mine\NSProjectX\layers\xrRenderPC_R1\LightShadows.cpp
; File I:\Vitalya\mine\NSProjectX\xrEngine\xr_area.h
; File I:\Vitalya\mine\NSProjectX\xrCDB\xrCDB.h
; File I:\Vitalya\mine\NSProjectX\layers\xrRenderPC_R1\LightShadows.cpp
; File I:\Vitalya\mine\NSProjectX\xrCore\xr_resource.h
; File I:\Vitalya\mine\NSProjectX\layers\xrRenderPC_R1\LightShadows.cpp
; File I:\Vitalya\mine\NSProjectX\xrEngine\R_Backend_Runtime.h
; File I:\Vitalya\mine\NSProjectX\layers\xrRenderPC_R1\LightShadows.cpp
; File C:\Program Files\Microsoft Visual Studio\2022\Community\VC\Tools\MSVC\14.29.30133\include\vector
; File I:\Vitalya\mine\NSProjectX\layers\xrRenderPC_R1\LightShadows.cpp
; File C:\Program Files\Microsoft Visual Studio\2022\Community\VC\Tools\MSVC\14.29.30133\include\vector
; File I:\Vitalya\mine\NSProjectX\layers\xrRenderPC_R1\LightShadows.cpp
; File C:\Program Files\Microsoft Visual Studio\2022\Community\VC\Tools\MSVC\14.29.30133\include\vector
; File I:\Vitalya\mine\NSProjectX\layers\xrRenderPC_R1\LightShadows.cpp
; File I:\Vitalya\mine\NSProjectX\xrCore\FTimer.h
; File I:\Vitalya\mine\NSProjectX\layers\xrRenderPC_R1\LightShadows.cpp
; File I:\Vitalya\mine\NSProjectX\xrCore\FTimer.h
; File C:\Program Files\Microsoft Visual Studio\2022\Community\VC\Tools\MSVC\14.29.30133\include\vector
; File I:\Vitalya\mine\NSProjectX\layers\xrRenderPC_R1\LightShadows.cpp
; File C:\Program Files\Microsoft Visual Studio\2022\Community\VC\Tools\MSVC\14.29.30133\include\vector
; File I:\Vitalya\mine\NSProjectX\layers\xrRenderPC_R1\LightShadows.cpp
; File I:\Vitalya\mine\NSProjectX\xrCore\_color.h
; File I:\Vitalya\mine\NSProjectX\layers\xrRenderPC_R1\LightShadows.cpp
; File I:\Vitalya\mine\NSProjectX\xrCore\_color.h
; File I:\Vitalya\mine\NSProjectX\layers\xrRenderPC_R1\LightShadows.cpp
; File C:\Program Files\Microsoft Visual Studio\2022\Community\VC\Tools\MSVC\14.29.30133\include\xutility
; File I:\Vitalya\mine\NSProjectX\layers\xrRenderPC_R1\LightShadows.cpp
; File I:\Vitalya\mine\NSProjectX\xrCore\_vector2.h
; File I:\Vitalya\mine\NSProjectX\layers\xrRenderPC_R1\LightShadows.cpp
; File C:\Program Files\Microsoft Visual Studio\2022\Community\VC\Tools\MSVC\14.29.30133\include\xutility
; File I:\Vitalya\mine\NSProjectX\layers\xrRenderPC_R1\LightShadows.cpp
; File C:\Program Files\Microsoft Visual Studio\2022\Community\VC\Tools\MSVC\14.29.30133\include\xutility
; File I:\Vitalya\mine\NSProjectX\layers\xrRenderPC_R1\LightShadows.cpp
; File C:\Program Files\Microsoft Visual Studio\2022\Community\VC\Tools\MSVC\14.29.30133\include\xutility
; File I:\Vitalya\mine\NSProjectX\layers\xrRenderPC_R1\LightShadows.cpp
; File C:\Program Files\Microsoft Visual Studio\2022\Community\VC\Tools\MSVC\14.29.30133\include\xutility
; File C:\Program Files\Microsoft Visual Studio\2022\Community\VC\Tools\MSVC\14.29.30133\include\vector
; File I:\Vitalya\mine\NSProjectX\layers\xrRenderPC_R1\LightShadows.cpp
; File C:\Program Files\Microsoft Visual Studio\2022\Community\VC\Tools\MSVC\14.29.30133\include\vector
; File I:\Vitalya\mine\NSProjectX\xrCore\_stl_extensions.h
; File I:\Vitalya\mine\NSProjectX\layers\xrRenderPC_R1\LightShadows.cpp
; File I:\Vitalya\mine\NSProjectX\xrCore\_stl_extensions.h
; File C:\Program Files\Microsoft Visual Studio\2022\Community\VC\Tools\MSVC\14.29.30133\include\vector
; File I:\Vitalya\mine\NSProjectX\layers\xrRenderPC_R1\LightShadows.cpp
; File C:\Program Files\Microsoft Visual Studio\2022\Community\VC\Tools\MSVC\14.29.30133\include\vector
; File I:\Vitalya\mine\NSProjectX\xrCore\_stl_extensions.h
; File C:\Program Files\Microsoft Visual Studio\2022\Community\VC\Tools\MSVC\14.29.30133\include\vector
; File C:\Program Files\Microsoft Visual Studio\2022\Community\VC\Tools\MSVC\14.29.30133\include\xutility
; File C:\Program Files\Microsoft Visual Studio\2022\Community\VC\Tools\MSVC\14.29.30133\include\vector
; File I:\Vitalya\mine\NSProjectX\layers\xrRenderPC_R1\LightShadows.cpp
; File C:\Program Files\Microsoft Visual Studio\2022\Community\VC\Tools\MSVC\14.29.30133\include\vector
; File C:\Program Files\Microsoft Visual Studio\2022\Community\VC\Tools\MSVC\14.29.30133\include\xutility
; File C:\Program Files\Microsoft Visual Studio\2022\Community\VC\Tools\MSVC\14.29.30133\include\vector
; File I:\Vitalya\mine\NSProjectX\layers\xrRenderPC_R1\LightShadows.cpp
; File C:\Program Files\Microsoft Visual Studio\2022\Community\VC\Tools\MSVC\14.29.30133\include\vector
; File I:\Vitalya\mine\NSProjectX\layers\xrRenderPC_R1\LightShadows.cpp
; File I:\Vitalya\mine\NSProjectX\xrCore\_vector3d.h
; File I:\Vitalya\mine\NSProjectX\layers\xrRenderPC_R1\LightShadows.cpp
; File I:\Vitalya\mine\NSProjectX\xrCore\_vector3d.h
; File C:\Program Files (x86)\Windows Kits\10\Include\10.0.22000.0\ucrt\corecrt_math.h
; File I:\Vitalya\mine\NSProjectX\xrCore\_vector3d.h
; File C:\Program Files (x86)\Windows Kits\10\Include\10.0.22000.0\ucrt\corecrt_math.h
; File I:\Vitalya\mine\NSProjectX\xrCore\_vector3d.h
; File C:\Program Files (x86)\Windows Kits\10\Include\10.0.22000.0\ucrt\corecrt_math.h
; File I:\Vitalya\mine\NSProjectX\xrCore\_vector3d.h
; File C:\Program Files (x86)\Windows Kits\10\Include\10.0.22000.0\ucrt\corecrt_math.h
; File I:\Vitalya\mine\NSProjectX\xrCore\_vector3d.h
; File C:\Program Files (x86)\Windows Kits\10\Include\10.0.22000.0\ucrt\corecrt_math.h
; File I:\Vitalya\mine\NSProjectX\xrCore\_vector3d.h
; File C:\Program Files (x86)\Windows Kits\10\Include\10.0.22000.0\ucrt\corecrt_math.h
; File I:\Vitalya\mine\NSProjectX\xrCore\_vector3d.h
; File I:\Vitalya\mine\NSProjectX\layers\xrRenderPC_R1\LightShadows.cpp
; File C:\Program Files\Microsoft Visual Studio\2022\Community\VC\Tools\MSVC\14.29.30133\include\vector
; File I:\Vitalya\mine\NSProjectX\xrCore\_stl_extensions.h
; File C:\Program Files\Microsoft Visual Studio\2022\Community\VC\Tools\MSVC\14.29.30133\include\vector
; File I:\Vitalya\mine\NSProjectX\xrCore\_stl_extensions.h
; File C:\Program Files\Microsoft Visual Studio\2022\Community\VC\Tools\MSVC\14.29.30133\include\vector
; File I:\Vitalya\mine\NSProjectX\xrCore\_stl_extensions.h
; File C:\Program Files\Microsoft Visual Studio\2022\Community\VC\Tools\MSVC\14.29.30133\include\vector
; File C:\Program Files\Microsoft Visual Studio\2022\Community\VC\Tools\MSVC\14.29.30133\include\xutility
; File C:\Program Files\Microsoft Visual Studio\2022\Community\VC\Tools\MSVC\14.29.30133\include\vector
; File C:\Program Files\Microsoft Visual Studio\2022\Community\VC\Tools\MSVC\14.29.30133\include\xutility
; File C:\Program Files\Microsoft Visual Studio\2022\Community\VC\Tools\MSVC\14.29.30133\include\vector
; File I:\Vitalya\mine\NSProjectX\layers\xrRenderPC_R1\LightShadows.cpp
; File I:\Vitalya\mine\NSProjectX\xrCDB\xrCDB.h
; File I:\Vitalya\mine\NSProjectX\layers\xrRenderPC_R1\LightShadows.cpp
; File I:\Vitalya\mine\NSProjectX\xrCDB\xrCDB.h
; File I:\Vitalya\mine\NSProjectX\layers\xrRenderPC_R1\LightShadows.cpp
; File C:\Program Files\Microsoft Visual Studio\2022\Community\VC\Tools\MSVC\14.29.30133\include\vector
; File I:\Vitalya\mine\NSProjectX\layers\xrRenderPC_R1\LightShadows.cpp
; File I:\Vitalya\mine\NSProjectX\xrCDB\xrCDB.h
; File I:\Vitalya\mine\NSProjectX\layers\xrRenderPC_R1\LightShadows.cpp
; File I:\Vitalya\mine\NSProjectX\xrCDB\xrCDB.h
; File I:\Vitalya\mine\NSProjectX\layers\xrRenderPC_R1\LightShadows.cpp
; File I:\Vitalya\mine\NSProjectX\xrCDB\xrCDB.h
; File I:\Vitalya\mine\NSProjectX\layers\xrRenderPC_R1\LightShadows.cpp
; File I:\Vitalya\mine\NSProjectX\xrCore\FixedVector.h
; File I:\Vitalya\mine\NSProjectX\layers\xrRenderPC_R1\LightShadows.cpp
; File I:\Vitalya\mine\NSProjectX\xrCore\FixedVector.h
; File I:\Vitalya\mine\NSProjectX\layers\xrRenderPC_R1\LightShadows.cpp
; File I:\Vitalya\mine\NSProjectX\xrCore\_vector3d.h
; File I:\Vitalya\mine\NSProjectX\layers\xrRenderPC_R1\LightShadows.cpp
; File I:\Vitalya\mine\NSProjectX\xrCore\_vector3d.h
; File I:\Vitalya\mine\NSProjectX\layers\xrRenderPC_R1\LightShadows.cpp
; File I:\Vitalya\mine\NSProjectX\xrCore\_vector3d.h
; File I:\Vitalya\mine\NSProjectX\layers\xrRenderPC_R1\LightShadows.cpp
; File I:\Vitalya\mine\NSProjectX\xrCore\_vector3d.h
; File I:\Vitalya\mine\NSProjectX\layers\xrRenderPC_R1\LightShadows.cpp
; File I:\Vitalya\mine\NSProjectX\xrCore\_vector3d.h
; File I:\Vitalya\mine\NSProjectX\xrCore\FixedVector.h
; File I:\Vitalya\mine\NSProjectX\xrCore\_vector3d.h
; File I:\Vitalya\mine\NSProjectX\xrCore\FixedVector.h
; File I:\Vitalya\mine\NSProjectX\xrCore\_vector3d.h
; File I:\Vitalya\mine\NSProjectX\layers\xrRenderPC_R1\LightShadows.cpp
; File I:\Vitalya\mine\NSProjectX\xrCore\_vector3d.h
; File I:\Vitalya\mine\NSProjectX\xrCore\FixedVector.h
; File I:\Vitalya\mine\NSProjectX\layers\xrRenderPC_R1\LightShadows.cpp
; File I:\Vitalya\mine\NSProjectX\xrCore\_vector3d.h
; File I:\Vitalya\mine\NSProjectX\layers\xrRenderPC_R1\LightShadows.cpp
; File I:\Vitalya\mine\NSProjectX\xrCore\_vector3d.h
; File I:\Vitalya\mine\NSProjectX\layers\xrRenderPC_R1\LightShadows.cpp
; File I:\Vitalya\mine\NSProjectX\xrCore\_vector3d.h
; File I:\Vitalya\mine\NSProjectX\layers\xrRenderPC_R1\LightShadows.cpp
; File I:\Vitalya\mine\NSProjectX\xrCore\_vector3d.h
; File I:\Vitalya\mine\NSProjectX\layers\xrRenderPC_R1\LightShadows.cpp
; File I:\Vitalya\mine\NSProjectX\xrCore\_vector3d.h
; File I:\Vitalya\mine\NSProjectX\layers\xrRenderPC_R1\LightShadows.cpp
; File I:\Vitalya\mine\NSProjectX\xrCore\_vector3d.h
; File I:\Vitalya\mine\NSProjectX\layers\xrRenderPC_R1\LightShadows.cpp
; File I:\Vitalya\mine\NSProjectX\xrCore\_vector3d.h
; File I:\Vitalya\mine\NSProjectX\xrCore\FixedVector.h
; File I:\Vitalya\mine\NSProjectX\xrCore\_vector3d.h
; File I:\Vitalya\mine\NSProjectX\xrCore\FixedVector.h
; File I:\Vitalya\mine\NSProjectX\xrCore\_vector3d.h
; File I:\Vitalya\mine\NSProjectX\layers\xrRenderPC_R1\LightShadows.cpp
; File C:\Program Files (x86)\Windows Kits\10\Include\10.0.22000.0\ucrt\corecrt_math.h
; File I:\Vitalya\mine\NSProjectX\layers\xrRenderPC_R1\LightShadows.cpp
; File I:\Vitalya\mine\NSProjectX\xrCore\_vector3d.h
; File I:\Vitalya\mine\NSProjectX\layers\xrRenderPC_R1\LightShadows.cpp
; File I:\Vitalya\mine\NSProjectX\xrCore\_vector3d.h
; File I:\Vitalya\mine\NSProjectX\layers\xrRenderPC_R1\LightShadows.cpp
; File C:\Program Files\Microsoft Visual Studio\2022\Community\VC\Tools\MSVC\14.29.30133\include\vector
; File I:\Vitalya\mine\NSProjectX\layers\xrRenderPC_R1\LightShadows.cpp
; File C:\Program Files\Microsoft Visual Studio\2022\Community\VC\Tools\MSVC\14.29.30133\include\vector
; File I:\Vitalya\mine\NSProjectX\xrCore\_stl_extensions.h
; File C:\Program Files\Microsoft Visual Studio\2022\Community\VC\Tools\MSVC\14.29.30133\include\vector
; File I:\Vitalya\mine\NSProjectX\xrCore\_stl_extensions.h
; File C:\Program Files\Microsoft Visual Studio\2022\Community\VC\Tools\MSVC\14.29.30133\include\vector
; File I:\Vitalya\mine\NSProjectX\layers\xrRenderPC_R1\LightShadows.cpp
; File I:\Vitalya\mine\NSProjectX\xrCDB\xrCDB.h
; File I:\Vitalya\mine\NSProjectX\layers\xrRenderPC_R1\LightShadows.cpp
; File I:\Vitalya\mine\NSProjectX\xrCDB\xrCDB.h
; File I:\Vitalya\mine\NSProjectX\layers\xrRenderPC_R1\LightShadows.cpp
; File I:\Vitalya\mine\NSProjectX\xrCDB\xrCDB.h
; File I:\Vitalya\mine\NSProjectX\layers\xrRenderPC_R1\LightShadows.cpp
; File C:\Program Files\Microsoft Visual Studio\2022\Community\VC\Tools\MSVC\14.29.30133\include\vector
; File I:\Vitalya\mine\NSProjectX\layers\xrRenderPC_R1\LightShadows.cpp
; File I:\Vitalya\mine\NSProjectX\xrCore\xrMemory.h
; File C:\Program Files\Microsoft Visual Studio\2022\Community\VC\Tools\MSVC\14.29.30133\include\vector
; File I:\Vitalya\mine\NSProjectX\layers\xrRenderPC_R1\LightShadows.cpp
; File I:\Vitalya\mine\NSProjectX\xrCore\xrMemory.h
; File I:\Vitalya\mine\NSProjectX\layers\xrRenderPC_R1\LightShadows.cpp
; File I:\Vitalya\mine\NSProjectX\xrCore\_vector3d.h
; File I:\Vitalya\mine\NSProjectX\layers\xrRenderPC_R1\LightShadows.cpp
; File I:\Vitalya\mine\NSProjectX\xrCore\_vector3d.h
; File I:\Vitalya\mine\NSProjectX\xrCore\_plane.h
; File I:\Vitalya\mine\NSProjectX\xrCore\_vector3d.h
; File I:\Vitalya\mine\NSProjectX\layers\xrRenderPC_R1\LightShadows.cpp
; File I:\Vitalya\mine\NSProjectX\xrCore\_vector3d.h
; File I:\Vitalya\mine\NSProjectX\layers\xrRenderPC_R1\LightShadows.cpp
; File I:\Vitalya\mine\NSProjectX\xrCore\_vector3d.h
; File I:\Vitalya\mine\NSProjectX\layers\xrRenderPC_R1\LightShadows.cpp
; File I:\Vitalya\mine\NSProjectX\xrCore\_vector3d.h
; File C:\Program Files (x86)\Windows Kits\10\Include\10.0.22000.0\ucrt\corecrt_math.h
; File I:\Vitalya\mine\NSProjectX\xrCore\_vector3d.h
; File I:\Vitalya\mine\NSProjectX\layers\xrRenderPC_R1\LightShadows.cpp
; File C:\Program Files (x86)\Windows Kits\10\Include\10.0.22000.0\ucrt\corecrt_math.h
; File I:\Vitalya\mine\NSProjectX\layers\xrRenderPC_R1\LightShadows.cpp
; File I:\Vitalya\mine\NSProjectX\xrCore\_vector3d.h
; File I:\Vitalya\mine\NSProjectX\xrCore\vector.h
; File I:\Vitalya\mine\NSProjectX\xrCore\_vector3d.h
; File I:\Vitalya\mine\NSProjectX\layers\xrRenderPC_R1\LightShadows.cpp
; File I:\Vitalya\mine\NSProjectX\xrCore\vector.h
; File I:\Vitalya\mine\NSProjectX\layers\xrRenderPC_R1\LightShadows.cpp
; File I:\Vitalya\mine\NSProjectX\xrCore\vector.h
; File I:\Vitalya\mine\NSProjectX\xrCore\_vector3d.h
; File I:\Vitalya\mine\NSProjectX\layers\xrRenderPC_R1\LightShadows.cpp
; File I:\Vitalya\mine\NSProjectX\xrCore\vector.h
; File I:\Vitalya\mine\NSProjectX\layers\xrRenderPC_R1\LightShadows.cpp
; File I:\Vitalya\mine\NSProjectX\xrCore\_bitwise.h
; File I:\Vitalya\mine\NSProjectX\layers\xrRenderPC_R1\LightShadows.cpp
; File I:\Vitalya\mine\NSProjectX\xrCore\_bitwise.h
; File I:\Vitalya\mine\NSProjectX\layers\xrRenderPC_R1\LightShadows.cpp
; File I:\Vitalya\mine\NSProjectX\xrCore\_bitwise.h
; File I:\Vitalya\mine\NSProjectX\layers\xrRenderPC_R1\LightShadows.cpp
; File I:\Vitalya\mine\NSProjectX\xrCore\_vector3d.h
; File I:\Vitalya\mine\NSProjectX\layers\xrRenderPC_R1\LightShadows.cpp
; File I:\Vitalya\mine\NSProjectX\xrCore\_vector3d.h
; File I:\Vitalya\mine\NSProjectX\layers\xrRenderPC_R1\LightShadows.cpp
; File I:\Vitalya\mine\NSProjectX\xrCore\_vector3d.h
; File C:\Program Files (x86)\Windows Kits\10\Include\10.0.22000.0\ucrt\corecrt_math.h
; File I:\Vitalya\mine\NSProjectX\xrCore\_vector3d.h
; File I:\Vitalya\mine\NSProjectX\layers\xrRenderPC_R1\LightShadows.cpp
; File C:\Program Files (x86)\Windows Kits\10\Include\10.0.22000.0\ucrt\corecrt_math.h
; File I:\Vitalya\mine\NSProjectX\layers\xrRenderPC_R1\LightShadows.cpp
; File I:\Vitalya\mine\NSProjectX\xrCore\_vector3d.h
; File I:\Vitalya\mine\NSProjectX\layers\xrRenderPC_R1\LightShadows.cpp
; File I:\Vitalya\mine\NSProjectX\xrCore\vector.h
; File I:\Vitalya\mine\NSProjectX\xrCore\_vector3d.h
; File I:\Vitalya\mine\NSProjectX\layers\xrRenderPC_R1\LightShadows.cpp
; File I:\Vitalya\mine\NSProjectX\xrCore\vector.h
; File I:\Vitalya\mine\NSProjectX\layers\xrRenderPC_R1\LightShadows.cpp
; File I:\Vitalya\mine\NSProjectX\xrCore\_bitwise.h
; File I:\Vitalya\mine\NSProjectX\layers\xrRenderPC_R1\LightShadows.cpp
; File I:\Vitalya\mine\NSProjectX\xrCore\_bitwise.h
; File I:\Vitalya\mine\NSProjectX\layers\xrRenderPC_R1\LightShadows.cpp
; File I:\Vitalya\mine\NSProjectX\xrCore\_bitwise.h
; File I:\Vitalya\mine\NSProjectX\layers\xrRenderPC_R1\LightShadows.cpp
; File I:\Vitalya\mine\NSProjectX\xrCore\_vector3d.h
; File I:\Vitalya\mine\NSProjectX\layers\xrRenderPC_R1\LightShadows.cpp
; File I:\Vitalya\mine\NSProjectX\xrCore\_vector3d.h
; File I:\Vitalya\mine\NSProjectX\layers\xrRenderPC_R1\LightShadows.cpp
; File I:\Vitalya\mine\NSProjectX\xrCore\_vector3d.h
; File C:\Program Files (x86)\Windows Kits\10\Include\10.0.22000.0\ucrt\corecrt_math.h
; File I:\Vitalya\mine\NSProjectX\xrCore\_vector3d.h
; File I:\Vitalya\mine\NSProjectX\layers\xrRenderPC_R1\LightShadows.cpp
; File C:\Program Files (x86)\Windows Kits\10\Include\10.0.22000.0\ucrt\corecrt_math.h
; File I:\Vitalya\mine\NSProjectX\layers\xrRenderPC_R1\LightShadows.cpp
; File I:\Vitalya\mine\NSProjectX\xrCore\_vector3d.h
; File I:\Vitalya\mine\NSProjectX\layers\xrRenderPC_R1\LightShadows.cpp
; File I:\Vitalya\mine\NSProjectX\xrCore\vector.h
; File I:\Vitalya\mine\NSProjectX\xrCore\_vector3d.h
; File I:\Vitalya\mine\NSProjectX\layers\xrRenderPC_R1\LightShadows.cpp
; File I:\Vitalya\mine\NSProjectX\xrCore\vector.h
; File I:\Vitalya\mine\NSProjectX\layers\xrRenderPC_R1\LightShadows.cpp
; File I:\Vitalya\mine\NSProjectX\xrCore\_bitwise.h
; File I:\Vitalya\mine\NSProjectX\layers\xrRenderPC_R1\LightShadows.cpp
; File I:\Vitalya\mine\NSProjectX\xrCore\_bitwise.h
; File I:\Vitalya\mine\NSProjectX\layers\xrRenderPC_R1\LightShadows.cpp
; File I:\Vitalya\mine\NSProjectX\xrCore\_bitwise.h
; File I:\Vitalya\mine\NSProjectX\layers\xrRenderPC_R1\LightShadows.cpp
; File I:\Vitalya\mine\NSProjectX\xrCore\_bitwise.h
; File I:\Vitalya\mine\NSProjectX\layers\xrRenderPC_R1\LightShadows.cpp
; File I:\Vitalya\mine\NSProjectX\xrCore\vector.h
; File I:\Vitalya\mine\NSProjectX\xrCore\_matrix.h
; File I:\Vitalya\mine\NSProjectX\xrCore\_vector3d.h
; File I:\Vitalya\mine\NSProjectX\xrCore\_matrix.h
; File I:\Vitalya\mine\NSProjectX\xrCore\_vector3d.h
; File I:\Vitalya\mine\NSProjectX\xrCore\_matrix.h
; File I:\Vitalya\mine\NSProjectX\xrCore\_vector3d.h
; File I:\Vitalya\mine\NSProjectX\xrCore\_matrix.h
; File I:\Vitalya\mine\NSProjectX\xrCore\_vector2.h
; File I:\Vitalya\mine\NSProjectX\xrCore\_vector3d.h
; File I:\Vitalya\mine\NSProjectX\xrCore\_matrix.h
; File I:\Vitalya\mine\NSProjectX\xrCore\_color.h
; File I:\Vitalya\mine\NSProjectX\xrCore\_matrix.h
; File I:\Vitalya\mine\NSProjectX\xrCore\_color.h
; File I:\Vitalya\mine\NSProjectX\xrCore\_matrix.h
; File I:\Vitalya\mine\NSProjectX\xrCore\_color.h
; File I:\Vitalya\mine\NSProjectX\xrCore\_matrix.h
; File I:\Vitalya\mine\NSProjectX\xrCore\_color.h
; File I:\Vitalya\mine\NSProjectX\xrCore\_matrix.h
; File I:\Vitalya\mine\NSProjectX\xrCore\_color.h
; File I:\Vitalya\mine\NSProjectX\xrCore\_matrix.h
; File I:\Vitalya\mine\NSProjectX\xrCore\_color.h
; File I:\Vitalya\mine\NSProjectX\xrEngine\fvf.h
; File I:\Vitalya\mine\NSProjectX\xrCore\_matrix.h
; File I:\Vitalya\mine\NSProjectX\layers\xrRenderPC_R1\LightShadows.cpp
; File I:\Vitalya\mine\NSProjectX\xrEngine\fvf.h
; File I:\Vitalya\mine\NSProjectX\xrCore\_vector2.h
; File I:\Vitalya\mine\NSProjectX\xrCore\_matrix.h
; File I:\Vitalya\mine\NSProjectX\layers\xrRenderPC_R1\LightShadows.cpp
; File I:\Vitalya\mine\NSProjectX\xrCore\_matrix.h
; File I:\Vitalya\mine\NSProjectX\layers\xrRenderPC_R1\LightShadows.cpp
; File I:\Vitalya\mine\NSProjectX\xrCore\_vector2.h
; File I:\Vitalya\mine\NSProjectX\layers\xrRenderPC_R1\LightShadows.cpp
; File I:\Vitalya\mine\NSProjectX\xrCore\_vector2.h
; File I:\Vitalya\mine\NSProjectX\xrCore\_matrix.h
; File I:\Vitalya\mine\NSProjectX\xrCore\_color.h
; File I:\Vitalya\mine\NSProjectX\xrCore\_matrix.h
; File I:\Vitalya\mine\NSProjectX\xrCore\_vector3d.h
; File I:\Vitalya\mine\NSProjectX\xrCore\_matrix.h
; File I:\Vitalya\mine\NSProjectX\xrCore\_color.h
; File I:\Vitalya\mine\NSProjectX\xrCore\_vector3d.h
; File I:\Vitalya\mine\NSProjectX\xrCore\_color.h
; File I:\Vitalya\mine\NSProjectX\xrCore\_vector3d.h
; File I:\Vitalya\mine\NSProjectX\xrCore\_matrix.h
; File I:\Vitalya\mine\NSProjectX\xrCore\_vector3d.h
; File I:\Vitalya\mine\NSProjectX\xrCore\_matrix.h
; File I:\Vitalya\mine\NSProjectX\xrCore\_color.h
; File I:\Vitalya\mine\NSProjectX\xrCore\_matrix.h
; File I:\Vitalya\mine\NSProjectX\xrCore\_color.h
; File I:\Vitalya\mine\NSProjectX\xrCore\_matrix.h
; File I:\Vitalya\mine\NSProjectX\xrCore\_color.h
; File I:\Vitalya\mine\NSProjectX\xrEngine\fvf.h
; File I:\Vitalya\mine\NSProjectX\xrCore\_matrix.h
; File I:\Vitalya\mine\NSProjectX\xrCore\_vector3d.h
; File I:\Vitalya\mine\NSProjectX\xrCore\_matrix.h
; File I:\Vitalya\mine\NSProjectX\xrCore\_vector2.h
; File I:\Vitalya\mine\NSProjectX\xrCore\_matrix.h
; File I:\Vitalya\mine\NSProjectX\layers\xrRenderPC_R1\LightShadows.cpp
; File I:\Vitalya\mine\NSProjectX\xrCore\_vector2.h
; File I:\Vitalya\mine\NSProjectX\xrCore\_matrix.h
; File I:\Vitalya\mine\NSProjectX\xrCore\_vector2.h
; File I:\Vitalya\mine\NSProjectX\layers\xrRenderPC_R1\LightShadows.cpp
; File I:\Vitalya\mine\NSProjectX\xrCore\_vector2.h
; File I:\Vitalya\mine\NSProjectX\xrCore\_matrix.h
; File I:\Vitalya\mine\NSProjectX\xrCore\_vector3d.h
; File I:\Vitalya\mine\NSProjectX\xrCore\_matrix.h
; File I:\Vitalya\mine\NSProjectX\xrCore\_vector3d.h
; File I:\Vitalya\mine\NSProjectX\xrCore\_matrix.h
; File I:\Vitalya\mine\NSProjectX\layers\xrRenderPC_R1\LightShadows.cpp
; File I:\Vitalya\mine\NSProjectX\xrCore\_matrix.h
; File I:\Vitalya\mine\NSProjectX\layers\xrRenderPC_R1\LightShadows.cpp
; File I:\Vitalya\mine\NSProjectX\xrCore\_matrix.h
; File I:\Vitalya\mine\NSProjectX\xrCore\_color.h
; File I:\Vitalya\mine\NSProjectX\xrCore\_matrix.h
; File I:\Vitalya\mine\NSProjectX\xrCore\_vector3d.h
; File I:\Vitalya\mine\NSProjectX\xrCore\_matrix.h
; File I:\Vitalya\mine\NSProjectX\xrCore\_color.h
; File I:\Vitalya\mine\NSProjectX\xrCore\_matrix.h
; File I:\Vitalya\mine\NSProjectX\layers\xrRenderPC_R1\LightShadows.cpp
; File I:\Vitalya\mine\NSProjectX\xrCore\_matrix.h
; File I:\Vitalya\mine\NSProjectX\xrCore\_color.h
; File I:\Vitalya\mine\NSProjectX\xrCore\_matrix.h
; File I:\Vitalya\mine\NSProjectX\xrCore\_color.h
; File I:\Vitalya\mine\NSProjectX\xrCore\_matrix.h
; File I:\Vitalya\mine\NSProjectX\xrCore\_color.h
; File I:\Vitalya\mine\NSProjectX\xrCore\_matrix.h
; File I:\Vitalya\mine\NSProjectX\xrEngine\fvf.h
; File I:\Vitalya\mine\NSProjectX\xrCore\_vector3d.h
; File I:\Vitalya\mine\NSProjectX\xrCore\_matrix.h
; File I:\Vitalya\mine\NSProjectX\xrCore\_vector2.h
; File I:\Vitalya\mine\NSProjectX\xrCore\_matrix.h
; File I:\Vitalya\mine\NSProjectX\layers\xrRenderPC_R1\LightShadows.cpp
; File I:\Vitalya\mine\NSProjectX\xrCore\_vector2.h
; File I:\Vitalya\mine\NSProjectX\xrCore\_matrix.h
; File I:\Vitalya\mine\NSProjectX\xrCore\_vector2.h
; File I:\Vitalya\mine\NSProjectX\layers\xrRenderPC_R1\LightShadows.cpp
; File I:\Vitalya\mine\NSProjectX\xrCore\_vector2.h
; File I:\Vitalya\mine\NSProjectX\layers\xrRenderPC_R1\LightShadows.cpp
; File I:\Vitalya\mine\NSProjectX\xrEngine\R_Backend_Runtime.h
; File I:\Vitalya\mine\NSProjectX\xrEngine\r_constants_cache.h
; File I:\Vitalya\mine\NSProjectX\xrEngine\R_Backend_Runtime.h
; File I:\Vitalya\mine\NSProjectX\layers\xrRenderPC_R1\LightShadows.cpp
; File I:\Vitalya\mine\NSProjectX\xrCore\FTimer.h
; File C:\Program Files\Microsoft Visual Studio\2022\Community\VC\Tools\MSVC\14.29.30133\include\vector
; File I:\Vitalya\mine\NSProjectX\layers\xrRenderPC_R1\LightShadows.cpp
; File C:\Program Files\Microsoft Visual Studio\2022\Community\VC\Tools\MSVC\14.29.30133\include\vector
; File I:\Vitalya\mine\NSProjectX\layers\xrRenderPC_R1\LightShadows.cpp
; File C:\Program Files\Microsoft Visual Studio\2022\Community\VC\Tools\MSVC\14.29.30133\include\vector
; File I:\Vitalya\mine\NSProjectX\layers\xrRenderPC_R1\LightShadows.cpp
; File C:\Program Files\Microsoft Visual Studio\2022\Community\VC\Tools\MSVC\14.29.30133\include\vector
; File I:\Vitalya\mine\NSProjectX\layers\xrRenderPC_R1\LightShadows.cpp
; File I:\Vitalya\mine\NSProjectX\xrEngine\R_Backend_Runtime.h
; File I:\Vitalya\mine\NSProjectX\xrEngine\r_constants_cache.h
; File I:\Vitalya\mine\NSProjectX\xrEngine\R_Backend_Runtime.h
; File I:\Vitalya\mine\NSProjectX\layers\xrRenderPC_R1\LightShadows.cpp
; File C:\Program Files\Microsoft Visual Studio\2022\Community\VC\Tools\MSVC\14.29.30133\include\vector
; File I:\Vitalya\mine\NSProjectX\layers\xrRenderPC_R1\LightShadows.cpp
; File I:\Vitalya\mine\NSProjectX\xrCore\xrMemory.h
; File C:\Program Files\Microsoft Visual Studio\2022\Community\VC\Tools\MSVC\14.29.30133\include\xutility
; File C:\Program Files\Microsoft Visual Studio\2022\Community\VC\Tools\MSVC\14.29.30133\include\vector
; File C:\Program Files\Microsoft Visual Studio\2022\Community\VC\Tools\MSVC\14.29.30133\include\xutility
; File I:\Vitalya\mine\NSProjectX\layers\xrRenderPC_R1\LightShadows.cpp
; File C:\Program Files\Microsoft Visual Studio\2022\Community\VC\Tools\MSVC\14.29.30133\include\xutility
; File C:\Program Files\Microsoft Visual Studio\2022\Community\VC\Tools\MSVC\14.29.30133\include\vector
; File I:\Vitalya\mine\NSProjectX\layers\xrRenderPC_R1\LightShadows.cpp
; File C:\Program Files\Microsoft Visual Studio\2022\Community\VC\Tools\MSVC\14.29.30133\include\vector
; File I:\Vitalya\mine\NSProjectX\layers\xrRenderPC_R1\LightShadows.cpp
; File C:\Program Files\Microsoft Visual Studio\2022\Community\VC\Tools\MSVC\14.29.30133\include\vector
; File I:\Vitalya\mine\NSProjectX\layers\xrRenderPC_R1\LightShadows.cpp
; File C:\Program Files\Microsoft Visual Studio\2022\Community\VC\Tools\MSVC\14.29.30133\include\vector
; File I:\Vitalya\mine\NSProjectX\layers\xrRenderPC_R1\LightShadows.cpp
; File C:\Program Files\Microsoft Visual Studio\2022\Community\VC\Tools\MSVC\14.29.30133\include\vector
; File I:\Vitalya\mine\NSProjectX\layers\xrRenderPC_R1\LightShadows.cpp
_TEXT	SEGMENT
_magnitude$1$ = -1700					; size = 4
_c0$2$ = -1700						; size = 4
_v$1$ = -1700						; size = 4
_CI_what$2$ = -1700					; size = 4
tv7006 = -1700						; size = 4
tv6979 = -1700						; size = 4
_a$7 = -1700						; size = 4
_magnitude$1$ = -1696					; size = 4
_sqD$1$ = -1696						; size = 4
_C1$1$ = -1696						; size = 4
_c1$2$ = -1696						; size = 4
_p$1$ = -1696						; size = 4
__vb$1$ = -1692						; size = 4
_cit$1$ = -1692						; size = 4
_tid$1$ = -1692						; size = 4
_clip$1$ = -1692					; size = 4
tv7293 = -1692						; size = 4
tv7080 = -1692						; size = 4
tv7072 = -1692						; size = 4
_iw$1$ = -1688						; size = 4
tv7007 = -1688						; size = 4
tv6978 = -1688						; size = 4
tv6800 = -1688						; size = 4
_a$8 = -1688						; size = 4
_a$9 = -1688						; size = 4
__My_data$1$ = -1684					; size = 4
tv6947 = -1684						; size = 4
_e$1$ = -1680						; size = 4
tv7008 = -1680						; size = 4
tv6977 = -1680						; size = 4
tv6732 = -1680						; size = 4
_CI$1$ = -1676						; size = 4
tv7092 = -1672						; size = 4
tv7204 = -1668						; size = 4
tv7079 = -1668						; size = 4
tv6949 = -1664						; size = 4
_iw$1$ = -1660						; size = 4
_iw$1$ = -1660						; size = 4
tv7175 = -1660						; size = 4
tv6799 = -1660						; size = 4
_Le$1$ = -1656						; size = 4
_this$1$ = -1652					; size = 4
_S$1$ = -1648						; size = 4
_this$1$ = -1644					; size = 4
_pv$1$ = -1640						; size = 4
_batch$1$ = -1636					; size = 4
tv7200 = -1632						; size = 4
tv7187 = -1632						; size = 4
tv6789 = -1632						; size = 4
_Offset$ = -1628					; size = 4
_e$3$ = -1624						; size = 4
tv6731 = -1624						; size = 4
_t_offset$2$sroa$3657$1$ = -1620			; size = 4
_t_offset$2$sroa$3658$1$ = -1616			; size = 4
_s_it$1$ = -1612					; size = 4
$T10 = -1608						; size = 4
tv7252 = -1604						; size = 4
tv6788 = -1600						; size = 4
_C1$1$ = -1596						; size = 4
_DB$1$ = -1592						; size = 4
_TRIS$1$ = -1588					; size = 4
_VERTS$1$ = -1584					; size = 4
__43$1$ = -1580						; size = 4
_e$ = -1576						; size = 12
_e$ = -1564						; size = 12
_e$ = -1552						; size = 12
_View$ = -1540						; size = 12
_P$11 = -1528						; size = 16
$T12 = -1512						; size = 4
_CI_what$13 = -1508					; size = 44
$T14 = -1464						; size = 48
_A$15 = -1416						; size = 580
_F$16 = -832						; size = 244
_B$17 = -584						; size = 580
?render@CLightShadows@@QAEXXZ PROC			; CLightShadows::render
; _this$ = ecx

; 357  : {

	push	ebp
	mov	ebp, esp
	and	esp, -8					; fffffff8H
	sub	esp, 1700				; 000006a4H
; File I:\Vitalya\mine\NSProjectX\xrEngine\xr_area.h

; 61   : 	CDB::MODEL* GetStaticModel() { return &Static; }

	mov	eax, DWORD PTR __imp_?g_pGameLevel@@3PAVIGame_Level@@A
; File I:\Vitalya\mine\NSProjectX\layers\xrRenderPC_R1\LightShadows.cpp

; 357  : {

	push	ebx
	mov	ebx, ecx
	push	esi
; File I:\Vitalya\mine\NSProjectX\xrEngine\xr_area.h

; 61   : 	CDB::MODEL* GetStaticModel() { return &Static; }

	mov	ecx, DWORD PTR [eax]
; File I:\Vitalya\mine\NSProjectX\xrCDB\xrCDB.h

; 86   : 		IC TRI*					get_tris		()			{ return tris;		}

	mov	eax, DWORD PTR [ecx+184]
; File I:\Vitalya\mine\NSProjectX\xrEngine\xr_area.h

; 61   : 	CDB::MODEL* GetStaticModel() { return &Static; }

	add	ecx, 172				; 000000acH
; File I:\Vitalya\mine\NSProjectX\xrCDB\xrCDB.h

; 86   : 		IC TRI*					get_tris		()			{ return tris;		}

	mov	DWORD PTR _TRIS$1$[esp+1708], eax
; File I:\Vitalya\mine\NSProjectX\layers\xrRenderPC_R1\LightShadows.cpp

; 357  : {

	push	edi
; File I:\Vitalya\mine\NSProjectX\xrEngine\xr_area.h

; 61   : 	CDB::MODEL* GetStaticModel() { return &Static; }

	mov	DWORD PTR _DB$1$[esp+1712], ecx
; File I:\Vitalya\mine\NSProjectX\xrCDB\xrCDB.h

; 84   : 		IC Fvector*				get_verts		()			{ return verts;		}

	mov	eax, DWORD PTR [ecx+20]
	mov	DWORD PTR _VERTS$1$[esp+1712], eax
; File I:\Vitalya\mine\NSProjectX\layers\xrRenderPC_R1\LightShadows.cpp

; 366  : 	float _43					=	Device.mProject._43;

	mov	eax, DWORD PTR __imp_?Device@@3VCRenderDevice@@A
	mov	DWORD PTR _this$1$[esp+1712], ebx
	movss	xmm0, DWORD PTR [eax+656]
	movss	DWORD PTR __43$1$[esp+1712], xmm0

; 367  : 	Device.mProject._43			-=	0.002f; 

	subss	xmm0, DWORD PTR __real@3b03126f
	movss	DWORD PTR [eax+656], xmm0

; 368  : 	RCache.set_xform_world		(Fidentity);

	push	DWORD PTR __imp_?Fidentity@@3U?$_matrix@M@@A
	mov	ecx, DWORD PTR __imp_?RCache@@3VCBackend@@A
	call	DWORD PTR __imp_?set_xform_world@CBackend@@QAEXABU?$_matrix@M@@@Z

; 369  : 	RCache.set_xform_project	(Device.mProject);

	mov	eax, DWORD PTR __imp_?Device@@3VCRenderDevice@@A
	mov	ecx, DWORD PTR __imp_?RCache@@3VCBackend@@A
	add	eax, 600				; 00000258H
	push	eax
	call	DWORD PTR __imp_?set_xform_project@CBackend@@QAEXABU?$_matrix@M@@@Z

; 370  : 	Fvector	View				= Device.vCameraPosition;

	mov	ecx, DWORD PTR __imp_?Device@@3VCRenderDevice@@A

; 371  : 	
; 372  : 	// Render shadows
; 373  : 	RCache.set_Shader			(sh_World);

	push	0
	mov	eax, DWORD PTR [ecx+488]
	mov	DWORD PTR _View$[esp+1716], eax
	mov	eax, DWORD PTR [ecx+492]
	mov	DWORD PTR _View$[esp+1720], eax
	mov	eax, DWORD PTR [ecx+496]
	mov	ecx, DWORD PTR __imp_?RCache@@3VCBackend@@A
	mov	DWORD PTR _View$[esp+1724], eax
	lea	eax, DWORD PTR [ebx+108]
	push	eax
	call	DWORD PTR __imp_?set_Shader@CBackend@@QAEXAAV?$resptr_core@UShader@@Uresptrcode_shader@@@@I@Z
; File I:\Vitalya\mine\NSProjectX\xrCore\xr_resource.h

; 70   : 	T &					operator*() const												{	return *p_;	}

	mov	edi, DWORD PTR [ebx+112]
; File I:\Vitalya\mine\NSProjectX\layers\xrRenderPC_R1\LightShadows.cpp

; 374  : 	RCache.set_Geometry			(geom_World);

	mov	esi, DWORD PTR __imp_?RCache@@3VCBackend@@A
; File I:\Vitalya\mine\NSProjectX\xrEngine\R_Backend_Runtime.h

; 224  : 	set_Format(_geom->dcl._get()->dcl);

	mov	eax, DWORD PTR [edi+8]
	mov	edx, DWORD PTR [eax+8]

; 131  : 	if (decl != _decl)

	cmp	DWORD PTR [esi+592], edx
	je	SHORT $LN62@render

; 132  : 	{
; 133  : 		PGO(Msg("PGO:v_format:%x", _decl));
; 134  : #ifdef DEBUG
; 135  : 		stat.decl++;
; 136  : #endif
; 137  : 		decl = _decl;

	mov	DWORD PTR [esi+592], edx

; 138  : 		CHK_DX(HW.pDevice->SetVertexDeclaration(decl));

	mov	eax, DWORD PTR __imp_?HW@@3VCHW@@A
	push	edx
	mov	eax, DWORD PTR [eax+8]
	push	eax
	mov	ecx, DWORD PTR [eax]
	call	DWORD PTR [ecx+348]
$LN62@render:

; 225  : 	set_Vertices(_geom->vb, _geom->vb_stride);

	mov	eax, DWORD PTR [edi+12]
	mov	edx, DWORD PTR [edi+20]
	mov	DWORD PTR __vb$1$[esp+1712], eax

; 172  : 	if ((vb != _vb) || (vb_stride != _vb_stride))

	cmp	DWORD PTR [esi+596], eax
	jne	SHORT $LN66@render
	cmp	DWORD PTR [esi+604], edx
	je	SHORT $LN65@render
$LN66@render:

; 173  : 	{
; 174  : 		PGO(Msg("PGO:VB:%x,%d", _vb, _vb_stride));
; 175  : #ifdef DEBUG
; 176  : 		stat.vb++;
; 177  : #endif
; 178  : 		vb = _vb;

	mov	DWORD PTR [esi+596], eax

; 179  : 		vb_stride = _vb_stride;

	mov	DWORD PTR [esi+604], edx

; 180  : 		CHK_DX(HW.pDevice->SetStreamSource(0, vb, 0, vb_stride));

	mov	eax, DWORD PTR __imp_?HW@@3VCHW@@A
	push	edx
	push	0
	push	DWORD PTR __vb$1$[esp+1720]
	mov	eax, DWORD PTR [eax+8]
	push	0
	push	eax
	mov	ecx, DWORD PTR [eax]
	call	DWORD PTR [ecx+400]
$LN65@render:

; 226  : 	set_Indices(_geom->ib);

	mov	edx, DWORD PTR [edi+16]

; 186  : 	if (ib != _ib)

	cmp	DWORD PTR [esi+600], edx
	je	SHORT $LN69@render

; 187  : 	{
; 188  : 		PGO(Msg("PGO:IB:%x", _ib));
; 189  : #ifdef DEBUG
; 190  : 		stat.ib++;
; 191  : #endif
; 192  : 		ib = _ib;

	mov	DWORD PTR [esi+600], edx

; 193  : 		CHK_DX(HW.pDevice->SetIndices(ib));

	mov	eax, DWORD PTR __imp_?HW@@3VCHW@@A
	push	edx
	mov	eax, DWORD PTR [eax+8]
	push	eax
	mov	ecx, DWORD PTR [eax]
	call	DWORD PTR [ecx+416]
$LN69@render:
; File I:\Vitalya\mine\NSProjectX\layers\xrRenderPC_R1\LightShadows.cpp

; 377  : 	FVF::LIT* pv				= (FVF::LIT*) RCache.Vertex.Lock	(batch_size*3,geom_World->vb_stride,Offset);

	mov	ecx, DWORD PTR __imp_?RCache@@3VCBackend@@A
	lea	eax, DWORD PTR _Offset$[esp+1712]
	push	eax
	mov	eax, DWORD PTR [ebx+112]
	xor	edi, edi
	mov	DWORD PTR _Offset$[esp+1716], edi
	mov	DWORD PTR _batch$1$[esp+1716], edi
	push	DWORD PTR [eax+20]
	push	768					; 00000300H
	call	DWORD PTR __imp_?Lock@_VertexStream@@QAEPAXIIAAI@Z
; File C:\Program Files\Microsoft Visual Studio\2022\Community\VC\Tools\MSVC\14.29.30133\include\vector

; 1536 :         return static_cast<size_type>(_My_data._Mylast - _My_data._Myfirst);

	mov	ecx, DWORD PTR [ebx+32]
	sub	ecx, DWORD PTR [ebx+28]
; File I:\Vitalya\mine\NSProjectX\layers\xrRenderPC_R1\LightShadows.cpp

; 377  : 	FVF::LIT* pv				= (FVF::LIT*) RCache.Vertex.Lock	(batch_size*3,geom_World->vb_stride,Offset);

	mov	DWORD PTR _pv$1$[esp+1712], eax
; File C:\Program Files\Microsoft Visual Studio\2022\Community\VC\Tools\MSVC\14.29.30133\include\vector

; 1536 :         return static_cast<size_type>(_My_data._Mylast - _My_data._Myfirst);

	mov	eax, -1307163959			; b21642c9H
	imul	ecx
; File I:\Vitalya\mine\NSProjectX\layers\xrRenderPC_R1\LightShadows.cpp

; 378  : 	for (u32 s_it=0; s_it<shadows.size(); s_it++)

	mov	DWORD PTR _s_it$1$[esp+1712], edi
; File C:\Program Files\Microsoft Visual Studio\2022\Community\VC\Tools\MSVC\14.29.30133\include\vector

; 1536 :         return static_cast<size_type>(_My_data._Mylast - _My_data._Myfirst);

	add	edx, ecx
	sar	edx, 6
	mov	eax, edx
	shr	eax, 31					; 0000001fH
	add	eax, edx
; File I:\Vitalya\mine\NSProjectX\layers\xrRenderPC_R1\LightShadows.cpp

; 378  : 	for (u32 s_it=0; s_it<shadows.size(); s_it++)

	je	$LN3@render
	movss	xmm1, DWORD PTR __xmm@7fffffff7fffffff7fffffff7fffffff
	lea	eax, DWORD PTR [ebx+52]
	movss	xmm2, DWORD PTR __real@3e2aaaab
	mov	edi, 6
	movss	xmm3, DWORD PTR __real@3a800000
	mov	DWORD PTR _this$1$[esp+1712], eax
	npad	5
$LL4@render:

; 380  : 		Device.Statistic->RenderDUMP_Srender.Begin	();

	mov	eax, DWORD PTR __imp_?Device@@3VCRenderDevice@@A
	mov	esi, DWORD PTR [eax+436]
; File I:\Vitalya\mine\NSProjectX\xrCore\FTimer.h

; 173  : 	ICF void	Begin			()		{	if (!g_bEnableStatGather) return;	count++; T.Start();				}

	mov	eax, DWORD PTR __imp_?g_bEnableStatGather@@3HA
; File I:\Vitalya\mine\NSProjectX\layers\xrRenderPC_R1\LightShadows.cpp

; 380  : 		Device.Statistic->RenderDUMP_Srender.Begin	();

	add	esi, 2656				; 00000a60H
; File I:\Vitalya\mine\NSProjectX\xrCore\FTimer.h

; 173  : 	ICF void	Begin			()		{	if (!g_bEnableStatGather) return;	count++; T.Start();				}

	cmp	DWORD PTR [eax], 0
	je	SHORT $LN87@render
	inc	DWORD PTR [esi+68]

; 73   : 		if (bPause)

	cmp	DWORD PTR [esi+24], 0
	jne	SHORT $LN87@render

; 29   : 	ICF	void	Start			()		{	if(bPause) return;	qwStartTime = CPU::QPC()-qwPauseAccum;		}

	call	DWORD PTR __imp_?QPC@CPU@@YA_KXZ
	sub	eax, DWORD PTR [esi+16]

; 73   : 		if (bPause)

	movss	xmm1, DWORD PTR __xmm@7fffffff7fffffff7fffffff7fffffff

; 29   : 	ICF	void	Start			()		{	if(bPause) return;	qwStartTime = CPU::QPC()-qwPauseAccum;		}

	sbb	edx, DWORD PTR [esi+20]

; 73   : 		if (bPause)

	movss	xmm2, DWORD PTR __real@3e2aaaab
	movss	xmm3, DWORD PTR __real@3a800000

; 29   : 	ICF	void	Start			()		{	if(bPause) return;	qwStartTime = CPU::QPC()-qwPauseAccum;		}

	mov	DWORD PTR [esi], eax
	mov	DWORD PTR [esi+4], edx

; 78   : 		m_real_ticks	= 0;

	mov	DWORD PTR [esi+40], 0
	mov	DWORD PTR [esi+44], 0

; 79   : 		m_ticks			= 0;

	mov	DWORD PTR [esi+48], 0
	mov	DWORD PTR [esi+52], 0
$LN87@render:
; File C:\Program Files\Microsoft Visual Studio\2022\Community\VC\Tools\MSVC\14.29.30133\include\vector

; 119  :         _Ptr += _Off;

	imul	esi, DWORD PTR _s_it$1$[esp+1712], 92
; File I:\Vitalya\mine\NSProjectX\layers\xrRenderPC_R1\LightShadows.cpp

; 394  : 		cache_item						CI_what; CI_what.O	= S.O; CI_what.L = S.L; CI_what.tris=0;

	mov	DWORD PTR _CI_what$13[esp+1748], 0
; File C:\Program Files\Microsoft Visual Studio\2022\Community\VC\Tools\MSVC\14.29.30133\include\vector

; 119  :         _Ptr += _Off;

	add	esi, DWORD PTR [ebx+28]
	mov	DWORD PTR _S$1$[esp+1712], esi
; File I:\Vitalya\mine\NSProjectX\layers\xrRenderPC_R1\LightShadows.cpp

; 383  : 		int			s_x			=	S.slot%slot_line;

	mov	eax, DWORD PTR [esi+4]
	mov	ecx, DWORD PTR [esi+84]
	cdq
	idiv	edi
; File I:\Vitalya\mine\NSProjectX\xrCore\_color.h

; 203  : 		return (r + g + b)/3.f;

	movss	xmm0, DWORD PTR [ecx+112]
	addss	xmm0, DWORD PTR [ecx+108]
; File I:\Vitalya\mine\NSProjectX\layers\xrRenderPC_R1\LightShadows.cpp

; 394  : 		cache_item						CI_what; CI_what.O	= S.O; CI_what.L = S.L; CI_what.tris=0;

	mov	edi, DWORD PTR [esi]
	mov	DWORD PTR _CI_what$2$[esp+1712], ecx
	mov	DWORD PTR _CI_what$13[esp+1712], edi
	mov	DWORD PTR _CI_what$13[esp+1728], ecx
; File I:\Vitalya\mine\NSProjectX\xrCore\_color.h

; 203  : 		return (r + g + b)/3.f;

	addss	xmm0, DWORD PTR [ecx+116]
	mulss	xmm0, DWORD PTR __real@3eaaaaab
; File I:\Vitalya\mine\NSProjectX\layers\xrRenderPC_R1\LightShadows.cpp

; 382  : 		float		Le			=	S.L->color.intensity()*S.E;

	mulss	xmm0, DWORD PTR [esi+88]
; File C:\Program Files\Microsoft Visual Studio\2022\Community\VC\Tools\MSVC\14.29.30133\include\xutility

; 5810 :     auto _UFirst                = _Get_unwrapped(_First);

	lea	esi, DWORD PTR [ebx+52]
	mov	ebx, DWORD PTR [esi]
	mov	DWORD PTR _CI$1$[esp+1712], ebx
; File I:\Vitalya\mine\NSProjectX\layers\xrRenderPC_R1\LightShadows.cpp

; 382  : 		float		Le			=	S.L->color.intensity()*S.E;

	movss	DWORD PTR _Le$1$[esp+1712], xmm0

; 388  : 		t_offset.set(float(s_x)/float(slot_line),float(s_y)/float(slot_line));

	cvtsi2ss xmm0, edx
	mulss	xmm0, xmm2
; File I:\Vitalya\mine\NSProjectX\xrCore\_vector2.h

; 15   : 	IC SelfRef set(float _u, float _v)				{ x=T(_u); y=T(_v);				return *this;	}

	addss	xmm0, xmm3
	movss	DWORD PTR _t_offset$2$sroa$3657$1$[esp+1712], xmm0
; File I:\Vitalya\mine\NSProjectX\layers\xrRenderPC_R1\LightShadows.cpp

; 388  : 		t_offset.set(float(s_x)/float(slot_line),float(s_y)/float(slot_line));

	cvtsi2ss xmm0, eax
; File C:\Program Files\Microsoft Visual Studio\2022\Community\VC\Tools\MSVC\14.29.30133\include\xutility

; 1525 :         return _Last - _First; // assume the iterator will do debug checking

	mov	eax, DWORD PTR _this$1$[esp+1712]
	mov	eax, DWORD PTR [eax+56]
	mov	DWORD PTR tv7293[esp+1712], eax
	sub	eax, ebx
; File I:\Vitalya\mine\NSProjectX\layers\xrRenderPC_R1\LightShadows.cpp

; 388  : 		t_offset.set(float(s_x)/float(slot_line),float(s_y)/float(slot_line));

	mulss	xmm0, xmm2
; File C:\Program Files\Microsoft Visual Studio\2022\Community\VC\Tools\MSVC\14.29.30133\include\xutility

; 1525 :         return _Last - _First; // assume the iterator will do debug checking

	sar	eax, 2
	imul	edx, eax, -1171354717
; File I:\Vitalya\mine\NSProjectX\layers\xrRenderPC_R1\LightShadows.cpp

; 389  : 		t_offset.x	+= .5f/S_rt_size;

	addss	xmm0, xmm3
	movss	DWORD PTR _t_offset$2$sroa$3658$1$[esp+1712], xmm0
; File C:\Program Files\Microsoft Visual Studio\2022\Community\VC\Tools\MSVC\14.29.30133\include\xutility

; 5813 :     while (0 < _Count) { // divide and conquer, find half that contains answer

	test	edx, edx
	jle	SHORT $LN125@render
$LL124@render:

; 5814 :         const _Iter_diff_t<_FwdIt> _Count2 = _Count / 2;

	mov	ecx, edx
	shr	ecx, 1

; 1497 :         _Where += _Off;

	imul	eax, ecx, 44
; File I:\Vitalya\mine\NSProjectX\layers\xrRenderPC_R1\LightShadows.cpp

; 349  : 	if (A.O < B.O)	return true;

	cmp	DWORD PTR [eax+ebx], edi
	jb	SHORT $LN710@render

; 350  : 	if (A.O > B.O)	return false;

	ja	SHORT $LN126@render

; 351  : 	if (A.L < B.L)	return true;

	mov	esi, DWORD PTR _CI_what$2$[esp+1712]
	cmp	DWORD PTR [eax+ebx+16], esi
	jb	SHORT $LN710@render
$LN126@render:
; File C:\Program Files\Microsoft Visual Studio\2022\Community\VC\Tools\MSVC\14.29.30133\include\xutility

; 5820 :             _Count = _Count2;

	mov	edx, ecx
	jmp	SHORT $LN127@render
$LN710@render:

; 5815 :         const auto _UMid                   = _STD next(_UFirst, _Count2);
; 5816 :         if (_Pred(*_UMid, _Val)) { // try top half
; 5817 :             _UFirst = _Next_iter(_UMid);

	add	eax, 44					; 0000002cH
	add	ebx, eax

; 5818 :             _Count -= _Count2 + 1;

	or	eax, -1
	sub	eax, ecx
	add	edx, eax
$LN127@render:

; 5813 :     while (0 < _Count) { // divide and conquer, find half that contains answer

	test	edx, edx
	jg	SHORT $LL124@render
	mov	ecx, DWORD PTR _CI_what$2$[esp+1712]
	mov	esi, DWORD PTR _this$1$[esp+1712]
	mov	DWORD PTR _CI$1$[esp+1712], ebx
$LN125@render:
; File C:\Program Files\Microsoft Visual Studio\2022\Community\VC\Tools\MSVC\14.29.30133\include\vector

; 150  :         return _Ptr == _Right._Ptr;

	cmp	ebx, DWORD PTR tv7293[esp+1712]
; File I:\Vitalya\mine\NSProjectX\layers\xrRenderPC_R1\LightShadows.cpp

; 396  : 		if (CI_ptr==cache.end())		

	jne	SHORT $LN26@render
; File C:\Program Files\Microsoft Visual Studio\2022\Community\VC\Tools\MSVC\14.29.30133\include\vector

; 801  :         const pointer _Oldlast  = _My_data._Mylast;

	mov	edx, DWORD PTR [esi+4]

; 802  : #if _ITERATOR_DEBUG_LEVEL == 2
; 803  :         _STL_VERIFY(
; 804  :             _Where._Getcont() == _STD addressof(_My_data) && _Whereptr >= _My_data._Myfirst && _Oldlast >= _Whereptr,
; 805  :             "vector emplace iterator outside range");
; 806  : #endif // _ITERATOR_DEBUG_LEVEL == 2
; 807  : 
; 808  :         if (_Oldlast != _My_data._Myend) {

	cmp	edx, DWORD PTR [esi+8]
	je	SHORT $LN152@render

; 809  :             if (_Whereptr == _Oldlast) { // at back, provide strong guarantee

	mov	eax, DWORD PTR _this$1$[esp+1712]
	mov	ecx, 11					; 0000000bH
	mov	edi, edx
	cmp	ebx, edx
	jne	SHORT $LN153@render
; File I:\Vitalya\mine\NSProjectX\xrCore\_stl_extensions.h

; 84   : 							void					construct		(pointer p, const T& _Val)				{	::new((void*)p) value_type (_Val); }

	lea	esi, DWORD PTR _CI_what$13[esp+1712]
; File I:\Vitalya\mine\NSProjectX\layers\xrRenderPC_R1\LightShadows.cpp

; 399  : 			CI		= &*CI_ptr;

	mov	DWORD PTR _CI$1$[esp+1712], ebx
; File I:\Vitalya\mine\NSProjectX\xrCore\_stl_extensions.h

; 84   : 							void					construct		(pointer p, const T& _Val)				{	::new((void*)p) value_type (_Val); }

	rep movsd
; File C:\Program Files\Microsoft Visual Studio\2022\Community\VC\Tools\MSVC\14.29.30133\include\vector

; 716  :         ++_Mylast;

	add	DWORD PTR [eax+4], 44			; 0000002cH
; File I:\Vitalya\mine\NSProjectX\layers\xrRenderPC_R1\LightShadows.cpp

; 401  : 		} else {

	jmp	$LN192@render
$LN153@render:
; File C:\Program Files\Microsoft Visual Studio\2022\Community\VC\Tools\MSVC\14.29.30133\include\vector

; 816  :                 _Alty_traits::construct(_Al, _Unfancy(_Oldlast), _STD move(_Oldlast[-1]));

	lea	esi, DWORD PTR [edx-44]
; File I:\Vitalya\mine\NSProjectX\xrCore\_stl_extensions.h

; 84   : 							void					construct		(pointer p, const T& _Val)				{	::new((void*)p) value_type (_Val); }

	rep movsd
; File C:\Program Files\Microsoft Visual Studio\2022\Community\VC\Tools\MSVC\14.29.30133\include\vector

; 817  :                 ++_My_data._Mylast;

	add	DWORD PTR [eax+4], 44			; 0000002cH
; File C:\Program Files\Microsoft Visual Studio\2022\Community\VC\Tools\MSVC\14.29.30133\include\xutility

; 4254 :     const auto _Count           = static_cast<size_t>(_Last_ch - _First_ch);

	mov	eax, edx
	sub	eax, ebx
	sub	eax, 44					; 0000002cH

; 4255 :     auto _Result                = _CSTD memmove(_Dest_ch - _Count, _First_ch, _Count);

	push	eax
	sub	edx, eax
	push	ebx
	push	edx
	call	_memmove
; File C:\Program Files\Microsoft Visual Studio\2022\Community\VC\Tools\MSVC\14.29.30133\include\vector

; 819  :                 *_Whereptr = _STD move(_Obj._Get_value());

	mov	ecx, 11					; 0000000bH
; File I:\Vitalya\mine\NSProjectX\layers\xrRenderPC_R1\LightShadows.cpp

; 399  : 			CI		= &*CI_ptr;

	mov	DWORD PTR _CI$1$[esp+1724], ebx
; File C:\Program Files\Microsoft Visual Studio\2022\Community\VC\Tools\MSVC\14.29.30133\include\vector

; 819  :                 *_Whereptr = _STD move(_Obj._Get_value());

	lea	esi, DWORD PTR _CI_what$13[esp+1724]
	mov	edi, ebx
; File C:\Program Files\Microsoft Visual Studio\2022\Community\VC\Tools\MSVC\14.29.30133\include\xutility

; 4255 :     auto _Result                = _CSTD memmove(_Dest_ch - _Count, _First_ch, _Count);

	add	esp, 12					; 0000000cH
; File C:\Program Files\Microsoft Visual Studio\2022\Community\VC\Tools\MSVC\14.29.30133\include\vector

; 819  :                 *_Whereptr = _STD move(_Obj._Get_value());

	rep movsd
; File I:\Vitalya\mine\NSProjectX\layers\xrRenderPC_R1\LightShadows.cpp

; 401  : 		} else {

	jmp	$LN192@render
$LN152@render:
; File C:\Program Files\Microsoft Visual Studio\2022\Community\VC\Tools\MSVC\14.29.30133\include\vector

; 825  :         return _Make_iterator(_Emplace_reallocate(_Whereptr, _STD forward<_Valty>(_Val)...));

	lea	eax, DWORD PTR _CI_what$13[esp+1712]
	mov	ecx, esi
	push	eax
	push	ebx
	call	??$_Emplace_reallocate@ABUcache_item@CLightShadows@@@?$vector@Ucache_item@CLightShadows@@V?$xalloc@Ucache_item@CLightShadows@@@@@std@@QAEPAUcache_item@CLightShadows@@QAU23@ABU23@@Z ; std::vector<CLightShadows::cache_item,xalloc<CLightShadows::cache_item> >::_Emplace_reallocate<CLightShadows::cache_item const &>

; 41   :     _CONSTEXPR20_CONTAINER _Vector_const_iterator(_Tptr _Parg, const _Container_base* _Pvector) noexcept : _Ptr(_Parg) {

	mov	ebx, eax
; File I:\Vitalya\mine\NSProjectX\layers\xrRenderPC_R1\LightShadows.cpp

; 399  : 			CI		= &*CI_ptr;

	mov	DWORD PTR _CI$1$[esp+1712], ebx

; 401  : 		} else {

	jmp	$LN192@render
$LN26@render:

; 402  : 			if (CI_ptr->O != CI_what.O  || CI_ptr->L != CI_what.L)	

	mov	eax, DWORD PTR [ebx]
	cmp	eax, edi
	jne	$LN30@render
	mov	edx, DWORD PTR [ebx+16]
	cmp	edx, ecx
	jne	$LN30@render
; File I:\Vitalya\mine\NSProjectX\xrCore\_vector3d.h

; 58   : 	ICF BOOL	similar(const Self &v, T E=EPS_L) const	{ return _abs(x-v.x)<E && _abs(y-v.y)<E && _abs(z-v.z)<E;};

	movss	xmm0, DWORD PTR [ebx+4]
; File I:\Vitalya\mine\NSProjectX\layers\xrRenderPC_R1\LightShadows.cpp

; 410  : 				bValid	= TRUE;

	mov	ecx, 1
; File I:\Vitalya\mine\NSProjectX\xrCore\_vector3d.h

; 58   : 	ICF BOOL	similar(const Self &v, T E=EPS_L) const	{ return _abs(x-v.x)<E && _abs(y-v.y)<E && _abs(z-v.z)<E;};

	subss	xmm0, DWORD PTR [eax+52]
	movss	xmm2, DWORD PTR __real@3a83126f
; File C:\Program Files (x86)\Windows Kits\10\Include\10.0.22000.0\ucrt\corecrt_math.h

; 676  :             return (float)fabs(_X);

	andps	xmm0, xmm1
; File I:\Vitalya\mine\NSProjectX\xrCore\_vector3d.h

; 58   : 	ICF BOOL	similar(const Self &v, T E=EPS_L) const	{ return _abs(x-v.x)<E && _abs(y-v.y)<E && _abs(z-v.z)<E;};

	comiss	xmm2, xmm0
	jbe	$LN192@render
	movss	xmm0, DWORD PTR [ebx+8]
	subss	xmm0, DWORD PTR [eax+56]
; File C:\Program Files (x86)\Windows Kits\10\Include\10.0.22000.0\ucrt\corecrt_math.h

; 676  :             return (float)fabs(_X);

	andps	xmm0, xmm1
; File I:\Vitalya\mine\NSProjectX\xrCore\_vector3d.h

; 58   : 	ICF BOOL	similar(const Self &v, T E=EPS_L) const	{ return _abs(x-v.x)<E && _abs(y-v.y)<E && _abs(z-v.z)<E;};

	comiss	xmm2, xmm0
	jbe	$LN192@render
	movss	xmm0, DWORD PTR [ebx+12]
	subss	xmm0, DWORD PTR [eax+60]
; File C:\Program Files (x86)\Windows Kits\10\Include\10.0.22000.0\ucrt\corecrt_math.h

; 676  :             return (float)fabs(_X);

	andps	xmm0, xmm1
; File I:\Vitalya\mine\NSProjectX\xrCore\_vector3d.h

; 58   : 	ICF BOOL	similar(const Self &v, T E=EPS_L) const	{ return _abs(x-v.x)<E && _abs(y-v.y)<E && _abs(z-v.z)<E;};

	comiss	xmm2, xmm0
	jbe	$LN192@render
	movss	xmm0, DWORD PTR [ebx+20]
	subss	xmm0, DWORD PTR [edx+64]
; File C:\Program Files (x86)\Windows Kits\10\Include\10.0.22000.0\ucrt\corecrt_math.h

; 676  :             return (float)fabs(_X);

	andps	xmm0, xmm1
; File I:\Vitalya\mine\NSProjectX\xrCore\_vector3d.h

; 58   : 	ICF BOOL	similar(const Self &v, T E=EPS_L) const	{ return _abs(x-v.x)<E && _abs(y-v.y)<E && _abs(z-v.z)<E;};

	comiss	xmm2, xmm0
	jbe	$LN192@render
	movss	xmm0, DWORD PTR [ebx+24]
	subss	xmm0, DWORD PTR [edx+68]
; File C:\Program Files (x86)\Windows Kits\10\Include\10.0.22000.0\ucrt\corecrt_math.h

; 676  :             return (float)fabs(_X);

	andps	xmm0, xmm1
; File I:\Vitalya\mine\NSProjectX\xrCore\_vector3d.h

; 58   : 	ICF BOOL	similar(const Self &v, T E=EPS_L) const	{ return _abs(x-v.x)<E && _abs(y-v.y)<E && _abs(z-v.z)<E;};

	comiss	xmm2, xmm0
	jbe	$LN192@render
	movss	xmm0, DWORD PTR [ebx+28]
	subss	xmm0, DWORD PTR [edx+72]
; File C:\Program Files (x86)\Windows Kits\10\Include\10.0.22000.0\ucrt\corecrt_math.h

; 676  :             return (float)fabs(_X);

	andps	xmm0, xmm1
; File I:\Vitalya\mine\NSProjectX\xrCore\_vector3d.h

; 58   : 	ICF BOOL	similar(const Self &v, T E=EPS_L) const	{ return _abs(x-v.x)<E && _abs(y-v.y)<E && _abs(z-v.z)<E;};

	comiss	xmm2, xmm0
	ja	SHORT $LN33@render
; File I:\Vitalya\mine\NSProjectX\layers\xrRenderPC_R1\LightShadows.cpp

; 412  : 				else if (!CI->Lp.similar(CI->L->position))		bValid = FALSE;

	jmp	SHORT $LN192@render
$LN30@render:
; File C:\Program Files\Microsoft Visual Studio\2022\Community\VC\Tools\MSVC\14.29.30133\include\vector

; 801  :         const pointer _Oldlast  = _My_data._Mylast;

	mov	edx, DWORD PTR [esi+4]

; 802  : #if _ITERATOR_DEBUG_LEVEL == 2
; 803  :         _STL_VERIFY(
; 804  :             _Where._Getcont() == _STD addressof(_My_data) && _Whereptr >= _My_data._Myfirst && _Oldlast >= _Whereptr,
; 805  :             "vector emplace iterator outside range");
; 806  : #endif // _ITERATOR_DEBUG_LEVEL == 2
; 807  : 
; 808  :         if (_Oldlast != _My_data._Myend) {

	cmp	edx, DWORD PTR [esi+8]
	je	SHORT $LN193@render

; 809  :             if (_Whereptr == _Oldlast) { // at back, provide strong guarantee

	mov	eax, DWORD PTR _this$1$[esp+1712]
	mov	ecx, 11					; 0000000bH
	mov	edi, edx
	cmp	ebx, edx
	jne	SHORT $LN194@render
; File I:\Vitalya\mine\NSProjectX\xrCore\_stl_extensions.h

; 84   : 							void					construct		(pointer p, const T& _Val)				{	::new((void*)p) value_type (_Val); }

	lea	esi, DWORD PTR _CI_what$13[esp+1712]
; File C:\Program Files\Microsoft Visual Studio\2022\Community\VC\Tools\MSVC\14.29.30133\include\vector

; 41   :     _CONSTEXPR20_CONTAINER _Vector_const_iterator(_Tptr _Parg, const _Container_base* _Pvector) noexcept : _Ptr(_Parg) {

	mov	DWORD PTR _CI$1$[esp+1712], ebx
; File I:\Vitalya\mine\NSProjectX\xrCore\_stl_extensions.h

; 84   : 							void					construct		(pointer p, const T& _Val)				{	::new((void*)p) value_type (_Val); }

	rep movsd
; File C:\Program Files\Microsoft Visual Studio\2022\Community\VC\Tools\MSVC\14.29.30133\include\vector

; 716  :         ++_Mylast;

	add	DWORD PTR [eax+4], 44			; 0000002cH

; 822  :             return _Make_iterator(_Whereptr);

	jmp	SHORT $LN192@render
$LN194@render:

; 816  :                 _Alty_traits::construct(_Al, _Unfancy(_Oldlast), _STD move(_Oldlast[-1]));

	lea	esi, DWORD PTR [edx-44]
; File I:\Vitalya\mine\NSProjectX\xrCore\_stl_extensions.h

; 84   : 							void					construct		(pointer p, const T& _Val)				{	::new((void*)p) value_type (_Val); }

	rep movsd
; File C:\Program Files\Microsoft Visual Studio\2022\Community\VC\Tools\MSVC\14.29.30133\include\vector

; 817  :                 ++_My_data._Mylast;

	add	DWORD PTR [eax+4], 44			; 0000002cH
; File C:\Program Files\Microsoft Visual Studio\2022\Community\VC\Tools\MSVC\14.29.30133\include\xutility

; 4254 :     const auto _Count           = static_cast<size_t>(_Last_ch - _First_ch);

	mov	eax, edx
	sub	eax, ebx
	sub	eax, 44					; 0000002cH

; 4255 :     auto _Result                = _CSTD memmove(_Dest_ch - _Count, _First_ch, _Count);

	push	eax
	sub	edx, eax
	push	ebx
	push	edx
	call	_memmove
; File C:\Program Files\Microsoft Visual Studio\2022\Community\VC\Tools\MSVC\14.29.30133\include\vector

; 819  :                 *_Whereptr = _STD move(_Obj._Get_value());

	mov	ecx, 11					; 0000000bH

; 41   :     _CONSTEXPR20_CONTAINER _Vector_const_iterator(_Tptr _Parg, const _Container_base* _Pvector) noexcept : _Ptr(_Parg) {

	mov	DWORD PTR _CI$1$[esp+1724], ebx

; 819  :                 *_Whereptr = _STD move(_Obj._Get_value());

	lea	esi, DWORD PTR _CI_what$13[esp+1724]
	mov	edi, ebx
; File C:\Program Files\Microsoft Visual Studio\2022\Community\VC\Tools\MSVC\14.29.30133\include\xutility

; 4255 :     auto _Result                = _CSTD memmove(_Dest_ch - _Count, _First_ch, _Count);

	add	esp, 12					; 0000000cH
; File C:\Program Files\Microsoft Visual Studio\2022\Community\VC\Tools\MSVC\14.29.30133\include\vector

; 819  :                 *_Whereptr = _STD move(_Obj._Get_value());

	rep movsd

; 820  :             }
; 821  : 
; 822  :             return _Make_iterator(_Whereptr);

	jmp	SHORT $LN192@render
$LN193@render:

; 825  :         return _Make_iterator(_Emplace_reallocate(_Whereptr, _STD forward<_Valty>(_Val)...));

	lea	eax, DWORD PTR _CI_what$13[esp+1712]
	mov	ecx, esi
	push	eax
	push	ebx
	call	??$_Emplace_reallocate@ABUcache_item@CLightShadows@@@?$vector@Ucache_item@CLightShadows@@V?$xalloc@Ucache_item@CLightShadows@@@@@std@@QAEPAUcache_item@CLightShadows@@QAU23@ABU23@@Z ; std::vector<CLightShadows::cache_item,xalloc<CLightShadows::cache_item> >::_Emplace_reallocate<CLightShadows::cache_item const &>

; 41   :     _CONSTEXPR20_CONTAINER _Vector_const_iterator(_Tptr _Parg, const _Container_base* _Pvector) noexcept : _Ptr(_Parg) {

	mov	ebx, eax
	mov	DWORD PTR _CI$1$[esp+1712], eax
$LN192@render:
; File I:\Vitalya\mine\NSProjectX\layers\xrRenderPC_R1\LightShadows.cpp

; 415  : 		CI->time				= Device.dwTimeGlobal;	// acess time

	xor	ecx, ecx
$LN33@render:
	mov	eax, DWORD PTR __imp_?Device@@3VCRenderDevice@@A
	mov	eax, DWORD PTR [eax+480]
	mov	DWORD PTR [ebx+32], eax

; 416  : 
; 417  : 		if (!bValid)			{

	test	ecx, ecx
	jne	$LN40@render

; 418  : 			// Frustum
; 419  : 			CFrustum				F;
; 420  : 			F.CreateFromMatrix		(S.M,FRUSTUM_P_ALL);

	mov	eax, DWORD PTR _S$1$[esp+1712]
	lea	ecx, DWORD PTR _F$16[esp+1712]
	push	63					; 0000003fH
	add	eax, 20					; 00000014H
	push	eax
	call	DWORD PTR __imp_?CreateFromMatrix@CFrustum@@QAEXAAU?$_matrix@M@@I@Z
; File I:\Vitalya\mine\NSProjectX\xrCDB\xrCDB.h

; 151  : 		ICF void		frustum_options	(u32 f)	{	frustum_mode = f;	}

	mov	esi, DWORD PTR _this$1$[esp+1712]
; File I:\Vitalya\mine\NSProjectX\layers\xrRenderPC_R1\LightShadows.cpp

; 424  : 			xrc.frustum_query		(DB,F);

	lea	eax, DWORD PTR _F$16[esp+1712]
	push	eax
	push	DWORD PTR _DB$1$[esp+1716]
	lea	ecx, DWORD PTR [esi+64]
; File I:\Vitalya\mine\NSProjectX\xrCDB\xrCDB.h

; 151  : 		ICF void		frustum_options	(u32 f)	{	frustum_mode = f;	}

	mov	DWORD PTR [esi+72], 0
; File I:\Vitalya\mine\NSProjectX\layers\xrRenderPC_R1\LightShadows.cpp

; 424  : 			xrc.frustum_query		(DB,F);

	call	DWORD PTR __imp_?frustum_query@xrXRC@@QAEXPBVMODEL@CDB@@ABVCFrustum@@@Z
; File C:\Program Files\Microsoft Visual Studio\2022\Community\VC\Tools\MSVC\14.29.30133\include\vector

; 1536 :         return static_cast<size_type>(_My_data._Mylast - _My_data._Myfirst);

	mov	eax, DWORD PTR [esi+80]
	lea	ecx, DWORD PTR [esi+76]
	mov	DWORD PTR __My_data$1$[esp+1712], ecx
	sub	eax, DWORD PTR [ecx]
; File I:\Vitalya\mine\NSProjectX\layers\xrRenderPC_R1\LightShadows.cpp

; 425  : 			if (0==xrc.r_count())	continue;

	je	$LN2@render

; 426  : 
; 427  : 			// Clip polys by frustum
; 428  : 			tess.clear				();

	mov	eax, DWORD PTR [esi+40]
	add	esi, 40					; 00000028H
	mov	DWORD PTR [esi+4], eax
; File I:\Vitalya\mine\NSProjectX\xrCDB\xrCDB.h

; 154  : 		ICF RESULT*		r_begin			()	{	return &*rd.begin();		};

	lea	eax, DWORD PTR $T12[esp+1712]
	push	eax
	call	?begin@?$vector@URESULT@CDB@@V?$xalloc@URESULT@CDB@@@@@std@@QAE?AV?$_Vector_iterator@V?$_Vector_val@U?$_Simple_types@URESULT@CDB@@@std@@@std@@@2@XZ ; std::vector<CDB::RESULT,xalloc<CDB::RESULT> >::begin

; 155  : 		ICF RESULT*		r_end			()	{	return &*rd.end();			};

	mov	ecx, DWORD PTR __My_data$1$[esp+1712]
; File I:\Vitalya\mine\NSProjectX\layers\xrRenderPC_R1\LightShadows.cpp

; 429  : 			for (CDB::RESULT* p = xrc.r_begin(); p!=xrc.r_end(); p++)

	mov	edi, DWORD PTR [eax]
; File I:\Vitalya\mine\NSProjectX\xrCDB\xrCDB.h

; 155  : 		ICF RESULT*		r_end			()	{	return &*rd.end();			};

	lea	eax, DWORD PTR $T10[esp+1712]
	push	eax
; File I:\Vitalya\mine\NSProjectX\layers\xrRenderPC_R1\LightShadows.cpp

; 429  : 			for (CDB::RESULT* p = xrc.r_begin(); p!=xrc.r_end(); p++)

	mov	DWORD PTR _p$1$[esp+1716], edi
; File I:\Vitalya\mine\NSProjectX\xrCDB\xrCDB.h

; 155  : 		ICF RESULT*		r_end			()	{	return &*rd.end();			};

	call	?end@?$vector@URESULT@CDB@@V?$xalloc@URESULT@CDB@@@@@std@@QAE?AV?$_Vector_iterator@V?$_Vector_val@U?$_Simple_types@URESULT@CDB@@@std@@@std@@@2@XZ ; std::vector<CDB::RESULT,xalloc<CDB::RESULT> >::end
; File I:\Vitalya\mine\NSProjectX\layers\xrRenderPC_R1\LightShadows.cpp

; 429  : 			for (CDB::RESULT* p = xrc.r_begin(); p!=xrc.r_end(); p++)

	cmp	edi, DWORD PTR [eax]
	je	$LN6@render
	npad	4
$LL7@render:

; 430  : 			{
; 431  : 				VERIFY((p->id>=0)&&(p->id<DB->get_tris_count()));
; 432  : 				// 
; 433  : 				CDB::TRI&	t		= TRIS[p->id];

	mov	edi, DWORD PTR [edi+40]
	shl	edi, 4
	add	edi, DWORD PTR _TRIS$1$[esp+1712]

; 434  : 				if (t.suppress_shadows) continue;

	test	DWORD PTR [edi+12], 16384		; 00004000H
	jne	$LN5@render

; 436  : 				A.push_back			(VERTS[t.verts[0]]);

	mov	ebx, DWORD PTR _VERTS$1$[esp+1712]
; File I:\Vitalya\mine\NSProjectX\xrCore\FixedVector.h

; 21   : 	svector() : count(0) 

	mov	DWORD PTR _A$15[esp+2288], 0
	mov	DWORD PTR _B$17[esp+2288], 0
; File I:\Vitalya\mine\NSProjectX\layers\xrRenderPC_R1\LightShadows.cpp

; 436  : 				A.push_back			(VERTS[t.verts[0]]);

	mov	eax, DWORD PTR [edi]
	lea	eax, DWORD PTR [eax+eax*2]
	mov	edx, DWORD PTR [ebx+eax*4]
	mov	ecx, DWORD PTR [ebx+eax*4+4]
	mov	eax, DWORD PTR [ebx+eax*4+8]
; File I:\Vitalya\mine\NSProjectX\xrCore\FixedVector.h

; 35   : 	IC void		push_back(value_type e)		{ VERIFY(count<dim); array[count++]=e;	}

	mov	DWORD PTR _A$15[esp+1720], eax
	mov	DWORD PTR _A$15[esp+2288], 1
	mov	DWORD PTR _A$15[esp+1712], edx
	mov	DWORD PTR _A$15[esp+1716], ecx
; File I:\Vitalya\mine\NSProjectX\layers\xrRenderPC_R1\LightShadows.cpp

; 436  : 				A.push_back			(VERTS[t.verts[0]]);

	mov	DWORD PTR _e$[esp+1720], eax

; 437  : 				A.push_back			(VERTS[t.verts[1]]);

	mov	eax, DWORD PTR [edi+4]
; File I:\Vitalya\mine\NSProjectX\xrCore\_vector3d.h

; 36   : 	ICF	SelfRef	sub(const Self &a, const Self &v)		{ x=a.x-v.x;y=a.y-v.y;	z=a.z-v.z;		return *this;	};

	movss	xmm1, DWORD PTR _e$[esp+1720]
; File I:\Vitalya\mine\NSProjectX\layers\xrRenderPC_R1\LightShadows.cpp

; 436  : 				A.push_back			(VERTS[t.verts[0]]);

	mov	DWORD PTR _e$[esp+1712], edx
; File I:\Vitalya\mine\NSProjectX\xrCore\_vector3d.h

; 36   : 	ICF	SelfRef	sub(const Self &a, const Self &v)		{ x=a.x-v.x;y=a.y-v.y;	z=a.z-v.z;		return *this;	};

	movaps	xmm2, xmm1
	movss	xmm0, DWORD PTR _e$[esp+1712]
; File I:\Vitalya\mine\NSProjectX\layers\xrRenderPC_R1\LightShadows.cpp

; 437  : 				A.push_back			(VERTS[t.verts[1]]);

	lea	eax, DWORD PTR [eax+eax*2]
	mov	DWORD PTR _e$[esp+1716], ecx
	mov	edx, DWORD PTR [ebx+eax*4]
; File I:\Vitalya\mine\NSProjectX\xrCore\_vector3d.h

; 36   : 	ICF	SelfRef	sub(const Self &a, const Self &v)		{ x=a.x-v.x;y=a.y-v.y;	z=a.z-v.z;		return *this;	};

	movaps	xmm5, xmm0
; File I:\Vitalya\mine\NSProjectX\layers\xrRenderPC_R1\LightShadows.cpp

; 437  : 				A.push_back			(VERTS[t.verts[1]]);

	mov	ecx, DWORD PTR [ebx+eax*4+4]
; File I:\Vitalya\mine\NSProjectX\xrCore\_vector3d.h

; 36   : 	ICF	SelfRef	sub(const Self &a, const Self &v)		{ x=a.x-v.x;y=a.y-v.y;	z=a.z-v.z;		return *this;	};

	movaps	xmm3, xmm0
; File I:\Vitalya\mine\NSProjectX\layers\xrRenderPC_R1\LightShadows.cpp

; 437  : 				A.push_back			(VERTS[t.verts[1]]);

	mov	eax, DWORD PTR [ebx+eax*4+8]
; File I:\Vitalya\mine\NSProjectX\xrCore\_vector3d.h

; 36   : 	ICF	SelfRef	sub(const Self &a, const Self &v)		{ x=a.x-v.x;y=a.y-v.y;	z=a.z-v.z;		return *this;	};

	movss	xmm6, DWORD PTR _e$[esp+1716]
; File I:\Vitalya\mine\NSProjectX\xrCore\FixedVector.h

; 35   : 	IC void		push_back(value_type e)		{ VERIFY(count<dim); array[count++]=e;	}

	mov	DWORD PTR _A$15[esp+1732], eax
; File I:\Vitalya\mine\NSProjectX\xrCore\_vector3d.h

; 36   : 	ICF	SelfRef	sub(const Self &a, const Self &v)		{ x=a.x-v.x;y=a.y-v.y;	z=a.z-v.z;		return *this;	};

	movaps	xmm4, xmm6
; File I:\Vitalya\mine\NSProjectX\xrCore\FixedVector.h

; 35   : 	IC void		push_back(value_type e)		{ VERIFY(count<dim); array[count++]=e;	}

	mov	DWORD PTR _A$15[esp+2288], 2
; File I:\Vitalya\mine\NSProjectX\xrCore\_vector3d.h

; 36   : 	ICF	SelfRef	sub(const Self &a, const Self &v)		{ x=a.x-v.x;y=a.y-v.y;	z=a.z-v.z;		return *this;	};

	movaps	xmm7, xmm6
; File I:\Vitalya\mine\NSProjectX\layers\xrRenderPC_R1\LightShadows.cpp

; 437  : 				A.push_back			(VERTS[t.verts[1]]);

	mov	DWORD PTR _e$[esp+1720], eax
; File I:\Vitalya\mine\NSProjectX\xrCore\_vector3d.h

; 36   : 	ICF	SelfRef	sub(const Self &a, const Self &v)		{ x=a.x-v.x;y=a.y-v.y;	z=a.z-v.z;		return *this;	};

	subss	xmm2, DWORD PTR _e$[esp+1720]
; File I:\Vitalya\mine\NSProjectX\xrCore\FixedVector.h

; 35   : 	IC void		push_back(value_type e)		{ VERIFY(count<dim); array[count++]=e;	}

	mov	DWORD PTR _A$15[esp+1724], edx
	mov	DWORD PTR _A$15[esp+1728], ecx
; File I:\Vitalya\mine\NSProjectX\layers\xrRenderPC_R1\LightShadows.cpp

; 438  : 				A.push_back			(VERTS[t.verts[2]]);

	mov	eax, DWORD PTR [edi+8]
	mov	DWORD PTR _e$[esp+1712], edx
; File I:\Vitalya\mine\NSProjectX\xrCore\_vector3d.h

; 36   : 	ICF	SelfRef	sub(const Self &a, const Self &v)		{ x=a.x-v.x;y=a.y-v.y;	z=a.z-v.z;		return *this;	};

	subss	xmm5, DWORD PTR _e$[esp+1712]
; File I:\Vitalya\mine\NSProjectX\layers\xrRenderPC_R1\LightShadows.cpp

; 437  : 				A.push_back			(VERTS[t.verts[1]]);

	mov	DWORD PTR _e$[esp+1716], ecx
; File I:\Vitalya\mine\NSProjectX\xrCore\_vector3d.h

; 36   : 	ICF	SelfRef	sub(const Self &a, const Self &v)		{ x=a.x-v.x;y=a.y-v.y;	z=a.z-v.z;		return *this;	};

	subss	xmm4, DWORD PTR _e$[esp+1716]
; File I:\Vitalya\mine\NSProjectX\layers\xrRenderPC_R1\LightShadows.cpp

; 438  : 				A.push_back			(VERTS[t.verts[2]]);

	lea	eax, DWORD PTR [eax+eax*2]
; File I:\Vitalya\mine\NSProjectX\xrCore\_vector3d.h

; 36   : 	ICF	SelfRef	sub(const Self &a, const Self &v)		{ x=a.x-v.x;y=a.y-v.y;	z=a.z-v.z;		return *this;	};

	movss	DWORD PTR _e$1$[esp+1712], xmm0
; File I:\Vitalya\mine\NSProjectX\layers\xrRenderPC_R1\LightShadows.cpp

; 438  : 				A.push_back			(VERTS[t.verts[2]]);

	mov	edx, DWORD PTR [ebx+eax*4]
	mov	ecx, DWORD PTR [ebx+eax*4+4]
	mov	eax, DWORD PTR [ebx+eax*4+8]
; File I:\Vitalya\mine\NSProjectX\xrCore\_vector3d.h

; 36   : 	ICF	SelfRef	sub(const Self &a, const Self &v)		{ x=a.x-v.x;y=a.y-v.y;	z=a.z-v.z;		return *this;	};

	movss	DWORD PTR _e$3$[esp+1712], xmm1
; File I:\Vitalya\mine\NSProjectX\layers\xrRenderPC_R1\LightShadows.cpp

; 438  : 				A.push_back			(VERTS[t.verts[2]]);

	mov	DWORD PTR _e$[esp+1720], eax
; File I:\Vitalya\mine\NSProjectX\xrCore\_vector3d.h

; 36   : 	ICF	SelfRef	sub(const Self &a, const Self &v)		{ x=a.x-v.x;y=a.y-v.y;	z=a.z-v.z;		return *this;	};

	subss	xmm1, DWORD PTR _e$[esp+1720]
; File I:\Vitalya\mine\NSProjectX\layers\xrRenderPC_R1\LightShadows.cpp

; 438  : 				A.push_back			(VERTS[t.verts[2]]);

	mov	DWORD PTR _e$[esp+1716], ecx
; File I:\Vitalya\mine\NSProjectX\xrCore\_vector3d.h

; 36   : 	ICF	SelfRef	sub(const Self &a, const Self &v)		{ x=a.x-v.x;y=a.y-v.y;	z=a.z-v.z;		return *this;	};

	subss	xmm7, DWORD PTR _e$[esp+1716]
	movss	DWORD PTR tv7072[esp+1712], xmm5
; File I:\Vitalya\mine\NSProjectX\layers\xrRenderPC_R1\LightShadows.cpp

; 438  : 				A.push_back			(VERTS[t.verts[2]]);

	mov	DWORD PTR _e$[esp+1712], edx
; File I:\Vitalya\mine\NSProjectX\xrCore\_vector3d.h

; 36   : 	ICF	SelfRef	sub(const Self &a, const Self &v)		{ x=a.x-v.x;y=a.y-v.y;	z=a.z-v.z;		return *this;	};

	subss	xmm3, DWORD PTR _e$[esp+1712]
	movaps	xmm0, xmm1
; File I:\Vitalya\mine\NSProjectX\xrCore\FixedVector.h

; 35   : 	IC void		push_back(value_type e)		{ VERIFY(count<dim); array[count++]=e;	}

	mov	DWORD PTR _A$15[esp+1736], edx
; File I:\Vitalya\mine\NSProjectX\xrCore\_vector3d.h

; 36   : 	ICF	SelfRef	sub(const Self &a, const Self &v)		{ x=a.x-v.x;y=a.y-v.y;	z=a.z-v.z;		return *this;	};

	mulss	xmm0, xmm4
; File I:\Vitalya\mine\NSProjectX\xrCore\FixedVector.h

; 35   : 	IC void		push_back(value_type e)		{ VERIFY(count<dim); array[count++]=e;	}

	mov	DWORD PTR _A$15[esp+1740], ecx
	mov	DWORD PTR _A$15[esp+1744], eax
	mov	DWORD PTR _A$15[esp+2288], 3
; File I:\Vitalya\mine\NSProjectX\xrCore\_vector3d.h

; 36   : 	ICF	SelfRef	sub(const Self &a, const Self &v)		{ x=a.x-v.x;y=a.y-v.y;	z=a.z-v.z;		return *this;	};

	movss	DWORD PTR tv7079[esp+1712], xmm0

; 273  : 		x = v1.y  * v2.z  - v1.z  * v2.y ;

	movaps	xmm0, xmm7
	movss	xmm5, DWORD PTR tv7079[esp+1712]
	mulss	xmm0, xmm2
	subss	xmm5, xmm0
	movaps	xmm0, xmm3
	mulss	xmm0, xmm2

; 275  : 		z = v1.x  * v2.y  - v1.y  * v2.x ;

	mulss	xmm3, xmm4
	movss	DWORD PTR tv7079[esp+1712], xmm5
	movss	xmm5, DWORD PTR tv7072[esp+1712]

; 167  : 		return x*x + y*y + z*z;

	movss	xmm2, DWORD PTR tv7079[esp+1712]

; 274  : 		y = v1.z  * v2.x  - v1.x  * v2.z ;

	mulss	xmm1, xmm5
	mulss	xmm7, xmm5
	subss	xmm0, xmm1

; 275  : 		z = v1.x  * v2.y  - v1.y  * v2.x ;

	subss	xmm7, xmm3
	movaps	xmm1, xmm0
	movss	DWORD PTR tv7080[esp+1712], xmm0
	mulss	xmm1, xmm0

; 167  : 		return x*x + y*y + z*z;

	movaps	xmm0, xmm2
	mulss	xmm0, xmm2
	addss	xmm1, xmm0
	movaps	xmm0, xmm7
	mulss	xmm0, xmm7
	addss	xmm1, xmm0
; File I:\Vitalya\mine\NSProjectX\layers\xrRenderPC_R1\LightShadows.cpp

; 447  : 				if (mag<EPS_S)						continue;

	movss	xmm0, DWORD PTR __real@33d6bf95
	comiss	xmm0, xmm1
	ja	$LN5@render
; File C:\Program Files (x86)\Windows Kits\10\Include\10.0.22000.0\ucrt\corecrt_math.h

; 764  :             return (float)sqrt(_X);

	sqrtss	xmm0, xmm1
; File I:\Vitalya\mine\NSProjectX\layers\xrRenderPC_R1\LightShadows.cpp

; 450  : 				float	DOT_Fade	= P.classify(S.L->position);

	mov	eax, DWORD PTR _S$1$[esp+1712]
	mov	eax, DWORD PTR [eax+84]
	movss	xmm4, DWORD PTR __real@3f800000
	divss	xmm4, xmm0
	movaps	xmm3, xmm4
	mulss	xmm3, xmm2
; File I:\Vitalya\mine\NSProjectX\xrCore\_vector3d.h

; 40   : 	ICF SelfRef	mul(T s)								{ x*=s;		y*=s;		z*=s;			return *this;	};

	movaps	xmm2, xmm4
	mulss	xmm2, DWORD PTR tv7080[esp+1712]

; 268  : 	{	return x*v.x + y*v.y + z*v.z; }

	movaps	xmm0, xmm3

; 40   : 	ICF SelfRef	mul(T s)								{ x*=s;		y*=s;		z*=s;			return *this;	};

	mulss	xmm4, xmm7

; 268  : 	{	return x*v.x + y*v.y + z*v.z; }

	mulss	xmm0, DWORD PTR [eax+64]
	movaps	xmm1, xmm2
	mulss	xmm1, DWORD PTR [eax+68]
	mulss	xmm6, xmm2
	addss	xmm1, xmm0

; 24   : 	ICF SelfRef	set(const _vector3<float> &v)			{ x = T(v.x);	y = T(v.y);	z = T(v.z);	return *this;	};

	movss	DWORD PTR _P$11[esp+1712], xmm3

; 268  : 	{	return x*v.x + y*v.y + z*v.z; }

	movaps	xmm0, xmm4

; 24   : 	ICF SelfRef	set(const _vector3<float> &v)			{ x = T(v.x);	y = T(v.y);	z = T(v.z);	return *this;	};

	movss	DWORD PTR _P$11[esp+1716], xmm2

; 268  : 	{	return x*v.x + y*v.y + z*v.z; }

	mulss	xmm0, DWORD PTR [eax+72]

; 24   : 	ICF SelfRef	set(const _vector3<float> &v)			{ x = T(v.x);	y = T(v.y);	z = T(v.z);	return *this;	};

	movss	DWORD PTR _P$11[esp+1720], xmm4

; 268  : 	{	return x*v.x + y*v.y + z*v.z; }

	addss	xmm1, xmm0
	movss	xmm0, DWORD PTR _e$1$[esp+1712]
	mulss	xmm0, xmm3
	addss	xmm6, xmm0
	movss	xmm0, DWORD PTR _e$3$[esp+1712]
	mulss	xmm0, xmm4
	addss	xmm6, xmm0
; File I:\Vitalya\mine\NSProjectX\layers\xrRenderPC_R1\LightShadows.cpp

; 451  : 				if (DOT_Fade<0)		continue;

	xorps	xmm0, xmm0
; File I:\Vitalya\mine\NSProjectX\xrCore\_vector3d.h

; 268  : 	{	return x*v.x + y*v.y + z*v.z; }

	subss	xmm1, xmm6
; File I:\Vitalya\mine\NSProjectX\layers\xrRenderPC_R1\LightShadows.cpp

; 451  : 				if (DOT_Fade<0)		continue;

	comiss	xmm0, xmm1
	ja	$LN5@render

; 452  : 
; 453  : 				// Clip polygon
; 454  : 				sPoly*		clip	= F.ClipPoly	(A,B);

	lea	eax, DWORD PTR _B$17[esp+1712]
	push	eax
	lea	eax, DWORD PTR _A$15[esp+1716]
	push	eax
	lea	ecx, DWORD PTR _F$16[esp+1720]
	call	DWORD PTR __imp_?ClipPoly@CFrustum@@QBEPAV?$svector@U?$_vector3@M@@$0DA@@@AAV2@0@Z
	mov	edi, eax
	mov	DWORD PTR _clip$1$[esp+1712], edi

; 455  : 				if (0==clip)		continue;

	test	edi, edi
	je	$LN5@render

; 456  : 
; 457  : 				// Triangulate poly 
; 458  : 				for (u32 v=2; v<clip->size(); v++)	{

	cmp	DWORD PTR [edi+576], 2
	mov	DWORD PTR _v$1$[esp+1712], 2
	jbe	$LN5@render
	lea	ebx, DWORD PTR [edi+24]
	npad	1
$LL13@render:

; 459  : 					tess.push_back	(tess_tri());

	push	48					; 00000030H
	lea	eax, DWORD PTR $T14[esp+1716]
	push	0
	push	eax
	call	_memset
; File C:\Program Files\Microsoft Visual Studio\2022\Community\VC\Tools\MSVC\14.29.30133\include\vector

; 730  :         if (_Mylast != _My_data._Myend) {

	mov	eax, DWORD PTR [esi+4]
; File I:\Vitalya\mine\NSProjectX\layers\xrRenderPC_R1\LightShadows.cpp

; 459  : 					tess.push_back	(tess_tri());

	add	esp, 12					; 0000000cH
; File C:\Program Files\Microsoft Visual Studio\2022\Community\VC\Tools\MSVC\14.29.30133\include\vector

; 730  :         if (_Mylast != _My_data._Myend) {

	cmp	eax, DWORD PTR [esi+8]
	je	SHORT $LN365@render
; File I:\Vitalya\mine\NSProjectX\xrCore\_stl_extensions.h

; 84   : 							void					construct		(pointer p, const T& _Val)				{	::new((void*)p) value_type (_Val); }

	mov	edi, eax
	lea	esi, DWORD PTR $T14[esp+1712]
; File C:\Program Files\Microsoft Visual Studio\2022\Community\VC\Tools\MSVC\14.29.30133\include\vector

; 716  :         ++_Mylast;

	mov	eax, DWORD PTR _this$1$[esp+1712]
; File I:\Vitalya\mine\NSProjectX\xrCore\_stl_extensions.h

; 84   : 							void					construct		(pointer p, const T& _Val)				{	::new((void*)p) value_type (_Val); }

	mov	ecx, 12					; 0000000cH
	rep movsd
; File C:\Program Files\Microsoft Visual Studio\2022\Community\VC\Tools\MSVC\14.29.30133\include\vector

; 716  :         ++_Mylast;

	add	DWORD PTR [eax+44], 48			; 00000030H
	lea	esi, DWORD PTR [eax+40]

; 731  :             return _Emplace_back_with_unused_capacity(_STD forward<_Valty>(_Val)...);

	mov	edi, DWORD PTR _clip$1$[esp+1712]
	jmp	SHORT $LN364@render
$LN365@render:

; 732  :         }
; 733  : 
; 734  :         _Ty& _Result = *_Emplace_reallocate(_Mylast, _STD forward<_Valty>(_Val)...);

	lea	ecx, DWORD PTR $T14[esp+1712]
	push	ecx
	push	eax
	mov	ecx, esi
	call	??$_Emplace_reallocate@Utess_tri@CLightShadows@@@?$vector@Utess_tri@CLightShadows@@V?$xalloc@Utess_tri@CLightShadows@@@@@std@@QAEPAUtess_tri@CLightShadows@@QAU23@$$QAU23@@Z ; std::vector<CLightShadows::tess_tri,xalloc<CLightShadows::tess_tri> >::_Emplace_reallocate<CLightShadows::tess_tri>
	mov	eax, DWORD PTR _this$1$[esp+1712]
$LN364@render:

; 1611 :         return _My_data._Mylast[-1];

	mov	ecx, DWORD PTR [eax+44]
; File I:\Vitalya\mine\NSProjectX\layers\xrRenderPC_R1\LightShadows.cpp

; 461  : 					T.v[0]			= (*clip)[0];

	mov	eax, DWORD PTR [edi]
	mov	DWORD PTR [ecx-48], eax
	mov	eax, DWORD PTR [edi+4]
	mov	DWORD PTR [ecx-44], eax
	mov	eax, DWORD PTR [edi+8]
	mov	DWORD PTR [ecx-40], eax

; 462  : 					T.v[1]			= (*clip)[v-1];

	mov	eax, DWORD PTR [ebx-12]
	mov	DWORD PTR [ecx-36], eax
	mov	eax, DWORD PTR [ebx-8]
	mov	DWORD PTR [ecx-32], eax
	mov	eax, DWORD PTR [ebx-4]
	mov	DWORD PTR [ecx-28], eax

; 463  : 					T.v[2]			= (*clip)[v];

	mov	eax, DWORD PTR [ebx]
	mov	DWORD PTR [ecx-24], eax
	mov	eax, DWORD PTR [ebx+4]
	mov	DWORD PTR [ecx-20], eax
	mov	eax, DWORD PTR [ebx+8]
	add	ebx, 12					; 0000000cH
	mov	DWORD PTR [ecx-16], eax

; 464  : 					T.N				= P.n;

	mov	eax, DWORD PTR _P$11[esp+1712]
	mov	DWORD PTR [ecx-12], eax
	mov	eax, DWORD PTR _P$11[esp+1716]
	mov	DWORD PTR [ecx-8], eax
	mov	eax, DWORD PTR _P$11[esp+1720]
	mov	DWORD PTR [ecx-4], eax
	mov	eax, DWORD PTR _v$1$[esp+1712]
	inc	eax
	mov	DWORD PTR _v$1$[esp+1712], eax
	cmp	eax, DWORD PTR [edi+576]
	jb	$LL13@render
$LN5@render:

; 429  : 			for (CDB::RESULT* p = xrc.r_begin(); p!=xrc.r_end(); p++)

	mov	edi, DWORD PTR _p$1$[esp+1712]
; File I:\Vitalya\mine\NSProjectX\xrCDB\xrCDB.h

; 155  : 		ICF RESULT*		r_end			()	{	return &*rd.end();			};

	lea	eax, DWORD PTR $T10[esp+1712]
	mov	ecx, DWORD PTR __My_data$1$[esp+1712]
; File I:\Vitalya\mine\NSProjectX\layers\xrRenderPC_R1\LightShadows.cpp

; 429  : 			for (CDB::RESULT* p = xrc.r_begin(); p!=xrc.r_end(); p++)

	add	edi, 56					; 00000038H
; File I:\Vitalya\mine\NSProjectX\xrCDB\xrCDB.h

; 155  : 		ICF RESULT*		r_end			()	{	return &*rd.end();			};

	push	eax
; File I:\Vitalya\mine\NSProjectX\layers\xrRenderPC_R1\LightShadows.cpp

; 429  : 			for (CDB::RESULT* p = xrc.r_begin(); p!=xrc.r_end(); p++)

	mov	DWORD PTR _p$1$[esp+1716], edi
; File I:\Vitalya\mine\NSProjectX\xrCDB\xrCDB.h

; 155  : 		ICF RESULT*		r_end			()	{	return &*rd.end();			};

	call	?end@?$vector@URESULT@CDB@@V?$xalloc@URESULT@CDB@@@@@std@@QAE?AV?$_Vector_iterator@V?$_Vector_val@U?$_Simple_types@URESULT@CDB@@@std@@@std@@@2@XZ ; std::vector<CDB::RESULT,xalloc<CDB::RESULT> >::end
; File I:\Vitalya\mine\NSProjectX\layers\xrRenderPC_R1\LightShadows.cpp

; 429  : 			for (CDB::RESULT* p = xrc.r_begin(); p!=xrc.r_end(); p++)

	cmp	edi, DWORD PTR [eax]
	jne	$LL7@render
	mov	ebx, DWORD PTR _CI$1$[esp+1712]
$LN6@render:

; 465  : 				}
; 466  : 			}
; 467  : 
; 468  : 			// Remember params which builded cache item
; 469  : 			CI->O					= S.O;

	mov	edx, DWORD PTR _S$1$[esp+1712]
	mov	ecx, DWORD PTR [edx]
	mov	DWORD PTR [ebx], ecx

; 470  : 			CI->Op					= CI->O->renderable.xform.c;

	mov	eax, DWORD PTR [ecx+52]
	mov	DWORD PTR [ebx+4], eax
	mov	eax, DWORD PTR [ecx+56]
	mov	DWORD PTR [ebx+8], eax
	mov	eax, DWORD PTR [ecx+60]
	mov	DWORD PTR [ebx+12], eax

; 471  : 			CI->L					= S.L;

	mov	ecx, DWORD PTR [edx+84]
	mov	DWORD PTR [ebx+16], ecx

; 472  : 			CI->Lp					= CI->L->position;

	mov	eax, DWORD PTR [ecx+64]
	mov	DWORD PTR [ebx+20], eax
	mov	eax, DWORD PTR [ecx+68]
	mov	DWORD PTR [ebx+24], eax
	mov	eax, DWORD PTR [ecx+72]
	mov	DWORD PTR [ebx+28], eax
; File C:\Program Files\Microsoft Visual Studio\2022\Community\VC\Tools\MSVC\14.29.30133\include\vector

; 1536 :         return static_cast<size_type>(_My_data._Mylast - _My_data._Myfirst);

	mov	eax, DWORD PTR [esi+4]
	sub	eax, DWORD PTR [esi]
	sar	eax, 4
	imul	ecx, eax, -1431655765
; File I:\Vitalya\mine\NSProjectX\layers\xrRenderPC_R1\LightShadows.cpp

; 473  : 			CI->tcnt				= tess.size();

	mov	DWORD PTR [ebx+40], ecx
; File I:\Vitalya\mine\NSProjectX\xrCore\xrMemory.h

; 109  : 	IC void		xr_free		(T* &P)					{	if (P) { Memory.mem_free((void*)P); P=NULL;	};	}

	mov	eax, DWORD PTR [ebx+36]
	test	eax, eax
	je	SHORT $LN16@render
	mov	ecx, DWORD PTR __imp_?Memory@@3VxrMemory@@A
	push	eax
	call	DWORD PTR __imp_?mem_free@xrMemory@@QAEXPAX@Z
	mov	DWORD PTR [ebx+36], 0
	mov	ecx, DWORD PTR [ebx+40]
$LN16@render:
; File C:\Program Files\Microsoft Visual Studio\2022\Community\VC\Tools\MSVC\14.29.30133\include\vector

; 1536 :         return static_cast<size_type>(_My_data._Mylast - _My_data._Myfirst);

	mov	eax, DWORD PTR [esi+4]
	sub	eax, DWORD PTR [esi]
; File I:\Vitalya\mine\NSProjectX\layers\xrRenderPC_R1\LightShadows.cpp

; 476  : 			if (tess.size())		{

	je	SHORT $LN40@render
; File I:\Vitalya\mine\NSProjectX\xrCore\xrMemory.h

; 107  : 	IC T*		xr_alloc	(u32 count)				{	return  (T*)Memory.mem_alloc(count*sizeof(T));	}

	lea	eax, DWORD PTR [ecx+ecx*2]
	mov	ecx, DWORD PTR __imp_?Memory@@3VxrMemory@@A
	shl	eax, 4
	push	eax
	call	DWORD PTR __imp_?mem_alloc@xrMemory@@QAEPAXI@Z
; File I:\Vitalya\mine\NSProjectX\layers\xrRenderPC_R1\LightShadows.cpp

; 479  : 				CopyMemory		(CI->tris,&*tess.begin(),CI->tcnt * sizeof(tess_tri));

	mov	ecx, DWORD PTR [ebx+40]
	mov	DWORD PTR [ebx+36], eax
	lea	ecx, DWORD PTR [ecx+ecx*2]
	shl	ecx, 4
	push	ecx
	push	DWORD PTR [esi]
	push	eax
	call	_memcpy
	add	esp, 12					; 0000000cH
$LN40@render:

; 480  : 			}
; 481  : 		}
; 482  : 
; 483  : 		// Fill VB
; 484  : 		for (u32 tid=0; tid<CI->tcnt; tid++)	{

	cmp	DWORD PTR [ebx+40], 0
	mov	DWORD PTR _tid$1$[esp+1712], 0
	jbe	$LN716@render
	xor	eax, eax
	xorps	xmm4, xmm4
	mov	DWORD PTR tv7204[esp+1712], eax
$LL19@render:

; 485  : 			tess_tri&	TT		= CI->tris[tid];

	mov	edi, DWORD PTR [ebx+36]
; File I:\Vitalya\mine\NSProjectX\xrCore\_vector3d.h

; 268  : 	{	return x*v.x + y*v.y + z*v.z; }

	movss	xmm2, DWORD PTR _View$[esp+1716]
; File I:\Vitalya\mine\NSProjectX\layers\xrRenderPC_R1\LightShadows.cpp

; 485  : 			tess_tri&	TT		= CI->tris[tid];

	add	edi, eax
; File I:\Vitalya\mine\NSProjectX\xrCore\_vector3d.h

; 268  : 	{	return x*v.x + y*v.y + z*v.z; }

	movss	xmm0, DWORD PTR [edi+8]

; 24   : 	ICF SelfRef	set(const _vector3<float> &v)			{ x = T(v.x);	y = T(v.y);	z = T(v.z);	return *this;	};

	movss	xmm5, DWORD PTR [edi+36]
	movss	xmm3, DWORD PTR [edi+40]
	movss	xmm6, DWORD PTR [edi+44]

; 268  : 	{	return x*v.x + y*v.y + z*v.z; }

	movss	xmm7, DWORD PTR [edi+4]
	movss	xmm1, DWORD PTR [edi]
	movss	DWORD PTR tv7092[esp+1712], xmm0
; File I:\Vitalya\mine\NSProjectX\xrCore\_plane.h

; 47   : 		d			= - n.set(_n).dotproduct(_p);

	movss	xmm0, DWORD PTR _View$[esp+1712]
	mulss	xmm0, xmm5
; File I:\Vitalya\mine\NSProjectX\xrCore\_vector3d.h

; 268  : 	{	return x*v.x + y*v.y + z*v.z; }

	mulss	xmm2, xmm3
	movss	DWORD PTR tv6949[esp+1712], xmm1
	mulss	xmm1, xmm5
	addss	xmm2, xmm0

; 24   : 	ICF SelfRef	set(const _vector3<float> &v)			{ x = T(v.x);	y = T(v.y);	z = T(v.z);	return *this;	};

	movss	DWORD PTR tv6731[esp+1712], xmm5

; 268  : 	{	return x*v.x + y*v.y + z*v.z; }

	movss	xmm0, DWORD PTR _View$[esp+1720]
	mulss	xmm0, xmm6

; 24   : 	ICF SelfRef	set(const _vector3<float> &v)			{ x = T(v.x);	y = T(v.y);	z = T(v.z);	return *this;	};

	movss	DWORD PTR tv6732[esp+1712], xmm6

; 268  : 	{	return x*v.x + y*v.y + z*v.z; }

	movss	DWORD PTR tv6947[esp+1712], xmm7
	addss	xmm2, xmm0
	movaps	xmm0, xmm7
	mulss	xmm0, xmm3
	addss	xmm1, xmm0
	movss	xmm0, DWORD PTR tv7092[esp+1712]
	mulss	xmm0, xmm6
	addss	xmm1, xmm0
	subss	xmm2, xmm1
; File I:\Vitalya\mine\NSProjectX\layers\xrRenderPC_R1\LightShadows.cpp

; 490  : 			if (ttp.classify(View)<0)						continue;

	comiss	xmm4, xmm2
	ja	$LN17@render

; 491  : 			int	c0		= PLC_calc(v[0],TT.N,S.L,Le,S.C);

	mov	ecx, DWORD PTR _S$1$[esp+1712]
	mov	ebx, DWORD PTR [ecx+84]

; 137  : 	if (L->flags.type==IRender_Light::DIRECT)

	mov	eax, DWORD PTR [ebx+60]
	and	eax, 15					; 0000000fH
	mov	DWORD PTR tv7252[esp+1712], eax
	jne	SHORT $LN425@render
; File I:\Vitalya\mine\NSProjectX\xrCore\_vector3d.h

; 268  : 	{	return x*v.x + y*v.y + z*v.z; }

	movaps	xmm0, xmm5
	movaps	xmm2, xmm3
	mulss	xmm2, DWORD PTR [ebx+80]
	mulss	xmm0, DWORD PTR [ebx+76]
	addss	xmm2, xmm0
	movaps	xmm0, xmm6
	mulss	xmm0, DWORD PTR [ebx+84]
	addss	xmm2, xmm0
	xorps	xmm2, DWORD PTR __xmm@80000000800000008000000080000000
; File I:\Vitalya\mine\NSProjectX\layers\xrRenderPC_R1\LightShadows.cpp

; 142  : 		if( D <=0 )						return 0;

	comiss	xmm4, xmm2
	jb	SHORT $LN427@render
	movaps	xmm2, xmm4
	jmp	$LN426@render
$LN427@render:

; 143  : 		
; 144  : 		// Trace Light
; 145  : 		float A		= D*E;

	mulss	xmm2, DWORD PTR _Le$1$[esp+1712]

; 146  : 		return A;

	jmp	$LN426@render
$LN425@render:
; File I:\Vitalya\mine\NSProjectX\xrCore\_vector3d.h

; 287  : 	{	return (x-v.x)*(x-v.x) + (y-v.y)*(y-v.y) + (z-v.z)*(z-v.z);	}

	movss	xmm2, DWORD PTR [ebx+68]
	movaps	xmm1, xmm7
	movss	xmm5, DWORD PTR [ebx+64]
	subss	xmm1, xmm2
	movss	xmm7, DWORD PTR tv6949[esp+1712]
	movss	xmm0, DWORD PTR tv7092[esp+1712]
	subss	xmm7, xmm5
	movss	xmm6, DWORD PTR [ebx+72]
	subss	xmm0, xmm6
	mulss	xmm1, xmm1
	mulss	xmm7, xmm7
	mulss	xmm0, xmm0
	addss	xmm7, xmm1
	addss	xmm7, xmm0
; File I:\Vitalya\mine\NSProjectX\layers\xrRenderPC_R1\LightShadows.cpp

; 150  : 		if (sqD > (L->range*L->range))	return 0;

	movss	xmm0, DWORD PTR [ebx+100]
	mulss	xmm0, xmm0
	comiss	xmm7, xmm0
	jbe	SHORT $LN428@render
	movaps	xmm2, xmm4
	jmp	$LN723@render
$LN428@render:
; File I:\Vitalya\mine\NSProjectX\xrCore\_vector3d.h

; 36   : 	ICF	SelfRef	sub(const Self &a, const Self &v)		{ x=a.x-v.x;y=a.y-v.y;	z=a.z-v.z;		return *this;	};

	subss	xmm5, DWORD PTR tv6949[esp+1712]
	subss	xmm2, DWORD PTR tv6947[esp+1712]
	subss	xmm6, DWORD PTR tv7092[esp+1712]

; 200  : 		T magnitude=x*x + y*y + z*z;

	movaps	xmm0, xmm5

; 36   : 	ICF	SelfRef	sub(const Self &a, const Self &v)		{ x=a.x-v.x;y=a.y-v.y;	z=a.z-v.z;		return *this;	};

	movaps	xmm1, xmm2

; 200  : 		T magnitude=x*x + y*y + z*z;

	mulss	xmm0, xmm5

; 36   : 	ICF	SelfRef	sub(const Self &a, const Self &v)		{ x=a.x-v.x;y=a.y-v.y;	z=a.z-v.z;		return *this;	};

	mulss	xmm1, xmm2

; 200  : 		T magnitude=x*x + y*y + z*z;

	addss	xmm1, xmm0
	movaps	xmm0, xmm6
	mulss	xmm0, xmm6
	addss	xmm1, xmm0

; 201  : 		if (magnitude> std::numeric_limits<T>::min()) {

	comiss	xmm1, DWORD PTR __real@00800000
	movss	DWORD PTR _magnitude$1$[esp+1712], xmm1
	movss	xmm1, DWORD PTR __real@3f800000
	jbe	SHORT $LN440@render

; 202  : 			magnitude=_sqrt(1/magnitude);

	movaps	xmm0, xmm1
	divss	xmm0, DWORD PTR _magnitude$1$[esp+1712]
; File C:\Program Files (x86)\Windows Kits\10\Include\10.0.22000.0\ucrt\corecrt_math.h

; 764  :             return (float)sqrt(_X);

	sqrtss	xmm0, xmm0
; File I:\Vitalya\mine\NSProjectX\xrCore\_vector3d.h

; 202  : 			magnitude=_sqrt(1/magnitude);

	mulss	xmm5, xmm0

; 203  : 			x *= magnitude;

	mulss	xmm2, xmm0

; 204  : 			y *= magnitude;

	mulss	xmm6, xmm0
$LN440@render:

; 268  : 	{	return x*v.x + y*v.y + z*v.z; }

	mulss	xmm5, DWORD PTR tv6731[esp+1712]
	mulss	xmm6, DWORD PTR tv6732[esp+1712]
	mulss	xmm2, xmm3
	addss	xmm2, xmm5
	addss	xmm2, xmm6
; File I:\Vitalya\mine\NSProjectX\layers\xrRenderPC_R1\LightShadows.cpp

; 156  : 		if( D <=0 )						return 0;

	comiss	xmm4, xmm2
	jb	SHORT $LN429@render
	movaps	xmm2, xmm4
	jmp	SHORT $LN723@render
$LN429@render:
; File C:\Program Files (x86)\Windows Kits\10\Include\10.0.22000.0\ucrt\corecrt_math.h

; 764  :             return (float)sqrt(_X);

	sqrtss	xmm0, xmm7
; File I:\Vitalya\mine\NSProjectX\layers\xrRenderPC_R1\LightShadows.cpp

; 161  : 		float A		= D * E * att;

	mulss	xmm2, DWORD PTR _Le$1$[esp+1712]
	addss	xmm0, xmm1
	movaps	xmm1, xmm2
	divss	xmm1, xmm0
	subss	xmm2, xmm1
$LN723@render:
; File I:\Vitalya\mine\NSProjectX\xrCore\_vector3d.h

; 287  : 	{	return (x-v.x)*(x-v.x) + (y-v.y)*(y-v.y) + (z-v.z)*(z-v.z);	}

	movss	xmm7, DWORD PTR tv6947[esp+1712]
$LN426@render:
	mov	eax, DWORD PTR __imp_?Device@@3VCRenderDevice@@A
; File I:\Vitalya\mine\NSProjectX\xrCore\vector.h

; 96   : 	if		( val<_low	)	return _low; 

	movss	xmm5, DWORD PTR __real@3f800000
; File I:\Vitalya\mine\NSProjectX\xrCore\_vector3d.h

; 287  : 	{	return (x-v.x)*(x-v.x) + (y-v.y)*(y-v.y) + (z-v.z)*(z-v.z);	}

	movss	xmm1, DWORD PTR [eax+492]
	movss	xmm6, DWORD PTR [eax+488]
	movss	xmm0, DWORD PTR [eax+496]
	movss	DWORD PTR _C1$1$[esp+1712], xmm6
	subss	xmm6, DWORD PTR tv6949[esp+1712]
	movss	DWORD PTR tv6788[esp+1712], xmm1
	subss	xmm1, xmm7
	movss	DWORD PTR tv6789[esp+1712], xmm0
	subss	xmm0, DWORD PTR tv7092[esp+1712]
	mulss	xmm6, xmm6
	mulss	xmm1, xmm1
	mulss	xmm0, xmm0
	addss	xmm6, xmm1
; File I:\Vitalya\mine\NSProjectX\layers\xrRenderPC_R1\LightShadows.cpp

; 169  : 	float	C1		= clampr(Device.vCameraPosition.distance_to_sqr(P)/S_distance2,	0.f,1.f);

	addss	xmm6, xmm0
	mulss	xmm6, DWORD PTR __real@39e38e39
; File I:\Vitalya\mine\NSProjectX\xrCore\vector.h

; 96   : 	if		( val<_low	)	return _low; 

	comiss	xmm4, xmm6
; File I:\Vitalya\mine\NSProjectX\layers\xrRenderPC_R1\LightShadows.cpp

; 169  : 	float	C1		= clampr(Device.vCameraPosition.distance_to_sqr(P)/S_distance2,	0.f,1.f);

	movss	DWORD PTR _C1$1$[esp+1712], xmm6
; File I:\Vitalya\mine\NSProjectX\xrCore\vector.h

; 96   : 	if		( val<_low	)	return _low; 

	jbe	SHORT $LN457@render
	movss	DWORD PTR _C1$1$[esp+1712], xmm4
	jmp	SHORT $LN459@render
$LN457@render:

; 97   : 	else if	( val>_high )	return _high;

	comiss	xmm6, xmm5
	jbe	SHORT $LN459@render
	movss	DWORD PTR _C1$1$[esp+1712], xmm5
$LN459@render:
; File I:\Vitalya\mine\NSProjectX\xrCore\_vector3d.h

; 287  : 	{	return (x-v.x)*(x-v.x) + (y-v.y)*(y-v.y) + (z-v.z)*(z-v.z);	}

	movss	xmm1, DWORD PTR [ecx+12]
	movss	xmm6, DWORD PTR [ecx+8]
	movss	xmm0, DWORD PTR [ecx+16]
	movss	DWORD PTR tv6799[esp+1712], xmm1
	subss	xmm1, xmm7
	movaps	xmm7, xmm6
	movss	DWORD PTR tv6800[esp+1712], xmm0
	subss	xmm7, DWORD PTR tv6949[esp+1712]
	subss	xmm0, DWORD PTR tv7092[esp+1712]
	mulss	xmm1, xmm1
	mulss	xmm7, xmm7
	mulss	xmm0, xmm0
	addss	xmm7, xmm1
; File I:\Vitalya\mine\NSProjectX\layers\xrRenderPC_R1\LightShadows.cpp

; 170  : 	float	C2		= clampr(O.distance_to_sqr(P)/S_fade2,							0.f,1.f);

	addss	xmm7, xmm0
	mulss	xmm7, DWORD PTR __real@3d4a4588
; File I:\Vitalya\mine\NSProjectX\xrCore\vector.h

; 96   : 	if		( val<_low	)	return _low; 

	comiss	xmm4, xmm7
	jbe	SHORT $LN465@render
	movaps	xmm7, xmm4
	jmp	SHORT $LN467@render
$LN465@render:

; 97   : 	else if	( val>_high )	return _high;

	comiss	xmm7, xmm5
	jbe	SHORT $LN467@render
	movaps	xmm7, xmm5
$LN467@render:
; File I:\Vitalya\mine\NSProjectX\layers\xrRenderPC_R1\LightShadows.cpp

; 172  : 	return			iCeil(255.f*A);

	mulss	xmm2, DWORD PTR __real@43bf4000
	movaps	xmm0, xmm5
; File I:\Vitalya\mine\NSProjectX\xrCore\_bitwise.h

; 105  :     int exponent	= (127 + 31) - ((a >> 23) & 0xFF);

	mov	ecx, 158				; 0000009eH
; File I:\Vitalya\mine\NSProjectX\layers\xrRenderPC_R1\LightShadows.cpp

; 171  : 	float	A		= 1.f-1.5f*E*(1.f-C1)*(1.f-C2);

	subss	xmm0, DWORD PTR _C1$1$[esp+1712]
	movaps	xmm1, xmm5
	subss	xmm1, xmm7

; 172  : 	return			iCeil(255.f*A);

	mulss	xmm1, xmm0
	movss	xmm0, DWORD PTR __real@437f0000
	mulss	xmm1, xmm2
	subss	xmm0, xmm1
; File I:\Vitalya\mine\NSProjectX\xrCore\_bitwise.h

; 104  :     int a			= (*(const int*)(&x));

	movss	DWORD PTR _a$7[esp+1712], xmm0

; 105  :     int exponent	= (127 + 31) - ((a >> 23) & 0xFF);

	mov	esi, DWORD PTR _a$7[esp+1712]
	mov	eax, esi
	sar	eax, 23					; 00000017H
	movzx	eax, al
	sub	ecx, eax

; 106  :     int r			= (((u32)(a) << 8) | (1U << 31)) >> exponent;

	mov	eax, esi
	or	eax, -8388608				; ff800000H

; 112  :         a			=	~((a-1)>>31);		/* change sign */

	lea	edx, DWORD PTR [esi-1]
	shl	eax, 8
	shr	eax, cl
	sub	ecx, 96					; 00000060H
	mov	DWORD PTR _c0$2$[esp+1712], eax
	mov	eax, 1
	shl	eax, cl
	dec	eax
	sar	edx, 31					; 0000001fH
	sar	eax, 8
	not	edx
	and	eax, esi

; 113  :         r			-=	(imask&a);

	mov	esi, DWORD PTR _c0$2$[esp+1712]
	neg	eax
	sbb	eax, eax
	inc	eax
	and	eax, edx
	sub	esi, eax
	lea	eax, DWORD PTR [ecx+64]
	sar	eax, 31					; 0000001fH

; 114  :         r			&=	exponent;

	and	esi, eax
	xor	esi, edx

; 116  :         r			=	-r;                 /* change sign */

	neg	esi
; File I:\Vitalya\mine\NSProjectX\layers\xrRenderPC_R1\LightShadows.cpp

; 137  : 	if (L->flags.type==IRender_Light::DIRECT)

	cmp	DWORD PTR tv7252[esp+1712], 0
; File I:\Vitalya\mine\NSProjectX\xrCore\_bitwise.h

; 116  :         r			=	-r;                 /* change sign */

	mov	DWORD PTR _c0$2$[esp+1712], esi
; File I:\Vitalya\mine\NSProjectX\layers\xrRenderPC_R1\LightShadows.cpp

; 137  : 	if (L->flags.type==IRender_Light::DIRECT)

	jne	SHORT $LN475@render
; File I:\Vitalya\mine\NSProjectX\xrCore\_vector3d.h

; 268  : 	{	return x*v.x + y*v.y + z*v.z; }

	movss	xmm0, DWORD PTR tv6731[esp+1712]
	mulss	xmm3, DWORD PTR [ebx+80]
	mulss	xmm0, DWORD PTR [ebx+76]
	addss	xmm3, xmm0
	movss	xmm0, DWORD PTR tv6732[esp+1712]
	mulss	xmm0, DWORD PTR [ebx+84]
	addss	xmm3, xmm0
	xorps	xmm3, DWORD PTR __xmm@80000000800000008000000080000000
; File I:\Vitalya\mine\NSProjectX\layers\xrRenderPC_R1\LightShadows.cpp

; 142  : 		if( D <=0 )						return 0;

	comiss	xmm4, xmm3
	jb	SHORT $LN477@render
	movaps	xmm3, xmm4
	jmp	$LN476@render
$LN477@render:

; 143  : 		
; 144  : 		// Trace Light
; 145  : 		float A		= D*E;

	mulss	xmm3, DWORD PTR _Le$1$[esp+1712]

; 146  : 		return A;

	jmp	$LN476@render
$LN475@render:
; File I:\Vitalya\mine\NSProjectX\xrCore\_vector3d.h

; 287  : 	{	return (x-v.x)*(x-v.x) + (y-v.y)*(y-v.y) + (z-v.z)*(z-v.z);	}

	movss	xmm0, DWORD PTR [edi+12]
	movss	xmm2, DWORD PTR [ebx+64]
	movss	xmm1, DWORD PTR [edi+16]
	subss	xmm0, xmm2
	movss	xmm3, DWORD PTR [ebx+68]
	movss	xmm7, DWORD PTR [ebx+72]
	subss	xmm1, xmm3
	movss	DWORD PTR _sqD$1$[esp+1712], xmm0
	movss	xmm4, DWORD PTR _sqD$1$[esp+1712]
	movss	xmm0, DWORD PTR [edi+20]
	mulss	xmm4, xmm4
	subss	xmm0, xmm7
	mulss	xmm1, xmm1
	mulss	xmm0, xmm0
	addss	xmm4, xmm1
	movaps	xmm1, xmm4
	movss	DWORD PTR _sqD$1$[esp+1712], xmm4
	addss	xmm1, xmm0
; File I:\Vitalya\mine\NSProjectX\layers\xrRenderPC_R1\LightShadows.cpp

; 150  : 		if (sqD > (L->range*L->range))	return 0;

	xorps	xmm4, xmm4
	movss	xmm0, DWORD PTR [ebx+100]
	mulss	xmm0, xmm0
	comiss	xmm1, xmm0
	jbe	SHORT $LN478@render
	movaps	xmm3, xmm4
	jmp	$LN476@render
$LN478@render:
; File I:\Vitalya\mine\NSProjectX\xrCore\_vector3d.h

; 36   : 	ICF	SelfRef	sub(const Self &a, const Self &v)		{ x=a.x-v.x;y=a.y-v.y;	z=a.z-v.z;		return *this;	};

	subss	xmm3, DWORD PTR [edi+16]
	subss	xmm2, DWORD PTR [edi+12]
	subss	xmm7, DWORD PTR [edi+20]
	movaps	xmm0, xmm3
	mulss	xmm0, xmm3
	movss	DWORD PTR _magnitude$1$[esp+1712], xmm0

; 200  : 		T magnitude=x*x + y*y + z*z;

	movaps	xmm0, xmm2
	movss	xmm4, DWORD PTR _magnitude$1$[esp+1712]
	mulss	xmm0, xmm2
	addss	xmm4, xmm0
	movaps	xmm0, xmm7
	mulss	xmm0, xmm7
	addss	xmm4, xmm0

; 201  : 		if (magnitude> std::numeric_limits<T>::min()) {

	movaps	xmm0, xmm4
	movss	DWORD PTR _magnitude$1$[esp+1712], xmm4
	comiss	xmm0, DWORD PTR __real@00800000
	xorps	xmm4, xmm4
	jbe	SHORT $LN490@render

; 202  : 			magnitude=_sqrt(1/magnitude);

	movaps	xmm0, xmm5
	divss	xmm0, DWORD PTR _magnitude$1$[esp+1712]
; File C:\Program Files (x86)\Windows Kits\10\Include\10.0.22000.0\ucrt\corecrt_math.h

; 764  :             return (float)sqrt(_X);

	sqrtss	xmm0, xmm0
; File I:\Vitalya\mine\NSProjectX\xrCore\_vector3d.h

; 202  : 			magnitude=_sqrt(1/magnitude);

	mulss	xmm2, xmm0

; 203  : 			x *= magnitude;

	mulss	xmm3, xmm0

; 204  : 			y *= magnitude;

	mulss	xmm7, xmm0
$LN490@render:

; 268  : 	{	return x*v.x + y*v.y + z*v.z; }

	mulss	xmm3, DWORD PTR [edi+40]
	mulss	xmm2, DWORD PTR [edi+36]
	mulss	xmm7, DWORD PTR [edi+44]
	addss	xmm3, xmm2
	addss	xmm3, xmm7
; File I:\Vitalya\mine\NSProjectX\layers\xrRenderPC_R1\LightShadows.cpp

; 156  : 		if( D <=0 )						return 0;

	comiss	xmm4, xmm3
	jb	SHORT $LN479@render
	movaps	xmm3, xmm4
	jmp	SHORT $LN476@render
$LN479@render:
; File C:\Program Files (x86)\Windows Kits\10\Include\10.0.22000.0\ucrt\corecrt_math.h

; 764  :             return (float)sqrt(_X);

	sqrtss	xmm0, xmm1
; File I:\Vitalya\mine\NSProjectX\layers\xrRenderPC_R1\LightShadows.cpp

; 161  : 		float A		= D * E * att;

	mulss	xmm3, DWORD PTR _Le$1$[esp+1712]
	addss	xmm0, xmm5
	movaps	xmm1, xmm3
	divss	xmm1, xmm0
	subss	xmm3, xmm1
$LN476@render:
; File I:\Vitalya\mine\NSProjectX\xrCore\_vector3d.h

; 287  : 	{	return (x-v.x)*(x-v.x) + (y-v.y)*(y-v.y) + (z-v.z)*(z-v.z);	}

	movss	xmm7, DWORD PTR [edi+16]
	movss	xmm1, DWORD PTR tv6788[esp+1712]
	movss	xmm0, DWORD PTR _C1$1$[esp+1712]
	subss	xmm1, xmm7
	subss	xmm0, DWORD PTR [edi+12]
	movss	xmm2, DWORD PTR tv6789[esp+1712]
	subss	xmm2, DWORD PTR [edi+20]
	mulss	xmm1, xmm1
	mulss	xmm0, xmm0
	mulss	xmm2, xmm2
	addss	xmm0, xmm1
; File I:\Vitalya\mine\NSProjectX\layers\xrRenderPC_R1\LightShadows.cpp

; 169  : 	float	C1		= clampr(Device.vCameraPosition.distance_to_sqr(P)/S_distance2,	0.f,1.f);

	addss	xmm0, xmm2
	mulss	xmm0, DWORD PTR __real@39e38e39
; File I:\Vitalya\mine\NSProjectX\xrCore\vector.h

; 96   : 	if		( val<_low	)	return _low; 

	comiss	xmm4, xmm0
	jbe	SHORT $LN507@render
	movaps	xmm0, xmm4
	jmp	SHORT $LN509@render
$LN507@render:

; 97   : 	else if	( val>_high )	return _high;

	comiss	xmm0, xmm5
	jbe	SHORT $LN509@render
	movaps	xmm0, xmm5
$LN509@render:
; File I:\Vitalya\mine\NSProjectX\xrCore\_vector3d.h

; 287  : 	{	return (x-v.x)*(x-v.x) + (y-v.y)*(y-v.y) + (z-v.z)*(z-v.z);	}

	subss	xmm6, DWORD PTR [edi+12]
	movss	xmm1, DWORD PTR tv6799[esp+1712]
	movss	xmm2, DWORD PTR tv6800[esp+1712]
	subss	xmm1, xmm7
	subss	xmm2, DWORD PTR [edi+20]
	mulss	xmm6, xmm6
	mulss	xmm1, xmm1
	mulss	xmm2, xmm2
	addss	xmm6, xmm1
; File I:\Vitalya\mine\NSProjectX\layers\xrRenderPC_R1\LightShadows.cpp

; 170  : 	float	C2		= clampr(O.distance_to_sqr(P)/S_fade2,							0.f,1.f);

	addss	xmm6, xmm2
	mulss	xmm6, DWORD PTR __real@3d4a4588
; File I:\Vitalya\mine\NSProjectX\xrCore\vector.h

; 96   : 	if		( val<_low	)	return _low; 

	comiss	xmm4, xmm6
	jbe	SHORT $LN515@render
	movaps	xmm6, xmm4
	jmp	SHORT $LN517@render
$LN515@render:

; 97   : 	else if	( val>_high )	return _high;

	comiss	xmm6, xmm5
	jbe	SHORT $LN517@render
	movaps	xmm6, xmm5
$LN517@render:
; File I:\Vitalya\mine\NSProjectX\layers\xrRenderPC_R1\LightShadows.cpp

; 172  : 	return			iCeil(255.f*A);

	mulss	xmm3, DWORD PTR __real@43bf4000
	movaps	xmm1, xmm5
; File I:\Vitalya\mine\NSProjectX\xrCore\_bitwise.h

; 105  :     int exponent	= (127 + 31) - ((a >> 23) & 0xFF);

	mov	ecx, 158				; 0000009eH
; File I:\Vitalya\mine\NSProjectX\layers\xrRenderPC_R1\LightShadows.cpp

; 171  : 	float	A		= 1.f-1.5f*E*(1.f-C1)*(1.f-C2);

	subss	xmm1, xmm0
	movaps	xmm0, xmm5
	subss	xmm0, xmm6

; 172  : 	return			iCeil(255.f*A);

	mulss	xmm1, xmm0
	movss	xmm0, DWORD PTR __real@437f0000
	mulss	xmm1, xmm3
	subss	xmm0, xmm1
; File I:\Vitalya\mine\NSProjectX\xrCore\_bitwise.h

; 104  :     int a			= (*(const int*)(&x));

	movss	DWORD PTR _a$9[esp+1712], xmm0

; 105  :     int exponent	= (127 + 31) - ((a >> 23) & 0xFF);

	mov	esi, DWORD PTR _a$9[esp+1712]
	mov	eax, esi
	sar	eax, 23					; 00000017H
	movzx	eax, al
	sub	ecx, eax

; 106  :     int r			= (((u32)(a) << 8) | (1U << 31)) >> exponent;

	mov	eax, esi
	or	eax, -8388608				; ff800000H

; 112  :         a			=	~((a-1)>>31);		/* change sign */

	lea	edx, DWORD PTR [esi-1]
	shl	eax, 8
	shr	eax, cl
	sub	ecx, 96					; 00000060H
	mov	DWORD PTR _c1$2$[esp+1712], eax
	mov	eax, 1
	shl	eax, cl
	dec	eax
	sar	edx, 31					; 0000001fH
	sar	eax, 8
	not	edx
	and	eax, esi

; 113  :         r			-=	(imask&a);

	mov	esi, DWORD PTR _c1$2$[esp+1712]
	neg	eax
	sbb	eax, eax
	inc	eax
	and	eax, edx
	sub	esi, eax
	lea	eax, DWORD PTR [ecx+64]
	sar	eax, 31					; 0000001fH

; 114  :         r			&=	exponent;

	and	esi, eax
	xor	esi, edx

; 116  :         r			=	-r;                 /* change sign */

	neg	esi
; File I:\Vitalya\mine\NSProjectX\layers\xrRenderPC_R1\LightShadows.cpp

; 137  : 	if (L->flags.type==IRender_Light::DIRECT)

	test	BYTE PTR [ebx+60], 15			; 0000000fH
; File I:\Vitalya\mine\NSProjectX\xrCore\_bitwise.h

; 116  :         r			=	-r;                 /* change sign */

	mov	DWORD PTR _c1$2$[esp+1712], esi
; File I:\Vitalya\mine\NSProjectX\layers\xrRenderPC_R1\LightShadows.cpp

; 137  : 	if (L->flags.type==IRender_Light::DIRECT)

	jne	SHORT $LN525@render
; File I:\Vitalya\mine\NSProjectX\xrCore\_vector3d.h

; 268  : 	{	return x*v.x + y*v.y + z*v.z; }

	movss	xmm0, DWORD PTR [ebx+76]
	movss	xmm2, DWORD PTR [ebx+80]
	mulss	xmm2, DWORD PTR [edi+40]
	mulss	xmm0, DWORD PTR [edi+36]
	addss	xmm2, xmm0
	movss	xmm0, DWORD PTR [ebx+84]
	mulss	xmm0, DWORD PTR [edi+44]
	addss	xmm2, xmm0
	xorps	xmm2, DWORD PTR __xmm@80000000800000008000000080000000
; File I:\Vitalya\mine\NSProjectX\layers\xrRenderPC_R1\LightShadows.cpp

; 142  : 		if( D <=0 )						return 0;

	comiss	xmm4, xmm2
	jb	SHORT $LN527@render
	movaps	xmm2, xmm4
	jmp	$LN526@render
$LN527@render:

; 143  : 		
; 144  : 		// Trace Light
; 145  : 		float A		= D*E;

	mulss	xmm2, DWORD PTR _Le$1$[esp+1712]

; 146  : 		return A;

	jmp	$LN526@render
$LN525@render:
; File I:\Vitalya\mine\NSProjectX\xrCore\_vector3d.h

; 287  : 	{	return (x-v.x)*(x-v.x) + (y-v.y)*(y-v.y) + (z-v.z)*(z-v.z);	}

	movss	xmm2, DWORD PTR [ebx+68]
	movss	xmm1, DWORD PTR [edi+28]
	movss	xmm3, DWORD PTR [ebx+64]
	subss	xmm1, xmm2
	movss	xmm7, DWORD PTR [edi+24]
	movss	xmm0, DWORD PTR [edi+32]
	subss	xmm7, xmm3
	movss	xmm6, DWORD PTR [ebx+72]
	subss	xmm0, xmm6
	mulss	xmm1, xmm1
	mulss	xmm7, xmm7
	mulss	xmm0, xmm0
	addss	xmm7, xmm1
	addss	xmm7, xmm0
; File I:\Vitalya\mine\NSProjectX\layers\xrRenderPC_R1\LightShadows.cpp

; 150  : 		if (sqD > (L->range*L->range))	return 0;

	movss	xmm0, DWORD PTR [ebx+100]
	mulss	xmm0, xmm0
	comiss	xmm7, xmm0
	jbe	SHORT $LN528@render
	movaps	xmm2, xmm4
	jmp	$LN526@render
$LN528@render:
; File I:\Vitalya\mine\NSProjectX\xrCore\_vector3d.h

; 36   : 	ICF	SelfRef	sub(const Self &a, const Self &v)		{ x=a.x-v.x;y=a.y-v.y;	z=a.z-v.z;		return *this;	};

	subss	xmm3, DWORD PTR [edi+24]
	subss	xmm2, DWORD PTR [edi+28]
	subss	xmm6, DWORD PTR [edi+32]

; 200  : 		T magnitude=x*x + y*y + z*z;

	movaps	xmm0, xmm3

; 36   : 	ICF	SelfRef	sub(const Self &a, const Self &v)		{ x=a.x-v.x;y=a.y-v.y;	z=a.z-v.z;		return *this;	};

	movaps	xmm1, xmm2

; 200  : 		T magnitude=x*x + y*y + z*z;

	mulss	xmm0, xmm3

; 36   : 	ICF	SelfRef	sub(const Self &a, const Self &v)		{ x=a.x-v.x;y=a.y-v.y;	z=a.z-v.z;		return *this;	};

	mulss	xmm1, xmm2

; 200  : 		T magnitude=x*x + y*y + z*z;

	addss	xmm1, xmm0
	movaps	xmm0, xmm6
	mulss	xmm0, xmm6
	addss	xmm1, xmm0

; 201  : 		if (magnitude> std::numeric_limits<T>::min()) {

	comiss	xmm1, DWORD PTR __real@00800000
	jbe	SHORT $LN540@render

; 202  : 			magnitude=_sqrt(1/magnitude);

	movaps	xmm0, xmm5
	divss	xmm0, xmm1
; File C:\Program Files (x86)\Windows Kits\10\Include\10.0.22000.0\ucrt\corecrt_math.h

; 764  :             return (float)sqrt(_X);

	sqrtss	xmm1, xmm0
; File I:\Vitalya\mine\NSProjectX\xrCore\_vector3d.h

; 202  : 			magnitude=_sqrt(1/magnitude);

	movaps	xmm0, xmm1

; 204  : 			y *= magnitude;

	mulss	xmm6, xmm1
	mulss	xmm3, xmm0
	mulss	xmm2, xmm0
$LN540@render:

; 268  : 	{	return x*v.x + y*v.y + z*v.z; }

	mulss	xmm2, DWORD PTR [edi+40]
	mulss	xmm3, DWORD PTR [edi+36]
	mulss	xmm6, DWORD PTR [edi+44]
	addss	xmm2, xmm3
	addss	xmm2, xmm6
; File I:\Vitalya\mine\NSProjectX\layers\xrRenderPC_R1\LightShadows.cpp

; 156  : 		if( D <=0 )						return 0;

	comiss	xmm4, xmm2
	jb	SHORT $LN529@render
	movaps	xmm2, xmm4
	jmp	SHORT $LN526@render
$LN529@render:
; File C:\Program Files (x86)\Windows Kits\10\Include\10.0.22000.0\ucrt\corecrt_math.h

; 764  :             return (float)sqrt(_X);

	sqrtss	xmm0, xmm7
; File I:\Vitalya\mine\NSProjectX\layers\xrRenderPC_R1\LightShadows.cpp

; 161  : 		float A		= D * E * att;

	mulss	xmm2, DWORD PTR _Le$1$[esp+1712]
	addss	xmm0, xmm5
	movaps	xmm1, xmm2
	divss	xmm1, xmm0
	subss	xmm2, xmm1
$LN526@render:
; File I:\Vitalya\mine\NSProjectX\xrCore\_vector3d.h

; 287  : 	{	return (x-v.x)*(x-v.x) + (y-v.y)*(y-v.y) + (z-v.z)*(z-v.z);	}

	mov	eax, DWORD PTR __imp_?Device@@3VCRenderDevice@@A
	movss	xmm3, DWORD PTR [edi+28]
	movss	xmm7, DWORD PTR [edi+24]
	movss	xmm1, DWORD PTR [eax+492]
	movss	xmm6, DWORD PTR [eax+488]
	subss	xmm1, xmm3
	movss	xmm0, DWORD PTR [eax+496]
	subss	xmm6, xmm7
	subss	xmm0, DWORD PTR [edi+32]
	mulss	xmm1, xmm1
	mulss	xmm6, xmm6
	mulss	xmm0, xmm0
	addss	xmm6, xmm1
; File I:\Vitalya\mine\NSProjectX\layers\xrRenderPC_R1\LightShadows.cpp

; 169  : 	float	C1		= clampr(Device.vCameraPosition.distance_to_sqr(P)/S_distance2,	0.f,1.f);

	addss	xmm6, xmm0
	mulss	xmm6, DWORD PTR __real@39e38e39
; File I:\Vitalya\mine\NSProjectX\xrCore\vector.h

; 96   : 	if		( val<_low	)	return _low; 

	comiss	xmm4, xmm6
	jbe	SHORT $LN557@render
	movaps	xmm6, xmm4
	jmp	SHORT $LN559@render
$LN557@render:

; 97   : 	else if	( val>_high )	return _high;

	comiss	xmm6, xmm5
	jbe	SHORT $LN559@render
	movaps	xmm6, xmm5
$LN559@render:
; File I:\Vitalya\mine\NSProjectX\xrCore\_vector3d.h

; 287  : 	{	return (x-v.x)*(x-v.x) + (y-v.y)*(y-v.y) + (z-v.z)*(z-v.z);	}

	mov	eax, DWORD PTR _S$1$[esp+1712]
	movss	xmm1, DWORD PTR [eax+12]
	movss	xmm0, DWORD PTR [eax+16]
	subss	xmm1, xmm3
	movss	xmm3, DWORD PTR [eax+8]
	subss	xmm0, DWORD PTR [edi+32]
	subss	xmm3, xmm7
	mulss	xmm1, xmm1
	mulss	xmm0, xmm0
	mulss	xmm3, xmm3
	addss	xmm3, xmm1
; File I:\Vitalya\mine\NSProjectX\layers\xrRenderPC_R1\LightShadows.cpp

; 170  : 	float	C2		= clampr(O.distance_to_sqr(P)/S_fade2,							0.f,1.f);

	addss	xmm3, xmm0
	mulss	xmm3, DWORD PTR __real@3d4a4588
; File I:\Vitalya\mine\NSProjectX\xrCore\vector.h

; 96   : 	if		( val<_low	)	return _low; 

	comiss	xmm4, xmm3
	jbe	SHORT $LN565@render
	movaps	xmm3, xmm4
	jmp	SHORT $LN567@render
$LN565@render:

; 97   : 	else if	( val>_high )	return _high;

	comiss	xmm3, xmm5
	jbe	SHORT $LN567@render
	movaps	xmm3, xmm5
$LN567@render:
; File I:\Vitalya\mine\NSProjectX\layers\xrRenderPC_R1\LightShadows.cpp

; 171  : 	float	A		= 1.f-1.5f*E*(1.f-C1)*(1.f-C2);

	movaps	xmm0, xmm5
	movaps	xmm1, xmm5
	subss	xmm0, xmm3
; File I:\Vitalya\mine\NSProjectX\xrCore\_bitwise.h

; 105  :     int exponent	= (127 + 31) - ((a >> 23) & 0xFF);

	mov	ecx, 158				; 0000009eH
; File I:\Vitalya\mine\NSProjectX\layers\xrRenderPC_R1\LightShadows.cpp

; 171  : 	float	A		= 1.f-1.5f*E*(1.f-C1)*(1.f-C2);

	subss	xmm1, xmm6

; 172  : 	return			iCeil(255.f*A);

	mulss	xmm0, DWORD PTR __real@43bf4000
	mulss	xmm1, xmm2
	mulss	xmm1, xmm0
	movss	xmm0, DWORD PTR __real@437f0000
	subss	xmm0, xmm1
; File I:\Vitalya\mine\NSProjectX\xrCore\_bitwise.h

; 104  :     int a			= (*(const int*)(&x));

	movss	DWORD PTR _a$8[esp+1712], xmm0

; 105  :     int exponent	= (127 + 31) - ((a >> 23) & 0xFF);

	mov	esi, DWORD PTR _a$8[esp+1712]
	mov	eax, esi
	sar	eax, 23					; 00000017H

; 106  :     int r			= (((u32)(a) << 8) | (1U << 31)) >> exponent;

	mov	ebx, esi
	movzx	eax, al
	or	ebx, -8388608				; ff800000H
	sub	ecx, eax
	shl	ebx, 8
	shr	ebx, cl

; 112  :         a			=	~((a-1)>>31);		/* change sign */

	lea	edx, DWORD PTR [esi-1]
	sub	ecx, 96					; 00000060H
	sar	edx, 31					; 0000001fH
	mov	eax, 1
	not	edx
	shl	eax, cl
	dec	eax
	sar	eax, 8
	and	eax, esi
	neg	eax
	sbb	eax, eax
	inc	eax
	and	eax, edx

; 113  :         r			-=	(imask&a);

	sub	ebx, eax
	lea	eax, DWORD PTR [ecx+64]
; File I:\Vitalya\mine\NSProjectX\layers\xrRenderPC_R1\LightShadows.cpp

; 494  : 			if (c0>S_clip && c1>S_clip && c2>S_clip)		continue;	

	mov	ecx, DWORD PTR _c1$2$[esp+1712]
; File I:\Vitalya\mine\NSProjectX\xrCore\_bitwise.h

; 111  :         exponent	>>=	31;

	sar	eax, 31					; 0000001fH

; 114  :         r			&=	exponent;

	and	ebx, eax
	xor	ebx, edx
; File I:\Vitalya\mine\NSProjectX\layers\xrRenderPC_R1\LightShadows.cpp

; 494  : 			if (c0>S_clip && c1>S_clip && c2>S_clip)		continue;	

	mov	edx, DWORD PTR _c0$2$[esp+1712]
; File I:\Vitalya\mine\NSProjectX\xrCore\_bitwise.h

; 116  :         r			=	-r;                 /* change sign */

	neg	ebx
; File I:\Vitalya\mine\NSProjectX\layers\xrRenderPC_R1\LightShadows.cpp

; 494  : 			if (c0>S_clip && c1>S_clip && c2>S_clip)		continue;	

	cmp	edx, 248				; 000000f8H
	jle	SHORT $LN42@render
	cmp	ecx, 248				; 000000f8H
	jle	SHORT $LN573@render
	cmp	ebx, 248				; 000000f8H
	jg	$LN722@render
$LN42@render:
; File I:\Vitalya\mine\NSProjectX\xrCore\vector.h

; 92   : 	if( val<_low ) val = _low; else if( val>_high ) val = _high;

	cmp	edx, 32					; 00000020H
	jge	SHORT $LN573@render
	mov	edx, 32					; 00000020H
	mov	eax, 255				; 000000ffH
	jmp	SHORT $LN575@render
$LN573@render:
	cmp	edx, 255				; 000000ffH
	mov	eax, 255				; 000000ffH
	cmovg	edx, eax
$LN575@render:
	cmp	ecx, 32					; 00000020H
	jge	SHORT $LN578@render
	mov	ecx, 32					; 00000020H
	jmp	SHORT $LN580@render
$LN578@render:
	cmp	ecx, 255				; 000000ffH
	cmovg	ecx, eax
$LN580@render:
	cmp	ebx, 32					; 00000020H
	jge	SHORT $LN583@render
	mov	ebx, 32					; 00000020H
	jmp	SHORT $LN585@render
$LN583@render:
	cmp	ebx, 255				; 000000ffH
	cmovg	ebx, eax
$LN585@render:
; File I:\Vitalya\mine\NSProjectX\xrCore\_matrix.h

; 529  : 		T iw	= 1.f/(v.x*_14 + v.y*_24 + v.z*_34 + _44);

	mov	esi, DWORD PTR _S$1$[esp+1712]
	movss	xmm1, DWORD PTR tv6949[esp+1712]
	movss	xmm0, DWORD PTR tv6947[esp+1712]
; File I:\Vitalya\mine\NSProjectX\xrCore\_vector3d.h

; 24   : 	ICF SelfRef	set(const _vector3<float> &v)			{ x = T(v.x);	y = T(v.y);	z = T(v.z);	return *this;	};

	mov	eax, DWORD PTR _pv$1$[esp+1712]
; File I:\Vitalya\mine\NSProjectX\xrCore\_matrix.h

; 529  : 		T iw	= 1.f/(v.x*_14 + v.y*_24 + v.z*_34 + _44);

	mulss	xmm0, DWORD PTR [esi+48]
	mulss	xmm1, DWORD PTR [esi+32]

; 530  : 		dest.x	= (v.x*_11 + v.y*_21 + v.z*_31 + _41)*iw;

	movss	xmm2, DWORD PTR [esi+52]
	movss	xmm7, DWORD PTR [esi+20]
	addss	xmm1, xmm0
	mulss	xmm2, DWORD PTR tv7092[esp+1712]
	movss	xmm0, DWORD PTR tv7092[esp+1712]
	mulss	xmm0, DWORD PTR [esi+64]

; 531  : 		dest.y	= (v.x*_12 + v.y*_22 + v.z*_32 + _42)*iw;

	movss	xmm3, DWORD PTR [esi+24]
	movss	xmm6, DWORD PTR [esi+56]
	addss	xmm0, DWORD PTR [esi+80]
	movss	xmm4, DWORD PTR [esi+72]
	mulss	xmm6, DWORD PTR tv7092[esp+1712]
	addss	xmm1, xmm0
	movaps	xmm0, xmm5
	movss	xmm5, DWORD PTR [esi+40]
	addss	xmm6, xmm4
	movss	DWORD PTR tv7175[esp+1712], xmm5
; File I:\Vitalya\mine\NSProjectX\xrCore\_vector3d.h

; 24   : 	ICF SelfRef	set(const _vector3<float> &v)			{ x = T(v.x);	y = T(v.y);	z = T(v.z);	return *this;	};

	movss	xmm5, DWORD PTR tv6949[esp+1712]
; File I:\Vitalya\mine\NSProjectX\xrCore\_matrix.h

; 530  : 		dest.x	= (v.x*_11 + v.y*_21 + v.z*_31 + _41)*iw;

	mulss	xmm7, xmm5
	divss	xmm0, xmm1
	movss	xmm1, DWORD PTR [esi+36]
	mulss	xmm1, DWORD PTR tv6947[esp+1712]
	movss	DWORD PTR _iw$1$[esp+1712], xmm0
	movss	xmm0, DWORD PTR [esi+68]
	addss	xmm2, xmm0
; File I:\Vitalya\mine\NSProjectX\xrCore\_vector3d.h

; 24   : 	ICF SelfRef	set(const _vector3<float> &v)			{ x = T(v.x);	y = T(v.y);	z = T(v.z);	return *this;	};

	movss	DWORD PTR [eax], xmm5
	fld	DWORD PTR [edi+4]
; File I:\Vitalya\mine\NSProjectX\xrCore\_matrix.h

; 530  : 		dest.x	= (v.x*_11 + v.y*_21 + v.z*_31 + _41)*iw;

	addss	xmm7, xmm1
; File I:\Vitalya\mine\NSProjectX\xrCore\_vector2.h

; 15   : 	IC SelfRef set(float _u, float _v)				{ x=T(_u); y=T(_v);				return *this;	}

	movss	xmm0, DWORD PTR __real@3f800000
; File I:\Vitalya\mine\NSProjectX\xrCore\_vector3d.h

; 24   : 	ICF SelfRef	set(const _vector3<float> &v)			{ x = T(v.x);	y = T(v.y);	z = T(v.z);	return *this;	};

	fstp	DWORD PTR [eax+4]
	fld	DWORD PTR [edi+8]
	fstp	DWORD PTR [eax+8]
; File I:\Vitalya\mine\NSProjectX\xrCore\_matrix.h

; 530  : 		dest.x	= (v.x*_11 + v.y*_21 + v.z*_31 + _41)*iw;

	addss	xmm7, xmm2
; File I:\Vitalya\mine\NSProjectX\xrCore\_color.h

; 5    : ICF u32	color_argb	(u32 a, u32 r, u32 g, u32 b)	{	return ((a&0xff)<<24)|((r&0xff)<<16)|((g&0xff)<<8)|(b&0xff);	}

	movzx	eax, dl
; File I:\Vitalya\mine\NSProjectX\xrCore\_matrix.h

; 531  : 		dest.y	= (v.x*_12 + v.y*_22 + v.z*_32 + _42)*iw;

	movaps	xmm2, xmm5
; File I:\Vitalya\mine\NSProjectX\xrCore\_color.h

; 5    : ICF u32	color_argb	(u32 a, u32 r, u32 g, u32 b)	{	return ((a&0xff)<<24)|((r&0xff)<<16)|((g&0xff)<<8)|(b&0xff);	}

	shl	edx, 8
; File I:\Vitalya\mine\NSProjectX\xrCore\_matrix.h

; 531  : 		dest.y	= (v.x*_12 + v.y*_22 + v.z*_32 + _42)*iw;

	mulss	xmm2, xmm3
; File I:\Vitalya\mine\NSProjectX\xrCore\_color.h

; 5    : ICF u32	color_argb	(u32 a, u32 r, u32 g, u32 b)	{	return ((a&0xff)<<24)|((r&0xff)<<16)|((g&0xff)<<8)|(b&0xff);	}

	or	edx, eax
	shl	edx, 8
; File I:\Vitalya\mine\NSProjectX\xrCore\_matrix.h

; 531  : 		dest.y	= (v.x*_12 + v.y*_22 + v.z*_32 + _42)*iw;

	movss	xmm3, DWORD PTR tv6947[esp+1712]
; File I:\Vitalya\mine\NSProjectX\xrCore\_color.h

; 5    : ICF u32	color_argb	(u32 a, u32 r, u32 g, u32 b)	{	return ((a&0xff)<<24)|((r&0xff)<<16)|((g&0xff)<<8)|(b&0xff);	}

	or	edx, eax
; File I:\Vitalya\mine\NSProjectX\xrCore\_matrix.h

; 531  : 		dest.y	= (v.x*_12 + v.y*_22 + v.z*_32 + _42)*iw;

	mulss	xmm3, DWORD PTR tv7175[esp+1712]
; File I:\Vitalya\mine\NSProjectX\xrCore\_color.h

; 5    : ICF u32	color_argb	(u32 a, u32 r, u32 g, u32 b)	{	return ((a&0xff)<<24)|((r&0xff)<<16)|((g&0xff)<<8)|(b&0xff);	}

	shl	edx, 8
; File I:\Vitalya\mine\NSProjectX\xrCore\_matrix.h

; 530  : 		dest.x	= (v.x*_11 + v.y*_21 + v.z*_31 + _41)*iw;

	mulss	xmm7, DWORD PTR _iw$1$[esp+1712]
; File I:\Vitalya\mine\NSProjectX\xrCore\_color.h

; 5    : ICF u32	color_argb	(u32 a, u32 r, u32 g, u32 b)	{	return ((a&0xff)<<24)|((r&0xff)<<16)|((g&0xff)<<8)|(b&0xff);	}

	or	edx, eax
; File I:\Vitalya\mine\NSProjectX\xrEngine\fvf.h

; 32   : 		IC void		set(const Fvector& _p, u32 C, float u, float v) { p.set(_p); color = C; t.set(u, v); }

	mov	eax, DWORD PTR _pv$1$[esp+1712]
; File I:\Vitalya\mine\NSProjectX\xrCore\_matrix.h

; 531  : 		dest.y	= (v.x*_12 + v.y*_22 + v.z*_32 + _42)*iw;

	addss	xmm2, xmm3
; File I:\Vitalya\mine\NSProjectX\layers\xrRenderPC_R1\LightShadows.cpp

; 499  : 			S.M.transform(T,v[0]); pv->set(v[0],CLS(c0),(T.x+1)*t_scale.x+t_offset.x,(1-T.y)*t_scale.y+t_offset.y); pv++;

	addss	xmm7, DWORD PTR __real@3f800000
; File I:\Vitalya\mine\NSProjectX\xrEngine\fvf.h

; 32   : 		IC void		set(const Fvector& _p, u32 C, float u, float v) { p.set(_p); color = C; t.set(u, v); }

	mov	DWORD PTR [eax+12], edx
; File I:\Vitalya\mine\NSProjectX\xrCore\_vector2.h

; 15   : 	IC SelfRef set(float _u, float _v)				{ x=T(_u); y=T(_v);				return *this;	}

	mov	edx, eax
; File I:\Vitalya\mine\NSProjectX\xrCore\_matrix.h

; 531  : 		dest.y	= (v.x*_12 + v.y*_22 + v.z*_32 + _42)*iw;

	addss	xmm2, xmm6
; File I:\Vitalya\mine\NSProjectX\layers\xrRenderPC_R1\LightShadows.cpp

; 499  : 			S.M.transform(T,v[0]); pv->set(v[0],CLS(c0),(T.x+1)*t_scale.x+t_offset.x,(1-T.y)*t_scale.y+t_offset.y); pv++;

	mulss	xmm7, DWORD PTR __real@3daa0000
; File I:\Vitalya\mine\NSProjectX\xrCore\_matrix.h

; 531  : 		dest.y	= (v.x*_12 + v.y*_22 + v.z*_32 + _42)*iw;

	mulss	xmm2, DWORD PTR _iw$1$[esp+1712]
; File I:\Vitalya\mine\NSProjectX\layers\xrRenderPC_R1\LightShadows.cpp

; 499  : 			S.M.transform(T,v[0]); pv->set(v[0],CLS(c0),(T.x+1)*t_scale.x+t_offset.x,(1-T.y)*t_scale.y+t_offset.y); pv++;

	addss	xmm7, DWORD PTR _t_offset$2$sroa$3657$1$[esp+1712]
; File I:\Vitalya\mine\NSProjectX\xrCore\_vector2.h

; 15   : 	IC SelfRef set(float _u, float _v)				{ x=T(_u); y=T(_v);				return *this;	}

	subss	xmm0, xmm2
	movss	DWORD PTR [edx+16], xmm7
; File I:\Vitalya\mine\NSProjectX\layers\xrRenderPC_R1\LightShadows.cpp

; 499  : 			S.M.transform(T,v[0]); pv->set(v[0],CLS(c0),(T.x+1)*t_scale.x+t_offset.x,(1-T.y)*t_scale.y+t_offset.y); pv++;

	mulss	xmm0, DWORD PTR __real@3daa0000
	addss	xmm0, DWORD PTR _t_offset$2$sroa$3658$1$[esp+1712]
; File I:\Vitalya\mine\NSProjectX\xrCore\_vector2.h

; 15   : 	IC SelfRef set(float _u, float _v)				{ x=T(_u); y=T(_v);				return *this;	}

	movss	DWORD PTR [edx+20], xmm0
; File I:\Vitalya\mine\NSProjectX\xrCore\_matrix.h

; 529  : 		T iw	= 1.f/(v.x*_14 + v.y*_24 + v.z*_34 + _44);

	movss	xmm0, DWORD PTR [edi+16]
	movss	xmm1, DWORD PTR [edi+12]
	movss	xmm2, DWORD PTR [edi+20]
	movss	DWORD PTR tv6977[esp+1712], xmm0
	mulss	xmm0, DWORD PTR [esi+48]
	movss	DWORD PTR tv6979[esp+1712], xmm1
	mulss	xmm1, DWORD PTR [esi+32]
	movss	DWORD PTR tv6978[esp+1712], xmm2
	addss	xmm1, xmm0
	movaps	xmm0, xmm2
	mulss	xmm0, DWORD PTR [esi+64]
	addss	xmm0, DWORD PTR [esi+80]
	addss	xmm1, xmm0
	movss	xmm0, DWORD PTR __real@3f800000
	divss	xmm0, xmm1
	movss	DWORD PTR _iw$1$[esp+1712], xmm0

; 530  : 		dest.x	= (v.x*_11 + v.y*_21 + v.z*_31 + _41)*iw;

	movss	xmm0, DWORD PTR [esi+36]

; 531  : 		dest.y	= (v.x*_12 + v.y*_22 + v.z*_32 + _42)*iw;

	movss	xmm1, DWORD PTR [esi+40]
	movss	xmm4, DWORD PTR [esi+20]
	movss	xmm3, DWORD PTR [esi+52]
	movss	xmm2, DWORD PTR [esi+68]
	movss	xmm5, DWORD PTR [esi+24]
	movss	xmm7, DWORD PTR [esi+56]
	movss	xmm6, DWORD PTR [esi+72]
	mulss	xmm4, DWORD PTR tv6979[esp+1712]
; File I:\Vitalya\mine\NSProjectX\xrCore\_color.h

; 5    : ICF u32	color_argb	(u32 a, u32 r, u32 g, u32 b)	{	return ((a&0xff)<<24)|((r&0xff)<<16)|((g&0xff)<<8)|(b&0xff);	}

	movzx	eax, cl
; File I:\Vitalya\mine\NSProjectX\xrCore\_matrix.h

; 531  : 		dest.y	= (v.x*_12 + v.y*_22 + v.z*_32 + _42)*iw;

	movss	DWORD PTR tv7187[esp+1712], xmm1
; File I:\Vitalya\mine\NSProjectX\xrCore\_vector3d.h

; 24   : 	ICF SelfRef	set(const _vector3<float> &v)			{ x = T(v.x);	y = T(v.y);	z = T(v.z);	return *this;	};

	movss	xmm1, DWORD PTR tv6979[esp+1712]
	movss	DWORD PTR [edx+24], xmm1
; File I:\Vitalya\mine\NSProjectX\xrCore\_matrix.h

; 530  : 		dest.x	= (v.x*_11 + v.y*_21 + v.z*_31 + _41)*iw;

	movss	xmm1, DWORD PTR tv6977[esp+1712]
	mulss	xmm1, xmm0
; File I:\Vitalya\mine\NSProjectX\xrCore\_color.h

; 5    : ICF u32	color_argb	(u32 a, u32 r, u32 g, u32 b)	{	return ((a&0xff)<<24)|((r&0xff)<<16)|((g&0xff)<<8)|(b&0xff);	}

	shl	ecx, 8
; File I:\Vitalya\mine\NSProjectX\xrCore\_vector3d.h

; 24   : 	ICF SelfRef	set(const _vector3<float> &v)			{ x = T(v.x);	y = T(v.y);	z = T(v.z);	return *this;	};

	fld	DWORD PTR [edi+16]
; File I:\Vitalya\mine\NSProjectX\xrCore\_color.h

; 5    : ICF u32	color_argb	(u32 a, u32 r, u32 g, u32 b)	{	return ((a&0xff)<<24)|((r&0xff)<<16)|((g&0xff)<<8)|(b&0xff);	}

	or	ecx, eax
; File I:\Vitalya\mine\NSProjectX\xrCore\_vector3d.h

; 24   : 	ICF SelfRef	set(const _vector3<float> &v)			{ x = T(v.x);	y = T(v.y);	z = T(v.z);	return *this;	};

	fstp	DWORD PTR [edx+28]
; File I:\Vitalya\mine\NSProjectX\xrCore\_matrix.h

; 530  : 		dest.x	= (v.x*_11 + v.y*_21 + v.z*_31 + _41)*iw;

	addss	xmm1, xmm4
; File I:\Vitalya\mine\NSProjectX\xrCore\_vector3d.h

; 24   : 	ICF SelfRef	set(const _vector3<float> &v)			{ x = T(v.x);	y = T(v.y);	z = T(v.z);	return *this;	};

	fld	DWORD PTR [edi+20]
; File I:\Vitalya\mine\NSProjectX\xrCore\_matrix.h

; 530  : 		dest.x	= (v.x*_11 + v.y*_21 + v.z*_31 + _41)*iw;

	movss	xmm4, DWORD PTR tv6978[esp+1712]
	movaps	xmm0, xmm4
; File I:\Vitalya\mine\NSProjectX\xrCore\_color.h

; 5    : ICF u32	color_argb	(u32 a, u32 r, u32 g, u32 b)	{	return ((a&0xff)<<24)|((r&0xff)<<16)|((g&0xff)<<8)|(b&0xff);	}

	shl	ecx, 8
; File I:\Vitalya\mine\NSProjectX\xrCore\_matrix.h

; 530  : 		dest.x	= (v.x*_11 + v.y*_21 + v.z*_31 + _41)*iw;

	mulss	xmm0, xmm3
; File I:\Vitalya\mine\NSProjectX\xrCore\_color.h

; 5    : ICF u32	color_argb	(u32 a, u32 r, u32 g, u32 b)	{	return ((a&0xff)<<24)|((r&0xff)<<16)|((g&0xff)<<8)|(b&0xff);	}

	or	ecx, eax
	shl	ecx, 8
; File I:\Vitalya\mine\NSProjectX\xrCore\_matrix.h

; 531  : 		dest.y	= (v.x*_12 + v.y*_22 + v.z*_32 + _42)*iw;

	mulss	xmm4, xmm7
; File I:\Vitalya\mine\NSProjectX\xrCore\_color.h

; 5    : ICF u32	color_argb	(u32 a, u32 r, u32 g, u32 b)	{	return ((a&0xff)<<24)|((r&0xff)<<16)|((g&0xff)<<8)|(b&0xff);	}

	or	ecx, eax
; File I:\Vitalya\mine\NSProjectX\xrEngine\fvf.h

; 32   : 		IC void		set(const Fvector& _p, u32 C, float u, float v) { p.set(_p); color = C; t.set(u, v); }

	mov	DWORD PTR [edx+36], ecx
; File I:\Vitalya\mine\NSProjectX\xrCore\_matrix.h

; 530  : 		dest.x	= (v.x*_11 + v.y*_21 + v.z*_31 + _41)*iw;

	addss	xmm0, xmm2

; 531  : 		dest.y	= (v.x*_12 + v.y*_22 + v.z*_32 + _42)*iw;

	movss	xmm2, DWORD PTR tv6979[esp+1712]
	mulss	xmm2, xmm5
	addss	xmm4, xmm6
; File I:\Vitalya\mine\NSProjectX\xrCore\_vector3d.h

; 24   : 	ICF SelfRef	set(const _vector3<float> &v)			{ x = T(v.x);	y = T(v.y);	z = T(v.z);	return *this;	};

	fstp	DWORD PTR [edx+32]
; File I:\Vitalya\mine\NSProjectX\xrCore\_matrix.h

; 530  : 		dest.x	= (v.x*_11 + v.y*_21 + v.z*_31 + _41)*iw;

	addss	xmm1, xmm0
; File I:\Vitalya\mine\NSProjectX\xrCore\_vector2.h

; 15   : 	IC SelfRef set(float _u, float _v)				{ x=T(_u); y=T(_v);				return *this;	}

	movss	xmm0, DWORD PTR __real@3f800000
; File I:\Vitalya\mine\NSProjectX\xrCore\_matrix.h

; 530  : 		dest.x	= (v.x*_11 + v.y*_21 + v.z*_31 + _41)*iw;

	mulss	xmm1, DWORD PTR _iw$1$[esp+1712]
; File I:\Vitalya\mine\NSProjectX\layers\xrRenderPC_R1\LightShadows.cpp

; 500  : 			S.M.transform(T,v[1]); pv->set(v[1],CLS(c1),(T.x+1)*t_scale.x+t_offset.x,(1-T.y)*t_scale.y+t_offset.y); pv++;

	addss	xmm1, DWORD PTR __real@3f800000
	mulss	xmm1, DWORD PTR __real@3daa0000
	addss	xmm1, DWORD PTR _t_offset$2$sroa$3657$1$[esp+1712]
; File I:\Vitalya\mine\NSProjectX\xrCore\_vector2.h

; 15   : 	IC SelfRef set(float _u, float _v)				{ x=T(_u); y=T(_v);				return *this;	}

	movss	DWORD PTR [edx+40], xmm1
; File I:\Vitalya\mine\NSProjectX\xrCore\_matrix.h

; 531  : 		dest.y	= (v.x*_12 + v.y*_22 + v.z*_32 + _42)*iw;

	movss	xmm1, DWORD PTR tv6977[esp+1712]
	mulss	xmm1, DWORD PTR tv7187[esp+1712]
	addss	xmm2, xmm1
	addss	xmm2, xmm4
	mulss	xmm2, DWORD PTR _iw$1$[esp+1712]
; File I:\Vitalya\mine\NSProjectX\xrCore\_vector2.h

; 15   : 	IC SelfRef set(float _u, float _v)				{ x=T(_u); y=T(_v);				return *this;	}

	subss	xmm0, xmm2
; File I:\Vitalya\mine\NSProjectX\layers\xrRenderPC_R1\LightShadows.cpp

; 500  : 			S.M.transform(T,v[1]); pv->set(v[1],CLS(c1),(T.x+1)*t_scale.x+t_offset.x,(1-T.y)*t_scale.y+t_offset.y); pv++;

	mulss	xmm0, DWORD PTR __real@3daa0000
	addss	xmm0, DWORD PTR _t_offset$2$sroa$3658$1$[esp+1712]
; File I:\Vitalya\mine\NSProjectX\xrCore\_vector2.h

; 15   : 	IC SelfRef set(float _u, float _v)				{ x=T(_u); y=T(_v);				return *this;	}

	movss	DWORD PTR [edx+44], xmm0
; File I:\Vitalya\mine\NSProjectX\xrCore\_matrix.h

; 529  : 		T iw	= 1.f/(v.x*_14 + v.y*_24 + v.z*_34 + _44);

	movss	xmm0, DWORD PTR [edi+24]
	movss	xmm3, DWORD PTR [edi+28]
	movaps	xmm1, xmm0
	mulss	xmm1, DWORD PTR [esi+32]
	movss	xmm2, DWORD PTR [edi+32]
	movss	DWORD PTR tv7006[esp+1712], xmm0
	movaps	xmm0, xmm3
	mulss	xmm0, DWORD PTR [esi+48]

; 530  : 		dest.x	= (v.x*_11 + v.y*_21 + v.z*_31 + _41)*iw;

	movss	xmm4, DWORD PTR [esi+52]

; 531  : 		dest.y	= (v.x*_12 + v.y*_22 + v.z*_32 + _42)*iw;

	movss	xmm5, DWORD PTR [esi+40]
	addss	xmm1, xmm0
	movss	xmm6, DWORD PTR [esi+24]
	movaps	xmm0, xmm2
	movss	xmm7, DWORD PTR [esi+72]
	mulss	xmm0, DWORD PTR [esi+64]
	movss	DWORD PTR tv7008[esp+1712], xmm3
	movss	xmm3, DWORD PTR [esi+68]
	addss	xmm0, DWORD PTR [esi+80]
	movss	DWORD PTR tv7007[esp+1712], xmm2
	movss	xmm2, DWORD PTR [esi+20]
	addss	xmm1, xmm0
	movss	xmm0, DWORD PTR __real@3f800000
	divss	xmm0, xmm1
	movss	xmm1, DWORD PTR [esi+56]
	movss	DWORD PTR tv7200[esp+1712], xmm1
; File I:\Vitalya\mine\NSProjectX\xrCore\_vector3d.h

; 24   : 	ICF SelfRef	set(const _vector3<float> &v)			{ x = T(v.x);	y = T(v.y);	z = T(v.z);	return *this;	};

	movss	xmm1, DWORD PTR tv7006[esp+1712]
; File I:\Vitalya\mine\NSProjectX\xrCore\_matrix.h

; 529  : 		T iw	= 1.f/(v.x*_14 + v.y*_24 + v.z*_34 + _44);

	movss	DWORD PTR _iw$1$[esp+1712], xmm0

; 530  : 		dest.x	= (v.x*_11 + v.y*_21 + v.z*_31 + _41)*iw;

	movss	xmm0, DWORD PTR [esi+36]
; File I:\Vitalya\mine\NSProjectX\xrCore\_vector3d.h

; 24   : 	ICF SelfRef	set(const _vector3<float> &v)			{ x = T(v.x);	y = T(v.y);	z = T(v.z);	return *this;	};

	movss	DWORD PTR [edx+48], xmm1
	fld	DWORD PTR [edi+28]
	fstp	DWORD PTR [edx+52]
; File I:\Vitalya\mine\NSProjectX\xrCore\_matrix.h

; 530  : 		dest.x	= (v.x*_11 + v.y*_21 + v.z*_31 + _41)*iw;

	movss	xmm1, DWORD PTR tv7008[esp+1712]
	mulss	xmm1, xmm0
; File I:\Vitalya\mine\NSProjectX\layers\xrRenderPC_R1\LightShadows.cpp

; 503  : 			batch++;

	mov	ecx, DWORD PTR _batch$1$[esp+1712]
; File I:\Vitalya\mine\NSProjectX\xrCore\_matrix.h

; 530  : 		dest.x	= (v.x*_11 + v.y*_21 + v.z*_31 + _41)*iw;

	movss	xmm0, DWORD PTR tv7006[esp+1712]
; File I:\Vitalya\mine\NSProjectX\layers\xrRenderPC_R1\LightShadows.cpp

; 503  : 			batch++;

	inc	ecx
; File I:\Vitalya\mine\NSProjectX\xrCore\_matrix.h

; 530  : 		dest.x	= (v.x*_11 + v.y*_21 + v.z*_31 + _41)*iw;

	mulss	xmm0, xmm2
; File I:\Vitalya\mine\NSProjectX\xrCore\_color.h

; 5    : ICF u32	color_argb	(u32 a, u32 r, u32 g, u32 b)	{	return ((a&0xff)<<24)|((r&0xff)<<16)|((g&0xff)<<8)|(b&0xff);	}

	movzx	eax, bl
; File I:\Vitalya\mine\NSProjectX\xrCore\_matrix.h

; 530  : 		dest.x	= (v.x*_11 + v.y*_21 + v.z*_31 + _41)*iw;

	movss	xmm2, DWORD PTR tv7007[esp+1712]
; File I:\Vitalya\mine\NSProjectX\xrCore\_vector3d.h

; 24   : 	ICF SelfRef	set(const _vector3<float> &v)			{ x = T(v.x);	y = T(v.y);	z = T(v.z);	return *this;	};

	fld	DWORD PTR [edi+32]
; File I:\Vitalya\mine\NSProjectX\xrCore\_matrix.h

; 530  : 		dest.x	= (v.x*_11 + v.y*_21 + v.z*_31 + _41)*iw;

	addss	xmm1, xmm0
; File I:\Vitalya\mine\NSProjectX\xrCore\_color.h

; 5    : ICF u32	color_argb	(u32 a, u32 r, u32 g, u32 b)	{	return ((a&0xff)<<24)|((r&0xff)<<16)|((g&0xff)<<8)|(b&0xff);	}

	shl	ebx, 8
; File I:\Vitalya\mine\NSProjectX\xrCore\_matrix.h

; 530  : 		dest.x	= (v.x*_11 + v.y*_21 + v.z*_31 + _41)*iw;

	movaps	xmm0, xmm2
; File I:\Vitalya\mine\NSProjectX\layers\xrRenderPC_R1\LightShadows.cpp

; 503  : 			batch++;

	mov	DWORD PTR _batch$1$[esp+1712], ecx
; File I:\Vitalya\mine\NSProjectX\xrCore\_matrix.h

; 530  : 		dest.x	= (v.x*_11 + v.y*_21 + v.z*_31 + _41)*iw;

	mulss	xmm0, xmm4
; File I:\Vitalya\mine\NSProjectX\xrCore\_color.h

; 5    : ICF u32	color_argb	(u32 a, u32 r, u32 g, u32 b)	{	return ((a&0xff)<<24)|((r&0xff)<<16)|((g&0xff)<<8)|(b&0xff);	}

	or	ebx, eax
	shl	ebx, 8
; File I:\Vitalya\mine\NSProjectX\xrCore\_matrix.h

; 531  : 		dest.y	= (v.x*_12 + v.y*_22 + v.z*_32 + _42)*iw;

	mulss	xmm2, DWORD PTR tv7200[esp+1712]
; File I:\Vitalya\mine\NSProjectX\xrCore\_color.h

; 5    : ICF u32	color_argb	(u32 a, u32 r, u32 g, u32 b)	{	return ((a&0xff)<<24)|((r&0xff)<<16)|((g&0xff)<<8)|(b&0xff);	}

	or	ebx, eax
	shl	ebx, 8
; File I:\Vitalya\mine\NSProjectX\xrCore\_matrix.h

; 530  : 		dest.x	= (v.x*_11 + v.y*_21 + v.z*_31 + _41)*iw;

	addss	xmm0, xmm3
; File I:\Vitalya\mine\NSProjectX\xrCore\_color.h

; 5    : ICF u32	color_argb	(u32 a, u32 r, u32 g, u32 b)	{	return ((a&0xff)<<24)|((r&0xff)<<16)|((g&0xff)<<8)|(b&0xff);	}

	or	ebx, eax
; File I:\Vitalya\mine\NSProjectX\xrCore\_matrix.h

; 531  : 		dest.y	= (v.x*_12 + v.y*_22 + v.z*_32 + _42)*iw;

	movss	xmm3, DWORD PTR tv7008[esp+1712]
	mulss	xmm3, xmm5
	addss	xmm2, xmm7
; File I:\Vitalya\mine\NSProjectX\xrEngine\fvf.h

; 32   : 		IC void		set(const Fvector& _p, u32 C, float u, float v) { p.set(_p); color = C; t.set(u, v); }

	mov	DWORD PTR [edx+60], ebx
; File I:\Vitalya\mine\NSProjectX\xrCore\_vector3d.h

; 24   : 	ICF SelfRef	set(const _vector3<float> &v)			{ x = T(v.x);	y = T(v.y);	z = T(v.z);	return *this;	};

	fstp	DWORD PTR [edx+56]
; File I:\Vitalya\mine\NSProjectX\xrCore\_matrix.h

; 530  : 		dest.x	= (v.x*_11 + v.y*_21 + v.z*_31 + _41)*iw;

	addss	xmm1, xmm0
; File I:\Vitalya\mine\NSProjectX\xrCore\_vector2.h

; 15   : 	IC SelfRef set(float _u, float _v)				{ x=T(_u); y=T(_v);				return *this;	}

	movss	xmm0, DWORD PTR __real@3f800000
; File I:\Vitalya\mine\NSProjectX\xrCore\_matrix.h

; 530  : 		dest.x	= (v.x*_11 + v.y*_21 + v.z*_31 + _41)*iw;

	mulss	xmm1, DWORD PTR _iw$1$[esp+1712]
; File I:\Vitalya\mine\NSProjectX\layers\xrRenderPC_R1\LightShadows.cpp

; 501  : 			S.M.transform(T,v[2]); pv->set(v[2],CLS(c2),(T.x+1)*t_scale.x+t_offset.x,(1-T.y)*t_scale.y+t_offset.y); pv++;

	addss	xmm1, DWORD PTR __real@3f800000
	mulss	xmm1, DWORD PTR __real@3daa0000
	addss	xmm1, DWORD PTR _t_offset$2$sroa$3657$1$[esp+1712]
; File I:\Vitalya\mine\NSProjectX\xrCore\_vector2.h

; 15   : 	IC SelfRef set(float _u, float _v)				{ x=T(_u); y=T(_v);				return *this;	}

	movss	DWORD PTR [edx+64], xmm1
; File I:\Vitalya\mine\NSProjectX\xrCore\_matrix.h

; 531  : 		dest.y	= (v.x*_12 + v.y*_22 + v.z*_32 + _42)*iw;

	movss	xmm1, DWORD PTR tv7006[esp+1712]
	mulss	xmm1, xmm6
	addss	xmm3, xmm1
	addss	xmm3, xmm2
	mulss	xmm3, DWORD PTR _iw$1$[esp+1712]
; File I:\Vitalya\mine\NSProjectX\xrCore\_vector2.h

; 15   : 	IC SelfRef set(float _u, float _v)				{ x=T(_u); y=T(_v);				return *this;	}

	subss	xmm0, xmm3
; File I:\Vitalya\mine\NSProjectX\layers\xrRenderPC_R1\LightShadows.cpp

; 501  : 			S.M.transform(T,v[2]); pv->set(v[2],CLS(c2),(T.x+1)*t_scale.x+t_offset.x,(1-T.y)*t_scale.y+t_offset.y); pv++;

	mulss	xmm0, DWORD PTR __real@3daa0000
	addss	xmm0, DWORD PTR _t_offset$2$sroa$3658$1$[esp+1712]
; File I:\Vitalya\mine\NSProjectX\xrCore\_vector2.h

; 15   : 	IC SelfRef set(float _u, float _v)				{ x=T(_u); y=T(_v);				return *this;	}

	movss	DWORD PTR [edx+68], xmm0
; File I:\Vitalya\mine\NSProjectX\layers\xrRenderPC_R1\LightShadows.cpp

; 501  : 			S.M.transform(T,v[2]); pv->set(v[2],CLS(c2),(T.x+1)*t_scale.x+t_offset.x,(1-T.y)*t_scale.y+t_offset.y); pv++;

	add	edx, 72					; 00000048H
	mov	DWORD PTR _pv$1$[esp+1712], edx

; 504  : 			if (batch==batch_size)	{

	cmp	ecx, 256				; 00000100H
	jne	$LN719@render

; 505  : 				// Flush
; 506  : 				RCache.Vertex.Unlock	(batch*3,geom_World->vb_stride);

	mov	ebx, DWORD PTR _this$1$[esp+1712]
	mov	ecx, DWORD PTR __imp_?RCache@@3VCBackend@@A
	mov	eax, DWORD PTR [ebx+112]
	push	DWORD PTR [eax+20]
	push	768					; 00000300H
	call	DWORD PTR __imp_?Unlock@_VertexStream@@QAEXII@Z

; 507  : 				RCache.Render			(D3DPT_TRIANGLELIST,Offset,batch);

	mov	eax, DWORD PTR __imp_?RCache@@3VCBackend@@A
	mov	esi, DWORD PTR _Offset$[esp+1712]
; File I:\Vitalya\mine\NSProjectX\xrEngine\R_Backend_Runtime.h

; 212  : 	constants.flush();

	lea	ecx, DWORD PTR [eax+608]
	inc	DWORD PTR [eax+9024]
	add	DWORD PTR [eax+9020], 768		; 00000300H
	add	DWORD PTR [eax+9016], 256		; 00000100H
; File I:\Vitalya\mine\NSProjectX\xrEngine\r_constants_cache.h

; 172  : 		if (a_pixel.b_dirty || a_vertex.b_dirty)	flush_cache();

	cmp	DWORD PTR [ecx+4112], 0
	jne	SHORT $LN627@render
	cmp	DWORD PTR [ecx+8240], 0
	je	SHORT $LN626@render
$LN627@render:
	call	DWORD PTR __imp_?flush_cache@R_constants@@QAEXXZ
$LN626@render:
; File I:\Vitalya\mine\NSProjectX\xrEngine\R_Backend_Runtime.h

; 213  : 	CHK_DX(HW.pDevice->DrawPrimitive(T, startV, PC));

	mov	eax, DWORD PTR __imp_?HW@@3VCHW@@A
	push	256					; 00000100H
	push	esi
	push	4
	mov	eax, DWORD PTR [eax+8]
	push	eax
	mov	ecx, DWORD PTR [eax]
	call	DWORD PTR [ecx+324]
; File I:\Vitalya\mine\NSProjectX\layers\xrRenderPC_R1\LightShadows.cpp

; 509  : 				pv						= (FVF::LIT*) RCache.Vertex.Lock(batch_size*3,geom_World->vb_stride,Offset);

	mov	ecx, DWORD PTR __imp_?RCache@@3VCBackend@@A
	lea	eax, DWORD PTR _Offset$[esp+1712]
	push	eax
	mov	eax, DWORD PTR [ebx+112]
	push	DWORD PTR [eax+20]
	push	768					; 00000300H
	call	DWORD PTR __imp_?Lock@_VertexStream@@QAEPAXIIAAI@Z
	mov	DWORD PTR _pv$1$[esp+1712], eax

; 510  : 				batch					= 0;

	mov	DWORD PTR _batch$1$[esp+1712], 0
$LN719@render:

; 480  : 			}
; 481  : 		}
; 482  : 
; 483  : 		// Fill VB
; 484  : 		for (u32 tid=0; tid<CI->tcnt; tid++)	{

	xorps	xmm4, xmm4
$LN722@render:
	mov	ebx, DWORD PTR _CI$1$[esp+1712]
	mov	eax, DWORD PTR tv7204[esp+1712]
$LN17@render:
	mov	edi, DWORD PTR _tid$1$[esp+1712]
	add	eax, 48					; 00000030H
	inc	edi
	mov	DWORD PTR tv7204[esp+1712], eax
	mov	DWORD PTR _tid$1$[esp+1712], edi
	cmp	edi, DWORD PTR [ebx+40]
	jb	$LL19@render
$LN716@render:

; 511  : 			}
; 512  : 		}
; 513  : 		Device.Statistic->RenderDUMP_Srender.End	();

	mov	eax, DWORD PTR __imp_?Device@@3VCRenderDevice@@A
	mov	esi, DWORD PTR [eax+436]
; File I:\Vitalya\mine\NSProjectX\xrCore\FTimer.h

; 174  : 	ICF void	End				()		{	if (!g_bEnableStatGather) return;	accum += T.GetElapsed_ticks();	}

	mov	eax, DWORD PTR __imp_?g_bEnableStatGather@@3HA
	cmp	DWORD PTR [eax], 0
	je	SHORT $LN2@render
	lea	ecx, DWORD PTR [esi+2656]
	call	DWORD PTR __imp_?GetElapsed_ticks@CTimer@@QBE_KXZ
	add	DWORD PTR [esi+2712], eax
	adc	DWORD PTR [esi+2716], edx
$LN2@render:
; File C:\Program Files\Microsoft Visual Studio\2022\Community\VC\Tools\MSVC\14.29.30133\include\vector

; 1536 :         return static_cast<size_type>(_My_data._Mylast - _My_data._Myfirst);

	mov	ebx, DWORD PTR _this$1$[esp+1712]
	mov	eax, -1307163959			; b21642c9H
; File I:\Vitalya\mine\NSProjectX\layers\xrRenderPC_R1\LightShadows.cpp

; 378  : 	for (u32 s_it=0; s_it<shadows.size(); s_it++)

	mov	esi, DWORD PTR _s_it$1$[esp+1712]
	mov	edi, 6
	movss	xmm1, DWORD PTR __xmm@7fffffff7fffffff7fffffff7fffffff
	inc	esi
	movss	xmm2, DWORD PTR __real@3e2aaaab
; File C:\Program Files\Microsoft Visual Studio\2022\Community\VC\Tools\MSVC\14.29.30133\include\vector

; 1536 :         return static_cast<size_type>(_My_data._Mylast - _My_data._Myfirst);

	mov	ecx, DWORD PTR [ebx+32]
	sub	ecx, DWORD PTR [ebx+28]
; File I:\Vitalya\mine\NSProjectX\layers\xrRenderPC_R1\LightShadows.cpp

; 378  : 	for (u32 s_it=0; s_it<shadows.size(); s_it++)

	movss	xmm3, DWORD PTR __real@3a800000
; File C:\Program Files\Microsoft Visual Studio\2022\Community\VC\Tools\MSVC\14.29.30133\include\vector

; 1536 :         return static_cast<size_type>(_My_data._Mylast - _My_data._Myfirst);

	imul	ecx
; File I:\Vitalya\mine\NSProjectX\layers\xrRenderPC_R1\LightShadows.cpp

; 378  : 	for (u32 s_it=0; s_it<shadows.size(); s_it++)

	mov	DWORD PTR _s_it$1$[esp+1712], esi
; File C:\Program Files\Microsoft Visual Studio\2022\Community\VC\Tools\MSVC\14.29.30133\include\vector

; 1536 :         return static_cast<size_type>(_My_data._Mylast - _My_data._Myfirst);

	add	edx, ecx
	sar	edx, 6
	mov	eax, edx
	shr	eax, 31					; 0000001fH
	add	eax, edx
; File I:\Vitalya\mine\NSProjectX\layers\xrRenderPC_R1\LightShadows.cpp

; 378  : 	for (u32 s_it=0; s_it<shadows.size(); s_it++)

	cmp	esi, eax
	jb	$LL4@render
	mov	edi, DWORD PTR _batch$1$[esp+1712]
$LN3@render:

; 514  : 	}
; 515  : 
; 516  : 	// Flush if nessesary
; 517  : 	RCache.Vertex.Unlock	(batch*3,geom_World->vb_stride);

	mov	eax, DWORD PTR [ebx+112]
	lea	esi, DWORD PTR [edi+edi*2]
	mov	ecx, DWORD PTR __imp_?RCache@@3VCBackend@@A
	push	DWORD PTR [eax+20]
	push	esi
	call	DWORD PTR __imp_?Unlock@_VertexStream@@QAEXII@Z

; 518  : 	if (batch)				{

	test	edi, edi
	je	SHORT $LN44@render

; 519  : 		RCache.Render			(D3DPT_TRIANGLELIST,Offset,batch);

	mov	eax, DWORD PTR __imp_?RCache@@3VCBackend@@A
	mov	edi, DWORD PTR _Offset$[esp+1712]
; File I:\Vitalya\mine\NSProjectX\xrEngine\R_Backend_Runtime.h

; 212  : 	constants.flush();

	lea	ecx, DWORD PTR [eax+608]
	add	DWORD PTR [eax+9020], esi
	mov	esi, DWORD PTR _batch$1$[esp+1712]
	inc	DWORD PTR [eax+9024]
	add	DWORD PTR [eax+9016], esi
; File I:\Vitalya\mine\NSProjectX\xrEngine\r_constants_cache.h

; 172  : 		if (a_pixel.b_dirty || a_vertex.b_dirty)	flush_cache();

	cmp	DWORD PTR [ecx+4112], 0
	jne	SHORT $LN636@render
	cmp	DWORD PTR [ecx+8240], 0
	je	SHORT $LN635@render
$LN636@render:
	call	DWORD PTR __imp_?flush_cache@R_constants@@QAEXXZ
$LN635@render:
; File I:\Vitalya\mine\NSProjectX\xrEngine\R_Backend_Runtime.h

; 213  : 	CHK_DX(HW.pDevice->DrawPrimitive(T, startV, PC));

	mov	eax, DWORD PTR __imp_?HW@@3VCHW@@A
	push	esi
	push	edi
	push	4
	mov	eax, DWORD PTR [eax+8]
	push	eax
	mov	ecx, DWORD PTR [eax]
	call	DWORD PTR [ecx+324]
$LN44@render:
; File I:\Vitalya\mine\NSProjectX\layers\xrRenderPC_R1\LightShadows.cpp

; 523  : 	shadows.clear				();

	mov	eax, DWORD PTR [ebx+28]

; 524  : 	for (int cit=0; cit<int(cache.size()); cit++)	{

	xor	ecx, ecx
	mov	DWORD PTR [ebx+32], eax
; File C:\Program Files\Microsoft Visual Studio\2022\Community\VC\Tools\MSVC\14.29.30133\include\vector

; 1536 :         return static_cast<size_type>(_My_data._Mylast - _My_data._Myfirst);

	mov	eax, DWORD PTR [ebx+56]
	mov	edi, DWORD PTR [ebx+52]
	sub	eax, edi
	sar	eax, 2
	imul	eax, eax, -1171354717
; File I:\Vitalya\mine\NSProjectX\layers\xrRenderPC_R1\LightShadows.cpp

; 524  : 	for (int cit=0; cit<int(cache.size()); cit++)	{

	mov	DWORD PTR _cit$1$[esp+1712], ecx
	test	eax, eax
	jle	$LN718@render
	xor	esi, esi
	npad	14
$LL22@render:

; 525  : 		cache_item&		ci		= cache[cit];
; 526  : 		u32				time	= Device.dwTimeGlobal - ci.time;

	mov	eax, DWORD PTR __imp_?Device@@3VCRenderDevice@@A
	mov	eax, DWORD PTR [eax+480]
	sub	eax, DWORD PTR [esi+edi+32]

; 527  : 		if				(time > cache_old)	{

	cmp	eax, 30000				; 00007530H
	jbe	SHORT $LN20@render
; File I:\Vitalya\mine\NSProjectX\xrCore\xrMemory.h

; 109  : 	IC void		xr_free		(T* &P)					{	if (P) { Memory.mem_free((void*)P); P=NULL;	};	}

	mov	eax, DWORD PTR [esi+edi+36]
	test	eax, eax
	je	SHORT $LN25@render
	mov	ecx, DWORD PTR __imp_?Memory@@3VxrMemory@@A
	push	eax
	call	DWORD PTR __imp_?mem_free@xrMemory@@QAEXPAX@Z
	mov	DWORD PTR [esi+edi+36], 0
	mov	edi, DWORD PTR [ebx+52]
$LN25@render:
; File C:\Program Files\Microsoft Visual Studio\2022\Community\VC\Tools\MSVC\14.29.30133\include\xutility

; 4065 :     const auto _Count           = static_cast<size_t>(_Last_ch - _First_ch);

	mov	eax, DWORD PTR [ebx+56]
; File C:\Program Files\Microsoft Visual Studio\2022\Community\VC\Tools\MSVC\14.29.30133\include\vector

; 119  :         _Ptr += _Off;

	lea	edx, DWORD PTR [esi+edi]

; 1406 :         _Move_unchecked(_Whereptr + 1, _Mylast, _Whereptr);

	lea	ecx, DWORD PTR [edx+44]
; File C:\Program Files\Microsoft Visual Studio\2022\Community\VC\Tools\MSVC\14.29.30133\include\xutility

; 4065 :     const auto _Count           = static_cast<size_t>(_Last_ch - _First_ch);

	sub	eax, ecx

; 4066 :     _CSTD memmove(_Dest_ch, _First_ch, _Count);

	push	eax
	push	ecx
	push	edx
	call	_memmove
; File I:\Vitalya\mine\NSProjectX\layers\xrRenderPC_R1\LightShadows.cpp

; 531  : 			cit			--;

	mov	ecx, DWORD PTR _cit$1$[esp+1724]
; File C:\Program Files\Microsoft Visual Studio\2022\Community\VC\Tools\MSVC\14.29.30133\include\xutility

; 4066 :     _CSTD memmove(_Dest_ch, _First_ch, _Count);

	add	esp, 12					; 0000000cH
; File C:\Program Files\Microsoft Visual Studio\2022\Community\VC\Tools\MSVC\14.29.30133\include\vector

; 1408 :         --_Mylast;

	add	DWORD PTR [ebx+56], -44			; ffffffd4H
; File I:\Vitalya\mine\NSProjectX\layers\xrRenderPC_R1\LightShadows.cpp

; 531  : 			cit			--;

	dec	ecx
	sub	esi, 44					; 0000002cH
$LN20@render:
; File C:\Program Files\Microsoft Visual Studio\2022\Community\VC\Tools\MSVC\14.29.30133\include\vector

; 1536 :         return static_cast<size_type>(_My_data._Mylast - _My_data._Myfirst);

	mov	eax, DWORD PTR [ebx+56]
; File I:\Vitalya\mine\NSProjectX\layers\xrRenderPC_R1\LightShadows.cpp

; 524  : 	for (int cit=0; cit<int(cache.size()); cit++)	{

	inc	ecx
; File C:\Program Files\Microsoft Visual Studio\2022\Community\VC\Tools\MSVC\14.29.30133\include\vector

; 1536 :         return static_cast<size_type>(_My_data._Mylast - _My_data._Myfirst);

	mov	edi, DWORD PTR [ebx+52]
; File I:\Vitalya\mine\NSProjectX\layers\xrRenderPC_R1\LightShadows.cpp

; 524  : 	for (int cit=0; cit<int(cache.size()); cit++)	{

	add	esi, 44					; 0000002cH
; File C:\Program Files\Microsoft Visual Studio\2022\Community\VC\Tools\MSVC\14.29.30133\include\vector

; 1536 :         return static_cast<size_type>(_My_data._Mylast - _My_data._Myfirst);

	sub	eax, edi
; File I:\Vitalya\mine\NSProjectX\layers\xrRenderPC_R1\LightShadows.cpp

; 524  : 	for (int cit=0; cit<int(cache.size()); cit++)	{

	mov	DWORD PTR _cit$1$[esp+1712], ecx
; File C:\Program Files\Microsoft Visual Studio\2022\Community\VC\Tools\MSVC\14.29.30133\include\vector

; 1536 :         return static_cast<size_type>(_My_data._Mylast - _My_data._Myfirst);

	sar	eax, 2
	imul	eax, eax, -1171354717
; File I:\Vitalya\mine\NSProjectX\layers\xrRenderPC_R1\LightShadows.cpp

; 524  : 	for (int cit=0; cit<int(cache.size()); cit++)	{

	cmp	ecx, eax
	jl	SHORT $LL22@render
$LN718@render:

; 532  : 		}
; 533  : 	}
; 534  : 
; 535  : 	// Projection
; 536  : 	Device.mProject._43			= _43;

	mov	eax, DWORD PTR __imp_?Device@@3VCRenderDevice@@A
	movss	xmm0, DWORD PTR __43$1$[esp+1712]
	movss	DWORD PTR [eax+656], xmm0

; 537  : 	RCache.set_xform_project	(Device.mProject);

	mov	eax, DWORD PTR __imp_?Device@@3VCRenderDevice@@A
	mov	ecx, DWORD PTR __imp_?RCache@@3VCBackend@@A
	add	eax, 600				; 00000258H
	push	eax
	call	DWORD PTR __imp_?set_xform_project@CBackend@@QAEXABU?$_matrix@M@@@Z

; 538  : }

	pop	edi
	pop	esi
	pop	ebx
	mov	esp, ebp
	pop	ebp
	ret	0
?render@CLightShadows@@QAEXXZ ENDP			; CLightShadows::render
_TEXT	ENDS
; Function compile flags: /Ogtpy
; File I:\Vitalya\mine\NSProjectX\layers\xrRenderPC_R1\LightShadows.cpp
; File C:\Program Files\Microsoft Visual Studio\2022\Community\VC\Tools\MSVC\14.29.30133\include\vector
; File I:\Vitalya\mine\NSProjectX\layers\xrRenderPC_R1\LightShadows.cpp
; File I:\Vitalya\mine\NSProjectX\xrCore\FTimer.h
; File I:\Vitalya\mine\NSProjectX\layers\xrRenderPC_R1\LightShadows.cpp
; File I:\Vitalya\mine\NSProjectX\xrCore\FTimer.h
; File I:\Vitalya\mine\NSProjectX\layers\xrRenderPC_R1\LightShadows.cpp
; File C:\Program Files\Microsoft Visual Studio\2022\Community\VC\Tools\MSVC\14.29.30133\include\vector
; File I:\Vitalya\mine\NSProjectX\layers\xrRenderPC_R1\LightShadows.cpp
; File C:\Program Files\Microsoft Visual Studio\2022\Community\VC\Tools\MSVC\14.29.30133\include\vector
; File I:\Vitalya\mine\NSProjectX\layers\xrRenderPC_R1\LightShadows.cpp
; File C:\Program Files\Microsoft Visual Studio\2022\Community\VC\Tools\MSVC\14.29.30133\include\vector
; File I:\Vitalya\mine\NSProjectX\layers\xrRenderPC_R1\LightShadows.cpp
; File C:\Program Files\Microsoft Visual Studio\2022\Community\VC\Tools\MSVC\14.29.30133\include\vector
; File I:\Vitalya\mine\NSProjectX\layers\xrRenderPC_R1\LightShadows.cpp
; File C:\Program Files\Microsoft Visual Studio\2022\Community\VC\Tools\MSVC\14.29.30133\include\vector
; File I:\Vitalya\mine\NSProjectX\layers\xrRenderPC_R1\LightShadows.cpp
; File C:\Program Files\Microsoft Visual Studio\2022\Community\VC\Tools\MSVC\14.29.30133\include\vector
; File I:\Vitalya\mine\NSProjectX\layers\xrRenderPC_R1\LightShadows.cpp
; File C:\Program Files\Microsoft Visual Studio\2022\Community\VC\Tools\MSVC\14.29.30133\include\vector
; File I:\Vitalya\mine\NSProjectX\layers\xrRenderPC_R1\LightShadows.cpp
; File I:\Vitalya\mine\NSProjectX\xrCore\_vector3d.h
; File I:\Vitalya\mine\NSProjectX\layers\xrRenderPC_R1\LightShadows.cpp
; File I:\Vitalya\mine\NSProjectX\xrCore\_vector3d.h
; File I:\Vitalya\mine\NSProjectX\layers\xrRenderPC_R1\LightShadows.cpp
; File I:\Vitalya\mine\NSProjectX\xrCore\_vector3d.h
; File I:\Vitalya\mine\NSProjectX\layers\xrRenderPC_R1\LightShadows.cpp
; File I:\Vitalya\mine\NSProjectX\xrCore\_vector3d.h
; File C:\Program Files (x86)\Windows Kits\10\Include\10.0.22000.0\ucrt\corecrt_math.h
; File I:\Vitalya\mine\NSProjectX\layers\xrRenderPC_R1\LightShadows.cpp
; File I:\Vitalya\mine\NSProjectX\xrCore\_vector3d.h
; File I:\Vitalya\mine\NSProjectX\layers\xrRenderPC_R1\LightShadows.cpp
; File I:\Vitalya\mine\NSProjectX\xrCore\_vector3d.h
; File C:\Program Files (x86)\Windows Kits\10\Include\10.0.22000.0\ucrt\corecrt_math.h
; File I:\Vitalya\mine\NSProjectX\layers\xrRenderPC_R1\LightShadows.cpp
; File I:\Vitalya\mine\NSProjectX\xrCore\_vector3d.h
; File I:\Vitalya\mine\NSProjectX\layers\xrRenderPC_R1\LightShadows.cpp
; File I:\Vitalya\mine\NSProjectX\xrCore\_vector3d.h
; File C:\Program Files (x86)\Windows Kits\10\Include\10.0.22000.0\ucrt\corecrt_math.h
; File I:\Vitalya\mine\NSProjectX\xrCore\_vector3d.h
; File I:\Vitalya\mine\NSProjectX\layers\xrRenderPC_R1\LightShadows.cpp
; File I:\Vitalya\mine\NSProjectX\xrCore\_vector3d.h
; File I:\Vitalya\mine\NSProjectX\layers\xrRenderPC_R1\LightShadows.cpp
; File I:\Vitalya\mine\NSProjectX\xrCore\_vector3d.h
; File I:\Vitalya\mine\NSProjectX\layers\xrRenderPC_R1\LightShadows.cpp
; File I:\Vitalya\mine\NSProjectX\xrCore\_vector3d.h
; File I:\Vitalya\mine\NSProjectX\layers\xrRenderPC_R1\LightShadows.cpp
; File I:\Vitalya\mine\NSProjectX\xrCore\_vector3d.h
; File I:\Vitalya\mine\NSProjectX\layers\xrRenderPC_R1\LightShadows.cpp
; File I:\Vitalya\mine\NSProjectX\xrCore\_vector3d.h
; File I:\Vitalya\mine\NSProjectX\layers\xrRenderPC_R1\LightShadows.cpp
; File I:\Vitalya\mine\NSProjectX\xrCore\_vector3d.h
; File C:\Program Files (x86)\Windows Kits\10\Include\10.0.22000.0\ucrt\corecrt_math.h
; File I:\Vitalya\mine\NSProjectX\layers\xrRenderPC_R1\LightShadows.cpp
; File I:\Vitalya\mine\NSProjectX\xrCore\_std_extensions.h
; File I:\Vitalya\mine\NSProjectX\layers\xrRenderPC_R1\LightShadows.cpp
; File I:\Vitalya\mine\NSProjectX\xrCore\_std_extensions.h
; File I:\Vitalya\mine\NSProjectX\layers\xrRenderPC_R1\LightShadows.cpp
; File I:\Vitalya\mine\NSProjectX\xrCore\_vector3d.h
; File C:\Program Files (x86)\Windows Kits\10\Include\10.0.22000.0\ucrt\corecrt_math.h
; File I:\Vitalya\mine\NSProjectX\xrCore\_vector3d.h
; File C:\Program Files (x86)\Windows Kits\10\Include\10.0.22000.0\ucrt\corecrt_math.h
; File I:\Vitalya\mine\NSProjectX\xrCore\_vector3d.h
; File C:\Program Files (x86)\Windows Kits\10\Include\10.0.22000.0\ucrt\corecrt_math.h
; File I:\Vitalya\mine\NSProjectX\layers\xrRenderPC_R1\LightShadows.cpp
; File I:\Vitalya\mine\NSProjectX\xrCore\_vector3d.h
; File I:\Vitalya\mine\NSProjectX\layers\xrRenderPC_R1\LightShadows.cpp
; File I:\Vitalya\mine\NSProjectX\xrCore\_vector3d.h
; File I:\Vitalya\mine\NSProjectX\layers\xrRenderPC_R1\LightShadows.cpp
; File I:\Vitalya\mine\NSProjectX\xrCore\_vector3d.h
; File I:\Vitalya\mine\NSProjectX\layers\xrRenderPC_R1\LightShadows.cpp
; File I:\Vitalya\mine\NSProjectX\xrCore\_vector3d.h
; File I:\Vitalya\mine\NSProjectX\layers\xrRenderPC_R1\LightShadows.cpp
; File I:\Vitalya\mine\NSProjectX\xrCore\_vector3d.h
; File I:\Vitalya\mine\NSProjectX\layers\xrRenderPC_R1\LightShadows.cpp
; File I:\Vitalya\mine\NSProjectX\xrCore\_vector3d.h
; File I:\Vitalya\mine\NSProjectX\layers\xrRenderPC_R1\LightShadows.cpp
; File I:\Vitalya\mine\NSProjectX\xrCore\_matrix.h
; File I:\Vitalya\mine\NSProjectX\layers\xrRenderPC_R1\LightShadows.cpp
; File I:\Vitalya\mine\NSProjectX\xrCore\_matrix.h
; File I:\Vitalya\mine\NSProjectX\layers\xrRenderPC_R1\LightShadows.cpp
; File I:\Vitalya\mine\NSProjectX\xrCore\_matrix.h
; File I:\Vitalya\mine\NSProjectX\layers\xrRenderPC_R1\LightShadows.cpp
; File I:\Vitalya\mine\NSProjectX\xrCore\_matrix.h
; File I:\Vitalya\mine\NSProjectX\layers\xrRenderPC_R1\LightShadows.cpp
; File I:\Vitalya\mine\NSProjectX\xrCore\_matrix.h
; File I:\Vitalya\mine\NSProjectX\layers\xrRenderPC_R1\LightShadows.cpp
; File I:\Vitalya\mine\NSProjectX\xrCore\_matrix.h
; File I:\Vitalya\mine\NSProjectX\layers\xrRenderPC_R1\LightShadows.cpp
; File I:\Vitalya\mine\NSProjectX\xrCore\_matrix.h
; File I:\Vitalya\mine\NSProjectX\layers\xrRenderPC_R1\LightShadows.cpp
; File I:\Vitalya\mine\NSProjectX\xrCore\_matrix.h
; File I:\Vitalya\mine\NSProjectX\layers\xrRenderPC_R1\LightShadows.cpp
; File I:\Vitalya\mine\NSProjectX\xrCore\_matrix.h
; File I:\Vitalya\mine\NSProjectX\layers\xrRenderPC_R1\LightShadows.cpp
; File C:\Program Files\Microsoft Visual Studio\2022\Community\VC\Tools\MSVC\14.29.30133\include\vector
; File I:\Vitalya\mine\NSProjectX\layers\xrRenderPC_R1\LightShadows.cpp
; File I:\Vitalya\mine\NSProjectX\xrCore\_vector3d.h
; File C:\Program Files\Microsoft Visual Studio\2022\Community\VC\Tools\MSVC\14.29.30133\include\vector
; File I:\Vitalya\mine\NSProjectX\layers\xrRenderPC_R1\LightShadows.cpp
; File C:\Program Files\Microsoft Visual Studio\2022\Community\VC\Tools\MSVC\14.29.30133\include\vector
; File I:\Vitalya\mine\NSProjectX\layers\xrRenderPC_R1\LightShadows.cpp
; File C:\Program Files\Microsoft Visual Studio\2022\Community\VC\Tools\MSVC\14.29.30133\include\vector
; File I:\Vitalya\mine\NSProjectX\layers\xrRenderPC_R1\LightShadows.cpp
; File C:\Program Files\Microsoft Visual Studio\2022\Community\VC\Tools\MSVC\14.29.30133\include\vector
; File I:\Vitalya\mine\NSProjectX\layers\xrRenderPC_R1\LightShadows.cpp
; File C:\Program Files\Microsoft Visual Studio\2022\Community\VC\Tools\MSVC\14.29.30133\include\vector
; File I:\Vitalya\mine\NSProjectX\layers\xrRenderPC_R1\LightShadows.cpp
; File C:\Program Files\Microsoft Visual Studio\2022\Community\VC\Tools\MSVC\14.29.30133\include\vector
; File I:\Vitalya\mine\NSProjectX\xrCore\_stl_extensions.h
; File C:\Program Files\Microsoft Visual Studio\2022\Community\VC\Tools\MSVC\14.29.30133\include\vector
; File I:\Vitalya\mine\NSProjectX\layers\xrRenderPC_R1\LightShadows.cpp
; File C:\Program Files\Microsoft Visual Studio\2022\Community\VC\Tools\MSVC\14.29.30133\include\vector
; File I:\Vitalya\mine\NSProjectX\layers\xrRenderPC_R1\LightShadows.cpp
; File C:\Program Files\Microsoft Visual Studio\2022\Community\VC\Tools\MSVC\14.29.30133\include\vector
; File I:\Vitalya\mine\NSProjectX\layers\xrRenderPC_R1\LightShadows.cpp
; File C:\Program Files\Microsoft Visual Studio\2022\Community\VC\Tools\MSVC\14.29.30133\include\vector
; File I:\Vitalya\mine\NSProjectX\layers\xrRenderPC_R1\LightShadows.cpp
; File C:\Program Files\Microsoft Visual Studio\2022\Community\VC\Tools\MSVC\14.29.30133\include\vector
; File I:\Vitalya\mine\NSProjectX\layers\xrRenderPC_R1\LightShadows.cpp
; File C:\Program Files\Microsoft Visual Studio\2022\Community\VC\Tools\MSVC\14.29.30133\include\vector
; File I:\Vitalya\mine\NSProjectX\layers\xrRenderPC_R1\LightShadows.cpp
; File C:\Program Files\Microsoft Visual Studio\2022\Community\VC\Tools\MSVC\14.29.30133\include\vector
; File I:\Vitalya\mine\NSProjectX\layers\xrRenderPC_R1\LightShadows.cpp
; File C:\Program Files\Microsoft Visual Studio\2022\Community\VC\Tools\MSVC\14.29.30133\include\vector
; File I:\Vitalya\mine\NSProjectX\layers\xrRenderPC_R1\LightShadows.cpp
; File C:\Program Files\Microsoft Visual Studio\2022\Community\VC\Tools\MSVC\14.29.30133\include\vector
; File I:\Vitalya\mine\NSProjectX\layers\xrRenderPC_R1\LightShadows.cpp
; File C:\Program Files\Microsoft Visual Studio\2022\Community\VC\Tools\MSVC\14.29.30133\include\vector
; File I:\Vitalya\mine\NSProjectX\layers\xrRenderPC_R1\LightShadows.cpp
; File C:\Program Files\Microsoft Visual Studio\2022\Community\VC\Tools\MSVC\14.29.30133\include\vector
; File I:\Vitalya\mine\NSProjectX\layers\xrRenderPC_R1\LightShadows.cpp
; File I:\Vitalya\mine\NSProjectX\xrEngine\shader.h
; File I:\Vitalya\mine\NSProjectX\layers\xrRenderPC_R1\LightShadows.cpp
; File I:\Vitalya\mine\NSProjectX\xrCore\_vector4.h
; File I:\Vitalya\mine\NSProjectX\layers\xrRenderPC_R1\FStaticRender.cpp
; File I:\Vitalya\mine\NSProjectX\xrCore\_vector2.h
; File I:\Vitalya\mine\NSProjectX\xrCore\_vector4.h
; File I:\Vitalya\mine\NSProjectX\layers\xrRenderPC_R1\FStaticRender.cpp
; File I:\Vitalya\mine\NSProjectX\xrCore\_vector2.h
; File I:\Vitalya\mine\NSProjectX\xrCore\_vector4.h
; File I:\Vitalya\mine\NSProjectX\layers\xrRenderPC_R1\FStaticRender.cpp
; File I:\Vitalya\mine\NSProjectX\xrCore\_vector2.h
; File I:\Vitalya\mine\NSProjectX\xrCore\_vector4.h
; File I:\Vitalya\mine\NSProjectX\layers\xrRenderPC_R1\FStaticRender.cpp
; File I:\Vitalya\mine\NSProjectX\xrCore\_vector2.h
; File I:\Vitalya\mine\NSProjectX\layers\xrRenderPC_R1\LightShadows.cpp
; File I:\Vitalya\mine\NSProjectX\xrCore\xr_resource.h
; File I:\Vitalya\mine\NSProjectX\layers\xrRenderPC_R1\LightShadows.cpp
; File I:\Vitalya\mine\NSProjectX\xrEngine\R_Backend_Runtime.h
; File I:\Vitalya\mine\NSProjectX\layers\xrRenderPC_R1\LightShadows.cpp
; File I:\Vitalya\mine\NSProjectX\xrEngine\R_Backend_Runtime.h
; File I:\Vitalya\mine\NSProjectX\xrEngine\r_constants_cache.h
; File I:\Vitalya\mine\NSProjectX\xrEngine\R_Backend_Runtime.h
; File I:\Vitalya\mine\NSProjectX\layers\xrRenderPC_R1\LightShadows.cpp
; File I:\Vitalya\mine\NSProjectX\xrCore\FTimer.h
; File I:\Vitalya\mine\NSProjectX\layers\xrRenderPC_R1\LightShadows.cpp
; File I:\Vitalya\mine\NSProjectX\xrCore\FTimer.h
; File I:\Vitalya\mine\NSProjectX\layers\xrRenderPC_R1\LightShadows.cpp
; File I:\Vitalya\mine\NSProjectX\xrCore\FTimer.h
; File I:\Vitalya\mine\NSProjectX\layers\xrRenderPC_R1\LightShadows.cpp
_TEXT	SEGMENT
_mProjectR$9$ = -468					; size = 4
_mProjectR$5$ = -468					; size = 4
_mProjectR$3$ = -468					; size = 4
_Lpos$2$ = -468						; size = 4
_mProjectR$11$ = -464					; size = 4
_mProjectR$7$ = -464					; size = 4
_Lpos$3$ = -464						; size = 4
_p_far$2$ = -460					; size = 4
_n_it$1$ = -460						; size = 4
_p_far$1 = -460						; size = 4
_l_it$1$ = -456						; size = 4
_Lpos$1$ = -452						; size = 4
_slot_id$1$ = -448					; size = 4
tv4826 = -444						; size = 4
tv4811 = -444						; size = 4
_mProjectR$1$ = -440					; size = 4
tv4566 = -440						; size = 4
_p_near$2 = -440					; size = 4
tv4816 = -436						; size = 4
_Lpos$3 = -432						; size = 12
_this$1$ = -420						; size = 4
_bRTS$1$ = -416						; size = 4
__R$1$ = -412						; size = 4
$T4 = -412						; size = 4
tv4807 = -408						; size = 4
_p_hat$5 = -408						; size = 4
_lights$1$ = -404					; size = 4
_Offset$6 = -404					; size = 4
_mProjectR$7 = -400					; size = 64
tv4808 = -336						; size = 4
$T8 = -332						; size = 4
_o_it$1$ = -328						; size = 4
_v_N$9 = -324						; size = 12
_mView$10 = -312					; size = 64
_VP$11 = -248						; size = 24
_mCombineR$12 = -224					; size = 64
$T13 = -156						; size = 92
_mProject$14 = -64					; size = 64
?calculate@CLightShadows@@QAEXXZ PROC			; CLightShadows::calculate
; _this$ = ecx

; 177  : {

	push	ebp
	mov	ebp, esp
	and	esp, -8					; fffffff8H
	sub	esp, 468				; 000001d4H
	push	ebx
	push	esi
	push	edi
	mov	edi, ecx
	mov	DWORD PTR _this$1$[esp+480], edi
; File C:\Program Files\Microsoft Visual Studio\2022\Community\VC\Tools\MSVC\14.29.30133\include\vector

; 1531 :         return _My_data._Myfirst == _My_data._Mylast;

	mov	eax, DWORD PTR [edi+16]
	cmp	eax, DWORD PTR [edi+20]
; File I:\Vitalya\mine\NSProjectX\layers\xrRenderPC_R1\LightShadows.cpp

; 178  : 	if (casters.empty())		return;

	je	$LN1@calculate

; 181  : 	Device.Statistic->RenderDUMP_Scalc.Begin	();

	mov	eax, DWORD PTR __imp_?Device@@3VCRenderDevice@@A
	mov	DWORD PTR _bRTS$1$[esp+480], 0
	mov	esi, DWORD PTR [eax+436]
; File I:\Vitalya\mine\NSProjectX\xrCore\FTimer.h

; 173  : 	ICF void	Begin			()		{	if (!g_bEnableStatGather) return;	count++; T.Start();				}

	mov	eax, DWORD PTR __imp_?g_bEnableStatGather@@3HA
; File I:\Vitalya\mine\NSProjectX\layers\xrRenderPC_R1\LightShadows.cpp

; 181  : 	Device.Statistic->RenderDUMP_Scalc.Begin	();

	add	esi, 2576				; 00000a10H
; File I:\Vitalya\mine\NSProjectX\xrCore\FTimer.h

; 173  : 	ICF void	Begin			()		{	if (!g_bEnableStatGather) return;	count++; T.Start();				}

	cmp	DWORD PTR [eax], 0
	je	SHORT $LN43@calculate
	inc	DWORD PTR [esi+68]

; 73   : 		if (bPause)

	cmp	DWORD PTR [esi+24], 0
	jne	SHORT $LN43@calculate

; 29   : 	ICF	void	Start			()		{	if(bPause) return;	qwStartTime = CPU::QPC()-qwPauseAccum;		}

	call	DWORD PTR __imp_?QPC@CPU@@YA_KXZ
	sub	eax, DWORD PTR [esi+16]
	mov	DWORD PTR [esi], eax
	sbb	edx, DWORD PTR [esi+20]
	mov	DWORD PTR [esi+4], edx

; 78   : 		m_real_ticks	= 0;

	mov	DWORD PTR [esi+40], 0
	mov	DWORD PTR [esi+44], 0

; 79   : 		m_ticks			= 0;

	mov	DWORD PTR [esi+48], 0
	mov	DWORD PTR [esi+52], 0
$LN43@calculate:
; File I:\Vitalya\mine\NSProjectX\layers\xrRenderPC_R1\LightShadows.cpp

; 182  : 	HW.pDevice->SetRenderState	(D3DRS_ZENABLE, D3DZB_FALSE);

	mov	eax, DWORD PTR __imp_?HW@@3VCHW@@A
	push	0
	push	7
	mov	eax, DWORD PTR [eax+8]
	push	eax
	mov	ecx, DWORD PTR [eax]
	call	DWORD PTR [ecx+228]
; File C:\Program Files\Microsoft Visual Studio\2022\Community\VC\Tools\MSVC\14.29.30133\include\vector

; 1536 :         return static_cast<size_type>(_My_data._Mylast - _My_data._Myfirst);

	mov	edx, DWORD PTR [edi+20]
; File I:\Vitalya\mine\NSProjectX\layers\xrRenderPC_R1\LightShadows.cpp

; 189  : 	for (u32 o_it=0; o_it<casters.size(); o_it++)

	xor	ebx, ebx
; File C:\Program Files\Microsoft Visual Studio\2022\Community\VC\Tools\MSVC\14.29.30133\include\vector

; 1536 :         return static_cast<size_type>(_My_data._Mylast - _My_data._Myfirst);

	mov	ecx, DWORD PTR [edi+16]
	mov	eax, edx
	sub	eax, ecx
; File I:\Vitalya\mine\NSProjectX\layers\xrRenderPC_R1\LightShadows.cpp

; 185  : 	int	slot_id		= 0;

	mov	DWORD PTR _slot_id$1$[esp+480], 0
; File C:\Program Files\Microsoft Visual Studio\2022\Community\VC\Tools\MSVC\14.29.30133\include\vector

; 1536 :         return static_cast<size_type>(_My_data._Mylast - _My_data._Myfirst);

	sar	eax, 2
; File I:\Vitalya\mine\NSProjectX\layers\xrRenderPC_R1\LightShadows.cpp

; 189  : 	for (u32 o_it=0; o_it<casters.size(); o_it++)

	mov	DWORD PTR _o_it$1$[esp+480], ebx
	test	eax, eax
	je	$LN3@calculate
$LL4@calculate:

; 190  : 	{
; 191  : 		caster&	C	= *casters	[o_it];

	mov	ebx, DWORD PTR [ecx+ebx*4]
; File C:\Program Files\Microsoft Visual Studio\2022\Community\VC\Tools\MSVC\14.29.30133\include\vector

; 1531 :         return _My_data._Myfirst == _My_data._Mylast;

	mov	eax, DWORD PTR [ebx+20]
	cmp	eax, DWORD PTR [ebx+24]
; File I:\Vitalya\mine\NSProjectX\layers\xrRenderPC_R1\LightShadows.cpp

; 192  : 		if (C.nodes.empty())	continue;

	je	$LN2@calculate

; 193  : 		
; 194  : 		// Select lights and calc importance
; 195  : 		CROS_impl* LT			= (CROS_impl*)C.O->renderable_ROS();

	mov	ecx, DWORD PTR [ebx]
	call	DWORD PTR __imp_?renderable_ROS@IRenderable@@QAEPAVIRender_ObjectSpecific@@XZ
; File C:\Program Files\Microsoft Visual Studio\2022\Community\VC\Tools\MSVC\14.29.30133\include\vector

; 1536 :         return static_cast<size_type>(_My_data._Mylast - _My_data._Myfirst);

	mov	esi, DWORD PTR [eax+28]
; File I:\Vitalya\mine\NSProjectX\layers\xrRenderPC_R1\LightShadows.cpp

; 196  : 		xr_vector<CROS_impl::Light>& lights = LT->lights;

	add	eax, 28					; 0000001cH
	mov	DWORD PTR _lights$1$[esp+480], eax

; 199  : 		for (u32 l_it=0; (l_it<lights.size()) && (slot_id<slot_max); l_it++)

	mov	DWORD PTR _l_it$1$[esp+480], 0
; File C:\Program Files\Microsoft Visual Studio\2022\Community\VC\Tools\MSVC\14.29.30133\include\vector

; 1536 :         return static_cast<size_type>(_My_data._Mylast - _My_data._Myfirst);

	mov	DWORD PTR $T8[esp+480], esi
	mov	ecx, DWORD PTR [eax+4]
	sub	ecx, esi
	sar	ecx, 3
	imul	eax, ecx, -1431655765
; File I:\Vitalya\mine\NSProjectX\layers\xrRenderPC_R1\LightShadows.cpp

; 199  : 		for (u32 l_it=0; (l_it<lights.size()) && (slot_id<slot_max); l_it++)

	test	eax, eax
	je	$LN2@calculate
; File C:\Program Files\Microsoft Visual Studio\2022\Community\VC\Tools\MSVC\14.29.30133\include\vector

; 1535 :         auto& _My_data = _Mypair._Myval2;

	xor	edx, edx
	mov	DWORD PTR tv4816[esp+480], edx
	mov	ecx, edx
$LL7@calculate:
; File I:\Vitalya\mine\NSProjectX\layers\xrRenderPC_R1\LightShadows.cpp

; 199  : 		for (u32 l_it=0; (l_it<lights.size()) && (slot_id<slot_max); l_it++)

	cmp	DWORD PTR _slot_id$1$[esp+480], 36	; 00000024H
	jge	$LN2@calculate

; 200  : 		{
; 201  : 			CROS_impl::Light&	L			=	lights[l_it];
; 202  : 			if (L.energy<S_level)			continue;

	movss	xmm0, DWORD PTR __real@3d4ccccd
	comiss	xmm0, DWORD PTR [edx+esi+4]
	ja	$LN5@calculate

; 203  : 			
; 204  : 			//Msg	("~ light: %d",l_it);
; 205  : 
; 206  : 			// setup rt+state(s) for first use
; 207  : 			if (!bRTS)	{

	cmp	DWORD PTR _bRTS$1$[esp+480], 0
	jne	SHORT $LN25@calculate

; 208  : 				bRTS						= TRUE;
; 209  : 				RCache.set_RT				(RT_temp->pRT);

	mov	eax, DWORD PTR [edi+92]
	mov	ecx, DWORD PTR __imp_?RCache@@3VCBackend@@A
	push	0
	mov	DWORD PTR _bRTS$1$[esp+484], 1
	push	DWORD PTR [eax+16]
	call	DWORD PTR __imp_?set_RT@CBackend@@QAEXPAUIDirect3DSurface9@@I@Z

; 210  : 				RCache.set_ZB				(RImplementation.Target->pTempZB);

	mov	eax, DWORD PTR ?RImplementation@@3VCRender@@A+1012
	mov	ecx, DWORD PTR __imp_?RCache@@3VCBackend@@A
	push	DWORD PTR [eax+104]
	call	DWORD PTR __imp_?set_ZB@CBackend@@QAEXPAUIDirect3DSurface9@@@Z

; 211  : 				HW.pDevice->Clear			(0,0,D3DCLEAR_TARGET,D3DCOLOR_XRGB(255,255,255),1,0);

	mov	eax, DWORD PTR __imp_?HW@@3VCHW@@A
	fld1
	push	0
	mov	eax, DWORD PTR [eax+8]
	mov	ecx, DWORD PTR [eax]
	push	ecx
	fstp	DWORD PTR [esp]
	push	-1
	push	1
	push	0
	push	0
	push	eax
	call	DWORD PTR [ecx+172]
	mov	edx, DWORD PTR tv4816[esp+480]
$LN25@calculate:

; 212  : 			}
; 213  : 
; 214  : 			// calculate light center
; 215  : 			Fvector		Lpos	= L.source->position;

	mov	ecx, DWORD PTR [edx+esi]

; 216  : 			float		Lrange	= L.source->range;
; 217  : 			//Log	("* l-pos:",Lpos);
; 218  : 			//Msg	("* l-range: %f",Lrange);
; 219  : 			if (L.source->flags.type==IRender_Light::DIRECT)

	lea	esi, DWORD PTR [ebx+4]
	movss	xmm6, DWORD PTR [esi]
	movss	xmm4, DWORD PTR [esi+4]
	movss	xmm7, DWORD PTR [esi+8]
	test	BYTE PTR [ecx+60], 15			; 0000000fH
	mov	eax, DWORD PTR [ecx+64]
	movss	xmm0, DWORD PTR [ecx+100]
	mov	DWORD PTR _Lpos$3[esp+480], eax
	mov	eax, DWORD PTR [ecx+68]
	mov	DWORD PTR _Lpos$3[esp+484], eax
	mov	eax, DWORD PTR [ecx+72]
	mov	DWORD PTR _Lpos$3[esp+488], eax
	movss	DWORD PTR _p_far$2$[esp+480], xmm0
	jne	SHORT $LN10@calculate
; File I:\Vitalya\mine\NSProjectX\xrCore\_vector3d.h

; 42   : 	ICF SelfRef	mul(const Self &a, T s)					{ x=a.x*s;  y=a.y*s;	z=a.z*s;		return *this;	};

	movss	xmm1, DWORD PTR __real@42c80000

; 29   : 	ICF	SelfRef	add(const Self &v)						{ x+=v.x;	y+=v.y;		z+=v.z;			return *this;	};

	movaps	xmm2, xmm6

; 42   : 	ICF SelfRef	mul(const Self &a, T s)					{ x=a.x*s;  y=a.y*s;	z=a.z*s;		return *this;	};

	movss	xmm0, DWORD PTR [ecx+76]

; 29   : 	ICF	SelfRef	add(const Self &v)						{ x+=v.x;	y+=v.y;		z+=v.z;			return *this;	};

	movaps	xmm3, xmm4

; 42   : 	ICF SelfRef	mul(const Self &a, T s)					{ x=a.x*s;  y=a.y*s;	z=a.z*s;		return *this;	};

	mulss	xmm0, xmm1
; File I:\Vitalya\mine\NSProjectX\layers\xrRenderPC_R1\LightShadows.cpp

; 224  : 				Lrange		= 120;

	movss	xmm5, DWORD PTR __real@42f00000
; File I:\Vitalya\mine\NSProjectX\xrCore\_vector3d.h

; 29   : 	ICF	SelfRef	add(const Self &v)						{ x+=v.x;	y+=v.y;		z+=v.z;			return *this;	};

	subss	xmm2, xmm0

; 42   : 	ICF SelfRef	mul(const Self &a, T s)					{ x=a.x*s;  y=a.y*s;	z=a.z*s;		return *this;	};

	movss	xmm0, DWORD PTR [ecx+80]
	mulss	xmm0, xmm1

; 29   : 	ICF	SelfRef	add(const Self &v)						{ x+=v.x;	y+=v.y;		z+=v.z;			return *this;	};

	subss	xmm3, xmm0
	movss	DWORD PTR _Lpos$1$[esp+480], xmm2

; 42   : 	ICF SelfRef	mul(const Self &a, T s)					{ x=a.x*s;  y=a.y*s;	z=a.z*s;		return *this;	};

	movss	xmm0, DWORD PTR [ecx+84]
; File I:\Vitalya\mine\NSProjectX\layers\xrRenderPC_R1\LightShadows.cpp

; 224  : 				Lrange		= 120;

	mov	ecx, DWORD PTR [ebx]
; File I:\Vitalya\mine\NSProjectX\xrCore\_vector3d.h

; 42   : 	ICF SelfRef	mul(const Self &a, T s)					{ x=a.x*s;  y=a.y*s;	z=a.z*s;		return *this;	};

	mulss	xmm0, xmm1

; 29   : 	ICF	SelfRef	add(const Self &v)						{ x+=v.x;	y+=v.y;		z+=v.z;			return *this;	};

	movaps	xmm1, xmm7
	movss	DWORD PTR _Lpos$3[esp+480], xmm2
	movss	DWORD PTR _Lpos$2$[esp+480], xmm3
	subss	xmm1, xmm0
	movss	DWORD PTR _Lpos$3[esp+484], xmm3
	movss	DWORD PTR _Lpos$3$[esp+480], xmm1
	movss	DWORD PTR _Lpos$3[esp+488], xmm1
; File I:\Vitalya\mine\NSProjectX\layers\xrRenderPC_R1\LightShadows.cpp

; 225  : 			} else {

	jmp	$LN29@calculate
$LN10@calculate:
; File I:\Vitalya\mine\NSProjectX\xrCore\_vector3d.h

; 287  : 	{	return (x-v.x)*(x-v.x) + (y-v.y)*(y-v.y) + (z-v.z)*(z-v.z);	}

	movss	xmm2, DWORD PTR _Lpos$3[esp+480]
	movaps	xmm5, xmm6
	movss	xmm3, DWORD PTR _Lpos$3[esp+484]
	subss	xmm5, xmm2
	movaps	xmm0, xmm4
	movss	DWORD PTR _Lpos$2$[esp+480], xmm3
	subss	xmm0, xmm3
	movss	DWORD PTR _Lpos$1$[esp+480], xmm2
	movss	DWORD PTR $T4[esp+480], xmm7
	movaps	xmm1, xmm5
	movss	DWORD PTR tv4807[esp+480], xmm5
	mulss	xmm1, xmm5
	movss	xmm5, DWORD PTR _Lpos$3[esp+488]
	movss	DWORD PTR _Lpos$3$[esp+480], xmm5
	movss	DWORD PTR tv4808[esp+480], xmm1
	movaps	xmm1, xmm7
	subss	xmm1, xmm5
	mulss	xmm0, xmm0
	movaps	xmm5, xmm1
	movss	DWORD PTR tv4566[esp+480], xmm1
	mulss	xmm5, xmm1
	movss	xmm1, DWORD PTR tv4808[esp+480]
	addss	xmm0, xmm1
	movss	DWORD PTR tv4811[esp+480], xmm5
	addss	xmm0, xmm5
; File C:\Program Files (x86)\Windows Kits\10\Include\10.0.22000.0\ucrt\corecrt_math.h

; 764  :             return (float)sqrt(_X);

	sqrtss	xmm5, xmm0
; File I:\Vitalya\mine\NSProjectX\layers\xrRenderPC_R1\LightShadows.cpp

; 232  : 					if (_dist>EPS_L)		break;

	comiss	xmm5, DWORD PTR __real@3a83126f
	ja	SHORT $LN334@calculate
	movss	xmm2, DWORD PTR tv4811[esp+480]
	movss	xmm7, DWORD PTR __real@3c23d70a
	npad	6
$LL14@calculate:

; 233  : 					Lpos.y					+=	.01f;	//. hack to avoid light-in-the-center-of-object

	addss	xmm3, xmm7
; File I:\Vitalya\mine\NSProjectX\xrCore\_vector3d.h

; 287  : 	{	return (x-v.x)*(x-v.x) + (y-v.y)*(y-v.y) + (z-v.z)*(z-v.z);	}

	movaps	xmm0, xmm4
	subss	xmm0, xmm3
; File I:\Vitalya\mine\NSProjectX\layers\xrRenderPC_R1\LightShadows.cpp

; 233  : 					Lpos.y					+=	.01f;	//. hack to avoid light-in-the-center-of-object

	movss	DWORD PTR _Lpos$3[esp+484], xmm3
; File I:\Vitalya\mine\NSProjectX\xrCore\_vector3d.h

; 287  : 	{	return (x-v.x)*(x-v.x) + (y-v.y)*(y-v.y) + (z-v.z)*(z-v.z);	}

