; Listing generated by Microsoft (R) Optimizing Compiler Version 19.29.30146.0 

	TITLE	i:\vitalya\mine\nsprojectx\nspx_build\intermediate\release-win32\xrrender_r1\modelpool.obj
	.686P
	.XMM
	include listing.inc
	.model	flat

INCLUDELIB OLDNAMES

PUBLIC	??_C@_0BE@EBDNGAIE@Unknown?5visual?5type@	; `string'
PUBLIC	??_C@_0BM@ILNANEIH@CModelPool?3?3Instance_Create@ ; `string'
PUBLIC	??_C@_0DJ@HJNKECDB@I?3?2Vitalya?2mine?2NSProjectX?2laye@ ; `string'
PUBLIC	??_C@_01FCMHBHNC@V@				; `string'
PUBLIC	??_C@_0BP@KMCMNMJD@CModelPool?3?3Instance_Duplicate@ ; `string'
PUBLIC	??_C@_04FKFGGPFG@?4ogf@				; `string'
PUBLIC	??_C@_0O@CGKNLCGD@$game_meshes$@		; `string'
PUBLIC	??_C@_0BM@ENFCPNEL@Can?8t?5find?5model?5file?5?8?$CFs?8?4@ ; `string'
PUBLIC	??_C@_0BK@KFOEMNN@CModelPool?3?3Instance_Load@	; `string'
PUBLIC	??_C@_0BC@DJGLAOAH@prefetch_visuals_@		; `string'
PUBLIC	??_C@_0BK@JBHPMFMH@?9?9?9?5model?5pool?5?9?9?9?5begin?3@ ; `string'
PUBLIC	??_C@_0BI@BMBKIPKJ@?$CD?$CF3d?3?5?$FL?$CF3d?1?$CF5d?5Kb?$FN?5?9?5?$CFs@ ; `string'
PUBLIC	??_C@_0CC@JAFLBMEJ@?9?9?9?5models?3?5?$CFd?0?5mem?5usage?3?5?$CFd?5K@ ; `string'
PUBLIC	??_C@_04LIAPHEDB@free@				; `string'
PUBLIC	??_C@_04DOOIMPEH@used@				; `string'
PUBLIC	??_C@_0BJ@BHPDLEKJ@?$CD?$CF3d?3?5?$FL?$CFs?$FN?5?$FL?$CF5d?5Kb?$FN?5?9?5?$CFs@ ; `string'
PUBLIC	??_C@_0CO@FIEPEEB@?9?9?9?5instances?3?5?$CFd?0?5free?5?$CFd?0?5mem@ ; `string'
PUBLIC	??_C@_0BI@NKKAEFLK@?9?9?9?5model?5pool?5?9?9?9?5end?4@ ; `string'
PUBLIC	??_R2FLOD@@8					; FLOD::`RTTI Base Class Array'
PUBLIC	??_R2CSkeletonX_PM@@8				; CSkeletonX_PM::`RTTI Base Class Array'
PUBLIC	??_R2CSkeletonX_ST@@8				; CSkeletonX_ST::`RTTI Base Class Array'
PUBLIC	??_R2CSkeletonX_ext@@8				; CSkeletonX_ext::`RTTI Base Class Array'
PUBLIC	??_R2CSkeletonX@@8				; CSkeletonX::`RTTI Base Class Array'
PUBLIC	??_R2CModelPool@@8				; CModelPool::`RTTI Base Class Array'
PUBLIC	??_R2CKinematicsAnimated@@8			; CKinematicsAnimated::`RTTI Base Class Array'
PUBLIC	??_R2CKinematics@@8				; CKinematics::`RTTI Base Class Array'
PUBLIC	??_R2FHierrarhyVisual@@8			; FHierrarhyVisual::`RTTI Base Class Array'
PUBLIC	??_R1A@?0A@EA@FLOD@@8				; FLOD::`RTTI Base Class Descriptor at (0,-1,0,64)'
PUBLIC	??_R1IM@?0A@EA@CSkeletonX@@8			; CSkeletonX::`RTTI Base Class Descriptor at (140,-1,0,64)'
PUBLIC	??_R1IM@?0A@EA@CSkeletonX_ext@@8		; CSkeletonX_ext::`RTTI Base Class Descriptor at (140,-1,0,64)'
PUBLIC	??_R1A@?0A@EA@CSkeletonX_PM@@8			; CSkeletonX_PM::`RTTI Base Class Descriptor at (0,-1,0,64)'
PUBLIC	??_R1GM@?0A@EA@CSkeletonX@@8			; CSkeletonX::`RTTI Base Class Descriptor at (108,-1,0,64)'
PUBLIC	??_R1GM@?0A@EA@CSkeletonX_ext@@8		; CSkeletonX_ext::`RTTI Base Class Descriptor at (108,-1,0,64)'
PUBLIC	??_R1A@?0A@EA@CSkeletonX_ST@@8			; CSkeletonX_ST::`RTTI Base Class Descriptor at (0,-1,0,64)'
PUBLIC	??_R1A@?0A@EA@CSkeletonX_ext@@8			; CSkeletonX_ext::`RTTI Base Class Descriptor at (0,-1,0,64)'
PUBLIC	??_R1A@?0A@EA@CSkeletonX@@8			; CSkeletonX::`RTTI Base Class Descriptor at (0,-1,0,64)'
PUBLIC	??_R1A@?0A@EA@CModelPool@@8			; CModelPool::`RTTI Base Class Descriptor at (0,-1,0,64)'
PUBLIC	??_R1A@?0A@EA@CKinematicsAnimated@@8		; CKinematicsAnimated::`RTTI Base Class Descriptor at (0,-1,0,64)'
PUBLIC	??_R1A@?0A@EA@CKinematics@@8			; CKinematics::`RTTI Base Class Descriptor at (0,-1,0,64)'
PUBLIC	??_R1A@?0A@EA@FHierrarhyVisual@@8		; FHierrarhyVisual::`RTTI Base Class Descriptor at (0,-1,0,64)'
PUBLIC	??_R3FLOD@@8					; FLOD::`RTTI Class Hierarchy Descriptor'
PUBLIC	??_R0?AVFLOD@@@8				; FLOD `RTTI Type Descriptor'
PUBLIC	??_R3CSkeletonX_PM@@8				; CSkeletonX_PM::`RTTI Class Hierarchy Descriptor'
PUBLIC	??_R0?AVCSkeletonX_PM@@@8			; CSkeletonX_PM `RTTI Type Descriptor'
PUBLIC	??_R3CSkeletonX_ST@@8				; CSkeletonX_ST::`RTTI Class Hierarchy Descriptor'
PUBLIC	??_R0?AVCSkeletonX_ST@@@8			; CSkeletonX_ST `RTTI Type Descriptor'
PUBLIC	??_R3CSkeletonX@@8				; CSkeletonX::`RTTI Class Hierarchy Descriptor'
PUBLIC	??_R0?AVCSkeletonX@@@8				; CSkeletonX `RTTI Type Descriptor'
PUBLIC	??_R3CSkeletonX_ext@@8				; CSkeletonX_ext::`RTTI Class Hierarchy Descriptor'
PUBLIC	??_R0?AVCSkeletonX_ext@@@8			; CSkeletonX_ext `RTTI Type Descriptor'
PUBLIC	??_R3CModelPool@@8				; CModelPool::`RTTI Class Hierarchy Descriptor'
PUBLIC	??_R0?AVCModelPool@@@8				; CModelPool `RTTI Type Descriptor'
PUBLIC	??_R3CKinematicsAnimated@@8			; CKinematicsAnimated::`RTTI Class Hierarchy Descriptor'
PUBLIC	??_R0?AVCKinematicsAnimated@@@8			; CKinematicsAnimated `RTTI Type Descriptor'
PUBLIC	??_R3FHierrarhyVisual@@8			; FHierrarhyVisual::`RTTI Class Hierarchy Descriptor'
PUBLIC	??_R0?AVFHierrarhyVisual@@@8			; FHierrarhyVisual `RTTI Type Descriptor'
PUBLIC	??_R3CKinematics@@8				; CKinematics::`RTTI Class Hierarchy Descriptor'
PUBLIC	??_R0?AVCKinematics@@@8				; CKinematics `RTTI Type Descriptor'
PUBLIC	??_R4FLOD@@6B@					; FLOD::`RTTI Complete Object Locator'
PUBLIC	??_R4CSkeletonX_PM@@6B@				; CSkeletonX_PM::`RTTI Complete Object Locator'
PUBLIC	??_R4CSkeletonX_PM@@6BIRender_Mesh@@@		; CSkeletonX_PM::`RTTI Complete Object Locator'
PUBLIC	??_R4CSkeletonX_PM@@6BIRender_Visual@@@		; CSkeletonX_PM::`RTTI Complete Object Locator'
PUBLIC	??_R4CSkeletonX_ST@@6B@				; CSkeletonX_ST::`RTTI Complete Object Locator'
PUBLIC	??_R4CSkeletonX_ST@@6BIRender_Mesh@@@		; CSkeletonX_ST::`RTTI Complete Object Locator'
PUBLIC	??_R4CSkeletonX_ST@@6BIRender_Visual@@@		; CSkeletonX_ST::`RTTI Complete Object Locator'
PUBLIC	??_R4CSkeletonX_ext@@6B@			; CSkeletonX_ext::`RTTI Complete Object Locator'
PUBLIC	??_R4FHierrarhyVisual@@6B@			; FHierrarhyVisual::`RTTI Complete Object Locator'
PUBLIC	??_R4CModelPool@@6B@				; CModelPool::`RTTI Complete Object Locator'
PUBLIC	??_R4CKinematicsAnimated@@6B@			; CKinematicsAnimated::`RTTI Complete Object Locator'
PUBLIC	??_R4CKinematics@@6B@				; CKinematics::`RTTI Complete Object Locator'
PUBLIC	??_C@_0BB@GCADKGJO@map?1set?5too?5long@		; `string'
PUBLIC	??_7FLOD@@6B@					; FLOD::`vftable'
PUBLIC	??_SCKinematics@@6B@				; CKinematics::`local vftable'
PUBLIC	??_SCKinematicsAnimated@@6B@			; CKinematicsAnimated::`local vftable'
PUBLIC	??_SFHierrarhyVisual@@6B@			; FHierrarhyVisual::`local vftable'
PUBLIC	??_7CModelPool@@6B@				; CModelPool::`vftable'
PUBLIC	??_7CSkeletonX_PM@@6B@				; CSkeletonX_PM::`vftable'
PUBLIC	??_7CSkeletonX_PM@@6BIRender_Mesh@@@		; CSkeletonX_PM::`vftable'
PUBLIC	??_7CSkeletonX_PM@@6BIRender_Visual@@@		; CSkeletonX_PM::`vftable'
PUBLIC	??_7CSkeletonX_ext@@6B@				; CSkeletonX_ext::`vftable'
PUBLIC	??_7CSkeletonX_ST@@6B@				; CSkeletonX_ST::`vftable'
PUBLIC	??_7CSkeletonX_ST@@6BIRender_Mesh@@@		; CSkeletonX_ST::`vftable'
PUBLIC	??_7CSkeletonX_ST@@6BIRender_Visual@@@		; CSkeletonX_ST::`vftable'
EXTRN	?OnCalculateBones@CKinematics@@UAEXXZ:PROC	; CKinematics::OnCalculateBones
EXTRN	__imp_?OnCalculateBones@CKinematics@@UAEXXZ:PROC
EXTRN	?CreateBoneData@CKinematics@@MAEPAVCBoneData@@G@Z:PROC ; CKinematics::CreateBoneData
EXTRN	__imp_?CreateBoneData@CKinematics@@MAEPAVCBoneData@@G@Z:PROC
EXTRN	?dcast_PKinematics@CKinematics@@UAEPAV1@XZ:PROC	; CKinematics::dcast_PKinematics
EXTRN	__imp_?dcast_PKinematics@CKinematics@@UAEPAV1@XZ:PROC
EXTRN	?mem_usage@CKinematics@@UAEI_N@Z:PROC		; CKinematics::mem_usage
EXTRN	__imp_?mem_usage@CKinematics@@UAEI_N@Z:PROC
EXTRN	?dcast_PKinematicsAnimated@CKinematicsAnimated@@UAEPAV1@XZ:PROC ; CKinematicsAnimated::dcast_PKinematicsAnimated
EXTRN	__imp_?dcast_PKinematicsAnimated@CKinematicsAnimated@@UAEPAV1@XZ:PROC
EXTRN	?mem_usage@CKinematicsAnimated@@UAEI_N@Z:PROC	; CKinematicsAnimated::mem_usage
EXTRN	__imp_?mem_usage@CKinematicsAnimated@@UAEI_N@Z:PROC
EXTRN	__imp_??0CSkeletonX@@QAE@XZ:PROC
EXTRN	?SetParent@CSkeletonX@@UAEXPAVCKinematics@@@Z:PROC ; CSkeletonX::SetParent
EXTRN	__imp_?SetParent@CSkeletonX@@UAEXPAVCKinematics@@@Z:PROC
EXTRN	__imp_??1CSkeletonX@@QAE@XZ:PROC
EXTRN	__imp_??0CKinematicsAnimated@@QAE@XZ:PROC
EXTRN	__imp___purecall:PROC
EXTRN	?Release@FHierrarhyVisual@@UAEXXZ:PROC		; FHierrarhyVisual::Release
EXTRN	__imp_?Release@FHierrarhyVisual@@UAEXXZ:PROC
EXTRN	?IBoneInstances_Destroy@CKinematicsAnimated@@MAEXXZ:PROC ; CKinematicsAnimated::IBoneInstances_Destroy
EXTRN	__imp_?IBoneInstances_Destroy@CKinematicsAnimated@@MAEXXZ:PROC
EXTRN	?IBoneInstances_Create@CKinematicsAnimated@@MAEXXZ:PROC ; CKinematicsAnimated::IBoneInstances_Create
EXTRN	__imp_?IBoneInstances_Create@CKinematicsAnimated@@MAEXXZ:PROC
EXTRN	?OnCalculateBones@CKinematicsAnimated@@UAEXXZ:PROC ; CKinematicsAnimated::OnCalculateBones
EXTRN	__imp_?OnCalculateBones@CKinematicsAnimated@@UAEXXZ:PROC
EXTRN	?Bone_Calculate@CKinematicsAnimated@@UAEXPAVCBoneData@@PAU?$_matrix@M@@@Z:PROC ; CKinematicsAnimated::Bone_Calculate
EXTRN	__imp_?Bone_Calculate@CKinematicsAnimated@@UAEXPAVCBoneData@@PAU?$_matrix@M@@@Z:PROC
EXTRN	?Spawn@CKinematicsAnimated@@UAEXXZ:PROC		; CKinematicsAnimated::Spawn
EXTRN	__imp_?Spawn@CKinematicsAnimated@@UAEXXZ:PROC
EXTRN	?Copy@CKinematicsAnimated@@UAEXPAVIRender_Visual@@@Z:PROC ; CKinematicsAnimated::Copy
EXTRN	__imp_?Copy@CKinematicsAnimated@@UAEXPAVIRender_Visual@@@Z:PROC
EXTRN	?Release@CKinematicsAnimated@@UAEXXZ:PROC	; CKinematicsAnimated::Release
EXTRN	__imp_?Release@CKinematicsAnimated@@UAEXXZ:PROC
EXTRN	?Load@CKinematicsAnimated@@UAEXPBDPAVIReader@@I@Z:PROC ; CKinematicsAnimated::Load
EXTRN	__imp_?Load@CKinematicsAnimated@@UAEXPBDPAVIReader@@I@Z:PROC
EXTRN	?CalculateBones@CKinematics@@UAEXH@Z:PROC	; CKinematics::CalculateBones
EXTRN	__imp_?CalculateBones@CKinematics@@UAEXH@Z:PROC
EXTRN	?EnumBoneVertices@CKinematics@@UAEXAAUSEnumVerticesCallback@@G@Z:PROC ; CKinematics::EnumBoneVertices
EXTRN	__imp_?EnumBoneVertices@CKinematics@@UAEXAAUSEnumVerticesCallback@@G@Z:PROC
EXTRN	?IBoneInstances_Destroy@CKinematics@@MAEXXZ:PROC ; CKinematics::IBoneInstances_Destroy
EXTRN	__imp_?IBoneInstances_Destroy@CKinematics@@MAEXXZ:PROC
EXTRN	?IBoneInstances_Create@CKinematics@@MAEXXZ:PROC	; CKinematics::IBoneInstances_Create
EXTRN	__imp_?IBoneInstances_Create@CKinematics@@MAEXXZ:PROC
EXTRN	?Bone_Calculate@CKinematics@@UAEXPAVCBoneData@@PAU?$_matrix@M@@@Z:PROC ; CKinematics::Bone_Calculate
EXTRN	__imp_?Bone_Calculate@CKinematics@@UAEXPAVCBoneData@@PAU?$_matrix@M@@@Z:PROC
EXTRN	?Depart@CKinematics@@UAEXXZ:PROC		; CKinematics::Depart
EXTRN	__imp_?Depart@CKinematics@@UAEXXZ:PROC
EXTRN	?Spawn@CKinematics@@UAEXXZ:PROC			; CKinematics::Spawn
EXTRN	__imp_?Spawn@CKinematics@@UAEXXZ:PROC
EXTRN	?Copy@CKinematics@@UAEXPAVIRender_Visual@@@Z:PROC ; CKinematics::Copy
EXTRN	__imp_?Copy@CKinematics@@UAEXPAVIRender_Visual@@@Z:PROC
EXTRN	?Release@CKinematics@@UAEXXZ:PROC		; CKinematics::Release
EXTRN	__imp_?Release@CKinematics@@UAEXXZ:PROC
EXTRN	?Load@CKinematics@@UAEXPBDPAVIReader@@I@Z:PROC	; CKinematics::Load
EXTRN	__imp_?Load@CKinematics@@UAEXPBDPAVIReader@@I@Z:PROC
EXTRN	?Render@IRender_Visual@@UAEXM@Z:PROC		; IRender_Visual::Render
EXTRN	__imp_?Render@IRender_Visual@@UAEXM@Z:PROC
EXTRN	__imp_??1motions_container@@QAE@XZ:PROC
EXTRN	__imp_??1CKinematicsAnimated@@UAE@XZ:PROC
EXTRN	__imp_??1CKinematics@@UAE@XZ:PROC
EXTRN	__imp_??1FHierrarhyVisual@@UAE@XZ:PROC
EXTRN	__imp_??0motions_container@@QAE@XZ:PROC
EXTRN	__imp_??0CKinematics@@QAE@XZ:PROC
EXTRN	__imp_??0FHierrarhyVisual@@QAE@XZ:PROC
EXTRN	__imp_?Log@@YAXPBD@Z:PROC
EXTRN	__imp_?r_section@CInifile@@QAEAAUSect@1@PBD@Z:PROC
EXTRN	__imp__strchr:PROC
EXTRN	__imp_?g_bRendering@@3HA:DWORD
EXTRN	__imp_?clean@motions_container@@QAEX_N@Z:PROC
EXTRN	__imp_?exist@CLocatorAPI@@QAEPBUfile@1@AAY0CAI@DPBD1@Z:PROC
EXTRN	__imp__strcpy_s:PROC
EXTRN	__imp_?strconcat@@YAPADHPADPBD1@Z:PROC
EXTRN	__imp__strrchr:PROC
EXTRN	__imp_?g_pMotionsContainer@@3PAVmotions_container@@A:DWORD
EXTRN	__imp__strlwr:PROC
EXTRN	__purecall:PROC
;	COMDAT ?ignore_always@?3??Instance_Duplicate@CModelPool@@QAEPAVIRender_Visual@@PAV3@@Z@4_NA
_BSS	SEGMENT
?ignore_always@?3??Instance_Duplicate@CModelPool@@QAEPAVIRender_Visual@@PAV3@@Z@4_NA DB 01H DUP (?) ; `CModelPool::Instance_Duplicate'::`4'::ignore_always
_BSS	ENDS
;	COMDAT ?ignore_always@?5??Instance_Create@CModelPool@@QAEPAVIRender_Visual@@I@Z@4_NA
_BSS	SEGMENT
?ignore_always@?5??Instance_Create@CModelPool@@QAEPAVIRender_Visual@@I@Z@4_NA DB 01H DUP (?) ; `CModelPool::Instance_Create'::`6'::ignore_always
_BSS	ENDS
;	COMDAT ??_7CSkeletonX_ST@@6BIRender_Visual@@@
CONST	SEGMENT
??_7CSkeletonX_ST@@6BIRender_Visual@@@ DD FLAT:??_R4CSkeletonX_ST@@6BIRender_Visual@@@ ; CSkeletonX_ST::`vftable'
	DD	FLAT:?Render@CSkeletonX_ST@@UAEXM@Z
	DD	FLAT:?Load@CSkeletonX_ST@@UAEXPBDPAVIReader@@I@Z
	DD	FLAT:?Release@CSkeletonX_ST@@UAEXXZ
	DD	FLAT:?Copy@CSkeletonX_ST@@UAEXPAVIRender_Visual@@@Z
	DD	FLAT:?Spawn@IRender_Visual@@UAEXXZ
	DD	FLAT:?Depart@IRender_Visual@@UAEXXZ
	DD	FLAT:?dcast_PKinematics@IRender_Visual@@UAEPAVCKinematics@@XZ
	DD	FLAT:?dcast_PKinematicsAnimated@IRender_Visual@@UAEPAVCKinematicsAnimated@@XZ
	DD	FLAT:?dcast_ParticleCustom@IRender_Visual@@UAEPAVIParticleCustom@@XZ
	DD	FLAT:??_ECSkeletonX_ST@@UAEPAXI@Z
CONST	ENDS
;	COMDAT ??_7CSkeletonX_ST@@6BIRender_Mesh@@@
CONST	SEGMENT
??_7CSkeletonX_ST@@6BIRender_Mesh@@@ DD FLAT:??_R4CSkeletonX_ST@@6BIRender_Mesh@@@ ; CSkeletonX_ST::`vftable'
	DD	FLAT:??_ECSkeletonX_ST@@WEE@AEPAXI@Z
CONST	ENDS
;	COMDAT ??_7CSkeletonX_ST@@6B@
CONST	SEGMENT
??_7CSkeletonX_ST@@6B@ DD FLAT:??_R4CSkeletonX_ST@@6B@	; CSkeletonX_ST::`vftable'
	DD	FLAT:?_Load_hw@CSkeletonX_ext@@MAEXAAVFvisual@@PAX@Z
	DD	FLAT:?_CollectBoneFaces@CSkeletonX_ext@@MAEXPAVFvisual@@II@Z
	DD	FLAT:?_FillVerticesHW1W@CSkeletonX_ext@@MAEXABU?$_matrix@M@@AAVCSkeletonWallmark@@ABU?$_vector3@M@@MPAVFvisual@@PAGAAV?$xr_vector@GV?$xalloc@G@@@@@Z
	DD	FLAT:?_FillVerticesHW2W@CSkeletonX_ext@@MAEXABU?$_matrix@M@@AAVCSkeletonWallmark@@ABU?$_vector3@M@@MPAVFvisual@@PAGAAV?$xr_vector@GV?$xalloc@G@@@@@Z
	DD	FLAT:?_FillVertices@CSkeletonX_ext@@MAEXABU?$_matrix@M@@AAVCSkeletonWallmark@@ABU?$_vector3@M@@MPAVFvisual@@GII@Z
	DD	FLAT:?_PickBoneHW1W@CSkeletonX_ext@@MAEHAAU?$_vector3@M@@AAMABU2@2PAVFvisual@@PAGAAV?$xr_vector@GV?$xalloc@G@@@@@Z
	DD	FLAT:?_PickBoneHW2W@CSkeletonX_ext@@MAEHAAU?$_vector3@M@@AAMABU2@2PAVFvisual@@PAGAAV?$xr_vector@GV?$xalloc@G@@@@@Z
	DD	FLAT:?_PickBone@CSkeletonX_ext@@MAEHAAU?$_vector3@M@@AAMABU2@2PAVFvisual@@GII@Z
	DD	FLAT:?SetParent@CSkeletonX@@UAEXPAVCKinematics@@@Z
	DD	FLAT:?AfterLoad@CSkeletonX_ST@@UAEXPAVCKinematics@@G@Z
	DD	FLAT:?EnumBoneVertices@CSkeletonX_ST@@UAEXAAUSEnumVerticesCallback@@G@Z
	DD	FLAT:?PickBone@CSkeletonX_ST@@UAEHAAU?$_vector3@M@@AAMABU2@2G@Z
	DD	FLAT:?FillVertices@CSkeletonX_ST@@UAEXABU?$_matrix@M@@AAVCSkeletonWallmark@@ABU?$_vector3@M@@MG@Z
CONST	ENDS
;	COMDAT ??_7CSkeletonX_ext@@6B@
CONST	SEGMENT
??_7CSkeletonX_ext@@6B@ DD FLAT:??_R4CSkeletonX_ext@@6B@ ; CSkeletonX_ext::`vftable'
	DD	FLAT:?_Load_hw@CSkeletonX_ext@@MAEXAAVFvisual@@PAX@Z
	DD	FLAT:?_CollectBoneFaces@CSkeletonX_ext@@MAEXPAVFvisual@@II@Z
	DD	FLAT:?_FillVerticesHW1W@CSkeletonX_ext@@MAEXABU?$_matrix@M@@AAVCSkeletonWallmark@@ABU?$_vector3@M@@MPAVFvisual@@PAGAAV?$xr_vector@GV?$xalloc@G@@@@@Z
	DD	FLAT:?_FillVerticesHW2W@CSkeletonX_ext@@MAEXABU?$_matrix@M@@AAVCSkeletonWallmark@@ABU?$_vector3@M@@MPAVFvisual@@PAGAAV?$xr_vector@GV?$xalloc@G@@@@@Z
	DD	FLAT:?_FillVertices@CSkeletonX_ext@@MAEXABU?$_matrix@M@@AAVCSkeletonWallmark@@ABU?$_vector3@M@@MPAVFvisual@@GII@Z
	DD	FLAT:?_PickBoneHW1W@CSkeletonX_ext@@MAEHAAU?$_vector3@M@@AAMABU2@2PAVFvisual@@PAGAAV?$xr_vector@GV?$xalloc@G@@@@@Z
	DD	FLAT:?_PickBoneHW2W@CSkeletonX_ext@@MAEHAAU?$_vector3@M@@AAMABU2@2PAVFvisual@@PAGAAV?$xr_vector@GV?$xalloc@G@@@@@Z
	DD	FLAT:?_PickBone@CSkeletonX_ext@@MAEHAAU?$_vector3@M@@AAMABU2@2PAVFvisual@@GII@Z
	DD	FLAT:?SetParent@CSkeletonX@@UAEXPAVCKinematics@@@Z
	DD	FLAT:__purecall
	DD	FLAT:__purecall
	DD	FLAT:__purecall
	DD	FLAT:__purecall
CONST	ENDS
;	COMDAT ??_7CSkeletonX_PM@@6BIRender_Visual@@@
CONST	SEGMENT
??_7CSkeletonX_PM@@6BIRender_Visual@@@ DD FLAT:??_R4CSkeletonX_PM@@6BIRender_Visual@@@ ; CSkeletonX_PM::`vftable'
	DD	FLAT:?Render@CSkeletonX_PM@@UAEXM@Z
	DD	FLAT:?Load@CSkeletonX_PM@@UAEXPBDPAVIReader@@I@Z
	DD	FLAT:?Release@CSkeletonX_PM@@UAEXXZ
	DD	FLAT:?Copy@CSkeletonX_PM@@UAEXPAVIRender_Visual@@@Z
	DD	FLAT:?Spawn@IRender_Visual@@UAEXXZ
	DD	FLAT:?Depart@IRender_Visual@@UAEXXZ
	DD	FLAT:?dcast_PKinematics@IRender_Visual@@UAEPAVCKinematics@@XZ
	DD	FLAT:?dcast_PKinematicsAnimated@IRender_Visual@@UAEPAVCKinematicsAnimated@@XZ
	DD	FLAT:?dcast_ParticleCustom@IRender_Visual@@UAEPAVIParticleCustom@@XZ
	DD	FLAT:??_ECSkeletonX_PM@@UAEPAXI@Z
CONST	ENDS
;	COMDAT ??_7CSkeletonX_PM@@6BIRender_Mesh@@@
CONST	SEGMENT
??_7CSkeletonX_PM@@6BIRender_Mesh@@@ DD FLAT:??_R4CSkeletonX_PM@@6BIRender_Mesh@@@ ; CSkeletonX_PM::`vftable'
	DD	FLAT:??_ECSkeletonX_PM@@WEE@AEPAXI@Z
CONST	ENDS
;	COMDAT ??_7CSkeletonX_PM@@6B@
CONST	SEGMENT
??_7CSkeletonX_PM@@6B@ DD FLAT:??_R4CSkeletonX_PM@@6B@	; CSkeletonX_PM::`vftable'
	DD	FLAT:?_Load_hw@CSkeletonX_ext@@MAEXAAVFvisual@@PAX@Z
	DD	FLAT:?_CollectBoneFaces@CSkeletonX_ext@@MAEXPAVFvisual@@II@Z
	DD	FLAT:?_FillVerticesHW1W@CSkeletonX_ext@@MAEXABU?$_matrix@M@@AAVCSkeletonWallmark@@ABU?$_vector3@M@@MPAVFvisual@@PAGAAV?$xr_vector@GV?$xalloc@G@@@@@Z
	DD	FLAT:?_FillVerticesHW2W@CSkeletonX_ext@@MAEXABU?$_matrix@M@@AAVCSkeletonWallmark@@ABU?$_vector3@M@@MPAVFvisual@@PAGAAV?$xr_vector@GV?$xalloc@G@@@@@Z
	DD	FLAT:?_FillVertices@CSkeletonX_ext@@MAEXABU?$_matrix@M@@AAVCSkeletonWallmark@@ABU?$_vector3@M@@MPAVFvisual@@GII@Z
	DD	FLAT:?_PickBoneHW1W@CSkeletonX_ext@@MAEHAAU?$_vector3@M@@AAMABU2@2PAVFvisual@@PAGAAV?$xr_vector@GV?$xalloc@G@@@@@Z
	DD	FLAT:?_PickBoneHW2W@CSkeletonX_ext@@MAEHAAU?$_vector3@M@@AAMABU2@2PAVFvisual@@PAGAAV?$xr_vector@GV?$xalloc@G@@@@@Z
	DD	FLAT:?_PickBone@CSkeletonX_ext@@MAEHAAU?$_vector3@M@@AAMABU2@2PAVFvisual@@GII@Z
	DD	FLAT:?SetParent@CSkeletonX@@UAEXPAVCKinematics@@@Z
	DD	FLAT:?AfterLoad@CSkeletonX_PM@@UAEXPAVCKinematics@@G@Z
	DD	FLAT:?EnumBoneVertices@CSkeletonX_PM@@UAEXAAUSEnumVerticesCallback@@G@Z
	DD	FLAT:?PickBone@CSkeletonX_PM@@UAEHAAU?$_vector3@M@@AAMABU2@2G@Z
	DD	FLAT:?FillVertices@CSkeletonX_PM@@UAEXABU?$_matrix@M@@AAVCSkeletonWallmark@@ABU?$_vector3@M@@MG@Z
CONST	ENDS
;	COMDAT ??_7CModelPool@@6B@
CONST	SEGMENT
??_7CModelPool@@6B@ DD FLAT:??_R4CModelPool@@6B@	; CModelPool::`vftable'
	DD	FLAT:??_ECModelPool@@UAEPAXI@Z
CONST	ENDS
;	COMDAT ??_SFHierrarhyVisual@@6B@
CONST	SEGMENT
??_SFHierrarhyVisual@@6B@ DD FLAT:??_R4FHierrarhyVisual@@6B@ ; FHierrarhyVisual::`local vftable'
	DD	FLAT:?Render@IRender_Visual@@UAEXM@Z
	DD	FLAT:?Load@FHierrarhyVisual@@UAEXPBDPAVIReader@@I@Z
	DD	FLAT:?Release@FHierrarhyVisual@@UAEXXZ
	DD	FLAT:?Copy@FHierrarhyVisual@@UAEXPAVIRender_Visual@@@Z
	DD	FLAT:?Spawn@IRender_Visual@@UAEXXZ
	DD	FLAT:?Depart@IRender_Visual@@UAEXXZ
	DD	FLAT:?dcast_PKinematics@IRender_Visual@@UAEPAVCKinematics@@XZ
	DD	FLAT:?dcast_PKinematicsAnimated@IRender_Visual@@UAEPAVCKinematicsAnimated@@XZ
	DD	FLAT:?dcast_ParticleCustom@IRender_Visual@@UAEPAVIParticleCustom@@XZ
	DD	FLAT:??_EFHierrarhyVisual@@UAEPAXI@Z
CONST	ENDS
;	COMDAT ??_SCKinematicsAnimated@@6B@
CONST	SEGMENT
??_SCKinematicsAnimated@@6B@ DD FLAT:??_R4CKinematicsAnimated@@6B@ ; CKinematicsAnimated::`local vftable'
	DD	FLAT:?Render@IRender_Visual@@UAEXM@Z
	DD	FLAT:?Load@CKinematicsAnimated@@UAEXPBDPAVIReader@@I@Z
	DD	FLAT:?Release@CKinematicsAnimated@@UAEXXZ
	DD	FLAT:?Copy@CKinematicsAnimated@@UAEXPAVIRender_Visual@@@Z
	DD	FLAT:?Spawn@CKinematicsAnimated@@UAEXXZ
	DD	FLAT:?Depart@CKinematics@@UAEXXZ
	DD	FLAT:?dcast_PKinematics@CKinematics@@UAEPAV1@XZ
	DD	FLAT:?dcast_PKinematicsAnimated@CKinematicsAnimated@@UAEPAV1@XZ
	DD	FLAT:?dcast_ParticleCustom@IRender_Visual@@UAEPAVIParticleCustom@@XZ
	DD	FLAT:??_ECKinematicsAnimated@@UAEPAXI@Z
	DD	FLAT:?Bone_Calculate@CKinematicsAnimated@@UAEXPAVCBoneData@@PAU?$_matrix@M@@@Z
	DD	FLAT:?OnCalculateBones@CKinematicsAnimated@@UAEXXZ
	DD	FLAT:?CreateBoneData@CKinematics@@MAEPAVCBoneData@@G@Z
	DD	FLAT:?IBoneInstances_Create@CKinematicsAnimated@@MAEXXZ
	DD	FLAT:?IBoneInstances_Destroy@CKinematicsAnimated@@MAEXXZ
	DD	FLAT:?EnumBoneVertices@CKinematics@@UAEXAAUSEnumVerticesCallback@@G@Z
	DD	FLAT:?CalculateBones@CKinematics@@UAEXH@Z
	DD	FLAT:?mem_usage@CKinematicsAnimated@@UAEI_N@Z
CONST	ENDS
;	COMDAT ??_SCKinematics@@6B@
CONST	SEGMENT
??_SCKinematics@@6B@ DD FLAT:??_R4CKinematics@@6B@	; CKinematics::`local vftable'
	DD	FLAT:?Render@IRender_Visual@@UAEXM@Z
	DD	FLAT:?Load@CKinematics@@UAEXPBDPAVIReader@@I@Z
	DD	FLAT:?Release@CKinematics@@UAEXXZ
	DD	FLAT:?Copy@CKinematics@@UAEXPAVIRender_Visual@@@Z
	DD	FLAT:?Spawn@CKinematics@@UAEXXZ
	DD	FLAT:?Depart@CKinematics@@UAEXXZ
	DD	FLAT:?dcast_PKinematics@CKinematics@@UAEPAV1@XZ
	DD	FLAT:?dcast_PKinematicsAnimated@IRender_Visual@@UAEPAVCKinematicsAnimated@@XZ
	DD	FLAT:?dcast_ParticleCustom@IRender_Visual@@UAEPAVIParticleCustom@@XZ
	DD	FLAT:??_ECKinematics@@UAEPAXI@Z
	DD	FLAT:?Bone_Calculate@CKinematics@@UAEXPAVCBoneData@@PAU?$_matrix@M@@@Z
	DD	FLAT:?OnCalculateBones@CKinematics@@UAEXXZ
	DD	FLAT:?CreateBoneData@CKinematics@@MAEPAVCBoneData@@G@Z
	DD	FLAT:?IBoneInstances_Create@CKinematics@@MAEXXZ
	DD	FLAT:?IBoneInstances_Destroy@CKinematics@@MAEXXZ
	DD	FLAT:?EnumBoneVertices@CKinematics@@UAEXAAUSEnumVerticesCallback@@G@Z
	DD	FLAT:?CalculateBones@CKinematics@@UAEXH@Z
	DD	FLAT:?mem_usage@CKinematics@@UAEI_N@Z
CONST	ENDS
;	COMDAT ??_7FLOD@@6B@
CONST	SEGMENT
??_7FLOD@@6B@ DD FLAT:??_R4FLOD@@6B@			; FLOD::`vftable'
	DD	FLAT:?Render@FLOD@@UAEXM@Z
	DD	FLAT:?Load@FLOD@@UAEXPBDPAVIReader@@I@Z
	DD	FLAT:?Release@FHierrarhyVisual@@UAEXXZ
	DD	FLAT:?Copy@FLOD@@UAEXPAVIRender_Visual@@@Z
	DD	FLAT:?Spawn@IRender_Visual@@UAEXXZ
	DD	FLAT:?Depart@IRender_Visual@@UAEXXZ
	DD	FLAT:?dcast_PKinematics@IRender_Visual@@UAEPAVCKinematics@@XZ
	DD	FLAT:?dcast_PKinematicsAnimated@IRender_Visual@@UAEPAVCKinematicsAnimated@@XZ
	DD	FLAT:?dcast_ParticleCustom@IRender_Visual@@UAEPAVIParticleCustom@@XZ
	DD	FLAT:??_EFLOD@@UAEPAXI@Z
CONST	ENDS
;	COMDAT ??_C@_0BB@GCADKGJO@map?1set?5too?5long@
CONST	SEGMENT
??_C@_0BB@GCADKGJO@map?1set?5too?5long@ DB 'map/set too long', 00H ; `string'
CONST	ENDS
;	COMDAT ??_R4CKinematics@@6B@
rdata$r	SEGMENT
??_R4CKinematics@@6B@ DD 00H				; CKinematics::`RTTI Complete Object Locator'
	DD	00H
	DD	00H
	DD	FLAT:??_R0?AVCKinematics@@@8
	DD	FLAT:??_R3CKinematics@@8
rdata$r	ENDS
;	COMDAT ??_R4CKinematicsAnimated@@6B@
rdata$r	SEGMENT
??_R4CKinematicsAnimated@@6B@ DD 00H			; CKinematicsAnimated::`RTTI Complete Object Locator'
	DD	00H
	DD	00H
	DD	FLAT:??_R0?AVCKinematicsAnimated@@@8
	DD	FLAT:??_R3CKinematicsAnimated@@8
rdata$r	ENDS
;	COMDAT ??_R4CModelPool@@6B@
rdata$r	SEGMENT
??_R4CModelPool@@6B@ DD 00H				; CModelPool::`RTTI Complete Object Locator'
	DD	00H
	DD	00H
	DD	FLAT:??_R0?AVCModelPool@@@8
	DD	FLAT:??_R3CModelPool@@8
rdata$r	ENDS
;	COMDAT ??_R4FHierrarhyVisual@@6B@
rdata$r	SEGMENT
??_R4FHierrarhyVisual@@6B@ DD 00H			; FHierrarhyVisual::`RTTI Complete Object Locator'
	DD	00H
	DD	00H
	DD	FLAT:??_R0?AVFHierrarhyVisual@@@8
	DD	FLAT:??_R3FHierrarhyVisual@@8
rdata$r	ENDS
;	COMDAT ??_R4CSkeletonX_ext@@6B@
rdata$r	SEGMENT
??_R4CSkeletonX_ext@@6B@ DD 00H				; CSkeletonX_ext::`RTTI Complete Object Locator'
	DD	00H
	DD	00H
	DD	FLAT:??_R0?AVCSkeletonX_ext@@@8
	DD	FLAT:??_R3CSkeletonX_ext@@8
rdata$r	ENDS
;	COMDAT ??_R4CSkeletonX_ST@@6BIRender_Visual@@@
rdata$r	SEGMENT
??_R4CSkeletonX_ST@@6BIRender_Visual@@@ DD 00H		; CSkeletonX_ST::`RTTI Complete Object Locator'
	DD	00H
	DD	00H
	DD	FLAT:??_R0?AVCSkeletonX_ST@@@8
	DD	FLAT:??_R3CSkeletonX_ST@@8
rdata$r	ENDS
;	COMDAT ??_R4CSkeletonX_ST@@6BIRender_Mesh@@@
rdata$r	SEGMENT
??_R4CSkeletonX_ST@@6BIRender_Mesh@@@ DD 00H		; CSkeletonX_ST::`RTTI Complete Object Locator'
	DD	044H
	DD	00H
	DD	FLAT:??_R0?AVCSkeletonX_ST@@@8
	DD	FLAT:??_R3CSkeletonX_ST@@8
rdata$r	ENDS
;	COMDAT ??_R4CSkeletonX_ST@@6B@
rdata$r	SEGMENT
??_R4CSkeletonX_ST@@6B@ DD 00H				; CSkeletonX_ST::`RTTI Complete Object Locator'
	DD	06cH
	DD	00H
	DD	FLAT:??_R0?AVCSkeletonX_ST@@@8
	DD	FLAT:??_R3CSkeletonX_ST@@8
rdata$r	ENDS
;	COMDAT ??_R4CSkeletonX_PM@@6BIRender_Visual@@@
rdata$r	SEGMENT
??_R4CSkeletonX_PM@@6BIRender_Visual@@@ DD 00H		; CSkeletonX_PM::`RTTI Complete Object Locator'
	DD	00H
	DD	00H
	DD	FLAT:??_R0?AVCSkeletonX_PM@@@8
	DD	FLAT:??_R3CSkeletonX_PM@@8
rdata$r	ENDS
;	COMDAT ??_R4CSkeletonX_PM@@6BIRender_Mesh@@@
rdata$r	SEGMENT
??_R4CSkeletonX_PM@@6BIRender_Mesh@@@ DD 00H		; CSkeletonX_PM::`RTTI Complete Object Locator'
	DD	044H
	DD	00H
	DD	FLAT:??_R0?AVCSkeletonX_PM@@@8
	DD	FLAT:??_R3CSkeletonX_PM@@8
rdata$r	ENDS
;	COMDAT ??_R4CSkeletonX_PM@@6B@
rdata$r	SEGMENT
??_R4CSkeletonX_PM@@6B@ DD 00H				; CSkeletonX_PM::`RTTI Complete Object Locator'
	DD	08cH
	DD	00H
	DD	FLAT:??_R0?AVCSkeletonX_PM@@@8
	DD	FLAT:??_R3CSkeletonX_PM@@8
rdata$r	ENDS
;	COMDAT ??_R4FLOD@@6B@
rdata$r	SEGMENT
??_R4FLOD@@6B@ DD 00H					; FLOD::`RTTI Complete Object Locator'
	DD	00H
	DD	00H
	DD	FLAT:??_R0?AVFLOD@@@8
	DD	FLAT:??_R3FLOD@@8
rdata$r	ENDS
;	COMDAT ??_R0?AVCKinematics@@@8
data$rs	SEGMENT
??_R0?AVCKinematics@@@8 DD FLAT:??_7type_info@@6B@	; CKinematics `RTTI Type Descriptor'
	DD	00H
	DB	'.?AVCKinematics@@', 00H
data$rs	ENDS
;	COMDAT ??_R3CKinematics@@8
rdata$r	SEGMENT
??_R3CKinematics@@8 DD 00H				; CKinematics::`RTTI Class Hierarchy Descriptor'
	DD	00H
	DD	03H
	DD	FLAT:??_R2CKinematics@@8
rdata$r	ENDS
;	COMDAT ??_R0?AVFHierrarhyVisual@@@8
data$rs	SEGMENT
??_R0?AVFHierrarhyVisual@@@8 DD FLAT:??_7type_info@@6B@	; FHierrarhyVisual `RTTI Type Descriptor'
	DD	00H
	DB	'.?AVFHierrarhyVisual@@', 00H
data$rs	ENDS
;	COMDAT ??_R3FHierrarhyVisual@@8
rdata$r	SEGMENT
??_R3FHierrarhyVisual@@8 DD 00H				; FHierrarhyVisual::`RTTI Class Hierarchy Descriptor'
	DD	00H
	DD	02H
	DD	FLAT:??_R2FHierrarhyVisual@@8
rdata$r	ENDS
;	COMDAT ??_R0?AVCKinematicsAnimated@@@8
data$rs	SEGMENT
??_R0?AVCKinematicsAnimated@@@8 DD FLAT:??_7type_info@@6B@ ; CKinematicsAnimated `RTTI Type Descriptor'
	DD	00H
	DB	'.?AVCKinematicsAnimated@@', 00H
data$rs	ENDS
;	COMDAT ??_R3CKinematicsAnimated@@8
rdata$r	SEGMENT
??_R3CKinematicsAnimated@@8 DD 00H			; CKinematicsAnimated::`RTTI Class Hierarchy Descriptor'
	DD	00H
	DD	04H
	DD	FLAT:??_R2CKinematicsAnimated@@8
rdata$r	ENDS
;	COMDAT ??_R0?AVCModelPool@@@8
data$rs	SEGMENT
??_R0?AVCModelPool@@@8 DD FLAT:??_7type_info@@6B@	; CModelPool `RTTI Type Descriptor'
	DD	00H
	DB	'.?AVCModelPool@@', 00H
data$rs	ENDS
;	COMDAT ??_R3CModelPool@@8
rdata$r	SEGMENT
??_R3CModelPool@@8 DD 00H				; CModelPool::`RTTI Class Hierarchy Descriptor'
	DD	00H
	DD	01H
	DD	FLAT:??_R2CModelPool@@8
rdata$r	ENDS
;	COMDAT ??_R0?AVCSkeletonX_ext@@@8
data$rs	SEGMENT
??_R0?AVCSkeletonX_ext@@@8 DD FLAT:??_7type_info@@6B@	; CSkeletonX_ext `RTTI Type Descriptor'
	DD	00H
	DB	'.?AVCSkeletonX_ext@@', 00H
data$rs	ENDS
;	COMDAT ??_R3CSkeletonX_ext@@8
rdata$r	SEGMENT
??_R3CSkeletonX_ext@@8 DD 00H				; CSkeletonX_ext::`RTTI Class Hierarchy Descriptor'
	DD	00H
	DD	02H
	DD	FLAT:??_R2CSkeletonX_ext@@8
rdata$r	ENDS
;	COMDAT ??_R0?AVCSkeletonX@@@8
data$rs	SEGMENT
??_R0?AVCSkeletonX@@@8 DD FLAT:??_7type_info@@6B@	; CSkeletonX `RTTI Type Descriptor'
	DD	00H
	DB	'.?AVCSkeletonX@@', 00H
data$rs	ENDS
;	COMDAT ??_R3CSkeletonX@@8
rdata$r	SEGMENT
??_R3CSkeletonX@@8 DD 00H				; CSkeletonX::`RTTI Class Hierarchy Descriptor'
	DD	00H
	DD	01H
	DD	FLAT:??_R2CSkeletonX@@8
rdata$r	ENDS
;	COMDAT ??_R0?AVCSkeletonX_ST@@@8
data$rs	SEGMENT
??_R0?AVCSkeletonX_ST@@@8 DD FLAT:??_7type_info@@6B@	; CSkeletonX_ST `RTTI Type Descriptor'
	DD	00H
	DB	'.?AVCSkeletonX_ST@@', 00H
data$rs	ENDS
;	COMDAT ??_R3CSkeletonX_ST@@8
rdata$r	SEGMENT
??_R3CSkeletonX_ST@@8 DD 00H				; CSkeletonX_ST::`RTTI Class Hierarchy Descriptor'
	DD	01H
	DD	06H
	DD	FLAT:??_R2CSkeletonX_ST@@8
rdata$r	ENDS
;	COMDAT ??_R0?AVCSkeletonX_PM@@@8
data$rs	SEGMENT
??_R0?AVCSkeletonX_PM@@@8 DD FLAT:??_7type_info@@6B@	; CSkeletonX_PM `RTTI Type Descriptor'
	DD	00H
	DB	'.?AVCSkeletonX_PM@@', 00H
data$rs	ENDS
;	COMDAT ??_R3CSkeletonX_PM@@8
rdata$r	SEGMENT
??_R3CSkeletonX_PM@@8 DD 00H				; CSkeletonX_PM::`RTTI Class Hierarchy Descriptor'
	DD	01H
	DD	07H
	DD	FLAT:??_R2CSkeletonX_PM@@8
rdata$r	ENDS
;	COMDAT ??_R0?AVFLOD@@@8
data$rs	SEGMENT
??_R0?AVFLOD@@@8 DD FLAT:??_7type_info@@6B@		; FLOD `RTTI Type Descriptor'
	DD	00H
	DB	'.?AVFLOD@@', 00H
data$rs	ENDS
;	COMDAT ??_R3FLOD@@8
rdata$r	SEGMENT
??_R3FLOD@@8 DD	00H					; FLOD::`RTTI Class Hierarchy Descriptor'
	DD	00H
	DD	03H
	DD	FLAT:??_R2FLOD@@8
rdata$r	ENDS
;	COMDAT ??_R1A@?0A@EA@FHierrarhyVisual@@8
rdata$r	SEGMENT
??_R1A@?0A@EA@FHierrarhyVisual@@8 DD FLAT:??_R0?AVFHierrarhyVisual@@@8 ; FHierrarhyVisual::`RTTI Base Class Descriptor at (0,-1,0,64)'
	DD	01H
	DD	00H
	DD	0ffffffffH
	DD	00H
	DD	040H
	DD	FLAT:??_R3FHierrarhyVisual@@8
rdata$r	ENDS
;	COMDAT ??_R1A@?0A@EA@CKinematics@@8
rdata$r	SEGMENT
??_R1A@?0A@EA@CKinematics@@8 DD FLAT:??_R0?AVCKinematics@@@8 ; CKinematics::`RTTI Base Class Descriptor at (0,-1,0,64)'
	DD	02H
	DD	00H
	DD	0ffffffffH
	DD	00H
	DD	040H
	DD	FLAT:??_R3CKinematics@@8
rdata$r	ENDS
;	COMDAT ??_R1A@?0A@EA@CKinematicsAnimated@@8
rdata$r	SEGMENT
??_R1A@?0A@EA@CKinematicsAnimated@@8 DD FLAT:??_R0?AVCKinematicsAnimated@@@8 ; CKinematicsAnimated::`RTTI Base Class Descriptor at (0,-1,0,64)'
	DD	03H
	DD	00H
	DD	0ffffffffH
	DD	00H
	DD	040H
	DD	FLAT:??_R3CKinematicsAnimated@@8
rdata$r	ENDS
;	COMDAT ??_R1A@?0A@EA@CModelPool@@8
rdata$r	SEGMENT
??_R1A@?0A@EA@CModelPool@@8 DD FLAT:??_R0?AVCModelPool@@@8 ; CModelPool::`RTTI Base Class Descriptor at (0,-1,0,64)'
	DD	00H
	DD	00H
	DD	0ffffffffH
	DD	00H
	DD	040H
	DD	FLAT:??_R3CModelPool@@8
rdata$r	ENDS
;	COMDAT ??_R1A@?0A@EA@CSkeletonX@@8
rdata$r	SEGMENT
??_R1A@?0A@EA@CSkeletonX@@8 DD FLAT:??_R0?AVCSkeletonX@@@8 ; CSkeletonX::`RTTI Base Class Descriptor at (0,-1,0,64)'
	DD	00H
	DD	00H
	DD	0ffffffffH
	DD	00H
	DD	040H
	DD	FLAT:??_R3CSkeletonX@@8
rdata$r	ENDS
;	COMDAT ??_R1A@?0A@EA@CSkeletonX_ext@@8
rdata$r	SEGMENT
??_R1A@?0A@EA@CSkeletonX_ext@@8 DD FLAT:??_R0?AVCSkeletonX_ext@@@8 ; CSkeletonX_ext::`RTTI Base Class Descriptor at (0,-1,0,64)'
	DD	01H
	DD	00H
	DD	0ffffffffH
	DD	00H
	DD	040H
	DD	FLAT:??_R3CSkeletonX_ext@@8
rdata$r	ENDS
;	COMDAT ??_R1A@?0A@EA@CSkeletonX_ST@@8
rdata$r	SEGMENT
??_R1A@?0A@EA@CSkeletonX_ST@@8 DD FLAT:??_R0?AVCSkeletonX_ST@@@8 ; CSkeletonX_ST::`RTTI Base Class Descriptor at (0,-1,0,64)'
	DD	05H
	DD	00H
	DD	0ffffffffH
	DD	00H
	DD	040H
	DD	FLAT:??_R3CSkeletonX_ST@@8
rdata$r	ENDS
;	COMDAT ??_R1GM@?0A@EA@CSkeletonX_ext@@8
rdata$r	SEGMENT
??_R1GM@?0A@EA@CSkeletonX_ext@@8 DD FLAT:??_R0?AVCSkeletonX_ext@@@8 ; CSkeletonX_ext::`RTTI Base Class Descriptor at (108,-1,0,64)'
	DD	01H
	DD	06cH
	DD	0ffffffffH
	DD	00H
	DD	040H
	DD	FLAT:??_R3CSkeletonX_ext@@8
rdata$r	ENDS
;	COMDAT ??_R1GM@?0A@EA@CSkeletonX@@8
rdata$r	SEGMENT
??_R1GM@?0A@EA@CSkeletonX@@8 DD FLAT:??_R0?AVCSkeletonX@@@8 ; CSkeletonX::`RTTI Base Class Descriptor at (108,-1,0,64)'
	DD	00H
	DD	06cH
	DD	0ffffffffH
	DD	00H
	DD	040H
	DD	FLAT:??_R3CSkeletonX@@8
rdata$r	ENDS
;	COMDAT ??_R1A@?0A@EA@CSkeletonX_PM@@8
rdata$r	SEGMENT
??_R1A@?0A@EA@CSkeletonX_PM@@8 DD FLAT:??_R0?AVCSkeletonX_PM@@@8 ; CSkeletonX_PM::`RTTI Base Class Descriptor at (0,-1,0,64)'
	DD	06H
	DD	00H
	DD	0ffffffffH
	DD	00H
	DD	040H
	DD	FLAT:??_R3CSkeletonX_PM@@8
rdata$r	ENDS
;	COMDAT ??_R1IM@?0A@EA@CSkeletonX_ext@@8
rdata$r	SEGMENT
??_R1IM@?0A@EA@CSkeletonX_ext@@8 DD FLAT:??_R0?AVCSkeletonX_ext@@@8 ; CSkeletonX_ext::`RTTI Base Class Descriptor at (140,-1,0,64)'
	DD	01H
	DD	08cH
	DD	0ffffffffH
	DD	00H
	DD	040H
	DD	FLAT:??_R3CSkeletonX_ext@@8
rdata$r	ENDS
;	COMDAT ??_R1IM@?0A@EA@CSkeletonX@@8
rdata$r	SEGMENT
??_R1IM@?0A@EA@CSkeletonX@@8 DD FLAT:??_R0?AVCSkeletonX@@@8 ; CSkeletonX::`RTTI Base Class Descriptor at (140,-1,0,64)'
	DD	00H
	DD	08cH
	DD	0ffffffffH
	DD	00H
	DD	040H
	DD	FLAT:??_R3CSkeletonX@@8
rdata$r	ENDS
;	COMDAT ??_R1A@?0A@EA@FLOD@@8
rdata$r	SEGMENT
??_R1A@?0A@EA@FLOD@@8 DD FLAT:??_R0?AVFLOD@@@8		; FLOD::`RTTI Base Class Descriptor at (0,-1,0,64)'
	DD	02H
	DD	00H
	DD	0ffffffffH
	DD	00H
	DD	040H
	DD	FLAT:??_R3FLOD@@8
rdata$r	ENDS
;	COMDAT ??_R2FHierrarhyVisual@@8
rdata$r	SEGMENT
??_R2FHierrarhyVisual@@8 DD FLAT:??_R1A@?0A@EA@FHierrarhyVisual@@8 ; FHierrarhyVisual::`RTTI Base Class Array'
	DD	FLAT:??_R1A@?0A@EA@IRender_Visual@@8
rdata$r	ENDS
;	COMDAT ??_R2CKinematics@@8
rdata$r	SEGMENT
??_R2CKinematics@@8 DD FLAT:??_R1A@?0A@EA@CKinematics@@8 ; CKinematics::`RTTI Base Class Array'
	DD	FLAT:??_R1A@?0A@EA@FHierrarhyVisual@@8
	DD	FLAT:??_R1A@?0A@EA@IRender_Visual@@8
rdata$r	ENDS
;	COMDAT ??_R2CKinematicsAnimated@@8
rdata$r	SEGMENT
??_R2CKinematicsAnimated@@8 DD FLAT:??_R1A@?0A@EA@CKinematicsAnimated@@8 ; CKinematicsAnimated::`RTTI Base Class Array'
	DD	FLAT:??_R1A@?0A@EA@CKinematics@@8
	DD	FLAT:??_R1A@?0A@EA@FHierrarhyVisual@@8
	DD	FLAT:??_R1A@?0A@EA@IRender_Visual@@8
rdata$r	ENDS
;	COMDAT ??_R2CModelPool@@8
rdata$r	SEGMENT
??_R2CModelPool@@8 DD FLAT:??_R1A@?0A@EA@CModelPool@@8	; CModelPool::`RTTI Base Class Array'
rdata$r	ENDS
;	COMDAT ??_R2CSkeletonX@@8
rdata$r	SEGMENT
??_R2CSkeletonX@@8 DD FLAT:??_R1A@?0A@EA@CSkeletonX@@8	; CSkeletonX::`RTTI Base Class Array'
rdata$r	ENDS
;	COMDAT ??_R2CSkeletonX_ext@@8
rdata$r	SEGMENT
??_R2CSkeletonX_ext@@8 DD FLAT:??_R1A@?0A@EA@CSkeletonX_ext@@8 ; CSkeletonX_ext::`RTTI Base Class Array'
	DD	FLAT:??_R1A@?0A@EA@CSkeletonX@@8
rdata$r	ENDS
;	COMDAT ??_R2CSkeletonX_ST@@8
rdata$r	SEGMENT
??_R2CSkeletonX_ST@@8 DD FLAT:??_R1A@?0A@EA@CSkeletonX_ST@@8 ; CSkeletonX_ST::`RTTI Base Class Array'
	DD	FLAT:??_R1A@?0A@EA@Fvisual@@8
	DD	FLAT:??_R1A@?0A@EA@IRender_Visual@@8
	DD	FLAT:??_R1EE@?0A@EA@IRender_Mesh@@8
	DD	FLAT:??_R1GM@?0A@EA@CSkeletonX_ext@@8
	DD	FLAT:??_R1GM@?0A@EA@CSkeletonX@@8
rdata$r	ENDS
;	COMDAT ??_R2CSkeletonX_PM@@8
rdata$r	SEGMENT
??_R2CSkeletonX_PM@@8 DD FLAT:??_R1A@?0A@EA@CSkeletonX_PM@@8 ; CSkeletonX_PM::`RTTI Base Class Array'
	DD	FLAT:??_R1A@?0A@EA@FProgressive@@8
	DD	FLAT:??_R1A@?0A@EA@Fvisual@@8
	DD	FLAT:??_R1A@?0A@EA@IRender_Visual@@8
	DD	FLAT:??_R1EE@?0A@EA@IRender_Mesh@@8
	DD	FLAT:??_R1IM@?0A@EA@CSkeletonX_ext@@8
	DD	FLAT:??_R1IM@?0A@EA@CSkeletonX@@8
rdata$r	ENDS
;	COMDAT ??_R2FLOD@@8
rdata$r	SEGMENT
??_R2FLOD@@8 DD	FLAT:??_R1A@?0A@EA@FLOD@@8		; FLOD::`RTTI Base Class Array'
	DD	FLAT:??_R1A@?0A@EA@FHierrarhyVisual@@8
	DD	FLAT:??_R1A@?0A@EA@IRender_Visual@@8
rdata$r	ENDS
;	COMDAT ??_C@_0BI@NKKAEFLK@?9?9?9?5model?5pool?5?9?9?9?5end?4@
CONST	SEGMENT
??_C@_0BI@NKKAEFLK@?9?9?9?5model?5pool?5?9?9?9?5end?4@ DB '--- model pool'
	DB	' --- end.', 00H				; `string'
CONST	ENDS
;	COMDAT ??_C@_0CO@FIEPEEB@?9?9?9?5instances?3?5?$CFd?0?5free?5?$CFd?0?5mem@
CONST	SEGMENT
??_C@_0CO@FIEPEEB@?9?9?9?5instances?3?5?$CFd?0?5free?5?$CFd?0?5mem@ DB '-'
	DB	'-- instances: %d, free %d, mem usage: %d Kb ', 00H ; `string'
CONST	ENDS
;	COMDAT ??_C@_0BJ@BHPDLEKJ@?$CD?$CF3d?3?5?$FL?$CFs?$FN?5?$FL?$CF5d?5Kb?$FN?5?9?5?$CFs@
CONST	SEGMENT
??_C@_0BJ@BHPDLEKJ@?$CD?$CF3d?3?5?$FL?$CFs?$FN?5?$FL?$CF5d?5Kb?$FN?5?9?5?$CFs@ DB '#'
	DB	'%3d: [%s] [%5d Kb] - %s', 00H		; `string'
CONST	ENDS
;	COMDAT ??_C@_04DOOIMPEH@used@
CONST	SEGMENT
??_C@_04DOOIMPEH@used@ DB 'used', 00H			; `string'
CONST	ENDS
;	COMDAT ??_C@_04LIAPHEDB@free@
CONST	SEGMENT
??_C@_04LIAPHEDB@free@ DB 'free', 00H			; `string'
CONST	ENDS
;	COMDAT ??_C@_0CC@JAFLBMEJ@?9?9?9?5models?3?5?$CFd?0?5mem?5usage?3?5?$CFd?5K@
CONST	SEGMENT
??_C@_0CC@JAFLBMEJ@?9?9?9?5models?3?5?$CFd?0?5mem?5usage?3?5?$CFd?5K@ DB '-'
	DB	'-- models: %d, mem usage: %d Kb ', 00H	; `string'
CONST	ENDS
;	COMDAT ??_C@_0BI@BMBKIPKJ@?$CD?$CF3d?3?5?$FL?$CF3d?1?$CF5d?5Kb?$FN?5?9?5?$CFs@
CONST	SEGMENT
??_C@_0BI@BMBKIPKJ@?$CD?$CF3d?3?5?$FL?$CF3d?1?$CF5d?5Kb?$FN?5?9?5?$CFs@ DB '#'
	DB	'%3d: [%3d/%5d Kb] - %s', 00H		; `string'
CONST	ENDS
;	COMDAT ??_C@_0BK@JBHPMFMH@?9?9?9?5model?5pool?5?9?9?9?5begin?3@
CONST	SEGMENT
??_C@_0BK@JBHPMFMH@?9?9?9?5model?5pool?5?9?9?9?5begin?3@ DB '--- model po'
	DB	'ol --- begin:', 00H				; `string'
CONST	ENDS
;	COMDAT ??_C@_0BC@DJGLAOAH@prefetch_visuals_@
CONST	SEGMENT
??_C@_0BC@DJGLAOAH@prefetch_visuals_@ DB 'prefetch_visuals_', 00H ; `string'
CONST	ENDS
;	COMDAT ??_C@_0BK@KFOEMNN@CModelPool?3?3Instance_Load@
CONST	SEGMENT
??_C@_0BK@KFOEMNN@CModelPool?3?3Instance_Load@ DB 'CModelPool::Instance_L'
	DB	'oad', 00H					; `string'
CONST	ENDS
;	COMDAT ??_C@_0BM@ENFCPNEL@Can?8t?5find?5model?5file?5?8?$CFs?8?4@
CONST	SEGMENT
??_C@_0BM@ENFCPNEL@Can?8t?5find?5model?5file?5?8?$CFs?8?4@ DB 'Can''t fin'
	DB	'd model file ''%s''.', 00H			; `string'
CONST	ENDS
;	COMDAT ??_C@_0O@CGKNLCGD@$game_meshes$@
CONST	SEGMENT
??_C@_0O@CGKNLCGD@$game_meshes$@ DB '$game_meshes$', 00H ; `string'
CONST	ENDS
;	COMDAT ??_C@_04FKFGGPFG@?4ogf@
CONST	SEGMENT
??_C@_04FKFGGPFG@?4ogf@ DB '.ogf', 00H			; `string'
CONST	ENDS
;	COMDAT ??_C@_0BP@KMCMNMJD@CModelPool?3?3Instance_Duplicate@
CONST	SEGMENT
??_C@_0BP@KMCMNMJD@CModelPool?3?3Instance_Duplicate@ DB 'CModelPool::Inst'
	DB	'ance_Duplicate', 00H			; `string'
CONST	ENDS
;	COMDAT ??_C@_01FCMHBHNC@V@
CONST	SEGMENT
??_C@_01FCMHBHNC@V@ DB 'V', 00H				; `string'
CONST	ENDS
;	COMDAT ??_C@_0DJ@HJNKECDB@I?3?2Vitalya?2mine?2NSProjectX?2laye@
CONST	SEGMENT
??_C@_0DJ@HJNKECDB@I?3?2Vitalya?2mine?2NSProjectX?2laye@ DB 'I:\Vitalya\m'
	DB	'ine\NSProjectX\layers\xrRender\ModelPool.cpp', 00H ; `string'
CONST	ENDS
;	COMDAT ??_C@_0BM@ILNANEIH@CModelPool?3?3Instance_Create@
CONST	SEGMENT
??_C@_0BM@ILNANEIH@CModelPool?3?3Instance_Create@ DB 'CModelPool::Instanc'
	DB	'e_Create', 00H				; `string'
CONST	ENDS
;	COMDAT ??_C@_0BE@EBDNGAIE@Unknown?5visual?5type@
CONST	SEGMENT
??_C@_0BE@EBDNGAIE@Unknown?5visual?5type@ DB 'Unknown visual type', 00H ; `string'
?_Fake_alloc@std@@3U_Fake_allocator@1@B	ORG $+1		; std::_Fake_alloc
PUBLIC	?xr_strcmp@@YAHABVshared_str@@0@Z		; xr_strcmp
PUBLIC	?xr_strcmp@@YAHPBD0@Z				; xr_strcmp
PUBLIC	?equal@shared_str@@QBE_NABV1@@Z			; shared_str::equal
PUBLIC	??0shared_str@@QAE@PBD@Z			; shared_str::shared_str
PUBLIC	?strext@@YAPADPBD@Z				; strext
PUBLIC	??0ModelDef@CModelPool@@QAE@XZ			; CModelPool::ModelDef::ModelDef
PUBLIC	??Ashared_str@@QAEDI@Z				; shared_str::operator[]
PUBLIC	?push_back@?$vector@PAVIRender_Visual@@V?$xalloc@PAVIRender_Visual@@@@@std@@QAEXABQAVIRender_Visual@@@Z ; std::vector<IRender_Visual *,xalloc<IRender_Visual *> >::push_back
PUBLIC	??$emplace_back@ABQAVIRender_Visual@@@?$vector@PAVIRender_Visual@@V?$xalloc@PAVIRender_Visual@@@@@std@@QAE?A_TABQAVIRender_Visual@@@Z ; std::vector<IRender_Visual *,xalloc<IRender_Visual *> >::emplace_back<IRender_Visual * const &>
PUBLIC	??$forward@ABQAVIRender_Visual@@@std@@YAABQAVIRender_Visual@@ABQAV1@@Z ; std::forward<IRender_Visual * const &>
PUBLIC	??$_Emplace_reallocate@ABQAVIRender_Visual@@@?$vector@PAVIRender_Visual@@V?$xalloc@PAVIRender_Visual@@@@@std@@QAEPAPAVIRender_Visual@@QAPAV2@ABQAV2@@Z ; std::vector<IRender_Visual *,xalloc<IRender_Visual *> >::_Emplace_reallocate<IRender_Visual * const &>
PUBLIC	?_Change_array@?$vector@PAVIRender_Visual@@V?$xalloc@PAVIRender_Visual@@@@@std@@AAEXQAPAVIRender_Visual@@II@Z ; std::vector<IRender_Visual *,xalloc<IRender_Visual *> >::_Change_array
PUBLIC	?_Getal@?$vector@PAVIRender_Visual@@V?$xalloc@PAVIRender_Visual@@@@@std@@AAEAAV?$xalloc@PAVIRender_Visual@@@@XZ ; std::vector<IRender_Visual *,xalloc<IRender_Visual *> >::_Getal
PUBLIC	?_Get_first@?$_Compressed_pair@V?$xalloc@PAVIRender_Visual@@@@V?$_Vector_val@U?$_Simple_types@PAVIRender_Visual@@@std@@@std@@$00@std@@QAEAAV?$xalloc@PAVIRender_Visual@@@@XZ ; std::_Compressed_pair<xalloc<IRender_Visual *>,std::_Vector_val<std::_Simple_types<IRender_Visual *> >,1>::_Get_first
PUBLIC	?deallocate@?$xalloc@PAVIRender_Visual@@@@QBEXPAPAVIRender_Visual@@I@Z ; xalloc<IRender_Visual *>::deallocate
PUBLIC	??$xr_free@PAVIRender_Visual@@@@YAXAAPAPAVIRender_Visual@@@Z ; xr_free<IRender_Visual *>
PUBLIC	?_Destroy@?$vector@PAVIRender_Visual@@V?$xalloc@PAVIRender_Visual@@@@@std@@AAEXPAPAVIRender_Visual@@0@Z ; std::vector<IRender_Visual *,xalloc<IRender_Visual *> >::_Destroy
PUBLIC	??$_Destroy_range@V?$xalloc@PAVIRender_Visual@@@@@std@@YAXPAPAVIRender_Visual@@QAPAV1@AAV?$xalloc@PAVIRender_Visual@@@@@Z ; std::_Destroy_range<xalloc<IRender_Visual *> >
PUBLIC	??$_Unfancy@PAVIRender_Visual@@@std@@YAPAPAVIRender_Visual@@PAPAV1@@Z ; std::_Unfancy<IRender_Visual *>
PUBLIC	??$destroy@PAVIRender_Visual@@@?$_Normal_allocator_traits@V?$xalloc@PAVIRender_Visual@@@@@std@@SAXAAV?$xalloc@PAVIRender_Visual@@@@PAPAVIRender_Visual@@@Z ; std::_Normal_allocator_traits<xalloc<IRender_Visual *> >::destroy<IRender_Visual *>
PUBLIC	?destroy@?$xalloc@PAVIRender_Visual@@@@QAEXPAPAVIRender_Visual@@@Z ; xalloc<IRender_Visual *>::destroy
PUBLIC	??$_Destroy_in_place@PAPAVIRender_Visual@@@std@@YAXAAPAPAVIRender_Visual@@@Z ; std::_Destroy_in_place<IRender_Visual * *>
PUBLIC	?_Umove@?$vector@PAVIRender_Visual@@V?$xalloc@PAVIRender_Visual@@@@@std@@AAEPAPAVIRender_Visual@@PAPAV3@00@Z ; std::vector<IRender_Visual *,xalloc<IRender_Visual *> >::_Umove
PUBLIC	??$_Uninitialized_move@PAPAVIRender_Visual@@V?$xalloc@PAVIRender_Visual@@@@@std@@YAPAPAVIRender_Visual@@QAPAV1@0PAPAV1@AAV?$xalloc@PAVIRender_Visual@@@@@Z ; std::_Uninitialized_move<IRender_Visual * *,xalloc<IRender_Visual *> >
PUBLIC	?_Release@?$_Uninitialized_backout_al@V?$xalloc@PAVIRender_Visual@@@@@std@@QAEPAPAVIRender_Visual@@XZ ; std::_Uninitialized_backout_al<xalloc<IRender_Visual *> >::_Release
PUBLIC	??$move@AAPAVIRender_Visual@@@std@@YA$$QAPAVIRender_Visual@@AAPAV1@@Z ; std::move<IRender_Visual * &>
PUBLIC	??$_Emplace_back@PAVIRender_Visual@@@?$_Uninitialized_backout_al@V?$xalloc@PAVIRender_Visual@@@@@std@@QAEX$$QAPAVIRender_Visual@@@Z ; std::_Uninitialized_backout_al<xalloc<IRender_Visual *> >::_Emplace_back<IRender_Visual *>
PUBLIC	??$forward@PAVIRender_Visual@@@std@@YA$$QAPAVIRender_Visual@@AAPAV1@@Z ; std::forward<IRender_Visual *>
PUBLIC	??$construct@PAVIRender_Visual@@PAV1@@?$_Normal_allocator_traits@V?$xalloc@PAVIRender_Visual@@@@@std@@SAXAAV?$xalloc@PAVIRender_Visual@@@@PAPAVIRender_Visual@@$$QAPAV3@@Z ; std::_Normal_allocator_traits<xalloc<IRender_Visual *> >::construct<IRender_Visual *,IRender_Visual *>
PUBLIC	?construct@?$xalloc@PAVIRender_Visual@@@@QAEXPAPAVIRender_Visual@@ABQAV2@@Z ; xalloc<IRender_Visual *>::construct
PUBLIC	??1?$_Uninitialized_backout_al@V?$xalloc@PAVIRender_Visual@@@@@std@@QAE@XZ ; std::_Uninitialized_backout_al<xalloc<IRender_Visual *> >::~_Uninitialized_backout_al<xalloc<IRender_Visual *> >
PUBLIC	??0?$_Uninitialized_backout_al@V?$xalloc@PAVIRender_Visual@@@@@std@@QAE@PAPAVIRender_Visual@@AAV?$xalloc@PAVIRender_Visual@@@@@Z ; std::_Uninitialized_backout_al<xalloc<IRender_Visual *> >::_Uninitialized_backout_al<xalloc<IRender_Visual *> >
PUBLIC	??$_Get_unwrapped@ABQAPAVIRender_Visual@@@std@@YA?A_TABQAPAVIRender_Visual@@@Z ; std::_Get_unwrapped<IRender_Visual * * const &>
PUBLIC	?_Umove_if_noexcept@?$vector@PAVIRender_Visual@@V?$xalloc@PAVIRender_Visual@@@@@std@@AAEXPAPAVIRender_Visual@@00@Z ; std::vector<IRender_Visual *,xalloc<IRender_Visual *> >::_Umove_if_noexcept
PUBLIC	?_Umove_if_noexcept1@?$vector@PAVIRender_Visual@@V?$xalloc@PAVIRender_Visual@@@@@std@@AAEXPAPAVIRender_Visual@@00U?$integral_constant@_N$00@2@@Z ; std::vector<IRender_Visual *,xalloc<IRender_Visual *> >::_Umove_if_noexcept1
PUBLIC	??$construct@PAVIRender_Visual@@ABQAV1@@?$_Normal_allocator_traits@V?$xalloc@PAVIRender_Visual@@@@@std@@SAXAAV?$xalloc@PAVIRender_Visual@@@@PAPAVIRender_Visual@@ABQAV3@@Z ; std::_Normal_allocator_traits<xalloc<IRender_Visual *> >::construct<IRender_Visual *,IRender_Visual * const &>
PUBLIC	?allocate@?$xalloc@PAVIRender_Visual@@@@QBEPAPAVIRender_Visual@@IPBX@Z ; xalloc<IRender_Visual *>::allocate
PUBLIC	??$xr_alloc@PAVIRender_Visual@@@@YAPAPAVIRender_Visual@@I@Z ; xr_alloc<IRender_Visual *>
PUBLIC	?_Calculate_growth@?$vector@PAVIRender_Visual@@V?$xalloc@PAVIRender_Visual@@@@@std@@ABEII@Z ; std::vector<IRender_Visual *,xalloc<IRender_Visual *> >::_Calculate_growth
PUBLIC	?max_size@?$vector@PAVIRender_Visual@@V?$xalloc@PAVIRender_Visual@@@@@std@@QBEIXZ ; std::vector<IRender_Visual *,xalloc<IRender_Visual *> >::max_size
PUBLIC	?_Getal@?$vector@PAVIRender_Visual@@V?$xalloc@PAVIRender_Visual@@@@@std@@ABEABV?$xalloc@PAVIRender_Visual@@@@XZ ; std::vector<IRender_Visual *,xalloc<IRender_Visual *> >::_Getal
PUBLIC	?_Get_first@?$_Compressed_pair@V?$xalloc@PAVIRender_Visual@@@@V?$_Vector_val@U?$_Simple_types@PAVIRender_Visual@@@std@@@std@@$00@std@@QBEABV?$xalloc@PAVIRender_Visual@@@@XZ ; std::_Compressed_pair<xalloc<IRender_Visual *>,std::_Vector_val<std::_Simple_types<IRender_Visual *> >,1>::_Get_first
PUBLIC	?max_size@?$_Normal_allocator_traits@V?$xalloc@PAVIRender_Visual@@@@@std@@SAIABV?$xalloc@PAVIRender_Visual@@@@@Z ; std::_Normal_allocator_traits<xalloc<IRender_Visual *> >::max_size
PUBLIC	?max_size@?$xalloc@PAVIRender_Visual@@@@QBEIXZ	; xalloc<IRender_Visual *>::max_size
PUBLIC	?capacity@?$vector@PAVIRender_Visual@@V?$xalloc@PAVIRender_Visual@@@@@std@@QBEIXZ ; std::vector<IRender_Visual *,xalloc<IRender_Visual *> >::capacity
PUBLIC	?_Xlength@?$vector@PAVIRender_Visual@@V?$xalloc@PAVIRender_Visual@@@@@std@@CAXXZ ; std::vector<IRender_Visual *,xalloc<IRender_Visual *> >::_Xlength
PUBLIC	??$_Emplace_back_with_unused_capacity@ABQAVIRender_Visual@@@?$vector@PAVIRender_Visual@@V?$xalloc@PAVIRender_Visual@@@@@std@@AAE?A_TABQAVIRender_Visual@@@Z ; std::vector<IRender_Visual *,xalloc<IRender_Visual *> >::_Emplace_back_with_unused_capacity<IRender_Visual * const &>
PUBLIC	?_Orphan_range@?$vector@PAVIRender_Visual@@V?$xalloc@PAVIRender_Visual@@@@@std@@ABEXPAPAVIRender_Visual@@0@Z ; std::vector<IRender_Visual *,xalloc<IRender_Visual *> >::_Orphan_range
PUBLIC	?size@?$xr_vector@PAVIRender_Visual@@V?$xalloc@PAVIRender_Visual@@@@@@QBEIXZ ; xr_vector<IRender_Visual *,xalloc<IRender_Visual *> >::size
PUBLIC	?size@?$vector@PAVIRender_Visual@@V?$xalloc@PAVIRender_Visual@@@@@std@@QBEIXZ ; std::vector<IRender_Visual *,xalloc<IRender_Visual *> >::size
PUBLIC	??8@YA_NABVshared_str@@0@Z			; operator==
PUBLIC	?_get@shared_str@@QBEPBUstr_value@@XZ		; shared_str::_get
PUBLIC	?Logging@CModelPool@@QAEXH@Z			; CModelPool::Logging
PUBLIC	?c_str@shared_str@@QBEPBDXZ			; shared_str::c_str
PUBLIC	?begin@?$vector@PAVIRender_Visual@@V?$xalloc@PAVIRender_Visual@@@@@std@@QAE?AV?$_Vector_iterator@V?$_Vector_val@U?$_Simple_types@PAVIRender_Visual@@@std@@@std@@@2@XZ ; std::vector<IRender_Visual *,xalloc<IRender_Visual *> >::begin
PUBLIC	??$addressof@V?$_Vector_val@U?$_Simple_types@PAVIRender_Visual@@@std@@@std@@@std@@YAPAV?$_Vector_val@U?$_Simple_types@PAVIRender_Visual@@@std@@@0@AAV10@@Z ; std::addressof<std::_Vector_val<std::_Simple_types<IRender_Visual *> > >
PUBLIC	??0?$_Vector_iterator@V?$_Vector_val@U?$_Simple_types@PAVIRender_Visual@@@std@@@std@@@std@@QAE@PAPAVIRender_Visual@@PBU_Container_base0@1@@Z ; std::_Vector_iterator<std::_Vector_val<std::_Simple_types<IRender_Visual *> > >::_Vector_iterator<std::_Vector_val<std::_Simple_types<IRender_Visual *> > >
PUBLIC	??0?$_Vector_const_iterator@V?$_Vector_val@U?$_Simple_types@PAVIRender_Visual@@@std@@@std@@@std@@QAE@PAPAVIRender_Visual@@PBU_Container_base0@1@@Z ; std::_Vector_const_iterator<std::_Vector_val<std::_Simple_types<IRender_Visual *> > >::_Vector_const_iterator<std::_Vector_val<std::_Simple_types<IRender_Visual *> > >
PUBLIC	??$forward@U_Zero_then_variadic_args_t@std@@@std@@YA$$QAU_Zero_then_variadic_args_t@0@AAU10@@Z ; std::forward<std::_Zero_then_variadic_args_t>
PUBLIC	??0?$_Vector_val@U?$_Simple_types@PAVIRender_Visual@@@std@@@std@@QAE@XZ ; std::_Vector_val<std::_Simple_types<IRender_Visual *> >::_Vector_val<std::_Simple_types<IRender_Visual *> >
PUBLIC	??4shared_str@@QAEAAV0@ABV0@@Z			; shared_str::operator=
PUBLIC	?_Getcont@_Iterator_base0@std@@QBEPBU_Container_base0@2@XZ ; std::_Iterator_base0::_Getcont
PUBLIC	??$forward@AAPAVIRender_Visual@@@std@@YAAAPAVIRender_Visual@@AAPAV1@@Z ; std::forward<IRender_Visual * &>
PUBLIC	??$forward@AAPAD@std@@YAAAPADAAPAD@Z		; std::forward<char * &>
PUBLIC	??$forward@AAVshared_str@@@std@@YAAAVshared_str@@AAV1@@Z ; std::forward<shared_str &>
PUBLIC	??Rstr_pred@CModelPool@@QBE_NABVshared_str@@0@Z	; CModelPool::str_pred::operator()
PUBLIC	?_Throw_tree_length_error@std@@YAXXZ		; std::_Throw_tree_length_error
PUBLIC	??_ECSkeletonX_ST@@WEE@AEPAXI@Z			; [thunk]:CSkeletonX_ST::`vector deleting destructor'
PUBLIC	??_ECSkeletonX_PM@@WEE@AEPAXI@Z			; [thunk]:CSkeletonX_PM::`vector deleting destructor'
PUBLIC	??$forward@Vshared_str@@@std@@YA$$QAVshared_str@@AAV1@@Z ; std::forward<shared_str>
PUBLIC	??$forward@AAPAU?$_Tree_node@U?$pair@$$CBVshared_str@@PAVIRender_Visual@@@std@@PAX@std@@@std@@YAAAPAU?$_Tree_node@U?$pair@$$CBVshared_str@@PAVIRender_Visual@@@std@@PAX@0@AAPAU10@@Z ; std::forward<std::_Tree_node<std::pair<shared_str const ,IRender_Visual *>,void *> * &>
PUBLIC	??$forward@PAD@std@@YA$$QAPADAAPAD@Z		; std::forward<char *>
PUBLIC	??$?0Vshared_str@@PAVIRender_Visual@@$0A@@?$pair@$$CBVshared_str@@PAVIRender_Visual@@@std@@QAE@$$QAU?$pair@Vshared_str@@PAVIRender_Visual@@@1@@Z ; std::pair<shared_str const ,IRender_Visual *>::pair<shared_str const ,IRender_Visual *><shared_str,IRender_Visual *,0>
PUBLIC	??$forward@PAU?$_Tree_node@U?$pair@$$CBVshared_str@@PAVIRender_Visual@@@std@@PAX@std@@@std@@YA$$QAPAU?$_Tree_node@U?$pair@$$CBVshared_str@@PAVIRender_Visual@@@std@@PAX@0@AAPAU10@@Z ; std::forward<std::_Tree_node<std::pair<shared_str const ,IRender_Visual *>,void *> *>
PUBLIC	??$_Construct_in_place@PAU?$_Tree_node@U?$pair@$$CBVshared_str@@PAVIRender_Visual@@@std@@PAX@std@@AAPAU12@@std@@YAXAAPAU?$_Tree_node@U?$pair@$$CBVshared_str@@PAVIRender_Visual@@@std@@PAX@0@0@Z ; std::_Construct_in_place<std::_Tree_node<std::pair<shared_str const ,IRender_Visual *>,void *> *,std::_Tree_node<std::pair<shared_str const ,IRender_Visual *>,void *> * &>
PUBLIC	??$construct@U?$pair@$$CBVshared_str@@PAVIRender_Visual@@@std@@U?$pair@Vshared_str@@PAVIRender_Visual@@@2@@?$_Normal_allocator_traits@V?$xalloc@U?$_Tree_node@U?$pair@$$CBVshared_str@@PAVIRender_Visual@@@std@@PAX@std@@@@@std@@SAXAAV?$xalloc@U?$_Tree_node@U?$pair@$$CBVshared_str@@PAVIRender_Visual@@@std@@PAX@std@@@@PAU?$pair@$$CBVshared_str@@PAVIRender_Visual@@@1@$$QAU?$pair@Vshared_str@@PAVIRender_Visual@@@1@@Z ; std::_Normal_allocator_traits<xalloc<std::_Tree_node<std::pair<shared_str const ,IRender_Visual *>,void *> > >::construct<std::pair<shared_str const ,IRender_Visual *>,std::pair<shared_str,IRender_Visual *> >
PUBLIC	??$?0PAVIRender_Visual@@PAD$0A@@?$pair@QAVIRender_Visual@@Vshared_str@@@std@@QAE@$$QAU?$pair@PAVIRender_Visual@@PAD@1@@Z ; std::pair<IRender_Visual * const,shared_str>::pair<IRender_Visual * const,shared_str><IRender_Visual *,char *,0>
PUBLIC	??0?$_Alloc_construct_ptr@V?$xalloc@U?$_Tree_node@U?$pair@$$CBVshared_str@@PAVIRender_Visual@@@std@@PAX@std@@@@@std@@QAE@AAV?$xalloc@U?$_Tree_node@U?$pair@$$CBVshared_str@@PAVIRender_Visual@@@std@@PAX@std@@@@@Z ; std::_Alloc_construct_ptr<xalloc<std::_Tree_node<std::pair<shared_str const ,IRender_Visual *>,void *> > >::_Alloc_construct_ptr<xalloc<std::_Tree_node<std::pair<shared_str const ,IRender_Visual *>,void *> > >
PUBLIC	?_Allocate@?$_Alloc_construct_ptr@V?$xalloc@U?$_Tree_node@U?$pair@$$CBVshared_str@@PAVIRender_Visual@@@std@@PAX@std@@@@@std@@QAEXXZ ; std::_Alloc_construct_ptr<xalloc<std::_Tree_node<std::pair<shared_str const ,IRender_Visual *>,void *> > >::_Allocate
PUBLIC	??0?$_Tree_temp_node_alloc@V?$xalloc@U?$_Tree_node@U?$pair@$$CBVshared_str@@PAVIRender_Visual@@@std@@PAX@std@@@@@std@@QAE@AAV?$xalloc@U?$_Tree_node@U?$pair@$$CBVshared_str@@PAVIRender_Visual@@@std@@PAX@std@@@@@Z ; std::_Tree_temp_node_alloc<xalloc<std::_Tree_node<std::pair<shared_str const ,IRender_Visual *>,void *> > >::_Tree_temp_node_alloc<xalloc<std::_Tree_node<std::pair<shared_str const ,IRender_Visual *>,void *> > >
PUBLIC	??$exchange@PAU?$_Tree_node@U?$pair@$$CBVshared_str@@PAVIRender_Visual@@@std@@PAX@std@@$$T@std@@YAPAU?$_Tree_node@U?$pair@$$CBVshared_str@@PAVIRender_Visual@@@std@@PAX@0@AAPAU10@$$QA$$T@Z ; std::exchange<std::_Tree_node<std::pair<shared_str const ,IRender_Visual *>,void *> *,std::nullptr_t>
PUBLIC	??$forward@V?$_Tree_iterator@V?$_Tree_val@U?$_Tree_simple_types@U?$pair@$$CBVshared_str@@PAVIRender_Visual@@@std@@@std@@@std@@@std@@@std@@YA$$QAV?$_Tree_iterator@V?$_Tree_val@U?$_Tree_simple_types@U?$pair@$$CBVshared_str@@PAVIRender_Visual@@@std@@@std@@@std@@@0@AAV10@@Z ; std::forward<std::_Tree_iterator<std::_Tree_val<std::_Tree_simple_types<std::pair<shared_str const ,IRender_Visual *> > > > >
PUBLIC	??$?0PAU?$_Tree_node@U?$pair@$$CBVshared_str@@PAVIRender_Visual@@@std@@PAX@std@@_N$0A@@?$pair@PAU?$_Tree_node@U?$pair@$$CBVshared_str@@PAVIRender_Visual@@@std@@PAX@std@@_N@std@@QAE@$$QAPAU?$_Tree_node@U?$pair@$$CBVshared_str@@PAVIRender_Visual@@@std@@PAX@1@$$QA_N@Z ; std::pair<std::_Tree_node<std::pair<shared_str const ,IRender_Visual *>,void *> *,bool>::pair<std::_Tree_node<std::pair<shared_str const ,IRender_Visual *>,void *> *,bool><std::_Tree_node<std::pair<shared_str const ,IRender_Visual *>,void *> *,bool,0>
PUBLIC	??$_Find_upper_bound@Vshared_str@@@?$_Tree@V?$_Tmap_traits@Vshared_str@@PAVIRender_Visual@@Ustr_pred@CModelPool@@V?$xalloc@U?$pair@Vshared_str@@PAVIRender_Visual@@@std@@@@$00@std@@@std@@IBE?AU?$_Tree_find_result@PAU?$_Tree_node@U?$pair@$$CBVshared_str@@PAVIRender_Visual@@@std@@PAX@std@@@1@ABVshared_str@@@Z ; std::_Tree<std::_Tmap_traits<shared_str,IRender_Visual *,CModelPool::str_pred,xalloc<std::pair<shared_str,IRender_Visual *> >,1> >::_Find_upper_bound<shared_str>
PUBLIC	??$?0U?$pair@Vshared_str@@PAVIRender_Visual@@@std@@@?$_Tree_temp_node@V?$xalloc@U?$_Tree_node@U?$pair@$$CBVshared_str@@PAVIRender_Visual@@@std@@PAX@std@@@@@std@@QAE@AAV?$xalloc@U?$_Tree_node@U?$pair@$$CBVshared_str@@PAVIRender_Visual@@@std@@PAX@std@@@@PAU?$_Tree_node@U?$pair@$$CBVshared_str@@PAVIRender_Visual@@@std@@PAX@1@$$QAU?$pair@Vshared_str@@PAVIRender_Visual@@@1@@Z ; std::_Tree_temp_node<xalloc<std::_Tree_node<std::pair<shared_str const ,IRender_Visual *>,void *> > >::_Tree_temp_node<xalloc<std::_Tree_node<std::pair<shared_str const ,IRender_Visual *>,void *> > ><std::pair<shared_str,IRender_Visual *> >
PUBLIC	??$forward@PAU?$_Tree_node@U?$pair@QAVIRender_Visual@@Vshared_str@@@std@@PAX@std@@@std@@YA$$QAPAU?$_Tree_node@U?$pair@QAVIRender_Visual@@Vshared_str@@@std@@PAX@0@AAPAU10@@Z ; std::forward<std::_Tree_node<std::pair<IRender_Visual * const,shared_str>,void *> *>
PUBLIC	??$_Construct_in_place@PAU?$_Tree_node@U?$pair@QAVIRender_Visual@@Vshared_str@@@std@@PAX@std@@AAPAU12@@std@@YAXAAPAU?$_Tree_node@U?$pair@QAVIRender_Visual@@Vshared_str@@@std@@PAX@0@0@Z ; std::_Construct_in_place<std::_Tree_node<std::pair<IRender_Visual * const,shared_str>,void *> *,std::_Tree_node<std::pair<IRender_Visual * const,shared_str>,void *> * &>
PUBLIC	??$construct@U?$pair@QAVIRender_Visual@@Vshared_str@@@std@@U?$pair@PAVIRender_Visual@@PAD@2@@?$_Normal_allocator_traits@V?$xalloc@U?$_Tree_node@U?$pair@QAVIRender_Visual@@Vshared_str@@@std@@PAX@std@@@@@std@@SAXAAV?$xalloc@U?$_Tree_node@U?$pair@QAVIRender_Visual@@Vshared_str@@@std@@PAX@std@@@@PAU?$pair@QAVIRender_Visual@@Vshared_str@@@1@$$QAU?$pair@PAVIRender_Visual@@PAD@1@@Z ; std::_Normal_allocator_traits<xalloc<std::_Tree_node<std::pair<IRender_Visual * const,shared_str>,void *> > >::construct<std::pair<IRender_Visual * const,shared_str>,std::pair<IRender_Visual *,char *> >
PUBLIC	??$forward@_N@std@@YA$$QA_NAA_N@Z		; std::forward<bool>
PUBLIC	??$forward@AAPAU?$_Tree_node@U?$pair@QAVIRender_Visual@@Vshared_str@@@std@@PAX@std@@@std@@YAAAPAU?$_Tree_node@U?$pair@QAVIRender_Visual@@Vshared_str@@@std@@PAX@0@AAPAU10@@Z ; std::forward<std::_Tree_node<std::pair<IRender_Visual * const,shared_str>,void *> * &>
PUBLIC	?max_size@?$xalloc@U?$_Tree_node@U?$pair@$$CBVshared_str@@PAVIRender_Visual@@@std@@PAX@std@@@@QBEIXZ ; xalloc<std::_Tree_node<std::pair<shared_str const ,IRender_Visual *>,void *> >::max_size
PUBLIC	?_Get_first@?$_Compressed_pair@V?$xalloc@U?$_Tree_node@U?$pair@$$CBVshared_str@@PAVIRender_Visual@@@std@@PAX@std@@@@V?$_Tree_val@U?$_Tree_simple_types@U?$pair@$$CBVshared_str@@PAVIRender_Visual@@@std@@@std@@@std@@$00@std@@QBEABV?$xalloc@U?$_Tree_node@U?$pair@$$CBVshared_str@@PAVIRender_Visual@@@std@@PAX@std@@@@XZ ; std::_Compressed_pair<xalloc<std::_Tree_node<std::pair<shared_str const ,IRender_Visual *>,void *> >,std::_Tree_val<std::_Tree_simple_types<std::pair<shared_str const ,IRender_Visual *> > >,1>::_Get_first
PUBLIC	?max_size@?$_Normal_allocator_traits@V?$xalloc@U?$_Tree_node@U?$pair@$$CBVshared_str@@PAVIRender_Visual@@@std@@PAX@std@@@@@std@@SAIABV?$xalloc@U?$_Tree_node@U?$pair@$$CBVshared_str@@PAVIRender_Visual@@@std@@PAX@std@@@@@Z ; std::_Normal_allocator_traits<xalloc<std::_Tree_node<std::pair<shared_str const ,IRender_Visual *>,void *> > >::max_size
PUBLIC	?_Getal@?$_Tree@V?$_Tmap_traits@Vshared_str@@PAVIRender_Visual@@Ustr_pred@CModelPool@@V?$xalloc@U?$pair@Vshared_str@@PAVIRender_Visual@@@std@@@@$00@std@@@std@@IBEABV?$xalloc@U?$_Tree_node@U?$pair@$$CBVshared_str@@PAVIRender_Visual@@@std@@PAX@std@@@@XZ ; std::_Tree<std::_Tmap_traits<shared_str,IRender_Visual *,CModelPool::str_pred,xalloc<std::pair<shared_str,IRender_Visual *> >,1> >::_Getal
PUBLIC	?max_size@?$_Tree@V?$_Tmap_traits@Vshared_str@@PAVIRender_Visual@@Ustr_pred@CModelPool@@V?$xalloc@U?$pair@Vshared_str@@PAVIRender_Visual@@@std@@@@$00@std@@@std@@QBEIXZ ; std::_Tree<std::_Tmap_traits<shared_str,IRender_Visual *,CModelPool::str_pred,xalloc<std::pair<shared_str,IRender_Visual *> >,1> >::max_size
PUBLIC	??0?$_Alloc_construct_ptr@V?$xalloc@U?$_Tree_node@U?$pair@QAVIRender_Visual@@Vshared_str@@@std@@PAX@std@@@@@std@@QAE@AAV?$xalloc@U?$_Tree_node@U?$pair@QAVIRender_Visual@@Vshared_str@@@std@@PAX@std@@@@@Z ; std::_Alloc_construct_ptr<xalloc<std::_Tree_node<std::pair<IRender_Visual * const,shared_str>,void *> > >::_Alloc_construct_ptr<xalloc<std::_Tree_node<std::pair<IRender_Visual * const,shared_str>,void *> > >
PUBLIC	?_Allocate@?$_Alloc_construct_ptr@V?$xalloc@U?$_Tree_node@U?$pair@QAVIRender_Visual@@Vshared_str@@@std@@PAX@std@@@@@std@@QAEXXZ ; std::_Alloc_construct_ptr<xalloc<std::_Tree_node<std::pair<IRender_Visual * const,shared_str>,void *> > >::_Allocate
PUBLIC	??1?$_Alloc_construct_ptr@V?$xalloc@U?$_Tree_node@U?$pair@$$CBVshared_str@@PAVIRender_Visual@@@std@@PAX@std@@@@@std@@QAE@XZ ; std::_Alloc_construct_ptr<xalloc<std::_Tree_node<std::pair<shared_str const ,IRender_Visual *>,void *> > >::~_Alloc_construct_ptr<xalloc<std::_Tree_node<std::pair<shared_str const ,IRender_Visual *>,void *> > >
PUBLIC	??1?$_Tree_temp_node_alloc@V?$xalloc@U?$_Tree_node@U?$pair@$$CBVshared_str@@PAVIRender_Visual@@@std@@PAX@std@@@@@std@@QAE@XZ ; std::_Tree_temp_node_alloc<xalloc<std::_Tree_node<std::pair<shared_str const ,IRender_Visual *>,void *> > >::~_Tree_temp_node_alloc<xalloc<std::_Tree_node<std::pair<shared_str const ,IRender_Visual *>,void *> > >
PUBLIC	?_Check_grow_by_1@?$_Tree@V?$_Tmap_traits@Vshared_str@@PAVIRender_Visual@@Ustr_pred@CModelPool@@V?$xalloc@U?$pair@Vshared_str@@PAVIRender_Visual@@@std@@@@$00@std@@@std@@IAEXXZ ; std::_Tree<std::_Tmap_traits<shared_str,IRender_Visual *,CModelPool::str_pred,xalloc<std::pair<shared_str,IRender_Visual *> >,1> >::_Check_grow_by_1
PUBLIC	?_Insert_node@?$_Tree_val@U?$_Tree_simple_types@U?$pair@$$CBVshared_str@@PAVIRender_Visual@@@std@@@std@@@std@@QAEPAU?$_Tree_node@U?$pair@$$CBVshared_str@@PAVIRender_Visual@@@std@@PAX@2@U?$_Tree_id@PAU?$_Tree_node@U?$pair@$$CBVshared_str@@PAVIRender_Visual@@@std@@PAX@std@@@2@QAU32@@Z ; std::_Tree_val<std::_Tree_simple_types<std::pair<shared_str const ,IRender_Visual *> > >::_Insert_node
PUBLIC	??0?$_Tree_temp_node_alloc@V?$xalloc@U?$_Tree_node@U?$pair@QAVIRender_Visual@@Vshared_str@@@std@@PAX@std@@@@@std@@QAE@AAV?$xalloc@U?$_Tree_node@U?$pair@QAVIRender_Visual@@Vshared_str@@@std@@PAX@std@@@@@Z ; std::_Tree_temp_node_alloc<xalloc<std::_Tree_node<std::pair<IRender_Visual * const,shared_str>,void *> > >::_Tree_temp_node_alloc<xalloc<std::_Tree_node<std::pair<IRender_Visual * const,shared_str>,void *> > >
PUBLIC	?_Release@?$_Alloc_construct_ptr@V?$xalloc@U?$_Tree_node@U?$pair@$$CBVshared_str@@PAVIRender_Visual@@@std@@PAX@std@@@@@std@@QAEPAU?$_Tree_node@U?$pair@$$CBVshared_str@@PAVIRender_Visual@@@std@@PAX@2@XZ ; std::_Alloc_construct_ptr<xalloc<std::_Tree_node<std::pair<shared_str const ,IRender_Visual *>,void *> > >::_Release
PUBLIC	??1?$_Tree_temp_node@V?$xalloc@U?$_Tree_node@U?$pair@$$CBVshared_str@@PAVIRender_Visual@@@std@@PAX@std@@@@@std@@QAE@XZ ; std::_Tree_temp_node<xalloc<std::_Tree_node<std::pair<shared_str const ,IRender_Visual *>,void *> > >::~_Tree_temp_node<xalloc<std::_Tree_node<std::pair<shared_str const ,IRender_Visual *>,void *> > >
PUBLIC	??$exchange@PAU?$_Tree_node@U?$pair@QAVIRender_Visual@@Vshared_str@@@std@@PAX@std@@$$T@std@@YAPAU?$_Tree_node@U?$pair@QAVIRender_Visual@@Vshared_str@@@std@@PAX@0@AAPAU10@$$QA$$T@Z ; std::exchange<std::_Tree_node<std::pair<IRender_Visual * const,shared_str>,void *> *,std::nullptr_t>
PUBLIC	??$construct@UModelDef@CModelPool@@AAU12@@?$_Normal_allocator_traits@V?$xalloc@UModelDef@CModelPool@@@@@std@@SAXAAV?$xalloc@UModelDef@CModelPool@@@@PAUModelDef@CModelPool@@AAU34@@Z ; std::_Normal_allocator_traits<xalloc<CModelPool::ModelDef> >::construct<CModelPool::ModelDef,CModelPool::ModelDef &>
PUBLIC	??$forward@AAUModelDef@CModelPool@@@std@@YAAAUModelDef@CModelPool@@AAU12@@Z ; std::forward<CModelPool::ModelDef &>
PUBLIC	??$construct@UModelDef@CModelPool@@U12@@?$_Normal_allocator_traits@V?$xalloc@UModelDef@CModelPool@@@@@std@@SAXAAV?$xalloc@UModelDef@CModelPool@@@@PAUModelDef@CModelPool@@$$QAU34@@Z ; std::_Normal_allocator_traits<xalloc<CModelPool::ModelDef> >::construct<CModelPool::ModelDef,CModelPool::ModelDef>
PUBLIC	??$forward@UModelDef@CModelPool@@@std@@YA$$QAUModelDef@CModelPool@@AAU12@@Z ; std::forward<CModelPool::ModelDef>
PUBLIC	??$?0V?$_Tree_iterator@V?$_Tree_val@U?$_Tree_simple_types@U?$pair@$$CBVshared_str@@PAVIRender_Visual@@@std@@@std@@@std@@@std@@AB_N$0A@@?$pair@V?$_Tree_iterator@V?$_Tree_val@U?$_Tree_simple_types@U?$pair@$$CBVshared_str@@PAVIRender_Visual@@@std@@@std@@@std@@@std@@_N@std@@QAE@$$QAV?$_Tree_iterator@V?$_Tree_val@U?$_Tree_simple_types@U?$pair@$$CBVshared_str@@PAVIRender_Visual@@@std@@@std@@@std@@@1@AB_N@Z ; std::pair<std::_Tree_iterator<std::_Tree_val<std::_Tree_simple_types<std::pair<shared_str const ,IRender_Visual *> > > >,bool>::pair<std::_Tree_iterator<std::_Tree_val<std::_Tree_simple_types<std::pair<shared_str const ,IRender_Visual *> > > >,bool><std::_Tree_iterator<std::_Tree_val<std::_Tree_simple_types<std::pair<shared_str const ,IRender_Visual *> > > >,bool const &,0>
PUBLIC	??$_Emplace@U?$pair@Vshared_str@@PAVIRender_Visual@@@std@@@?$_Tree@V?$_Tmap_traits@Vshared_str@@PAVIRender_Visual@@Ustr_pred@CModelPool@@V?$xalloc@U?$pair@Vshared_str@@PAVIRender_Visual@@@std@@@@$00@std@@@std@@IAE?AU?$pair@PAU?$_Tree_node@U?$pair@$$CBVshared_str@@PAVIRender_Visual@@@std@@PAX@std@@_N@1@$$QAU?$pair@Vshared_str@@PAVIRender_Visual@@@1@@Z ; std::_Tree<std::_Tmap_traits<shared_str,IRender_Visual *,CModelPool::str_pred,xalloc<std::pair<shared_str,IRender_Visual *> >,1> >::_Emplace<std::pair<shared_str,IRender_Visual *> >
PUBLIC	??$forward@AB_N@std@@YAAB_NAB_N@Z		; std::forward<bool const &>
PUBLIC	??$forward@V?$_Tree_iterator@V?$_Tree_val@U?$_Tree_simple_types@U?$pair@QAVIRender_Visual@@Vshared_str@@@std@@@std@@@std@@@std@@@std@@YA$$QAV?$_Tree_iterator@V?$_Tree_val@U?$_Tree_simple_types@U?$pair@QAVIRender_Visual@@Vshared_str@@@std@@@std@@@std@@@0@AAV10@@Z ; std::forward<std::_Tree_iterator<std::_Tree_val<std::_Tree_simple_types<std::pair<IRender_Visual * const,shared_str> > > > >
PUBLIC	??$?0PAU?$_Tree_node@U?$pair@QAVIRender_Visual@@Vshared_str@@@std@@PAX@std@@_N$0A@@?$pair@PAU?$_Tree_node@U?$pair@QAVIRender_Visual@@Vshared_str@@@std@@PAX@std@@_N@std@@QAE@$$QAPAU?$_Tree_node@U?$pair@QAVIRender_Visual@@Vshared_str@@@std@@PAX@1@$$QA_N@Z ; std::pair<std::_Tree_node<std::pair<IRender_Visual * const,shared_str>,void *> *,bool>::pair<std::_Tree_node<std::pair<IRender_Visual * const,shared_str>,void *> *,bool><std::_Tree_node<std::pair<IRender_Visual * const,shared_str>,void *> *,bool,0>
PUBLIC	??$?0U?$pair@PAVIRender_Visual@@PAD@std@@@?$_Tree_temp_node@V?$xalloc@U?$_Tree_node@U?$pair@QAVIRender_Visual@@Vshared_str@@@std@@PAX@std@@@@@std@@QAE@AAV?$xalloc@U?$_Tree_node@U?$pair@QAVIRender_Visual@@Vshared_str@@@std@@PAX@std@@@@PAU?$_Tree_node@U?$pair@QAVIRender_Visual@@Vshared_str@@@std@@PAX@1@$$QAU?$pair@PAVIRender_Visual@@PAD@1@@Z ; std::_Tree_temp_node<xalloc<std::_Tree_node<std::pair<IRender_Visual * const,shared_str>,void *> > >::_Tree_temp_node<xalloc<std::_Tree_node<std::pair<IRender_Visual * const,shared_str>,void *> > ><std::pair<IRender_Visual *,char *> >
PUBLIC	??$?0AAPAU?$_Tree_node@U?$pair@QAVIRender_Visual@@Vshared_str@@@std@@PAX@std@@_N$0A@@?$pair@PAU?$_Tree_node@U?$pair@QAVIRender_Visual@@Vshared_str@@@std@@PAX@std@@_N@std@@QAE@AAPAU?$_Tree_node@U?$pair@QAVIRender_Visual@@Vshared_str@@@std@@PAX@1@$$QA_N@Z ; std::pair<std::_Tree_node<std::pair<IRender_Visual * const,shared_str>,void *> *,bool>::pair<std::_Tree_node<std::pair<IRender_Visual * const,shared_str>,void *> *,bool><std::_Tree_node<std::pair<IRender_Visual * const,shared_str>,void *> * &,bool,0>
PUBLIC	?max_size@?$xalloc@U?$_Tree_node@U?$pair@QAVIRender_Visual@@Vshared_str@@@std@@PAX@std@@@@QBEIXZ ; xalloc<std::_Tree_node<std::pair<IRender_Visual * const,shared_str>,void *> >::max_size
PUBLIC	?_Get_first@?$_Compressed_pair@V?$xalloc@U?$_Tree_node@U?$pair@QAVIRender_Visual@@Vshared_str@@@std@@PAX@std@@@@V?$_Tree_val@U?$_Tree_simple_types@U?$pair@QAVIRender_Visual@@Vshared_str@@@std@@@std@@@std@@$00@std@@QBEABV?$xalloc@U?$_Tree_node@U?$pair@QAVIRender_Visual@@Vshared_str@@@std@@PAX@std@@@@XZ ; std::_Compressed_pair<xalloc<std::_Tree_node<std::pair<IRender_Visual * const,shared_str>,void *> >,std::_Tree_val<std::_Tree_simple_types<std::pair<IRender_Visual * const,shared_str> > >,1>::_Get_first
PUBLIC	?max_size@?$_Normal_allocator_traits@V?$xalloc@U?$_Tree_node@U?$pair@QAVIRender_Visual@@Vshared_str@@@std@@PAX@std@@@@@std@@SAIABV?$xalloc@U?$_Tree_node@U?$pair@QAVIRender_Visual@@Vshared_str@@@std@@PAX@std@@@@@Z ; std::_Normal_allocator_traits<xalloc<std::_Tree_node<std::pair<IRender_Visual * const,shared_str>,void *> > >::max_size
PUBLIC	?_Getal@?$_Tree@V?$_Tmap_traits@PAVIRender_Visual@@Vshared_str@@U?$less@PAVIRender_Visual@@@std@@V?$xalloc@U?$pair@PAVIRender_Visual@@Vshared_str@@@std@@@@$0A@@std@@@std@@IBEABV?$xalloc@U?$_Tree_node@U?$pair@QAVIRender_Visual@@Vshared_str@@@std@@PAX@std@@@@XZ ; std::_Tree<std::_Tmap_traits<IRender_Visual *,shared_str,std::less<IRender_Visual *>,xalloc<std::pair<IRender_Visual *,shared_str> >,0> >::_Getal
PUBLIC	?max_size@?$_Tree@V?$_Tmap_traits@PAVIRender_Visual@@Vshared_str@@U?$less@PAVIRender_Visual@@@std@@V?$xalloc@U?$pair@PAVIRender_Visual@@Vshared_str@@@std@@@@$0A@@std@@@std@@QBEIXZ ; std::_Tree<std::_Tmap_traits<IRender_Visual *,shared_str,std::less<IRender_Visual *>,xalloc<std::pair<IRender_Visual *,shared_str> >,0> >::max_size
PUBLIC	??1?$_Alloc_construct_ptr@V?$xalloc@U?$_Tree_node@U?$pair@QAVIRender_Visual@@Vshared_str@@@std@@PAX@std@@@@@std@@QAE@XZ ; std::_Alloc_construct_ptr<xalloc<std::_Tree_node<std::pair<IRender_Visual * const,shared_str>,void *> > >::~_Alloc_construct_ptr<xalloc<std::_Tree_node<std::pair<IRender_Visual * const,shared_str>,void *> > >
PUBLIC	??1?$_Tree_temp_node_alloc@V?$xalloc@U?$_Tree_node@U?$pair@QAVIRender_Visual@@Vshared_str@@@std@@PAX@std@@@@@std@@QAE@XZ ; std::_Tree_temp_node_alloc<xalloc<std::_Tree_node<std::pair<IRender_Visual * const,shared_str>,void *> > >::~_Tree_temp_node_alloc<xalloc<std::_Tree_node<std::pair<IRender_Visual * const,shared_str>,void *> > >
PUBLIC	?_Check_grow_by_1@?$_Tree@V?$_Tmap_traits@PAVIRender_Visual@@Vshared_str@@U?$less@PAVIRender_Visual@@@std@@V?$xalloc@U?$pair@PAVIRender_Visual@@Vshared_str@@@std@@@@$0A@@std@@@std@@IAEXXZ ; std::_Tree<std::_Tmap_traits<IRender_Visual *,shared_str,std::less<IRender_Visual *>,xalloc<std::pair<IRender_Visual *,shared_str> >,0> >::_Check_grow_by_1
PUBLIC	?_Insert_node@?$_Tree_val@U?$_Tree_simple_types@U?$pair@QAVIRender_Visual@@Vshared_str@@@std@@@std@@@std@@QAEPAU?$_Tree_node@U?$pair@QAVIRender_Visual@@Vshared_str@@@std@@PAX@2@U?$_Tree_id@PAU?$_Tree_node@U?$pair@QAVIRender_Visual@@Vshared_str@@@std@@PAX@std@@@2@QAU32@@Z ; std::_Tree_val<std::_Tree_simple_types<std::pair<IRender_Visual * const,shared_str> > >::_Insert_node
PUBLIC	?_Extract@?$_In_place_key_extract_map@PAVIRender_Visual@@U?$pair@PAVIRender_Visual@@PAD@std@@@std@@SAABQAVIRender_Visual@@ABU?$pair@PAVIRender_Visual@@PAD@2@@Z ; std::_In_place_key_extract_map<IRender_Visual *,std::pair<IRender_Visual *,char *> >::_Extract
PUBLIC	?_Release@?$_Alloc_construct_ptr@V?$xalloc@U?$_Tree_node@U?$pair@QAVIRender_Visual@@Vshared_str@@@std@@PAX@std@@@@@std@@QAEPAU?$_Tree_node@U?$pair@QAVIRender_Visual@@Vshared_str@@@std@@PAX@2@XZ ; std::_Alloc_construct_ptr<xalloc<std::_Tree_node<std::pair<IRender_Visual * const,shared_str>,void *> > >::_Release
PUBLIC	??1?$_Tree_temp_node@V?$xalloc@U?$_Tree_node@U?$pair@QAVIRender_Visual@@Vshared_str@@@std@@PAX@std@@@@@std@@QAE@XZ ; std::_Tree_temp_node<xalloc<std::_Tree_node<std::pair<IRender_Visual * const,shared_str>,void *> > >::~_Tree_temp_node<xalloc<std::_Tree_node<std::pair<IRender_Visual * const,shared_str>,void *> > >
PUBLIC	??1?$pair@QAVIRender_Visual@@Vshared_str@@@std@@QAE@XZ ; std::pair<IRender_Visual * const,shared_str>::~pair<IRender_Visual * const,shared_str>
PUBLIC	??1?$pair@$$CBVshared_str@@PAVIRender_Visual@@@std@@QAE@XZ ; std::pair<shared_str const ,IRender_Visual *>::~pair<shared_str const ,IRender_Visual *>
PUBLIC	??_G?$pair@QAVIRender_Visual@@Vshared_str@@@std@@QAEPAXI@Z ; std::pair<IRender_Visual * const,shared_str>::`scalar deleting destructor'
PUBLIC	??_G?$pair@$$CBVshared_str@@PAVIRender_Visual@@@std@@QAEPAXI@Z ; std::pair<shared_str const ,IRender_Visual *>::`scalar deleting destructor'
PUBLIC	??$xr_free@U?$_Tree_node@U?$pair@$$CBVshared_str@@PAVIRender_Visual@@@std@@PAX@std@@@@YAXAAPAU?$_Tree_node@U?$pair@$$CBVshared_str@@PAVIRender_Visual@@@std@@PAX@std@@@Z ; xr_free<std::_Tree_node<std::pair<shared_str const ,IRender_Visual *>,void *> >
PUBLIC	??$xr_free@U?$_Tree_node@U?$pair@QAVIRender_Visual@@Vshared_str@@@std@@PAX@std@@@@YAXAAPAU?$_Tree_node@U?$pair@QAVIRender_Visual@@Vshared_str@@@std@@PAX@std@@@Z ; xr_free<std::_Tree_node<std::pair<IRender_Visual * const,shared_str>,void *> >
PUBLIC	??$move@AAD@std@@YA$$QADAAD@Z			; std::move<char &>
PUBLIC	??$_Emplace_back@AAUModelDef@CModelPool@@@?$_Uninitialized_backout_al@V?$xalloc@UModelDef@CModelPool@@@@@std@@QAEXAAUModelDef@CModelPool@@@Z ; std::_Uninitialized_backout_al<xalloc<CModelPool::ModelDef> >::_Emplace_back<CModelPool::ModelDef &>
PUBLIC	??$destroy@U?$pair@QAVIRender_Visual@@Vshared_str@@@std@@@?$_Normal_allocator_traits@V?$xalloc@U?$_Tree_node@U?$pair@QAVIRender_Visual@@Vshared_str@@@std@@PAX@std@@@@@std@@SAXAAV?$xalloc@U?$_Tree_node@U?$pair@QAVIRender_Visual@@Vshared_str@@@std@@PAX@std@@@@PAU?$pair@QAVIRender_Visual@@Vshared_str@@@1@@Z ; std::_Normal_allocator_traits<xalloc<std::_Tree_node<std::pair<IRender_Visual * const,shared_str>,void *> > >::destroy<std::pair<IRender_Visual * const,shared_str> >
PUBLIC	??$_Emplace_back@UModelDef@CModelPool@@@?$_Uninitialized_backout_al@V?$xalloc@UModelDef@CModelPool@@@@@std@@QAEX$$QAUModelDef@CModelPool@@@Z ; std::_Uninitialized_backout_al<xalloc<CModelPool::ModelDef> >::_Emplace_back<CModelPool::ModelDef>
PUBLIC	??$forward@ABQAU?$_Tree_node@U?$pair@$$CBVshared_str@@PAVIRender_Visual@@@std@@PAX@std@@@std@@YAABQAU?$_Tree_node@U?$pair@$$CBVshared_str@@PAVIRender_Visual@@@std@@PAX@0@ABQAU10@@Z ; std::forward<std::_Tree_node<std::pair<shared_str const ,IRender_Visual *>,void *> * const &>
PUBLIC	??$_Voidify_iter@PAPAU?$_Tree_node@U?$pair@$$CBVshared_str@@PAVIRender_Visual@@@std@@PAX@std@@@std@@YAPAXPAPAU?$_Tree_node@U?$pair@$$CBVshared_str@@PAVIRender_Visual@@@std@@PAX@0@@Z ; std::_Voidify_iter<std::_Tree_node<std::pair<shared_str const ,IRender_Visual *>,void *> * *>
PUBLIC	??$addressof@PAU?$_Tree_node@U?$pair@$$CBVshared_str@@PAVIRender_Visual@@@std@@PAX@std@@@std@@YAPAPAU?$_Tree_node@U?$pair@$$CBVshared_str@@PAVIRender_Visual@@@std@@PAX@0@AAPAU10@@Z ; std::addressof<std::_Tree_node<std::pair<shared_str const ,IRender_Visual *>,void *> *>
PUBLIC	??$forward@ABQAU?$_Tree_node@U?$pair@QAVIRender_Visual@@Vshared_str@@@std@@PAX@std@@@std@@YAABQAU?$_Tree_node@U?$pair@QAVIRender_Visual@@Vshared_str@@@std@@PAX@0@ABQAU10@@Z ; std::forward<std::_Tree_node<std::pair<IRender_Visual * const,shared_str>,void *> * const &>
PUBLIC	??$_Voidify_iter@PAPAU?$_Tree_node@U?$pair@QAVIRender_Visual@@Vshared_str@@@std@@PAX@std@@@std@@YAPAXPAPAU?$_Tree_node@U?$pair@QAVIRender_Visual@@Vshared_str@@@std@@PAX@0@@Z ; std::_Voidify_iter<std::_Tree_node<std::pair<IRender_Visual * const,shared_str>,void *> * *>
PUBLIC	??$addressof@PAU?$_Tree_node@U?$pair@QAVIRender_Visual@@Vshared_str@@@std@@PAX@std@@@std@@YAPAPAU?$_Tree_node@U?$pair@QAVIRender_Visual@@Vshared_str@@@std@@PAX@0@AAPAU10@@Z ; std::addressof<std::_Tree_node<std::pair<IRender_Visual * const,shared_str>,void *> *>
PUBLIC	??$_Destroy_in_place@PAU?$_Tree_node@U?$pair@$$CBVshared_str@@PAVIRender_Visual@@@std@@PAX@std@@@std@@YAXAAPAU?$_Tree_node@U?$pair@$$CBVshared_str@@PAVIRender_Visual@@@std@@PAX@0@@Z ; std::_Destroy_in_place<std::_Tree_node<std::pair<shared_str const ,IRender_Visual *>,void *> *>
PUBLIC	??$destroy@U?$pair@$$CBVshared_str@@PAVIRender_Visual@@@std@@@?$_Normal_allocator_traits@V?$xalloc@U?$_Tree_node@U?$pair@$$CBVshared_str@@PAVIRender_Visual@@@std@@PAX@std@@@@@std@@SAXAAV?$xalloc@U?$_Tree_node@U?$pair@$$CBVshared_str@@PAVIRender_Visual@@@std@@PAX@std@@@@PAU?$pair@$$CBVshared_str@@PAVIRender_Visual@@@1@@Z ; std::_Normal_allocator_traits<xalloc<std::_Tree_node<std::pair<shared_str const ,IRender_Visual *>,void *> > >::destroy<std::pair<shared_str const ,IRender_Visual *> >
PUBLIC	??$_Kfn@$$CBVshared_str@@PAVIRender_Visual@@@?$_Tmap_traits@Vshared_str@@PAVIRender_Visual@@Ustr_pred@CModelPool@@V?$xalloc@U?$pair@Vshared_str@@PAVIRender_Visual@@@std@@@@$00@std@@SAABVshared_str@@ABU?$pair@$$CBVshared_str@@PAVIRender_Visual@@@1@@Z ; std::_Tmap_traits<shared_str,IRender_Visual *,CModelPool::str_pred,xalloc<std::pair<shared_str,IRender_Visual *> >,1>::_Kfn<shared_str const ,IRender_Visual *>
PUBLIC	??$_Destroy_in_place@PAU?$_Tree_node@U?$pair@QAVIRender_Visual@@Vshared_str@@@std@@PAX@std@@@std@@YAXAAPAU?$_Tree_node@U?$pair@QAVIRender_Visual@@Vshared_str@@@std@@PAX@0@@Z ; std::_Destroy_in_place<std::_Tree_node<std::pair<IRender_Visual * const,shared_str>,void *> *>
PUBLIC	??$exchange@PAU?$_Tree_node@U?$pair@QAVIRender_Visual@@Vshared_str@@@std@@PAX@std@@AAPAU12@@std@@YAPAU?$_Tree_node@U?$pair@QAVIRender_Visual@@Vshared_str@@@std@@PAX@0@AAPAU10@0@Z ; std::exchange<std::_Tree_node<std::pair<IRender_Visual * const,shared_str>,void *> *,std::_Tree_node<std::pair<IRender_Visual * const,shared_str>,void *> * &>
PUBLIC	??$_Kfn@QAVIRender_Visual@@Vshared_str@@@?$_Tmap_traits@PAVIRender_Visual@@Vshared_str@@U?$less@PAVIRender_Visual@@@std@@V?$xalloc@U?$pair@PAVIRender_Visual@@Vshared_str@@@std@@@@$0A@@std@@SAABQAVIRender_Visual@@ABU?$pair@QAVIRender_Visual@@Vshared_str@@@1@@Z ; std::_Tmap_traits<IRender_Visual *,shared_str,std::less<IRender_Visual *>,xalloc<std::pair<IRender_Visual *,shared_str> >,0>::_Kfn<IRender_Visual * const,shared_str>
PUBLIC	??$emplace@U?$pair@Vshared_str@@PAVIRender_Visual@@@std@@@?$_Tree@V?$_Tmap_traits@Vshared_str@@PAVIRender_Visual@@Ustr_pred@CModelPool@@V?$xalloc@U?$pair@Vshared_str@@PAVIRender_Visual@@@std@@@@$00@std@@@std@@QAE?AU?$pair@V?$_Tree_iterator@V?$_Tree_val@U?$_Tree_simple_types@U?$pair@$$CBVshared_str@@PAVIRender_Visual@@@std@@@std@@@std@@@std@@_N@1@$$QAU?$pair@Vshared_str@@PAVIRender_Visual@@@1@@Z ; std::_Tree<std::_Tmap_traits<shared_str,IRender_Visual *,CModelPool::str_pred,xalloc<std::pair<shared_str,IRender_Visual *> >,1> >::emplace<std::pair<shared_str,IRender_Visual *> >
PUBLIC	??$?0V?$_Tree_iterator@V?$_Tree_val@U?$_Tree_simple_types@U?$pair@QAVIRender_Visual@@Vshared_str@@@std@@@std@@@std@@@std@@AB_N$0A@@?$pair@V?$_Tree_iterator@V?$_Tree_val@U?$_Tree_simple_types@U?$pair@QAVIRender_Visual@@Vshared_str@@@std@@@std@@@std@@@std@@_N@std@@QAE@$$QAV?$_Tree_iterator@V?$_Tree_val@U?$_Tree_simple_types@U?$pair@QAVIRender_Visual@@Vshared_str@@@std@@@std@@@std@@@1@AB_N@Z ; std::pair<std::_Tree_iterator<std::_Tree_val<std::_Tree_simple_types<std::pair<IRender_Visual * const,shared_str> > > >,bool>::pair<std::_Tree_iterator<std::_Tree_val<std::_Tree_simple_types<std::pair<IRender_Visual * const,shared_str> > > >,bool><std::_Tree_iterator<std::_Tree_val<std::_Tree_simple_types<std::pair<IRender_Visual * const,shared_str> > > >,bool const &,0>
PUBLIC	??$_Emplace@U?$pair@PAVIRender_Visual@@PAD@std@@@?$_Tree@V?$_Tmap_traits@PAVIRender_Visual@@Vshared_str@@U?$less@PAVIRender_Visual@@@std@@V?$xalloc@U?$pair@PAVIRender_Visual@@Vshared_str@@@std@@@@$0A@@std@@@std@@IAE?AU?$pair@PAU?$_Tree_node@U?$pair@QAVIRender_Visual@@Vshared_str@@@std@@PAX@std@@_N@1@$$QAU?$pair@PAVIRender_Visual@@PAD@1@@Z ; std::_Tree<std::_Tmap_traits<IRender_Visual *,shared_str,std::less<IRender_Visual *>,xalloc<std::pair<IRender_Visual *,shared_str> >,0> >::_Emplace<std::pair<IRender_Visual *,char *> >
PUBLIC	?deallocate@?$xalloc@U?$_Tree_node@U?$pair@$$CBVshared_str@@PAVIRender_Visual@@@std@@PAX@std@@@@QBEXPAU?$_Tree_node@U?$pair@$$CBVshared_str@@PAVIRender_Visual@@@std@@PAX@std@@I@Z ; xalloc<std::_Tree_node<std::pair<shared_str const ,IRender_Visual *>,void *> >::deallocate
PUBLIC	?_Get_first@?$_Compressed_pair@Ustr_pred@CModelPool@@V?$_Compressed_pair@V?$xalloc@U?$_Tree_node@U?$pair@$$CBVshared_str@@PAVIRender_Visual@@@std@@PAX@std@@@@V?$_Tree_val@U?$_Tree_simple_types@U?$pair@$$CBVshared_str@@PAVIRender_Visual@@@std@@@std@@@std@@$00@std@@$00@std@@QBEABUstr_pred@CModelPool@@XZ ; std::_Compressed_pair<CModelPool::str_pred,std::_Compressed_pair<xalloc<std::_Tree_node<std::pair<shared_str const ,IRender_Visual *>,void *> >,std::_Tree_val<std::_Tree_simple_types<std::pair<shared_str const ,IRender_Visual *> > >,1>,1>::_Get_first
PUBLIC	?deallocate@?$xalloc@U?$_Tree_node@U?$pair@QAVIRender_Visual@@Vshared_str@@@std@@PAX@std@@@@QBEXPAU?$_Tree_node@U?$pair@QAVIRender_Visual@@Vshared_str@@@std@@PAX@std@@I@Z ; xalloc<std::_Tree_node<std::pair<IRender_Visual * const,shared_str>,void *> >::deallocate
PUBLIC	?_Get_first@?$_Compressed_pair@U?$less@PAVIRender_Visual@@@std@@V?$_Compressed_pair@V?$xalloc@U?$_Tree_node@U?$pair@QAVIRender_Visual@@Vshared_str@@@std@@PAX@std@@@@V?$_Tree_val@U?$_Tree_simple_types@U?$pair@QAVIRender_Visual@@Vshared_str@@@std@@@std@@@std@@$00@2@$00@std@@QBEABU?$less@PAVIRender_Visual@@@2@XZ ; std::_Compressed_pair<std::less<IRender_Visual *>,std::_Compressed_pair<xalloc<std::_Tree_node<std::pair<IRender_Visual * const,shared_str>,void *> >,std::_Tree_val<std::_Tree_simple_types<std::pair<IRender_Visual * const,shared_str> > >,1>,1>::_Get_first
PUBLIC	??0?$xalloc@U?$_Tree_node@U?$pair@$$CBVshared_str@@PAVIRender_Visual@@@std@@PAX@std@@@@QAE@XZ ; xalloc<std::_Tree_node<std::pair<shared_str const ,IRender_Visual *>,void *> >::xalloc<std::_Tree_node<std::pair<shared_str const ,IRender_Visual *>,void *> >
PUBLIC	?deallocate@?$_Normal_allocator_traits@V?$xalloc@U?$_Tree_node@U?$pair@$$CBVshared_str@@PAVIRender_Visual@@@std@@PAX@std@@@@@std@@SAXAAV?$xalloc@U?$_Tree_node@U?$pair@$$CBVshared_str@@PAVIRender_Visual@@@std@@PAX@std@@@@PAU?$_Tree_node@U?$pair@$$CBVshared_str@@PAVIRender_Visual@@@std@@PAX@2@I@Z ; std::_Normal_allocator_traits<xalloc<std::_Tree_node<std::pair<shared_str const ,IRender_Visual *>,void *> > >::deallocate
PUBLIC	?_Getcomp@?$_Tree@V?$_Tmap_traits@Vshared_str@@PAVIRender_Visual@@Ustr_pred@CModelPool@@V?$xalloc@U?$pair@Vshared_str@@PAVIRender_Visual@@@std@@@@$00@std@@@std@@IBEABUstr_pred@CModelPool@@XZ ; std::_Tree<std::_Tmap_traits<shared_str,IRender_Visual *,CModelPool::str_pred,xalloc<std::pair<shared_str,IRender_Visual *> >,1> >::_Getcomp
PUBLIC	??0?$_Tree_val@U?$_Tree_simple_types@U?$pair@$$CBVshared_str@@PAVIRender_Visual@@@std@@@std@@@std@@QAE@XZ ; std::_Tree_val<std::_Tree_simple_types<std::pair<shared_str const ,IRender_Visual *> > >::_Tree_val<std::_Tree_simple_types<std::pair<shared_str const ,IRender_Visual *> > >
PUBLIC	??0?$xalloc@U?$_Tree_node@U?$pair@QAVIRender_Visual@@Vshared_str@@@std@@PAX@std@@@@QAE@XZ ; xalloc<std::_Tree_node<std::pair<IRender_Visual * const,shared_str>,void *> >::xalloc<std::_Tree_node<std::pair<IRender_Visual * const,shared_str>,void *> >
PUBLIC	?deallocate@?$_Normal_allocator_traits@V?$xalloc@U?$_Tree_node@U?$pair@QAVIRender_Visual@@Vshared_str@@@std@@PAX@std@@@@@std@@SAXAAV?$xalloc@U?$_Tree_node@U?$pair@QAVIRender_Visual@@Vshared_str@@@std@@PAX@std@@@@PAU?$_Tree_node@U?$pair@QAVIRender_Visual@@Vshared_str@@@std@@PAX@2@I@Z ; std::_Normal_allocator_traits<xalloc<std::_Tree_node<std::pair<IRender_Visual * const,shared_str>,void *> > >::deallocate
PUBLIC	?_Getcomp@?$_Tree@V?$_Tmap_traits@PAVIRender_Visual@@Vshared_str@@U?$less@PAVIRender_Visual@@@std@@V?$xalloc@U?$pair@PAVIRender_Visual@@Vshared_str@@@std@@@@$0A@@std@@@std@@IBEABU?$less@PAVIRender_Visual@@@2@XZ ; std::_Tree<std::_Tmap_traits<IRender_Visual *,shared_str,std::less<IRender_Visual *>,xalloc<std::pair<IRender_Visual *,shared_str> >,0> >::_Getcomp
PUBLIC	??R?$less@PAVIRender_Visual@@@std@@QBE_NABQAVIRender_Visual@@0@Z ; std::less<IRender_Visual *>::operator()
PUBLIC	??0?$_Tree_val@U?$_Tree_simple_types@U?$pair@QAVIRender_Visual@@Vshared_str@@@std@@@std@@@std@@QAE@XZ ; std::_Tree_val<std::_Tree_simple_types<std::pair<IRender_Visual * const,shared_str> > >::_Tree_val<std::_Tree_simple_types<std::pair<IRender_Visual * const,shared_str> > >
PUBLIC	??0?$_Uninitialized_backout_al@V?$xalloc@UModelDef@CModelPool@@@@@std@@QAE@PAUModelDef@CModelPool@@AAV?$xalloc@UModelDef@CModelPool@@@@@Z ; std::_Uninitialized_backout_al<xalloc<CModelPool::ModelDef> >::_Uninitialized_backout_al<xalloc<CModelPool::ModelDef> >
PUBLIC	??1?$_Uninitialized_backout_al@V?$xalloc@UModelDef@CModelPool@@@@@std@@QAE@XZ ; std::_Uninitialized_backout_al<xalloc<CModelPool::ModelDef> >::~_Uninitialized_backout_al<xalloc<CModelPool::ModelDef> >
PUBLIC	?_Release@?$_Uninitialized_backout_al@V?$xalloc@UModelDef@CModelPool@@@@@std@@QAEPAUModelDef@CModelPool@@XZ ; std::_Uninitialized_backout_al<xalloc<CModelPool::ModelDef> >::_Release
PUBLIC	??$swap@D$0A@@std@@YAXAAD0@Z			; std::swap<char,0>
PUBLIC	??$_Uninitialized_copy@PAUModelDef@CModelPool@@V?$xalloc@UModelDef@CModelPool@@@@@std@@YAPAUModelDef@CModelPool@@QAU12@0PAU12@AAV?$xalloc@UModelDef@CModelPool@@@@@Z ; std::_Uninitialized_copy<CModelPool::ModelDef *,xalloc<CModelPool::ModelDef> >
PUBLIC	??$xr_alloc@U?$_Tree_node@U?$pair@$$CBVshared_str@@PAVIRender_Visual@@@std@@PAX@std@@@@YAPAU?$_Tree_node@U?$pair@$$CBVshared_str@@PAVIRender_Visual@@@std@@PAX@std@@I@Z ; xr_alloc<std::_Tree_node<std::pair<shared_str const ,IRender_Visual *>,void *> >
PUBLIC	??$addressof@$$CBV?$_Tree_val@U?$_Tree_simple_types@U?$pair@$$CBVshared_str@@PAVIRender_Visual@@@std@@@std@@@std@@@std@@YAPBV?$_Tree_val@U?$_Tree_simple_types@U?$pair@$$CBVshared_str@@PAVIRender_Visual@@@std@@@std@@@0@ABV10@@Z ; std::addressof<std::_Tree_val<std::_Tree_simple_types<std::pair<shared_str const ,IRender_Visual *> > > const >
PUBLIC	??$xr_alloc@U?$_Tree_node@U?$pair@QAVIRender_Visual@@Vshared_str@@@std@@PAX@std@@@@YAPAU?$_Tree_node@U?$pair@QAVIRender_Visual@@Vshared_str@@@std@@PAX@std@@I@Z ; xr_alloc<std::_Tree_node<std::pair<IRender_Visual * const,shared_str>,void *> >
PUBLIC	??$_Freenode@V?$xalloc@U?$_Tree_node@U?$pair@QAVIRender_Visual@@Vshared_str@@@std@@PAX@std@@@@@?$_Tree_node@U?$pair@QAVIRender_Visual@@Vshared_str@@@std@@PAX@std@@SAXAAV?$xalloc@U?$_Tree_node@U?$pair@QAVIRender_Visual@@Vshared_str@@@std@@PAX@std@@@@PAU01@@Z ; std::_Tree_node<std::pair<IRender_Visual * const,shared_str>,void *>::_Freenode<xalloc<std::_Tree_node<std::pair<IRender_Visual * const,shared_str>,void *> > >
PUBLIC	??$xr_alloc@UModelDef@CModelPool@@@@YAPAUModelDef@CModelPool@@I@Z ; xr_alloc<CModelPool::ModelDef>
PUBLIC	??$_Destroy_in_place@PAUModelDef@CModelPool@@@std@@YAXAAPAUModelDef@CModelPool@@@Z ; std::_Destroy_in_place<CModelPool::ModelDef *>
PUBLIC	??$_Get_unwrapped@ABQAUModelDef@CModelPool@@@std@@YA?A_TABQAUModelDef@CModelPool@@@Z ; std::_Get_unwrapped<CModelPool::ModelDef * const &>
PUBLIC	??$_Uninitialized_move@PAUModelDef@CModelPool@@V?$xalloc@UModelDef@CModelPool@@@@@std@@YAPAUModelDef@CModelPool@@QAU12@0PAU12@AAV?$xalloc@UModelDef@CModelPool@@@@@Z ; std::_Uninitialized_move<CModelPool::ModelDef *,xalloc<CModelPool::ModelDef> >
PUBLIC	??$_Construct_in_place@PAU?$_Tree_node@U?$pair@$$CBVshared_str@@PAVIRender_Visual@@@std@@PAX@std@@ABQAU12@@std@@YAXAAPAU?$_Tree_node@U?$pair@$$CBVshared_str@@PAVIRender_Visual@@@std@@PAX@0@ABQAU10@@Z ; std::_Construct_in_place<std::_Tree_node<std::pair<shared_str const ,IRender_Visual *>,void *> *,std::_Tree_node<std::pair<shared_str const ,IRender_Visual *>,void *> * const &>
PUBLIC	??$_Construct_in_place@PAU?$_Tree_node@U?$pair@QAVIRender_Visual@@Vshared_str@@@std@@PAX@std@@ABQAU12@@std@@YAXAAPAU?$_Tree_node@U?$pair@QAVIRender_Visual@@Vshared_str@@@std@@PAX@0@ABQAU10@@Z ; std::_Construct_in_place<std::_Tree_node<std::pair<IRender_Visual * const,shared_str>,void *> *,std::_Tree_node<std::pair<IRender_Visual * const,shared_str>,void *> * const &>
PUBLIC	??$forward@ABUstr_pred@CModelPool@@@std@@YAABUstr_pred@CModelPool@@ABU12@@Z ; std::forward<CModelPool::str_pred const &>
PUBLIC	??$forward@ABU?$less@PAVIRender_Visual@@@std@@@std@@YAABU?$less@PAVIRender_Visual@@@0@ABU10@@Z ; std::forward<std::less<IRender_Visual *> const &>
PUBLIC	??$_Freenode0@V?$xalloc@U?$_Tree_node@U?$pair@$$CBVshared_str@@PAVIRender_Visual@@@std@@PAX@std@@@@@?$_Tree_node@U?$pair@$$CBVshared_str@@PAVIRender_Visual@@@std@@PAX@std@@SAXAAV?$xalloc@U?$_Tree_node@U?$pair@$$CBVshared_str@@PAVIRender_Visual@@@std@@PAX@std@@@@PAU01@@Z ; std::_Tree_node<std::pair<shared_str const ,IRender_Visual *>,void *>::_Freenode0<xalloc<std::_Tree_node<std::pair<shared_str const ,IRender_Visual *>,void *> > >
PUBLIC	??$_Freenode@V?$xalloc@U?$_Tree_node@U?$pair@$$CBVshared_str@@PAVIRender_Visual@@@std@@PAX@std@@@@@?$_Tree_node@U?$pair@$$CBVshared_str@@PAVIRender_Visual@@@std@@PAX@std@@SAXAAV?$xalloc@U?$_Tree_node@U?$pair@$$CBVshared_str@@PAVIRender_Visual@@@std@@PAX@std@@@@PAU01@@Z ; std::_Tree_node<std::pair<shared_str const ,IRender_Visual *>,void *>::_Freenode<xalloc<std::_Tree_node<std::pair<shared_str const ,IRender_Visual *>,void *> > >
PUBLIC	??$exchange@PAU?$_Tree_node@U?$pair@$$CBVshared_str@@PAVIRender_Visual@@@std@@PAX@std@@AAPAU12@@std@@YAPAU?$_Tree_node@U?$pair@$$CBVshared_str@@PAVIRender_Visual@@@std@@PAX@0@AAPAU10@0@Z ; std::exchange<std::_Tree_node<std::pair<shared_str const ,IRender_Visual *>,void *> *,std::_Tree_node<std::pair<shared_str const ,IRender_Visual *>,void *> * &>
PUBLIC	??$_Lower_bound_duplicate@Vshared_str@@@?$_Tree@V?$_Tmap_traits@Vshared_str@@PAVIRender_Visual@@Ustr_pred@CModelPool@@V?$xalloc@U?$pair@Vshared_str@@PAVIRender_Visual@@@std@@@@$00@std@@@std@@IBE_NQAU?$_Tree_node@U?$pair@$$CBVshared_str@@PAVIRender_Visual@@@std@@PAX@1@ABVshared_str@@@Z ; std::_Tree<std::_Tmap_traits<shared_str,IRender_Visual *,CModelPool::str_pred,xalloc<std::pair<shared_str,IRender_Visual *> >,1> >::_Lower_bound_duplicate<shared_str>
PUBLIC	??$_Find_lower_bound@Vshared_str@@@?$_Tree@V?$_Tmap_traits@Vshared_str@@PAVIRender_Visual@@Ustr_pred@CModelPool@@V?$xalloc@U?$pair@Vshared_str@@PAVIRender_Visual@@@std@@@@$00@std@@@std@@IBE?AU?$_Tree_find_result@PAU?$_Tree_node@U?$pair@$$CBVshared_str@@PAVIRender_Visual@@@std@@PAX@std@@@1@ABVshared_str@@@Z ; std::_Tree<std::_Tmap_traits<shared_str,IRender_Visual *,CModelPool::str_pred,xalloc<std::pair<shared_str,IRender_Visual *> >,1> >::_Find_lower_bound<shared_str>
PUBLIC	??$_Freenode0@V?$xalloc@U?$_Tree_node@U?$pair@QAVIRender_Visual@@Vshared_str@@@std@@PAX@std@@@@@?$_Tree_node@U?$pair@QAVIRender_Visual@@Vshared_str@@@std@@PAX@std@@SAXAAV?$xalloc@U?$_Tree_node@U?$pair@QAVIRender_Visual@@Vshared_str@@@std@@PAX@std@@@@PAU01@@Z ; std::_Tree_node<std::pair<IRender_Visual * const,shared_str>,void *>::_Freenode0<xalloc<std::_Tree_node<std::pair<IRender_Visual * const,shared_str>,void *> > >
PUBLIC	??$_Erase_tree@V?$xalloc@U?$_Tree_node@U?$pair@QAVIRender_Visual@@Vshared_str@@@std@@PAX@std@@@@@?$_Tree_val@U?$_Tree_simple_types@U?$pair@QAVIRender_Visual@@Vshared_str@@@std@@@std@@@std@@QAEXAAV?$xalloc@U?$_Tree_node@U?$pair@QAVIRender_Visual@@Vshared_str@@@std@@PAX@std@@@@PAU?$_Tree_node@U?$pair@QAVIRender_Visual@@Vshared_str@@@std@@PAX@1@@Z ; std::_Tree_val<std::_Tree_simple_types<std::pair<IRender_Visual * const,shared_str> > >::_Erase_tree<xalloc<std::_Tree_node<std::pair<IRender_Visual * const,shared_str>,void *> > >
PUBLIC	??$_Lower_bound_duplicate@PAVIRender_Visual@@@?$_Tree@V?$_Tmap_traits@PAVIRender_Visual@@Vshared_str@@U?$less@PAVIRender_Visual@@@std@@V?$xalloc@U?$pair@PAVIRender_Visual@@Vshared_str@@@std@@@@$0A@@std@@@std@@IBE_NQAU?$_Tree_node@U?$pair@QAVIRender_Visual@@Vshared_str@@@std@@PAX@1@ABQAVIRender_Visual@@@Z ; std::_Tree<std::_Tmap_traits<IRender_Visual *,shared_str,std::less<IRender_Visual *>,xalloc<std::pair<IRender_Visual *,shared_str> >,0> >::_Lower_bound_duplicate<IRender_Visual *>
PUBLIC	??$_Find_lower_bound@PAVIRender_Visual@@@?$_Tree@V?$_Tmap_traits@PAVIRender_Visual@@Vshared_str@@U?$less@PAVIRender_Visual@@@std@@V?$xalloc@U?$pair@PAVIRender_Visual@@Vshared_str@@@std@@@@$0A@@std@@@std@@IBE?AU?$_Tree_find_result@PAU?$_Tree_node@U?$pair@QAVIRender_Visual@@Vshared_str@@@std@@PAX@std@@@1@ABQAVIRender_Visual@@@Z ; std::_Tree<std::_Tmap_traits<IRender_Visual *,shared_str,std::less<IRender_Visual *>,xalloc<std::pair<IRender_Visual *,shared_str> >,0> >::_Find_lower_bound<IRender_Visual *>
PUBLIC	??$move@AAUModelDef@CModelPool@@@std@@YA$$QAUModelDef@CModelPool@@AAU12@@Z ; std::move<CModelPool::ModelDef &>
PUBLIC	??$emplace@U?$pair@Vshared_str@@PAVIRender_Visual@@@std@@@?$multimap@Vshared_str@@PAVIRender_Visual@@Ustr_pred@CModelPool@@V?$xalloc@U?$pair@Vshared_str@@PAVIRender_Visual@@@std@@@@@std@@QAE?AV?$_Tree_iterator@V?$_Tree_val@U?$_Tree_simple_types@U?$pair@$$CBVshared_str@@PAVIRender_Visual@@@std@@@std@@@std@@@1@$$QAU?$pair@Vshared_str@@PAVIRender_Visual@@@1@@Z ; std::multimap<shared_str,IRender_Visual *,CModelPool::str_pred,xalloc<std::pair<shared_str,IRender_Visual *> > >::emplace<std::pair<shared_str,IRender_Visual *> >
PUBLIC	??$forward@U?$pair@Vshared_str@@PAVIRender_Visual@@@std@@@std@@YA$$QAU?$pair@Vshared_str@@PAVIRender_Visual@@@0@AAU10@@Z ; std::forward<std::pair<shared_str,IRender_Visual *> >
PUBLIC	??$?0AAVshared_str@@AAPAVIRender_Visual@@$0A@@?$pair@Vshared_str@@PAVIRender_Visual@@@std@@QAE@AAVshared_str@@AAPAVIRender_Visual@@@Z ; std::pair<shared_str,IRender_Visual *>::pair<shared_str,IRender_Visual *><shared_str &,IRender_Visual * &,0>
PUBLIC	??$emplace@U?$pair@PAVIRender_Visual@@PAD@std@@@?$_Tree@V?$_Tmap_traits@PAVIRender_Visual@@Vshared_str@@U?$less@PAVIRender_Visual@@@std@@V?$xalloc@U?$pair@PAVIRender_Visual@@Vshared_str@@@std@@@@$0A@@std@@@std@@QAE?AU?$pair@V?$_Tree_iterator@V?$_Tree_val@U?$_Tree_simple_types@U?$pair@QAVIRender_Visual@@Vshared_str@@@std@@@std@@@std@@@std@@_N@1@$$QAU?$pair@PAVIRender_Visual@@PAD@1@@Z ; std::_Tree<std::_Tmap_traits<IRender_Visual *,shared_str,std::less<IRender_Visual *>,xalloc<std::pair<IRender_Visual *,shared_str> >,0> >::emplace<std::pair<IRender_Visual *,char *> >
PUBLIC	??$forward@U?$pair@PAVIRender_Visual@@PAD@std@@@std@@YA$$QAU?$pair@PAVIRender_Visual@@PAD@0@AAU10@@Z ; std::forward<std::pair<IRender_Visual *,char *> >
PUBLIC	??$?0AAPAVIRender_Visual@@AAPAD$0A@@?$pair@PAVIRender_Visual@@PAD@std@@QAE@AAPAVIRender_Visual@@AAPAD@Z ; std::pair<IRender_Visual *,char *>::pair<IRender_Visual *,char *><IRender_Visual * &,char * &,0>
PUBLIC	??$?0$$V@?$_Compressed_pair@V?$xalloc@U?$_Tree_node@U?$pair@$$CBVshared_str@@PAVIRender_Visual@@@std@@PAX@std@@@@V?$_Tree_val@U?$_Tree_simple_types@U?$pair@$$CBVshared_str@@PAVIRender_Visual@@@std@@@std@@@std@@$00@std@@QAE@U_Zero_then_variadic_args_t@1@@Z ; std::_Compressed_pair<xalloc<std::_Tree_node<std::pair<shared_str const ,IRender_Visual *>,void *> >,std::_Tree_val<std::_Tree_simple_types<std::pair<shared_str const ,IRender_Visual *> > >,1>::_Compressed_pair<xalloc<std::_Tree_node<std::pair<shared_str const ,IRender_Visual *>,void *> >,std::_Tree_val<std::_Tree_simple_types<std::pair<shared_str const ,IRender_Visual *> > >,1><>
PUBLIC	??$?0$$V@?$_Compressed_pair@V?$xalloc@U?$_Tree_node@U?$pair@QAVIRender_Visual@@Vshared_str@@@std@@PAX@std@@@@V?$_Tree_val@U?$_Tree_simple_types@U?$pair@QAVIRender_Visual@@Vshared_str@@@std@@@std@@@std@@$00@std@@QAE@U_Zero_then_variadic_args_t@1@@Z ; std::_Compressed_pair<xalloc<std::_Tree_node<std::pair<IRender_Visual * const,shared_str>,void *> >,std::_Tree_val<std::_Tree_simple_types<std::pair<IRender_Visual * const,shared_str> > >,1>::_Compressed_pair<xalloc<std::_Tree_node<std::pair<IRender_Visual * const,shared_str>,void *> >,std::_Tree_val<std::_Tree_simple_types<std::pair<IRender_Visual * const,shared_str> > >,1><>
PUBLIC	?_Max@?$_Tree_val@U?$_Tree_simple_types@U?$pair@$$CBVshared_str@@PAVIRender_Visual@@@std@@@std@@@std@@SAPAU?$_Tree_node@U?$pair@$$CBVshared_str@@PAVIRender_Visual@@@std@@PAX@2@PAU32@@Z ; std::_Tree_val<std::_Tree_simple_types<std::pair<shared_str const ,IRender_Visual *> > >::_Max
PUBLIC	?_Lrotate@?$_Tree_val@U?$_Tree_simple_types@U?$pair@$$CBVshared_str@@PAVIRender_Visual@@@std@@@std@@@std@@QAEXPAU?$_Tree_node@U?$pair@$$CBVshared_str@@PAVIRender_Visual@@@std@@PAX@2@@Z ; std::_Tree_val<std::_Tree_simple_types<std::pair<shared_str const ,IRender_Visual *> > >::_Lrotate
PUBLIC	?_Rrotate@?$_Tree_val@U?$_Tree_simple_types@U?$pair@$$CBVshared_str@@PAVIRender_Visual@@@std@@@std@@@std@@QAEXPAU?$_Tree_node@U?$pair@$$CBVshared_str@@PAVIRender_Visual@@@std@@PAX@2@@Z ; std::_Tree_val<std::_Tree_simple_types<std::pair<shared_str const ,IRender_Visual *> > >::_Rrotate
PUBLIC	?_Max@?$_Tree_val@U?$_Tree_simple_types@U?$pair@QAVIRender_Visual@@Vshared_str@@@std@@@std@@@std@@SAPAU?$_Tree_node@U?$pair@QAVIRender_Visual@@Vshared_str@@@std@@PAX@2@PAU32@@Z ; std::_Tree_val<std::_Tree_simple_types<std::pair<IRender_Visual * const,shared_str> > >::_Max
PUBLIC	?_Lrotate@?$_Tree_val@U?$_Tree_simple_types@U?$pair@QAVIRender_Visual@@Vshared_str@@@std@@@std@@@std@@QAEXPAU?$_Tree_node@U?$pair@QAVIRender_Visual@@Vshared_str@@@std@@PAX@2@@Z ; std::_Tree_val<std::_Tree_simple_types<std::pair<IRender_Visual * const,shared_str> > >::_Lrotate
PUBLIC	?_Rrotate@?$_Tree_val@U?$_Tree_simple_types@U?$pair@QAVIRender_Visual@@Vshared_str@@@std@@@std@@@std@@QAEXPAU?$_Tree_node@U?$pair@QAVIRender_Visual@@Vshared_str@@@std@@PAX@2@@Z ; std::_Tree_val<std::_Tree_simple_types<std::pair<IRender_Visual * const,shared_str> > >::_Rrotate
PUBLIC	?max_size@?$xalloc@UModelDef@CModelPool@@@@QBEIXZ ; xalloc<CModelPool::ModelDef>::max_size
PUBLIC	?_Get_first@?$_Compressed_pair@V?$xalloc@UModelDef@CModelPool@@@@V?$_Vector_val@U?$_Simple_types@UModelDef@CModelPool@@@std@@@std@@$00@std@@QBEABV?$xalloc@UModelDef@CModelPool@@@@XZ ; std::_Compressed_pair<xalloc<CModelPool::ModelDef>,std::_Vector_val<std::_Simple_types<CModelPool::ModelDef> >,1>::_Get_first
PUBLIC	?_Extract@?$_Tree_val@U?$_Tree_simple_types@U?$pair@$$CBVshared_str@@PAVIRender_Visual@@@std@@@std@@@std@@QAEPAU?$_Tree_node@U?$pair@$$CBVshared_str@@PAVIRender_Visual@@@std@@PAX@2@V?$_Tree_unchecked_const_iterator@V?$_Tree_val@U?$_Tree_simple_types@U?$pair@$$CBVshared_str@@PAVIRender_Visual@@@std@@@std@@@std@@U_Iterator_base0@2@@2@@Z ; std::_Tree_val<std::_Tree_simple_types<std::pair<shared_str const ,IRender_Visual *> > >::_Extract
PUBLIC	?_Extract@?$_Tree_val@U?$_Tree_simple_types@U?$pair@QAVIRender_Visual@@Vshared_str@@@std@@@std@@@std@@QAEPAU?$_Tree_node@U?$pair@QAVIRender_Visual@@Vshared_str@@@std@@PAX@2@V?$_Tree_unchecked_const_iterator@V?$_Tree_val@U?$_Tree_simple_types@U?$pair@QAVIRender_Visual@@Vshared_str@@@std@@@std@@@std@@U_Iterator_base0@2@@2@@Z ; std::_Tree_val<std::_Tree_simple_types<std::pair<IRender_Visual * const,shared_str> > >::_Extract
PUBLIC	?_Orphan_ptr@?$_Tree_val@U?$_Tree_simple_types@U?$pair@QAVIRender_Visual@@Vshared_str@@@std@@@std@@@std@@QAEXQAU?$_Tree_node@U?$pair@QAVIRender_Visual@@Vshared_str@@@std@@PAX@2@@Z ; std::_Tree_val<std::_Tree_simple_types<std::pair<IRender_Visual * const,shared_str> > >::_Orphan_ptr
PUBLIC	?max_size@?$_Normal_allocator_traits@V?$xalloc@UModelDef@CModelPool@@@@@std@@SAIABV?$xalloc@UModelDef@CModelPool@@@@@Z ; std::_Normal_allocator_traits<xalloc<CModelPool::ModelDef> >::max_size
PUBLIC	?capacity@?$vector@UModelDef@CModelPool@@V?$xalloc@UModelDef@CModelPool@@@@@std@@QBEIXZ ; std::vector<CModelPool::ModelDef,xalloc<CModelPool::ModelDef> >::capacity
PUBLIC	?_Umove_if_noexcept1@?$vector@UModelDef@CModelPool@@V?$xalloc@UModelDef@CModelPool@@@@@std@@AAEXPAUModelDef@CModelPool@@00U?$integral_constant@_N$0A@@2@@Z ; std::vector<CModelPool::ModelDef,xalloc<CModelPool::ModelDef> >::_Umove_if_noexcept1
PUBLIC	?_Getal@?$vector@UModelDef@CModelPool@@V?$xalloc@UModelDef@CModelPool@@@@@std@@ABEABV?$xalloc@UModelDef@CModelPool@@@@XZ ; std::vector<CModelPool::ModelDef,xalloc<CModelPool::ModelDef> >::_Getal
PUBLIC	??0ModelDef@CModelPool@@QAE@ABU01@@Z		; CModelPool::ModelDef::ModelDef
PUBLIC	??0?$_Tree_unchecked_iterator@V?$_Tree_val@U?$_Tree_simple_types@U?$pair@QAVIRender_Visual@@Vshared_str@@@std@@@std@@@std@@@std@@QAE@PAU?$_Tree_node@U?$pair@QAVIRender_Visual@@Vshared_str@@@std@@PAX@1@PBV?$_Tree_val@U?$_Tree_simple_types@U?$pair@QAVIRender_Visual@@Vshared_str@@@std@@@std@@@1@@Z ; std::_Tree_unchecked_iterator<std::_Tree_val<std::_Tree_simple_types<std::pair<IRender_Visual * const,shared_str> > > >::_Tree_unchecked_iterator<std::_Tree_val<std::_Tree_simple_types<std::pair<IRender_Visual * const,shared_str> > > >
PUBLIC	??0?$_Tree_unchecked_iterator@V?$_Tree_val@U?$_Tree_simple_types@U?$pair@$$CBVshared_str@@PAVIRender_Visual@@@std@@@std@@@std@@@std@@QAE@PAU?$_Tree_node@U?$pair@$$CBVshared_str@@PAVIRender_Visual@@@std@@PAX@1@PBV?$_Tree_val@U?$_Tree_simple_types@U?$pair@$$CBVshared_str@@PAVIRender_Visual@@@std@@@std@@@1@@Z ; std::_Tree_unchecked_iterator<std::_Tree_val<std::_Tree_simple_types<std::pair<shared_str const ,IRender_Visual *> > > >::_Tree_unchecked_iterator<std::_Tree_val<std::_Tree_simple_types<std::pair<shared_str const ,IRender_Visual *> > > >
PUBLIC	??_Gmotions_container@@QAEPAXI@Z		; motions_container::`scalar deleting destructor'
PUBLIC	??0?$xalloc@PAVIRender_Visual@@@@QAE@XZ		; xalloc<IRender_Visual *>::xalloc<IRender_Visual *>
PUBLIC	?allocate@?$xalloc@U?$_Tree_node@U?$pair@$$CBVshared_str@@PAVIRender_Visual@@@std@@PAX@std@@@@QBEPAU?$_Tree_node@U?$pair@$$CBVshared_str@@PAVIRender_Visual@@@std@@PAX@std@@IPBX@Z ; xalloc<std::_Tree_node<std::pair<shared_str const ,IRender_Visual *>,void *> >::allocate
PUBLIC	?_Erase_unchecked@?$_Tree@V?$_Tmap_traits@Vshared_str@@PAVIRender_Visual@@Ustr_pred@CModelPool@@V?$xalloc@U?$pair@Vshared_str@@PAVIRender_Visual@@@std@@@@$00@std@@@std@@AAEPAU?$_Tree_node@U?$pair@$$CBVshared_str@@PAVIRender_Visual@@@std@@PAX@2@V?$_Tree_unchecked_const_iterator@V?$_Tree_val@U?$_Tree_simple_types@U?$pair@$$CBVshared_str@@PAVIRender_Visual@@@std@@@std@@@std@@U_Iterator_base0@2@@2@@Z ; std::_Tree<std::_Tmap_traits<shared_str,IRender_Visual *,CModelPool::str_pred,xalloc<std::pair<shared_str,IRender_Visual *> >,1> >::_Erase_unchecked
PUBLIC	?_Get_scary@?$_Tree@V?$_Tmap_traits@Vshared_str@@PAVIRender_Visual@@Ustr_pred@CModelPool@@V?$xalloc@U?$pair@Vshared_str@@PAVIRender_Visual@@@std@@@@$00@std@@@std@@IBEPBV?$_Tree_val@U?$_Tree_simple_types@U?$pair@$$CBVshared_str@@PAVIRender_Visual@@@std@@@std@@@2@XZ ; std::_Tree<std::_Tmap_traits<shared_str,IRender_Visual *,CModelPool::str_pred,xalloc<std::pair<shared_str,IRender_Visual *> >,1> >::_Get_scary
PUBLIC	?allocate@?$xalloc@U?$_Tree_node@U?$pair@QAVIRender_Visual@@Vshared_str@@@std@@PAX@std@@@@QBEPAU?$_Tree_node@U?$pair@QAVIRender_Visual@@Vshared_str@@@std@@PAX@std@@IPBX@Z ; xalloc<std::_Tree_node<std::pair<IRender_Visual * const,shared_str>,void *> >::allocate
PUBLIC	?_Erase_unchecked@?$_Tree@V?$_Tmap_traits@PAVIRender_Visual@@Vshared_str@@U?$less@PAVIRender_Visual@@@std@@V?$xalloc@U?$pair@PAVIRender_Visual@@Vshared_str@@@std@@@@$0A@@std@@@std@@AAEPAU?$_Tree_node@U?$pair@QAVIRender_Visual@@Vshared_str@@@std@@PAX@2@V?$_Tree_unchecked_const_iterator@V?$_Tree_val@U?$_Tree_simple_types@U?$pair@QAVIRender_Visual@@Vshared_str@@@std@@@std@@@std@@U_Iterator_base0@2@@2@@Z ; std::_Tree<std::_Tmap_traits<IRender_Visual *,shared_str,std::less<IRender_Visual *>,xalloc<std::pair<IRender_Visual *,shared_str> >,0> >::_Erase_unchecked
PUBLIC	??0?$xalloc@UModelDef@CModelPool@@@@QAE@XZ	; xalloc<CModelPool::ModelDef>::xalloc<CModelPool::ModelDef>
PUBLIC	?allocate@?$xalloc@UModelDef@CModelPool@@@@QBEPAUModelDef@CModelPool@@IPBX@Z ; xalloc<CModelPool::ModelDef>::allocate
PUBLIC	?construct@?$xalloc@UModelDef@CModelPool@@@@QAEXPAUModelDef@CModelPool@@ABU23@@Z ; xalloc<CModelPool::ModelDef>::construct
PUBLIC	?destroy@?$xalloc@UModelDef@CModelPool@@@@QAEXPAUModelDef@CModelPool@@@Z ; xalloc<CModelPool::ModelDef>::destroy
PUBLIC	?max_size@?$vector@UModelDef@CModelPool@@V?$xalloc@UModelDef@CModelPool@@@@@std@@QBEIXZ ; std::vector<CModelPool::ModelDef,xalloc<CModelPool::ModelDef> >::max_size
PUBLIC	?_Umove@?$vector@UModelDef@CModelPool@@V?$xalloc@UModelDef@CModelPool@@@@@std@@AAEPAUModelDef@CModelPool@@PAU34@00@Z ; std::vector<CModelPool::ModelDef,xalloc<CModelPool::ModelDef> >::_Umove
PUBLIC	?_Umove_if_noexcept@?$vector@UModelDef@CModelPool@@V?$xalloc@UModelDef@CModelPool@@@@@std@@AAEXPAUModelDef@CModelPool@@00@Z ; std::vector<CModelPool::ModelDef,xalloc<CModelPool::ModelDef> >::_Umove_if_noexcept
PUBLIC	?_Calculate_growth@?$vector@UModelDef@CModelPool@@V?$xalloc@UModelDef@CModelPool@@@@@std@@ABEII@Z ; std::vector<CModelPool::ModelDef,xalloc<CModelPool::ModelDef> >::_Calculate_growth
PUBLIC	?_Change_array@?$vector@UModelDef@CModelPool@@V?$xalloc@UModelDef@CModelPool@@@@@std@@AAEXQAUModelDef@CModelPool@@II@Z ; std::vector<CModelPool::ModelDef,xalloc<CModelPool::ModelDef> >::_Change_array
PUBLIC	?_Xlength@?$vector@UModelDef@CModelPool@@V?$xalloc@UModelDef@CModelPool@@@@@std@@CAXXZ ; std::vector<CModelPool::ModelDef,xalloc<CModelPool::ModelDef> >::_Xlength
PUBLIC	??0?$_Vector_val@U?$_Simple_types@UModelDef@CModelPool@@@std@@@std@@QAE@XZ ; std::_Vector_val<std::_Simple_types<CModelPool::ModelDef> >::_Vector_val<std::_Simple_types<CModelPool::ModelDef> >
PUBLIC	?_Unwrapped@?$_Tree_iterator@V?$_Tree_val@U?$_Tree_simple_types@U?$pair@QAVIRender_Visual@@Vshared_str@@@std@@@std@@@std@@@std@@QBE?AV?$_Tree_unchecked_iterator@V?$_Tree_val@U?$_Tree_simple_types@U?$pair@QAVIRender_Visual@@Vshared_str@@@std@@@std@@@std@@@2@XZ ; std::_Tree_iterator<std::_Tree_val<std::_Tree_simple_types<std::pair<IRender_Visual * const,shared_str> > > >::_Unwrapped
PUBLIC	?_Unwrapped@?$_Tree_iterator@V?$_Tree_val@U?$_Tree_simple_types@U?$pair@$$CBVshared_str@@PAVIRender_Visual@@@std@@@std@@@std@@@std@@QBE?AV?$_Tree_unchecked_iterator@V?$_Tree_val@U?$_Tree_simple_types@U?$pair@$$CBVshared_str@@PAVIRender_Visual@@@std@@@std@@@std@@@2@XZ ; std::_Tree_iterator<std::_Tree_val<std::_Tree_simple_types<std::pair<shared_str const ,IRender_Visual *> > > >::_Unwrapped
PUBLIC	??R?$xr_special_free@$00VIRender_Visual@@@@QAEXAAPAVIRender_Visual@@@Z ; xr_special_free<1,IRender_Visual>::operator()
PUBLIC	??R?$xr_special_free@$0A@Vmotions_container@@@@QAEXAAPAVmotions_container@@@Z ; xr_special_free<0,motions_container>::operator()
PUBLIC	??1FLOD@@UAE@XZ					; FLOD::~FLOD
PUBLIC	??_GFLOD@@UAEPAXI@Z				; FLOD::`scalar deleting destructor'
PUBLIC	??4ModelDef@CModelPool@@QAEAAU01@$$QAU01@@Z	; CModelPool::ModelDef::operator=
PUBLIC	??0FLOD@@QAE@XZ					; FLOD::FLOD
PUBLIC	??_GCKinematics@@UAEPAXI@Z			; CKinematics::`scalar deleting destructor'
PUBLIC	??_GCKinematicsAnimated@@UAEPAXI@Z		; CKinematicsAnimated::`scalar deleting destructor'
PUBLIC	??_GFHierrarhyVisual@@UAEPAXI@Z			; FHierrarhyVisual::`scalar deleting destructor'
PUBLIC	??$_Buyheadnode@V?$xalloc@U?$_Tree_node@U?$pair@$$CBVshared_str@@PAVIRender_Visual@@@std@@PAX@std@@@@@?$_Tree_node@U?$pair@$$CBVshared_str@@PAVIRender_Visual@@@std@@PAX@std@@SAPAU01@AAV?$xalloc@U?$_Tree_node@U?$pair@$$CBVshared_str@@PAVIRender_Visual@@@std@@PAX@std@@@@@Z ; std::_Tree_node<std::pair<shared_str const ,IRender_Visual *>,void *>::_Buyheadnode<xalloc<std::_Tree_node<std::pair<shared_str const ,IRender_Visual *>,void *> > >
PUBLIC	??$_Buyheadnode@V?$xalloc@U?$_Tree_node@U?$pair@QAVIRender_Visual@@Vshared_str@@@std@@PAX@std@@@@@?$_Tree_node@U?$pair@QAVIRender_Visual@@Vshared_str@@@std@@PAX@std@@SAPAU01@AAV?$xalloc@U?$_Tree_node@U?$pair@QAVIRender_Visual@@Vshared_str@@@std@@PAX@std@@@@@Z ; std::_Tree_node<std::pair<IRender_Visual * const,shared_str>,void *>::_Buyheadnode<xalloc<std::_Tree_node<std::pair<IRender_Visual * const,shared_str>,void *> > >
PUBLIC	??$addressof@$$CBV?$_Tree_val@U?$_Tree_simple_types@U?$pair@QAVIRender_Visual@@Vshared_str@@@std@@@std@@@std@@@std@@YAPBV?$_Tree_val@U?$_Tree_simple_types@U?$pair@QAVIRender_Visual@@Vshared_str@@@std@@@std@@@0@ABV10@@Z ; std::addressof<std::_Tree_val<std::_Tree_simple_types<std::pair<IRender_Visual * const,shared_str> > > const >
PUBLIC	??$xr_free@UModelDef@CModelPool@@@@YAXAAPAUModelDef@CModelPool@@@Z ; xr_free<CModelPool::ModelDef>
PUBLIC	??$_Destroy_range@V?$xalloc@UModelDef@CModelPool@@@@@std@@YAXPAUModelDef@CModelPool@@QAU12@AAV?$xalloc@UModelDef@CModelPool@@@@@Z ; std::_Destroy_range<xalloc<CModelPool::ModelDef> >
PUBLIC	??$?0$$V@?$_Compressed_pair@V?$xalloc@PAVIRender_Visual@@@@V?$_Vector_val@U?$_Simple_types@PAVIRender_Visual@@@std@@@std@@$00@std@@QAE@U_Zero_then_variadic_args_t@1@@Z ; std::_Compressed_pair<xalloc<IRender_Visual *>,std::_Vector_val<std::_Simple_types<IRender_Visual *> >,1>::_Compressed_pair<xalloc<IRender_Visual *>,std::_Vector_val<std::_Simple_types<IRender_Visual *> >,1><>
PUBLIC	??$addressof@U?$pair@$$CBVshared_str@@PAVIRender_Visual@@@std@@@std@@YAPAU?$pair@$$CBVshared_str@@PAVIRender_Visual@@@0@AAU10@@Z ; std::addressof<std::pair<shared_str const ,IRender_Visual *> >
PUBLIC	??$?0ABUstr_pred@CModelPool@@U_Zero_then_variadic_args_t@std@@@?$_Compressed_pair@Ustr_pred@CModelPool@@V?$_Compressed_pair@V?$xalloc@U?$_Tree_node@U?$pair@$$CBVshared_str@@PAVIRender_Visual@@@std@@PAX@std@@@@V?$_Tree_val@U?$_Tree_simple_types@U?$pair@$$CBVshared_str@@PAVIRender_Visual@@@std@@@std@@@std@@$00@std@@$00@std@@QAE@U_One_then_variadic_args_t@1@ABUstr_pred@CModelPool@@$$QAU_Zero_then_variadic_args_t@1@@Z ; std::_Compressed_pair<CModelPool::str_pred,std::_Compressed_pair<xalloc<std::_Tree_node<std::pair<shared_str const ,IRender_Visual *>,void *> >,std::_Tree_val<std::_Tree_simple_types<std::pair<shared_str const ,IRender_Visual *> > >,1>,1>::_Compressed_pair<CModelPool::str_pred,std::_Compressed_pair<xalloc<std::_Tree_node<std::pair<shared_str const ,IRender_Visual *>,void *> >,std::_Tree_val<std::_Tree_simple_types<std::pair<shared_str const ,IRender_Visual *> > >,1>,1><CModelPool::str_pred const &,std::_Zero_then_variadic_args_t>
PUBLIC	??$addressof@V?$_Tree_val@U?$_Tree_simple_types@U?$pair@$$CBVshared_str@@PAVIRender_Visual@@@std@@@std@@@std@@@std@@YAPAV?$_Tree_val@U?$_Tree_simple_types@U?$pair@$$CBVshared_str@@PAVIRender_Visual@@@std@@@std@@@0@AAV10@@Z ; std::addressof<std::_Tree_val<std::_Tree_simple_types<std::pair<shared_str const ,IRender_Visual *> > > >
PUBLIC	??$addressof@U?$pair@QAVIRender_Visual@@Vshared_str@@@std@@@std@@YAPAU?$pair@QAVIRender_Visual@@Vshared_str@@@0@AAU10@@Z ; std::addressof<std::pair<IRender_Visual * const,shared_str> >
PUBLIC	??$?0ABU?$less@PAVIRender_Visual@@@std@@U_Zero_then_variadic_args_t@1@@?$_Compressed_pair@U?$less@PAVIRender_Visual@@@std@@V?$_Compressed_pair@V?$xalloc@U?$_Tree_node@U?$pair@QAVIRender_Visual@@Vshared_str@@@std@@PAX@std@@@@V?$_Tree_val@U?$_Tree_simple_types@U?$pair@QAVIRender_Visual@@Vshared_str@@@std@@@std@@@std@@$00@2@$00@std@@QAE@U_One_then_variadic_args_t@1@ABU?$less@PAVIRender_Visual@@@1@$$QAU_Zero_then_variadic_args_t@1@@Z ; std::_Compressed_pair<std::less<IRender_Visual *>,std::_Compressed_pair<xalloc<std::_Tree_node<std::pair<IRender_Visual * const,shared_str>,void *> >,std::_Tree_val<std::_Tree_simple_types<std::pair<IRender_Visual * const,shared_str> > >,1>,1>::_Compressed_pair<std::less<IRender_Visual *>,std::_Compressed_pair<xalloc<std::_Tree_node<std::pair<IRender_Visual * const,shared_str>,void *> >,std::_Tree_val<std::_Tree_simple_types<std::pair<IRender_Visual * const,shared_str> > >,1>,1><std::less<IRender_Visual *> const &,std::_Zero_then_variadic_args_t>
PUBLIC	??$addressof@V?$_Tree_val@U?$_Tree_simple_types@U?$pair@QAVIRender_Visual@@Vshared_str@@@std@@@std@@@std@@@std@@YAPAV?$_Tree_val@U?$_Tree_simple_types@U?$pair@QAVIRender_Visual@@Vshared_str@@@std@@@std@@@0@AAV10@@Z ; std::addressof<std::_Tree_val<std::_Tree_simple_types<std::pair<IRender_Visual * const,shared_str> > > >
PUBLIC	??$?0$$V@?$_Compressed_pair@V?$xalloc@UModelDef@CModelPool@@@@V?$_Vector_val@U?$_Simple_types@UModelDef@CModelPool@@@std@@@std@@$00@std@@QAE@U_Zero_then_variadic_args_t@1@@Z ; std::_Compressed_pair<xalloc<CModelPool::ModelDef>,std::_Vector_val<std::_Simple_types<CModelPool::ModelDef> >,1>::_Compressed_pair<xalloc<CModelPool::ModelDef>,std::_Vector_val<std::_Simple_types<CModelPool::ModelDef> >,1><>
PUBLIC	??$addressof@V?$_Vector_val@U?$_Simple_types@UItem@CInifile@@@std@@@std@@@std@@YAPAV?$_Vector_val@U?$_Simple_types@UItem@CInifile@@@std@@@0@AAV10@@Z ; std::addressof<std::_Vector_val<std::_Simple_types<CInifile::Item> > >
PUBLIC	??$_Erase_head@V?$xalloc@U?$_Tree_node@U?$pair@$$CBVshared_str@@PAVIRender_Visual@@@std@@PAX@std@@@@@?$_Tree_val@U?$_Tree_simple_types@U?$pair@$$CBVshared_str@@PAVIRender_Visual@@@std@@@std@@@std@@QAEXAAV?$xalloc@U?$_Tree_node@U?$pair@$$CBVshared_str@@PAVIRender_Visual@@@std@@PAX@std@@@@@Z ; std::_Tree_val<std::_Tree_simple_types<std::pair<shared_str const ,IRender_Visual *> > >::_Erase_head<xalloc<std::_Tree_node<std::pair<shared_str const ,IRender_Visual *>,void *> > >
PUBLIC	??$_Erase_tree@V?$xalloc@U?$_Tree_node@U?$pair@$$CBVshared_str@@PAVIRender_Visual@@@std@@PAX@std@@@@@?$_Tree_val@U?$_Tree_simple_types@U?$pair@$$CBVshared_str@@PAVIRender_Visual@@@std@@@std@@@std@@QAEXAAV?$xalloc@U?$_Tree_node@U?$pair@$$CBVshared_str@@PAVIRender_Visual@@@std@@PAX@std@@@@PAU?$_Tree_node@U?$pair@$$CBVshared_str@@PAVIRender_Visual@@@std@@PAX@1@@Z ; std::_Tree_val<std::_Tree_simple_types<std::pair<shared_str const ,IRender_Visual *> > >::_Erase_tree<xalloc<std::_Tree_node<std::pair<shared_str const ,IRender_Visual *>,void *> > >
PUBLIC	??$_Find@Vshared_str@@@?$_Tree@V?$_Tmap_traits@Vshared_str@@PAVIRender_Visual@@Ustr_pred@CModelPool@@V?$xalloc@U?$pair@Vshared_str@@PAVIRender_Visual@@@std@@@@$00@std@@@std@@ABEPAU?$_Tree_node@U?$pair@$$CBVshared_str@@PAVIRender_Visual@@@std@@PAX@1@ABVshared_str@@@Z ; std::_Tree<std::_Tmap_traits<shared_str,IRender_Visual *,CModelPool::str_pred,xalloc<std::pair<shared_str,IRender_Visual *> >,1> >::_Find<shared_str>
PUBLIC	??$_Erase_head@V?$xalloc@U?$_Tree_node@U?$pair@QAVIRender_Visual@@Vshared_str@@@std@@PAX@std@@@@@?$_Tree_val@U?$_Tree_simple_types@U?$pair@QAVIRender_Visual@@Vshared_str@@@std@@@std@@@std@@QAEXAAV?$xalloc@U?$_Tree_node@U?$pair@QAVIRender_Visual@@Vshared_str@@@std@@PAX@std@@@@@Z ; std::_Tree_val<std::_Tree_simple_types<std::pair<IRender_Visual * const,shared_str> > >::_Erase_head<xalloc<std::_Tree_node<std::pair<IRender_Visual * const,shared_str>,void *> > >
PUBLIC	??$_Find@PAVIRender_Visual@@@?$_Tree@V?$_Tmap_traits@PAVIRender_Visual@@Vshared_str@@U?$less@PAVIRender_Visual@@@std@@V?$xalloc@U?$pair@PAVIRender_Visual@@Vshared_str@@@std@@@@$0A@@std@@@std@@ABEPAU?$_Tree_node@U?$pair@QAVIRender_Visual@@Vshared_str@@@std@@PAX@1@ABQAVIRender_Visual@@@Z ; std::_Tree<std::_Tmap_traits<IRender_Visual *,shared_str,std::less<IRender_Visual *>,xalloc<std::pair<IRender_Visual *,shared_str> >,0> >::_Find<IRender_Visual *>
PUBLIC	??$_Emplace_reallocate@ABUModelDef@CModelPool@@@?$vector@UModelDef@CModelPool@@V?$xalloc@UModelDef@CModelPool@@@@@std@@QAEPAUModelDef@CModelPool@@QAU23@ABU23@@Z ; std::vector<CModelPool::ModelDef,xalloc<CModelPool::ModelDef> >::_Emplace_reallocate<CModelPool::ModelDef const &>
PUBLIC	??$construct@UModelDef@CModelPool@@ABU12@@?$_Normal_allocator_traits@V?$xalloc@UModelDef@CModelPool@@@@@std@@SAXAAV?$xalloc@UModelDef@CModelPool@@@@PAUModelDef@CModelPool@@ABU34@@Z ; std::_Normal_allocator_traits<xalloc<CModelPool::ModelDef> >::construct<CModelPool::ModelDef,CModelPool::ModelDef const &>
PUBLIC	??$forward@ABUModelDef@CModelPool@@@std@@YAABUModelDef@CModelPool@@ABU12@@Z ; std::forward<CModelPool::ModelDef const &>
PUBLIC	??$destroy@UModelDef@CModelPool@@@?$_Normal_allocator_traits@V?$xalloc@UModelDef@CModelPool@@@@@std@@SAXAAV?$xalloc@UModelDef@CModelPool@@@@PAUModelDef@CModelPool@@@Z ; std::_Normal_allocator_traits<xalloc<CModelPool::ModelDef> >::destroy<CModelPool::ModelDef>
PUBLIC	??$_Unfancy@UModelDef@CModelPool@@@std@@YAPAUModelDef@CModelPool@@PAU12@@Z ; std::_Unfancy<CModelPool::ModelDef>
PUBLIC	??$_Move_unchecked@PAUModelDef@CModelPool@@PAU12@@std@@YAPAUModelDef@CModelPool@@PAU12@00@Z ; std::_Move_unchecked<CModelPool::ModelDef *,CModelPool::ModelDef *>
PUBLIC	??$addressof@V?$_Vector_val@U?$_Simple_types@UModelDef@CModelPool@@@std@@@std@@@std@@YAPAV?$_Vector_val@U?$_Simple_types@UModelDef@CModelPool@@@std@@@0@AAV10@@Z ; std::addressof<std::_Vector_val<std::_Simple_types<CModelPool::ModelDef> > >
PUBLIC	??$erase@V?$_Tree_iterator@V?$_Tree_val@U?$_Tree_simple_types@U?$pair@QAVIRender_Visual@@Vshared_str@@@std@@@std@@@std@@@std@@$0A@@?$_Tree@V?$_Tmap_traits@PAVIRender_Visual@@Vshared_str@@U?$less@PAVIRender_Visual@@@std@@V?$xalloc@U?$pair@PAVIRender_Visual@@Vshared_str@@@std@@@@$0A@@std@@@std@@QAE?AV?$_Tree_iterator@V?$_Tree_val@U?$_Tree_simple_types@U?$pair@QAVIRender_Visual@@Vshared_str@@@std@@@std@@@std@@@1@V21@@Z ; std::_Tree<std::_Tmap_traits<IRender_Visual *,shared_str,std::less<IRender_Visual *>,xalloc<std::pair<IRender_Visual *,shared_str> >,0> >::erase<std::_Tree_iterator<std::_Tree_val<std::_Tree_simple_types<std::pair<IRender_Visual * const,shared_str> > > >,0>
PUBLIC	??$insert@U?$pair@Vshared_str@@PAVIRender_Visual@@@std@@$0A@@?$multimap@Vshared_str@@PAVIRender_Visual@@Ustr_pred@CModelPool@@V?$xalloc@U?$pair@Vshared_str@@PAVIRender_Visual@@@std@@@@@std@@QAE?AV?$_Tree_iterator@V?$_Tree_val@U?$_Tree_simple_types@U?$pair@$$CBVshared_str@@PAVIRender_Visual@@@std@@@std@@@std@@@1@$$QAU?$pair@Vshared_str@@PAVIRender_Visual@@@1@@Z ; std::multimap<shared_str,IRender_Visual *,CModelPool::str_pred,xalloc<std::pair<shared_str,IRender_Visual *> > >::insert<std::pair<shared_str,IRender_Visual *>,0>
PUBLIC	??$mk_pair@Vshared_str@@PAVIRender_Visual@@@@YA?AU?$pair@Vshared_str@@PAVIRender_Visual@@@std@@Vshared_str@@PAVIRender_Visual@@@Z ; mk_pair<shared_str,IRender_Visual *>
PUBLIC	??$insert@U?$pair@PAVIRender_Visual@@PAD@std@@$0A@@?$map@PAVIRender_Visual@@Vshared_str@@U?$less@PAVIRender_Visual@@@std@@V?$xalloc@U?$pair@PAVIRender_Visual@@Vshared_str@@@std@@@@@std@@QAE?AU?$pair@V?$_Tree_iterator@V?$_Tree_val@U?$_Tree_simple_types@U?$pair@QAVIRender_Visual@@Vshared_str@@@std@@@std@@@std@@@std@@_N@1@$$QAU?$pair@PAVIRender_Visual@@PAD@1@@Z ; std::map<IRender_Visual *,shared_str,std::less<IRender_Visual *>,xalloc<std::pair<IRender_Visual *,shared_str> > >::insert<std::pair<IRender_Visual *,char *>,0>
PUBLIC	??$mk_pair@PAVIRender_Visual@@PAD@@YA?AU?$pair@PAVIRender_Visual@@PAD@std@@PAVIRender_Visual@@PAD@Z ; mk_pair<IRender_Visual *,char *>
PUBLIC	??$erase@V?$_Tree_iterator@V?$_Tree_val@U?$_Tree_simple_types@U?$pair@$$CBVshared_str@@PAVIRender_Visual@@@std@@@std@@@std@@@std@@$0A@@?$_Tree@V?$_Tmap_traits@Vshared_str@@PAVIRender_Visual@@Ustr_pred@CModelPool@@V?$xalloc@U?$pair@Vshared_str@@PAVIRender_Visual@@@std@@@@$00@std@@@std@@QAE?AV?$_Tree_iterator@V?$_Tree_val@U?$_Tree_simple_types@U?$pair@$$CBVshared_str@@PAVIRender_Visual@@@std@@@std@@@std@@@1@V21@@Z ; std::_Tree<std::_Tmap_traits<shared_str,IRender_Visual *,CModelPool::str_pred,xalloc<std::pair<shared_str,IRender_Visual *> >,1> >::erase<std::_Tree_iterator<std::_Tree_val<std::_Tree_simple_types<std::pair<shared_str const ,IRender_Visual *> > > >,0>
PUBLIC	??$xr_delete@Vmotions_container@@@@YAXAAPAVmotions_container@@@Z ; xr_delete<motions_container>
PUBLIC	??$xr_new@Vmotions_container@@@@YAPAVmotions_container@@XZ ; xr_new<motions_container>
PUBLIC	??$xr_delete@VIRender_Visual@@@@YAXAAPAVIRender_Visual@@@Z ; xr_delete<IRender_Visual>
PUBLIC	??$xr_new@VFTreeVisual_PM@@@@YAPAVFTreeVisual_PM@@XZ ; xr_new<FTreeVisual_PM>
PUBLIC	??$xr_new@VFTreeVisual_ST@@@@YAPAVFTreeVisual_ST@@XZ ; xr_new<FTreeVisual_ST>
PUBLIC	??$xr_new@VFLOD@@@@YAPAVFLOD@@XZ		; xr_new<FLOD>
PUBLIC	??$xr_new@VCParticleGroup@PS@@@@YAPAVCParticleGroup@PS@@XZ ; xr_new<PS::CParticleGroup>
PUBLIC	??$xr_new@VCParticleEffect@PS@@@@YAPAVCParticleEffect@PS@@XZ ; xr_new<PS::CParticleEffect>
PUBLIC	??$xr_new@VCSkeletonX_ST@@@@YAPAVCSkeletonX_ST@@XZ ; xr_new<CSkeletonX_ST>
PUBLIC	??$xr_new@VCSkeletonX_PM@@@@YAPAVCSkeletonX_PM@@XZ ; xr_new<CSkeletonX_PM>
PUBLIC	??$xr_new@VCKinematics@@@@YAPAVCKinematics@@XZ	; xr_new<CKinematics>
PUBLIC	??$xr_new@VCKinematicsAnimated@@@@YAPAVCKinematicsAnimated@@XZ ; xr_new<CKinematicsAnimated>
PUBLIC	??$xr_new@VFProgressive@@@@YAPAVFProgressive@@XZ ; xr_new<FProgressive>
PUBLIC	??$xr_new@VFHierrarhyVisual@@@@YAPAVFHierrarhyVisual@@XZ ; xr_new<FHierrarhyVisual>
PUBLIC	??$xr_new@VFvisual@@@@YAPAVFvisual@@XZ		; xr_new<Fvisual>
PUBLIC	?_Verify_offset@?$_Vector_const_iterator@V?$_Vector_val@U?$_Simple_types@PAVIRender_Visual@@@std@@@std@@@std@@QBEXH@Z ; std::_Vector_const_iterator<std::_Vector_val<std::_Simple_types<IRender_Visual *> > >::_Verify_offset
PUBLIC	??Y?$_Vector_const_iterator@V?$_Vector_val@U?$_Simple_types@PAVIRender_Visual@@@std@@@std@@@std@@QAEAAV01@H@Z ; std::_Vector_const_iterator<std::_Vector_val<std::_Simple_types<IRender_Visual *> > >::operator+=
PUBLIC	?_Min@?$_Tree_val@U?$_Tree_simple_types@U?$pair@$$CBVshared_str@@PAVIRender_Visual@@@std@@@std@@@std@@SAPAU?$_Tree_node@U?$pair@$$CBVshared_str@@PAVIRender_Visual@@@std@@PAX@2@PAU32@@Z ; std::_Tree_val<std::_Tree_simple_types<std::pair<shared_str const ,IRender_Visual *> > >::_Min
PUBLIC	?_Min@?$_Tree_val@U?$_Tree_simple_types@U?$pair@QAVIRender_Visual@@Vshared_str@@@std@@@std@@@std@@SAPAU?$_Tree_node@U?$pair@QAVIRender_Visual@@Vshared_str@@@std@@PAX@2@PAU32@@Z ; std::_Tree_val<std::_Tree_simple_types<std::pair<IRender_Visual * const,shared_str> > >::_Min
PUBLIC	?clear@?$vector@PAVIRender_Visual@@V?$xalloc@PAVIRender_Visual@@@@@std@@QAEXXZ ; std::vector<IRender_Visual *,xalloc<IRender_Visual *> >::clear
PUBLIC	??D?$_Vector_const_iterator@V?$_Vector_val@U?$_Simple_types@PAVIRender_Visual@@@std@@@std@@@std@@QBEABQAVIRender_Visual@@XZ ; std::_Vector_const_iterator<std::_Vector_val<std::_Simple_types<IRender_Visual *> > >::operator*
PUBLIC	??Y?$_Vector_iterator@V?$_Vector_val@U?$_Simple_types@PAVIRender_Visual@@@std@@@std@@@std@@QAEAAV01@H@Z ; std::_Vector_iterator<std::_Vector_val<std::_Simple_types<IRender_Visual *> > >::operator+=
PUBLIC	?_Alloc_sentinel_and_proxy@?$_Tree@V?$_Tmap_traits@Vshared_str@@PAVIRender_Visual@@Ustr_pred@CModelPool@@V?$xalloc@U?$pair@Vshared_str@@PAVIRender_Visual@@@std@@@@$00@std@@@std@@IAEXXZ ; std::_Tree<std::_Tmap_traits<shared_str,IRender_Visual *,CModelPool::str_pred,xalloc<std::pair<shared_str,IRender_Visual *> >,1> >::_Alloc_sentinel_and_proxy
PUBLIC	?_Get_first@?$_Compressed_pair@V?$xalloc@U?$_Tree_node@U?$pair@$$CBVshared_str@@PAVIRender_Visual@@@std@@PAX@std@@@@V?$_Tree_val@U?$_Tree_simple_types@U?$pair@$$CBVshared_str@@PAVIRender_Visual@@@std@@@std@@@std@@$00@std@@QAEAAV?$xalloc@U?$_Tree_node@U?$pair@$$CBVshared_str@@PAVIRender_Visual@@@std@@PAX@std@@@@XZ ; std::_Compressed_pair<xalloc<std::_Tree_node<std::pair<shared_str const ,IRender_Visual *>,void *> >,std::_Tree_val<std::_Tree_simple_types<std::pair<shared_str const ,IRender_Visual *> > >,1>::_Get_first
PUBLIC	?_Alloc_sentinel_and_proxy@?$_Tree@V?$_Tmap_traits@PAVIRender_Visual@@Vshared_str@@U?$less@PAVIRender_Visual@@@std@@V?$xalloc@U?$pair@PAVIRender_Visual@@Vshared_str@@@std@@@@$0A@@std@@@std@@IAEXXZ ; std::_Tree<std::_Tmap_traits<IRender_Visual *,shared_str,std::less<IRender_Visual *>,xalloc<std::pair<IRender_Visual *,shared_str> >,0> >::_Alloc_sentinel_and_proxy
PUBLIC	?_Get_scary@?$_Tree@V?$_Tmap_traits@PAVIRender_Visual@@Vshared_str@@U?$less@PAVIRender_Visual@@@std@@V?$xalloc@U?$pair@PAVIRender_Visual@@Vshared_str@@@std@@@@$0A@@std@@@std@@IBEPBV?$_Tree_val@U?$_Tree_simple_types@U?$pair@QAVIRender_Visual@@Vshared_str@@@std@@@std@@@2@XZ ; std::_Tree<std::_Tmap_traits<IRender_Visual *,shared_str,std::less<IRender_Visual *>,xalloc<std::pair<IRender_Visual *,shared_str> >,0> >::_Get_scary
PUBLIC	?_Get_first@?$_Compressed_pair@V?$xalloc@U?$_Tree_node@U?$pair@QAVIRender_Visual@@Vshared_str@@@std@@PAX@std@@@@V?$_Tree_val@U?$_Tree_simple_types@U?$pair@QAVIRender_Visual@@Vshared_str@@@std@@@std@@@std@@$00@std@@QAEAAV?$xalloc@U?$_Tree_node@U?$pair@QAVIRender_Visual@@Vshared_str@@@std@@PAX@std@@@@XZ ; std::_Compressed_pair<xalloc<std::_Tree_node<std::pair<IRender_Visual * const,shared_str>,void *> >,std::_Tree_val<std::_Tree_simple_types<std::pair<IRender_Visual * const,shared_str> > >,1>::_Get_first
PUBLIC	?deallocate@?$xalloc@UModelDef@CModelPool@@@@QBEXPAUModelDef@CModelPool@@I@Z ; xalloc<CModelPool::ModelDef>::deallocate
PUBLIC	?clear@?$vector@UModelDef@CModelPool@@V?$xalloc@UModelDef@CModelPool@@@@@std@@QAEXXZ ; std::vector<CModelPool::ModelDef,xalloc<CModelPool::ModelDef> >::clear
PUBLIC	?_Destroy@?$vector@UModelDef@CModelPool@@V?$xalloc@UModelDef@CModelPool@@@@@std@@AAEXPAUModelDef@CModelPool@@0@Z ; std::vector<CModelPool::ModelDef,xalloc<CModelPool::ModelDef> >::_Destroy
PUBLIC	?_Get_first@?$_Compressed_pair@V?$xalloc@UModelDef@CModelPool@@@@V?$_Vector_val@U?$_Simple_types@UModelDef@CModelPool@@@std@@@std@@$00@std@@QAEAAV?$xalloc@UModelDef@CModelPool@@@@XZ ; std::_Compressed_pair<xalloc<CModelPool::ModelDef>,std::_Vector_val<std::_Simple_types<CModelPool::ModelDef> >,1>::_Get_first
PUBLIC	?_Compat@?$_Vector_const_iterator@V?$_Vector_val@U?$_Simple_types@UModelDef@CModelPool@@@std@@@std@@@std@@QBEXABV12@@Z ; std::_Vector_const_iterator<std::_Vector_val<std::_Simple_types<CModelPool::ModelDef> > >::_Compat
PUBLIC	??E?$_Tree_unchecked_const_iterator@V?$_Tree_val@U?$_Tree_simple_types@U?$pair@QAVIRender_Visual@@Vshared_str@@@std@@@std@@@std@@U_Iterator_base0@2@@std@@QAEAAV01@XZ ; std::_Tree_unchecked_const_iterator<std::_Tree_val<std::_Tree_simple_types<std::pair<IRender_Visual * const,shared_str> > >,std::_Iterator_base0>::operator++
PUBLIC	??D?$_Tree_const_iterator@V?$_Tree_val@U?$_Tree_simple_types@U?$pair@QAVIRender_Visual@@Vshared_str@@@std@@@std@@@std@@@std@@QBEABU?$pair@QAVIRender_Visual@@Vshared_str@@@1@XZ ; std::_Tree_const_iterator<std::_Tree_val<std::_Tree_simple_types<std::pair<IRender_Visual * const,shared_str> > > >::operator*
PUBLIC	??E?$_Tree_unchecked_const_iterator@V?$_Tree_val@U?$_Tree_simple_types@U?$pair@$$CBVshared_str@@PAVIRender_Visual@@@std@@@std@@@std@@U_Iterator_base0@2@@std@@QAEAAV01@XZ ; std::_Tree_unchecked_const_iterator<std::_Tree_val<std::_Tree_simple_types<std::pair<shared_str const ,IRender_Visual *> > >,std::_Iterator_base0>::operator++
PUBLIC	??D?$_Tree_const_iterator@V?$_Tree_val@U?$_Tree_simple_types@U?$pair@$$CBVshared_str@@PAVIRender_Visual@@@std@@@std@@@std@@@std@@QBEABU?$pair@$$CBVshared_str@@PAVIRender_Visual@@@1@XZ ; std::_Tree_const_iterator<std::_Tree_val<std::_Tree_simple_types<std::pair<shared_str const ,IRender_Visual *> > > >::operator*
PUBLIC	?_Compat@?$_Vector_const_iterator@V?$_Vector_val@U?$_Simple_types@UItem@CInifile@@@std@@@std@@@std@@QBEXABV12@@Z ; std::_Vector_const_iterator<std::_Vector_val<std::_Simple_types<CInifile::Item> > >::_Compat
PUBLIC	??0?$vector@PAVIRender_Visual@@V?$xalloc@PAVIRender_Visual@@@@@std@@QAE@XZ ; std::vector<IRender_Visual *,xalloc<IRender_Visual *> >::vector<IRender_Visual *,xalloc<IRender_Visual *> >
PUBLIC	?_Tidy@?$vector@PAVIRender_Visual@@V?$xalloc@PAVIRender_Visual@@@@@std@@AAEXXZ ; std::vector<IRender_Visual *,xalloc<IRender_Visual *> >::_Tidy
PUBLIC	?clear_and_free@?$xr_vector@PAVIRender_Visual@@V?$xalloc@PAVIRender_Visual@@@@@@QAEXXZ ; xr_vector<IRender_Visual *,xalloc<IRender_Visual *> >::clear_and_free
PUBLIC	??D?$_Vector_iterator@V?$_Vector_val@U?$_Simple_types@PAVIRender_Visual@@@std@@@std@@@std@@QBEAAPAVIRender_Visual@@XZ ; std::_Vector_iterator<std::_Vector_val<std::_Simple_types<IRender_Visual *> > >::operator*
PUBLIC	??H?$_Vector_iterator@V?$_Vector_val@U?$_Simple_types@PAVIRender_Visual@@@std@@@std@@@std@@QBE?AV01@H@Z ; std::_Vector_iterator<std::_Vector_val<std::_Simple_types<IRender_Visual *> > >::operator+
PUBLIC	?pointer_to@?$pointer_traits@PAU?$pair@$$CBVshared_str@@PAVIRender_Visual@@@std@@@std@@SAPAU?$pair@$$CBVshared_str@@PAVIRender_Visual@@@2@AAU32@@Z ; std::pointer_traits<std::pair<shared_str const ,IRender_Visual *> *>::pointer_to
PUBLIC	??0?$_Tree@V?$_Tmap_traits@Vshared_str@@PAVIRender_Visual@@Ustr_pred@CModelPool@@V?$xalloc@U?$pair@Vshared_str@@PAVIRender_Visual@@@std@@@@$00@std@@@std@@QAE@ABUstr_pred@CModelPool@@@Z ; std::_Tree<std::_Tmap_traits<shared_str,IRender_Visual *,CModelPool::str_pred,xalloc<std::pair<shared_str,IRender_Visual *> >,1> >::_Tree<std::_Tmap_traits<shared_str,IRender_Visual *,CModelPool::str_pred,xalloc<std::pair<shared_str,IRender_Visual *> >,1> >
PUBLIC	?_Getal@?$_Tree@V?$_Tmap_traits@Vshared_str@@PAVIRender_Visual@@Ustr_pred@CModelPool@@V?$xalloc@U?$pair@Vshared_str@@PAVIRender_Visual@@@std@@@@$00@std@@@std@@IAEAAV?$xalloc@U?$_Tree_node@U?$pair@$$CBVshared_str@@PAVIRender_Visual@@@std@@PAX@std@@@@XZ ; std::_Tree<std::_Tmap_traits<shared_str,IRender_Visual *,CModelPool::str_pred,xalloc<std::pair<shared_str,IRender_Visual *> >,1> >::_Getal
PUBLIC	?_Get_scary@?$_Tree@V?$_Tmap_traits@Vshared_str@@PAVIRender_Visual@@Ustr_pred@CModelPool@@V?$xalloc@U?$pair@Vshared_str@@PAVIRender_Visual@@@std@@@@$00@std@@@std@@IAEPAV?$_Tree_val@U?$_Tree_simple_types@U?$pair@$$CBVshared_str@@PAVIRender_Visual@@@std@@@std@@@2@XZ ; std::_Tree<std::_Tmap_traits<shared_str,IRender_Visual *,CModelPool::str_pred,xalloc<std::pair<shared_str,IRender_Visual *> >,1> >::_Get_scary
PUBLIC	?_Orphan_ptr@?$_Tree_val@U?$_Tree_simple_types@U?$pair@$$CBVshared_str@@PAVIRender_Visual@@@std@@@std@@@std@@QAEXQAU?$_Tree_node@U?$pair@$$CBVshared_str@@PAVIRender_Visual@@@std@@PAX@2@@Z ; std::_Tree_val<std::_Tree_simple_types<std::pair<shared_str const ,IRender_Visual *> > >::_Orphan_ptr
PUBLIC	?pointer_to@?$pointer_traits@PAU?$pair@QAVIRender_Visual@@Vshared_str@@@std@@@std@@SAPAU?$pair@QAVIRender_Visual@@Vshared_str@@@2@AAU32@@Z ; std::pointer_traits<std::pair<IRender_Visual * const,shared_str> *>::pointer_to
PUBLIC	??0?$_Tree@V?$_Tmap_traits@PAVIRender_Visual@@Vshared_str@@U?$less@PAVIRender_Visual@@@std@@V?$xalloc@U?$pair@PAVIRender_Visual@@Vshared_str@@@std@@@@$0A@@std@@@std@@QAE@ABU?$less@PAVIRender_Visual@@@1@@Z ; std::_Tree<std::_Tmap_traits<IRender_Visual *,shared_str,std::less<IRender_Visual *>,xalloc<std::pair<IRender_Visual *,shared_str> >,0> >::_Tree<std::_Tmap_traits<IRender_Visual *,shared_str,std::less<IRender_Visual *>,xalloc<std::pair<IRender_Visual *,shared_str> >,0> >
PUBLIC	?size@?$_Tree@V?$_Tmap_traits@PAVIRender_Visual@@Vshared_str@@U?$less@PAVIRender_Visual@@@std@@V?$xalloc@U?$pair@PAVIRender_Visual@@Vshared_str@@@std@@@@$0A@@std@@@std@@QBEIXZ ; std::_Tree<std::_Tmap_traits<IRender_Visual *,shared_str,std::less<IRender_Visual *>,xalloc<std::pair<IRender_Visual *,shared_str> >,0> >::size
PUBLIC	?_Getal@?$_Tree@V?$_Tmap_traits@PAVIRender_Visual@@Vshared_str@@U?$less@PAVIRender_Visual@@@std@@V?$xalloc@U?$pair@PAVIRender_Visual@@Vshared_str@@@std@@@@$0A@@std@@@std@@IAEAAV?$xalloc@U?$_Tree_node@U?$pair@QAVIRender_Visual@@Vshared_str@@@std@@PAX@std@@@@XZ ; std::_Tree<std::_Tmap_traits<IRender_Visual *,shared_str,std::less<IRender_Visual *>,xalloc<std::pair<IRender_Visual *,shared_str> >,0> >::_Getal
PUBLIC	?_Get_scary@?$_Tree@V?$_Tmap_traits@PAVIRender_Visual@@Vshared_str@@U?$less@PAVIRender_Visual@@@std@@V?$xalloc@U?$pair@PAVIRender_Visual@@Vshared_str@@@std@@@@$0A@@std@@@std@@IAEPAV?$_Tree_val@U?$_Tree_simple_types@U?$pair@QAVIRender_Visual@@Vshared_str@@@std@@@std@@@2@XZ ; std::_Tree<std::_Tmap_traits<IRender_Visual *,shared_str,std::less<IRender_Visual *>,xalloc<std::pair<IRender_Visual *,shared_str> >,0> >::_Get_scary
PUBLIC	??0?$vector@UModelDef@CModelPool@@V?$xalloc@UModelDef@CModelPool@@@@@std@@QAE@XZ ; std::vector<CModelPool::ModelDef,xalloc<CModelPool::ModelDef> >::vector<CModelPool::ModelDef,xalloc<CModelPool::ModelDef> >
PUBLIC	?_Tidy@?$vector@UModelDef@CModelPool@@V?$xalloc@UModelDef@CModelPool@@@@@std@@AAEXXZ ; std::vector<CModelPool::ModelDef,xalloc<CModelPool::ModelDef> >::_Tidy
PUBLIC	?_Orphan_range@?$vector@UModelDef@CModelPool@@V?$xalloc@UModelDef@CModelPool@@@@@std@@ABEXPAUModelDef@CModelPool@@0@Z ; std::vector<CModelPool::ModelDef,xalloc<CModelPool::ModelDef> >::_Orphan_range
PUBLIC	?_Getal@?$vector@UModelDef@CModelPool@@V?$xalloc@UModelDef@CModelPool@@@@@std@@AAEAAV?$xalloc@UModelDef@CModelPool@@@@XZ ; std::vector<CModelPool::ModelDef,xalloc<CModelPool::ModelDef> >::_Getal
PUBLIC	?clear_and_free@?$xr_vector@UModelDef@CModelPool@@V?$xalloc@UModelDef@CModelPool@@@@@@QAEXXZ ; xr_vector<CModelPool::ModelDef,xalloc<CModelPool::ModelDef> >::clear_and_free
PUBLIC	??0?$_Vector_const_iterator@V?$_Vector_val@U?$_Simple_types@UModelDef@CModelPool@@@std@@@std@@@std@@QAE@PAUModelDef@CModelPool@@PBU_Container_base0@1@@Z ; std::_Vector_const_iterator<std::_Vector_val<std::_Simple_types<CModelPool::ModelDef> > >::_Vector_const_iterator<std::_Vector_val<std::_Simple_types<CModelPool::ModelDef> > >
PUBLIC	??E?$_Vector_const_iterator@V?$_Vector_val@U?$_Simple_types@UModelDef@CModelPool@@@std@@@std@@@std@@QAEAAV01@XZ ; std::_Vector_const_iterator<std::_Vector_val<std::_Simple_types<CModelPool::ModelDef> > >::operator++
PUBLIC	??8?$_Vector_const_iterator@V?$_Vector_val@U?$_Simple_types@UModelDef@CModelPool@@@std@@@std@@@std@@QBE_NABV01@@Z ; std::_Vector_const_iterator<std::_Vector_val<std::_Simple_types<CModelPool::ModelDef> > >::operator==
PUBLIC	??0?$_Tree_unchecked_const_iterator@V?$_Tree_val@U?$_Tree_simple_types@U?$pair@QAVIRender_Visual@@Vshared_str@@@std@@@std@@@std@@U_Iterator_base0@2@@std@@QAE@PAU?$_Tree_node@U?$pair@QAVIRender_Visual@@Vshared_str@@@std@@PAX@1@PBV?$_Tree_val@U?$_Tree_simple_types@U?$pair@QAVIRender_Visual@@Vshared_str@@@std@@@std@@@1@@Z ; std::_Tree_unchecked_const_iterator<std::_Tree_val<std::_Tree_simple_types<std::pair<IRender_Visual * const,shared_str> > >,std::_Iterator_base0>::_Tree_unchecked_const_iterator<std::_Tree_val<std::_Tree_simple_types<std::pair<IRender_Visual * const,shared_str> > >,std::_Iterator_base0>
PUBLIC	??8?$_Tree_const_iterator@V?$_Tree_val@U?$_Tree_simple_types@U?$pair@QAVIRender_Visual@@Vshared_str@@@std@@@std@@@std@@@std@@QBE_NABV01@@Z ; std::_Tree_const_iterator<std::_Tree_val<std::_Tree_simple_types<std::pair<IRender_Visual * const,shared_str> > > >::operator==
PUBLIC	??D?$_Tree_iterator@V?$_Tree_val@U?$_Tree_simple_types@U?$pair@QAVIRender_Visual@@Vshared_str@@@std@@@std@@@std@@@std@@QBEAAU?$pair@QAVIRender_Visual@@Vshared_str@@@1@XZ ; std::_Tree_iterator<std::_Tree_val<std::_Tree_simple_types<std::pair<IRender_Visual * const,shared_str> > > >::operator*
PUBLIC	??0?$_Tree_unchecked_const_iterator@V?$_Tree_val@U?$_Tree_simple_types@U?$pair@$$CBVshared_str@@PAVIRender_Visual@@@std@@@std@@@std@@U_Iterator_base0@2@@std@@QAE@PAU?$_Tree_node@U?$pair@$$CBVshared_str@@PAVIRender_Visual@@@std@@PAX@1@PBV?$_Tree_val@U?$_Tree_simple_types@U?$pair@$$CBVshared_str@@PAVIRender_Visual@@@std@@@std@@@1@@Z ; std::_Tree_unchecked_const_iterator<std::_Tree_val<std::_Tree_simple_types<std::pair<shared_str const ,IRender_Visual *> > >,std::_Iterator_base0>::_Tree_unchecked_const_iterator<std::_Tree_val<std::_Tree_simple_types<std::pair<shared_str const ,IRender_Visual *> > >,std::_Iterator_base0>
PUBLIC	??E?$_Tree_const_iterator@V?$_Tree_val@U?$_Tree_simple_types@U?$pair@$$CBVshared_str@@PAVIRender_Visual@@@std@@@std@@@std@@@std@@QAEAAV01@XZ ; std::_Tree_const_iterator<std::_Tree_val<std::_Tree_simple_types<std::pair<shared_str const ,IRender_Visual *> > > >::operator++
PUBLIC	??8?$_Tree_const_iterator@V?$_Tree_val@U?$_Tree_simple_types@U?$pair@$$CBVshared_str@@PAVIRender_Visual@@@std@@@std@@@std@@@std@@QBE_NABV01@@Z ; std::_Tree_const_iterator<std::_Tree_val<std::_Tree_simple_types<std::pair<shared_str const ,IRender_Visual *> > > >::operator==
PUBLIC	??D?$_Tree_iterator@V?$_Tree_val@U?$_Tree_simple_types@U?$pair@$$CBVshared_str@@PAVIRender_Visual@@@std@@@std@@@std@@@std@@QBEAAU?$pair@$$CBVshared_str@@PAVIRender_Visual@@@1@XZ ; std::_Tree_iterator<std::_Tree_val<std::_Tree_simple_types<std::pair<shared_str const ,IRender_Visual *> > > >::operator*
PUBLIC	??0?$_Vector_const_iterator@V?$_Vector_val@U?$_Simple_types@UItem@CInifile@@@std@@@std@@@std@@QAE@PAUItem@CInifile@@PBU_Container_base0@1@@Z ; std::_Vector_const_iterator<std::_Vector_val<std::_Simple_types<CInifile::Item> > >::_Vector_const_iterator<std::_Vector_val<std::_Simple_types<CInifile::Item> > >
PUBLIC	??E?$_Vector_const_iterator@V?$_Vector_val@U?$_Simple_types@UItem@CInifile@@@std@@@std@@@std@@QAEAAV01@XZ ; std::_Vector_const_iterator<std::_Vector_val<std::_Simple_types<CInifile::Item> > >::operator++
PUBLIC	??8?$_Vector_const_iterator@V?$_Vector_val@U?$_Simple_types@UItem@CInifile@@@std@@@std@@@std@@QBE_NABV01@@Z ; std::_Vector_const_iterator<std::_Vector_val<std::_Simple_types<CInifile::Item> > >::operator==
PUBLIC	??0?$_Tree_const_iterator@V?$_Tree_val@U?$_Tree_simple_types@U?$pair@$$CBVshared_str@@PAVIRender_Visual@@@std@@@std@@@std@@@std@@QAE@PAU?$_Tree_node@U?$pair@$$CBVshared_str@@PAVIRender_Visual@@@std@@PAX@1@PBV?$_Tree_val@U?$_Tree_simple_types@U?$pair@$$CBVshared_str@@PAVIRender_Visual@@@std@@@std@@@1@@Z ; std::_Tree_const_iterator<std::_Tree_val<std::_Tree_simple_types<std::pair<shared_str const ,IRender_Visual *> > > >::_Tree_const_iterator<std::_Tree_val<std::_Tree_simple_types<std::pair<shared_str const ,IRender_Visual *> > > >
PUBLIC	??0?$_Tree_const_iterator@V?$_Tree_val@U?$_Tree_simple_types@U?$pair@QAVIRender_Visual@@Vshared_str@@@std@@@std@@@std@@@std@@QAE@PAU?$_Tree_node@U?$pair@QAVIRender_Visual@@Vshared_str@@@std@@PAX@1@PBV?$_Tree_val@U?$_Tree_simple_types@U?$pair@QAVIRender_Visual@@Vshared_str@@@std@@@std@@@1@@Z ; std::_Tree_const_iterator<std::_Tree_val<std::_Tree_simple_types<std::pair<IRender_Visual * const,shared_str> > > >::_Tree_const_iterator<std::_Tree_val<std::_Tree_simple_types<std::pair<IRender_Visual * const,shared_str> > > >
PUBLIC	??0?$_Vector_iterator@V?$_Vector_val@U?$_Simple_types@UItem@CInifile@@@std@@@std@@@std@@QAE@PAUItem@CInifile@@PBU_Container_base0@1@@Z ; std::_Vector_iterator<std::_Vector_val<std::_Simple_types<CInifile::Item> > >::_Vector_iterator<std::_Vector_val<std::_Simple_types<CInifile::Item> > >
PUBLIC	??0?$_Tree_iterator@V?$_Tree_val@U?$_Tree_simple_types@U?$pair@$$CBVshared_str@@PAVIRender_Visual@@@std@@@std@@@std@@@std@@QAE@PAU?$_Tree_node@U?$pair@$$CBVshared_str@@PAVIRender_Visual@@@std@@PAX@1@PBV?$_Tree_val@U?$_Tree_simple_types@U?$pair@$$CBVshared_str@@PAVIRender_Visual@@@std@@@std@@@1@@Z ; std::_Tree_iterator<std::_Tree_val<std::_Tree_simple_types<std::pair<shared_str const ,IRender_Visual *> > > >::_Tree_iterator<std::_Tree_val<std::_Tree_simple_types<std::pair<shared_str const ,IRender_Visual *> > > >
PUBLIC	??0?$_Tree_iterator@V?$_Tree_val@U?$_Tree_simple_types@U?$pair@QAVIRender_Visual@@Vshared_str@@@std@@@std@@@std@@@std@@QAE@PAU?$_Tree_node@U?$pair@QAVIRender_Visual@@Vshared_str@@@std@@PAX@1@PBV?$_Tree_val@U?$_Tree_simple_types@U?$pair@QAVIRender_Visual@@Vshared_str@@@std@@@std@@@1@@Z ; std::_Tree_iterator<std::_Tree_val<std::_Tree_simple_types<std::pair<IRender_Visual * const,shared_str> > > >::_Tree_iterator<std::_Tree_val<std::_Tree_simple_types<std::pair<IRender_Visual * const,shared_str> > > >
PUBLIC	??0?$_Vector_iterator@V?$_Vector_val@U?$_Simple_types@UModelDef@CModelPool@@@std@@@std@@@std@@QAE@PAUModelDef@CModelPool@@PBU_Container_base0@1@@Z ; std::_Vector_iterator<std::_Vector_val<std::_Simple_types<CModelPool::ModelDef> > >::_Vector_iterator<std::_Vector_val<std::_Simple_types<CModelPool::ModelDef> > >
PUBLIC	?begin@?$vector@UItem@CInifile@@V?$xalloc@UItem@CInifile@@@@@std@@QAE?AV?$_Vector_iterator@V?$_Vector_val@U?$_Simple_types@UItem@CInifile@@@std@@@std@@@2@XZ ; std::vector<CInifile::Item,xalloc<CInifile::Item> >::begin
PUBLIC	?end@?$vector@UItem@CInifile@@V?$xalloc@UItem@CInifile@@@@@std@@QAE?AV?$_Vector_iterator@V?$_Vector_val@U?$_Simple_types@UItem@CInifile@@@std@@@std@@@2@XZ ; std::vector<CInifile::Item,xalloc<CInifile::Item> >::end
PUBLIC	??1?$vector@PAVIRender_Visual@@V?$xalloc@PAVIRender_Visual@@@@@std@@QAE@XZ ; std::vector<IRender_Visual *,xalloc<IRender_Visual *> >::~vector<IRender_Visual *,xalloc<IRender_Visual *> >
PUBLIC	??0?$xr_vector@PAVIRender_Visual@@V?$xalloc@PAVIRender_Visual@@@@@@QAE@XZ ; xr_vector<IRender_Visual *,xalloc<IRender_Visual *> >::xr_vector<IRender_Visual *,xalloc<IRender_Visual *> >
PUBLIC	?clear@?$xr_vector@PAVIRender_Visual@@V?$xalloc@PAVIRender_Visual@@@@@@QAEXXZ ; xr_vector<IRender_Visual *,xalloc<IRender_Visual *> >::clear
PUBLIC	??A?$xr_vector@PAVIRender_Visual@@V?$xalloc@PAVIRender_Visual@@@@@@QAEAAPAVIRender_Visual@@I@Z ; xr_vector<IRender_Visual *,xalloc<IRender_Visual *> >::operator[]
PUBLIC	??1?$_Tree@V?$_Tmap_traits@Vshared_str@@PAVIRender_Visual@@Ustr_pred@CModelPool@@V?$xalloc@U?$pair@Vshared_str@@PAVIRender_Visual@@@std@@@@$00@std@@@std@@QAE@XZ ; std::_Tree<std::_Tmap_traits<shared_str,IRender_Visual *,CModelPool::str_pred,xalloc<std::pair<shared_str,IRender_Visual *> >,1> >::~_Tree<std::_Tmap_traits<shared_str,IRender_Visual *,CModelPool::str_pred,xalloc<std::pair<shared_str,IRender_Visual *> >,1> >
PUBLIC	?begin@?$_Tree@V?$_Tmap_traits@Vshared_str@@PAVIRender_Visual@@Ustr_pred@CModelPool@@V?$xalloc@U?$pair@Vshared_str@@PAVIRender_Visual@@@std@@@@$00@std@@@std@@QAE?AV?$_Tree_iterator@V?$_Tree_val@U?$_Tree_simple_types@U?$pair@$$CBVshared_str@@PAVIRender_Visual@@@std@@@std@@@std@@@2@XZ ; std::_Tree<std::_Tmap_traits<shared_str,IRender_Visual *,CModelPool::str_pred,xalloc<std::pair<shared_str,IRender_Visual *> >,1> >::begin
PUBLIC	?end@?$_Tree@V?$_Tmap_traits@Vshared_str@@PAVIRender_Visual@@Ustr_pred@CModelPool@@V?$xalloc@U?$pair@Vshared_str@@PAVIRender_Visual@@@std@@@@$00@std@@@std@@QAE?AV?$_Tree_iterator@V?$_Tree_val@U?$_Tree_simple_types@U?$pair@$$CBVshared_str@@PAVIRender_Visual@@@std@@@std@@@std@@@2@XZ ; std::_Tree<std::_Tmap_traits<shared_str,IRender_Visual *,CModelPool::str_pred,xalloc<std::pair<shared_str,IRender_Visual *> >,1> >::end
PUBLIC	?clear@?$_Tree@V?$_Tmap_traits@Vshared_str@@PAVIRender_Visual@@Ustr_pred@CModelPool@@V?$xalloc@U?$pair@Vshared_str@@PAVIRender_Visual@@@std@@@@$00@std@@@std@@QAEXXZ ; std::_Tree<std::_Tmap_traits<shared_str,IRender_Visual *,CModelPool::str_pred,xalloc<std::pair<shared_str,IRender_Visual *> >,1> >::clear
PUBLIC	?find@?$_Tree@V?$_Tmap_traits@Vshared_str@@PAVIRender_Visual@@Ustr_pred@CModelPool@@V?$xalloc@U?$pair@Vshared_str@@PAVIRender_Visual@@@std@@@@$00@std@@@std@@QAE?AV?$_Tree_iterator@V?$_Tree_val@U?$_Tree_simple_types@U?$pair@$$CBVshared_str@@PAVIRender_Visual@@@std@@@std@@@std@@@2@ABVshared_str@@@Z ; std::_Tree<std::_Tmap_traits<shared_str,IRender_Visual *,CModelPool::str_pred,xalloc<std::pair<shared_str,IRender_Visual *> >,1> >::find
PUBLIC	??0?$multimap@Vshared_str@@PAVIRender_Visual@@Ustr_pred@CModelPool@@V?$xalloc@U?$pair@Vshared_str@@PAVIRender_Visual@@@std@@@@@std@@QAE@XZ ; std::multimap<shared_str,IRender_Visual *,CModelPool::str_pred,xalloc<std::pair<shared_str,IRender_Visual *> > >::multimap<shared_str,IRender_Visual *,CModelPool::str_pred,xalloc<std::pair<shared_str,IRender_Visual *> > >
PUBLIC	??1?$_Tree@V?$_Tmap_traits@PAVIRender_Visual@@Vshared_str@@U?$less@PAVIRender_Visual@@@std@@V?$xalloc@U?$pair@PAVIRender_Visual@@Vshared_str@@@std@@@@$0A@@std@@@std@@QAE@XZ ; std::_Tree<std::_Tmap_traits<IRender_Visual *,shared_str,std::less<IRender_Visual *>,xalloc<std::pair<IRender_Visual *,shared_str> >,0> >::~_Tree<std::_Tmap_traits<IRender_Visual *,shared_str,std::less<IRender_Visual *>,xalloc<std::pair<IRender_Visual *,shared_str> >,0> >
PUBLIC	?begin@?$_Tree@V?$_Tmap_traits@PAVIRender_Visual@@Vshared_str@@U?$less@PAVIRender_Visual@@@std@@V?$xalloc@U?$pair@PAVIRender_Visual@@Vshared_str@@@std@@@@$0A@@std@@@std@@QAE?AV?$_Tree_iterator@V?$_Tree_val@U?$_Tree_simple_types@U?$pair@QAVIRender_Visual@@Vshared_str@@@std@@@std@@@std@@@2@XZ ; std::_Tree<std::_Tmap_traits<IRender_Visual *,shared_str,std::less<IRender_Visual *>,xalloc<std::pair<IRender_Visual *,shared_str> >,0> >::begin
PUBLIC	?end@?$_Tree@V?$_Tmap_traits@PAVIRender_Visual@@Vshared_str@@U?$less@PAVIRender_Visual@@@std@@V?$xalloc@U?$pair@PAVIRender_Visual@@Vshared_str@@@std@@@@$0A@@std@@@std@@QAE?AV?$_Tree_iterator@V?$_Tree_val@U?$_Tree_simple_types@U?$pair@QAVIRender_Visual@@Vshared_str@@@std@@@std@@@std@@@2@XZ ; std::_Tree<std::_Tmap_traits<IRender_Visual *,shared_str,std::less<IRender_Visual *>,xalloc<std::pair<IRender_Visual *,shared_str> >,0> >::end
PUBLIC	?empty@?$_Tree@V?$_Tmap_traits@PAVIRender_Visual@@Vshared_str@@U?$less@PAVIRender_Visual@@@std@@V?$xalloc@U?$pair@PAVIRender_Visual@@Vshared_str@@@std@@@@$0A@@std@@@std@@QBE_NXZ ; std::_Tree<std::_Tmap_traits<IRender_Visual *,shared_str,std::less<IRender_Visual *>,xalloc<std::pair<IRender_Visual *,shared_str> >,0> >::empty
PUBLIC	?find@?$_Tree@V?$_Tmap_traits@PAVIRender_Visual@@Vshared_str@@U?$less@PAVIRender_Visual@@@std@@V?$xalloc@U?$pair@PAVIRender_Visual@@Vshared_str@@@std@@@@$0A@@std@@@std@@QAE?AV?$_Tree_iterator@V?$_Tree_val@U?$_Tree_simple_types@U?$pair@QAVIRender_Visual@@Vshared_str@@@std@@@std@@@std@@@2@ABQAVIRender_Visual@@@Z ; std::_Tree<std::_Tmap_traits<IRender_Visual *,shared_str,std::less<IRender_Visual *>,xalloc<std::pair<IRender_Visual *,shared_str> >,0> >::find
PUBLIC	??0?$map@PAVIRender_Visual@@Vshared_str@@U?$less@PAVIRender_Visual@@@std@@V?$xalloc@U?$pair@PAVIRender_Visual@@Vshared_str@@@std@@@@@std@@QAE@XZ ; std::map<IRender_Visual *,shared_str,std::less<IRender_Visual *>,xalloc<std::pair<IRender_Visual *,shared_str> > >::map<IRender_Visual *,shared_str,std::less<IRender_Visual *>,xalloc<std::pair<IRender_Visual *,shared_str> > >
PUBLIC	??1?$vector@UModelDef@CModelPool@@V?$xalloc@UModelDef@CModelPool@@@@@std@@QAE@XZ ; std::vector<CModelPool::ModelDef,xalloc<CModelPool::ModelDef> >::~vector<CModelPool::ModelDef,xalloc<CModelPool::ModelDef> >
PUBLIC	??$_Emplace_back_with_unused_capacity@ABUModelDef@CModelPool@@@?$vector@UModelDef@CModelPool@@V?$xalloc@UModelDef@CModelPool@@@@@std@@AAE?A_TABUModelDef@CModelPool@@@Z ; std::vector<CModelPool::ModelDef,xalloc<CModelPool::ModelDef> >::_Emplace_back_with_unused_capacity<CModelPool::ModelDef const &>
PUBLIC	??$emplace_back@ABUModelDef@CModelPool@@@?$vector@UModelDef@CModelPool@@V?$xalloc@UModelDef@CModelPool@@@@@std@@QAE?A_TABUModelDef@CModelPool@@@Z ; std::vector<CModelPool::ModelDef,xalloc<CModelPool::ModelDef> >::emplace_back<CModelPool::ModelDef const &>
PUBLIC	?push_back@?$vector@UModelDef@CModelPool@@V?$xalloc@UModelDef@CModelPool@@@@@std@@QAEXABUModelDef@CModelPool@@@Z ; std::vector<CModelPool::ModelDef,xalloc<CModelPool::ModelDef> >::push_back
PUBLIC	?erase@?$vector@UModelDef@CModelPool@@V?$xalloc@UModelDef@CModelPool@@@@@std@@QAE?AV?$_Vector_iterator@V?$_Vector_val@U?$_Simple_types@UModelDef@CModelPool@@@std@@@std@@@2@V?$_Vector_const_iterator@V?$_Vector_val@U?$_Simple_types@UModelDef@CModelPool@@@std@@@std@@@2@@Z ; std::vector<CModelPool::ModelDef,xalloc<CModelPool::ModelDef> >::erase
PUBLIC	?begin@?$vector@UModelDef@CModelPool@@V?$xalloc@UModelDef@CModelPool@@@@@std@@QAE?AV?$_Vector_iterator@V?$_Vector_val@U?$_Simple_types@UModelDef@CModelPool@@@std@@@std@@@2@XZ ; std::vector<CModelPool::ModelDef,xalloc<CModelPool::ModelDef> >::begin
PUBLIC	?end@?$vector@UModelDef@CModelPool@@V?$xalloc@UModelDef@CModelPool@@@@@std@@QAE?AV?$_Vector_iterator@V?$_Vector_val@U?$_Simple_types@UModelDef@CModelPool@@@std@@@std@@@2@XZ ; std::vector<CModelPool::ModelDef,xalloc<CModelPool::ModelDef> >::end
PUBLIC	??0?$xr_vector@UModelDef@CModelPool@@V?$xalloc@UModelDef@CModelPool@@@@@@QAE@XZ ; xr_vector<CModelPool::ModelDef,xalloc<CModelPool::ModelDef> >::xr_vector<CModelPool::ModelDef,xalloc<CModelPool::ModelDef> >
PUBLIC	?clear@?$xr_vector@UModelDef@CModelPool@@V?$xalloc@UModelDef@CModelPool@@@@@@QAEXXZ ; xr_vector<CModelPool::ModelDef,xalloc<CModelPool::ModelDef> >::clear
PUBLIC	??0?$_Vector_const_iterator@V?$_Vector_val@U?$_Simple_types@UModelDef@CModelPool@@@std@@@std@@@std@@QAE@XZ ; std::_Vector_const_iterator<std::_Vector_val<std::_Simple_types<CModelPool::ModelDef> > >::_Vector_const_iterator<std::_Vector_val<std::_Simple_types<CModelPool::ModelDef> > >
PUBLIC	??9?$_Vector_const_iterator@V?$_Vector_val@U?$_Simple_types@UModelDef@CModelPool@@@std@@@std@@@std@@QBE_NABV01@@Z ; std::_Vector_const_iterator<std::_Vector_val<std::_Simple_types<CModelPool::ModelDef> > >::operator!=
PUBLIC	??C?$_Vector_iterator@V?$_Vector_val@U?$_Simple_types@UModelDef@CModelPool@@@std@@@std@@@std@@QBEPAUModelDef@CModelPool@@XZ ; std::_Vector_iterator<std::_Vector_val<std::_Simple_types<CModelPool::ModelDef> > >::operator->
PUBLIC	??E?$_Vector_iterator@V?$_Vector_val@U?$_Simple_types@UModelDef@CModelPool@@@std@@@std@@@std@@QAEAAV01@XZ ; std::_Vector_iterator<std::_Vector_val<std::_Simple_types<CModelPool::ModelDef> > >::operator++
PUBLIC	??E?$_Vector_iterator@V?$_Vector_val@U?$_Simple_types@UModelDef@CModelPool@@@std@@@std@@@std@@QAE?AV01@H@Z ; std::_Vector_iterator<std::_Vector_val<std::_Simple_types<CModelPool::ModelDef> > >::operator++
PUBLIC	??9?$_Tree_const_iterator@V?$_Tree_val@U?$_Tree_simple_types@U?$pair@QAVIRender_Visual@@Vshared_str@@@std@@@std@@@std@@@std@@QBE_NABV01@@Z ; std::_Tree_const_iterator<std::_Tree_val<std::_Tree_simple_types<std::pair<IRender_Visual * const,shared_str> > > >::operator!=
PUBLIC	??C?$_Tree_iterator@V?$_Tree_val@U?$_Tree_simple_types@U?$pair@QAVIRender_Visual@@Vshared_str@@@std@@@std@@@std@@@std@@QBEPAU?$pair@QAVIRender_Visual@@Vshared_str@@@1@XZ ; std::_Tree_iterator<std::_Tree_val<std::_Tree_simple_types<std::pair<IRender_Visual * const,shared_str> > > >::operator->
PUBLIC	??9?$_Tree_const_iterator@V?$_Tree_val@U?$_Tree_simple_types@U?$pair@$$CBVshared_str@@PAVIRender_Visual@@@std@@@std@@@std@@@std@@QBE_NABV01@@Z ; std::_Tree_const_iterator<std::_Tree_val<std::_Tree_simple_types<std::pair<shared_str const ,IRender_Visual *> > > >::operator!=
PUBLIC	??C?$_Tree_iterator@V?$_Tree_val@U?$_Tree_simple_types@U?$pair@$$CBVshared_str@@PAVIRender_Visual@@@std@@@std@@@std@@@std@@QBEPAU?$pair@$$CBVshared_str@@PAVIRender_Visual@@@1@XZ ; std::_Tree_iterator<std::_Tree_val<std::_Tree_simple_types<std::pair<shared_str const ,IRender_Visual *> > > >::operator->
PUBLIC	??E?$_Tree_iterator@V?$_Tree_val@U?$_Tree_simple_types@U?$pair@$$CBVshared_str@@PAVIRender_Visual@@@std@@@std@@@std@@@std@@QAE?AV01@H@Z ; std::_Tree_iterator<std::_Tree_val<std::_Tree_simple_types<std::pair<shared_str const ,IRender_Visual *> > > >::operator++
PUBLIC	??D?$_Vector_const_iterator@V?$_Vector_val@U?$_Simple_types@UItem@CInifile@@@std@@@std@@@std@@QBEABUItem@CInifile@@XZ ; std::_Vector_const_iterator<std::_Vector_val<std::_Simple_types<CInifile::Item> > >::operator*
PUBLIC	??E?$_Vector_const_iterator@V?$_Vector_val@U?$_Simple_types@UItem@CInifile@@@std@@@std@@@std@@QAE?AV01@H@Z ; std::_Vector_const_iterator<std::_Vector_val<std::_Simple_types<CInifile::Item> > >::operator++
PUBLIC	??9?$_Vector_const_iterator@V?$_Vector_val@U?$_Simple_types@UItem@CInifile@@@std@@@std@@@std@@QBE_NABV01@@Z ; std::_Vector_const_iterator<std::_Vector_val<std::_Simple_types<CInifile::Item> > >::operator!=
PUBLIC	?CreatePG@CModelPool@@QAEPAVIRender_Visual@@PAVCPGDef@PS@@@Z ; CModelPool::CreatePG
PUBLIC	?CreatePE@CModelPool@@QAEPAVIRender_Visual@@PAVCPEDef@PS@@@Z ; CModelPool::CreatePE
PUBLIC	?ClearPool@CModelPool@@QAEXH@Z			; CModelPool::ClearPool
PUBLIC	?Prefetch@CModelPool@@QAEXXZ			; CModelPool::Prefetch
PUBLIC	?Discard@CModelPool@@QAEXAAPAVIRender_Visual@@H@Z ; CModelPool::Discard
PUBLIC	?DeleteQueue@CModelPool@@QAEXXZ			; CModelPool::DeleteQueue
PUBLIC	?Delete@CModelPool@@QAEXAAPAVIRender_Visual@@H@Z ; CModelPool::Delete
PUBLIC	??1?$pair@Vshared_str@@PAVIRender_Visual@@@std@@QAE@XZ ; std::pair<shared_str,IRender_Visual *>::~pair<shared_str,IRender_Visual *>
PUBLIC	?DeleteInternal@CModelPool@@QAEXAAPAVIRender_Visual@@H@Z ; CModelPool::DeleteInternal
PUBLIC	?CreateChild@CModelPool@@QAEPAVIRender_Visual@@PBDPAVIReader@@@Z ; CModelPool::CreateChild
PUBLIC	?Create@CModelPool@@QAEPAVIRender_Visual@@PBDPAVIReader@@@Z ; CModelPool::Create
PUBLIC	??0?$_Vector_iterator@V?$_Vector_val@U?$_Simple_types@UModelDef@CModelPool@@@std@@@std@@@std@@QAE@XZ ; std::_Vector_iterator<std::_Vector_val<std::_Simple_types<CModelPool::ModelDef> > >::_Vector_iterator<std::_Vector_val<std::_Simple_types<CModelPool::ModelDef> > >
PUBLIC	?Instance_Find@CModelPool@@QAEPAVIRender_Visual@@PBD@Z ; CModelPool::Instance_Find
PUBLIC	??1CModelPool@@UAE@XZ				; CModelPool::~CModelPool
PUBLIC	??1?$multimap@Vshared_str@@PAVIRender_Visual@@Ustr_pred@CModelPool@@V?$xalloc@U?$pair@Vshared_str@@PAVIRender_Visual@@@std@@@@@std@@QAE@XZ ; std::multimap<shared_str,IRender_Visual *,CModelPool::str_pred,xalloc<std::pair<shared_str,IRender_Visual *> > >::~multimap<shared_str,IRender_Visual *,CModelPool::str_pred,xalloc<std::pair<shared_str,IRender_Visual *> > >
PUBLIC	??1?$map@PAVIRender_Visual@@Vshared_str@@U?$less@PAVIRender_Visual@@@std@@V?$xalloc@U?$pair@PAVIRender_Visual@@Vshared_str@@@std@@@@@std@@QAE@XZ ; std::map<IRender_Visual *,shared_str,std::less<IRender_Visual *>,xalloc<std::pair<IRender_Visual *,shared_str> > >::~map<IRender_Visual *,shared_str,std::less<IRender_Visual *>,xalloc<std::pair<IRender_Visual *,shared_str> > >
PUBLIC	??1?$xr_multimap@Vshared_str@@PAVIRender_Visual@@Ustr_pred@CModelPool@@V?$xalloc@U?$pair@Vshared_str@@PAVIRender_Visual@@@std@@@@@@QAE@XZ ; xr_multimap<shared_str,IRender_Visual *,CModelPool::str_pred,xalloc<std::pair<shared_str,IRender_Visual *> > >::~xr_multimap<shared_str,IRender_Visual *,CModelPool::str_pred,xalloc<std::pair<shared_str,IRender_Visual *> > >
PUBLIC	??0?$xr_multimap@Vshared_str@@PAVIRender_Visual@@Ustr_pred@CModelPool@@V?$xalloc@U?$pair@Vshared_str@@PAVIRender_Visual@@@std@@@@@@QAE@XZ ; xr_multimap<shared_str,IRender_Visual *,CModelPool::str_pred,xalloc<std::pair<shared_str,IRender_Visual *> > >::xr_multimap<shared_str,IRender_Visual *,CModelPool::str_pred,xalloc<std::pair<shared_str,IRender_Visual *> > >
PUBLIC	??1?$xr_map@PAVIRender_Visual@@Vshared_str@@U?$less@PAVIRender_Visual@@@std@@V?$xalloc@U?$pair@PAVIRender_Visual@@Vshared_str@@@std@@@@@@QAE@XZ ; xr_map<IRender_Visual *,shared_str,std::less<IRender_Visual *>,xalloc<std::pair<IRender_Visual *,shared_str> > >::~xr_map<IRender_Visual *,shared_str,std::less<IRender_Visual *>,xalloc<std::pair<IRender_Visual *,shared_str> > >
PUBLIC	??0?$xr_map@PAVIRender_Visual@@Vshared_str@@U?$less@PAVIRender_Visual@@@std@@V?$xalloc@U?$pair@PAVIRender_Visual@@Vshared_str@@@std@@@@@@QAE@XZ ; xr_map<IRender_Visual *,shared_str,std::less<IRender_Visual *>,xalloc<std::pair<IRender_Visual *,shared_str> > >::xr_map<IRender_Visual *,shared_str,std::less<IRender_Visual *>,xalloc<std::pair<IRender_Visual *,shared_str> > >
PUBLIC	??1?$xr_vector@PAVIRender_Visual@@V?$xalloc@PAVIRender_Visual@@@@@@QAE@XZ ; xr_vector<IRender_Visual *,xalloc<IRender_Visual *> >::~xr_vector<IRender_Visual *,xalloc<IRender_Visual *> >
PUBLIC	??1?$xr_vector@UModelDef@CModelPool@@V?$xalloc@UModelDef@CModelPool@@@@@@QAE@XZ ; xr_vector<CModelPool::ModelDef,xalloc<CModelPool::ModelDef> >::~xr_vector<CModelPool::ModelDef,xalloc<CModelPool::ModelDef> >
PUBLIC	??_GCModelPool@@UAEPAXI@Z			; CModelPool::`scalar deleting destructor'
PUBLIC	??0CModelPool@@QAE@XZ				; CModelPool::CModelPool
PUBLIC	?Destroy@CModelPool@@AAEXXZ			; CModelPool::Destroy
PUBLIC	??1ModelDef@CModelPool@@QAE@XZ			; CModelPool::ModelDef::~ModelDef
PUBLIC	?Instance_Register@CModelPool@@QAEXPBDPAVIRender_Visual@@@Z ; CModelPool::Instance_Register
PUBLIC	?Instance_Load@CModelPool@@QAEPAVIRender_Visual@@PBDPAVIReader@@H@Z ; CModelPool::Instance_Load
PUBLIC	?Instance_Load@CModelPool@@QAEPAVIRender_Visual@@PBDH@Z ; CModelPool::Instance_Load
PUBLIC	?Instance_Duplicate@CModelPool@@QAEPAVIRender_Visual@@PAV2@@Z ; CModelPool::Instance_Duplicate
PUBLIC	?Instance_Create@CModelPool@@QAEPAVIRender_Visual@@I@Z ; CModelPool::Instance_Create
PUBLIC	??_GCSkeletonX_PM@@UAEPAXI@Z			; CSkeletonX_PM::`scalar deleting destructor'
PUBLIC	??1CSkeletonX_PM@@UAE@XZ			; CSkeletonX_PM::~CSkeletonX_PM
PUBLIC	??0CSkeletonX_PM@@QAE@XZ			; CSkeletonX_PM::CSkeletonX_PM
PUBLIC	??1CSkeletonX_ext@@QAE@XZ			; CSkeletonX_ext::~CSkeletonX_ext
PUBLIC	??0CSkeletonX_ext@@QAE@XZ			; CSkeletonX_ext::CSkeletonX_ext
PUBLIC	??_GCSkeletonX_ST@@UAEPAXI@Z			; CSkeletonX_ST::`scalar deleting destructor'
PUBLIC	??1CSkeletonX_ST@@UAE@XZ			; CSkeletonX_ST::~CSkeletonX_ST
PUBLIC	??0CSkeletonX_ST@@QAE@XZ			; CSkeletonX_ST::CSkeletonX_ST
EXTRN	??_ECKinematics@@UAEPAXI@Z:PROC			; CKinematics::`vector deleting destructor'
EXTRN	??_ECKinematicsAnimated@@UAEPAXI@Z:PROC		; CKinematicsAnimated::`vector deleting destructor'
EXTRN	??_ECModelPool@@UAEPAXI@Z:PROC			; CModelPool::`vector deleting destructor'
EXTRN	??_EFHierrarhyVisual@@UAEPAXI@Z:PROC		; FHierrarhyVisual::`vector deleting destructor'
EXTRN	??_ECSkeletonX_ST@@UAEPAXI@Z:PROC		; CSkeletonX_ST::`vector deleting destructor'
EXTRN	??_ECSkeletonX_PM@@UAEPAXI@Z:PROC		; CSkeletonX_PM::`vector deleting destructor'
EXTRN	??_EFLOD@@UAEPAXI@Z:PROC			; FLOD::`vector deleting destructor'
;	COMDAT xdata$x
xdata$x	SEGMENT
__ehfuncinfo$??$_Emplace_reallocate@ABUModelDef@CModelPool@@@?$vector@UModelDef@CModelPool@@V?$xalloc@UModelDef@CModelPool@@@@@std@@QAEPAUModelDef@CModelPool@@QAU23@ABU23@@Z DD 019930522H
	DD	02H
	DD	FLAT:__unwindtable$??$_Emplace_reallocate@ABUModelDef@CModelPool@@@?$vector@UModelDef@CModelPool@@V?$xalloc@UModelDef@CModelPool@@@@@std@@QAEPAUModelDef@CModelPool@@QAU23@ABU23@@Z
	DD	01H
	DD	FLAT:__tryblocktable$??$_Emplace_reallocate@ABUModelDef@CModelPool@@@?$vector@UModelDef@CModelPool@@V?$xalloc@UModelDef@CModelPool@@@@@std@@QAEPAUModelDef@CModelPool@@QAU23@ABU23@@Z
	DD	2 DUP(00H)
	DD	00H
	DD	00H
__unwindtable$??$_Emplace_reallocate@ABUModelDef@CModelPool@@@?$vector@UModelDef@CModelPool@@V?$xalloc@UModelDef@CModelPool@@@@@std@@QAEPAUModelDef@CModelPool@@QAU23@ABU23@@Z DD 0ffffffffH
	DD	00H
	DD	0ffffffffH
	DD	00H
__tryblocktable$??$_Emplace_reallocate@ABUModelDef@CModelPool@@@?$vector@UModelDef@CModelPool@@V?$xalloc@UModelDef@CModelPool@@@@@std@@QAEPAUModelDef@CModelPool@@QAU23@ABU23@@Z DD 00H
	DD	00H
	DD	01H
	DD	01H
	DD	FLAT:__catchsym$??$_Emplace_reallocate@ABUModelDef@CModelPool@@@?$vector@UModelDef@CModelPool@@V?$xalloc@UModelDef@CModelPool@@@@@std@@QAEPAUModelDef@CModelPool@@QAU23@ABU23@@Z$2
__catchsym$??$_Emplace_reallocate@ABUModelDef@CModelPool@@@?$vector@UModelDef@CModelPool@@V?$xalloc@UModelDef@CModelPool@@@@@std@@QAEPAUModelDef@CModelPool@@QAU23@ABU23@@Z$2 DD 00H
	DD	00H
	DD	00H
	DD	FLAT:__catch$??$_Emplace_reallocate@ABUModelDef@CModelPool@@@?$vector@UModelDef@CModelPool@@V?$xalloc@UModelDef@CModelPool@@@@@std@@QAEPAUModelDef@CModelPool@@QAU23@ABU23@@Z$0
xdata$x	ENDS
;	COMDAT xdata$x
xdata$x	SEGMENT
__ehfuncinfo$??$_Emplace_reallocate@ABQAVIRender_Visual@@@?$vector@PAVIRender_Visual@@V?$xalloc@PAVIRender_Visual@@@@@std@@QAEPAPAVIRender_Visual@@QAPAV2@ABQAV2@@Z DD 019930522H
	DD	02H
	DD	FLAT:__unwindtable$??$_Emplace_reallocate@ABQAVIRender_Visual@@@?$vector@PAVIRender_Visual@@V?$xalloc@PAVIRender_Visual@@@@@std@@QAEPAPAVIRender_Visual@@QAPAV2@ABQAV2@@Z
	DD	01H
	DD	FLAT:__tryblocktable$??$_Emplace_reallocate@ABQAVIRender_Visual@@@?$vector@PAVIRender_Visual@@V?$xalloc@PAVIRender_Visual@@@@@std@@QAEPAPAVIRender_Visual@@QAPAV2@ABQAV2@@Z
	DD	2 DUP(00H)
	DD	00H
	DD	00H
__unwindtable$??$_Emplace_reallocate@ABQAVIRender_Visual@@@?$vector@PAVIRender_Visual@@V?$xalloc@PAVIRender_Visual@@@@@std@@QAEPAPAVIRender_Visual@@QAPAV2@ABQAV2@@Z DD 0ffffffffH
	DD	00H
	DD	0ffffffffH
	DD	00H
__tryblocktable$??$_Emplace_reallocate@ABQAVIRender_Visual@@@?$vector@PAVIRender_Visual@@V?$xalloc@PAVIRender_Visual@@@@@std@@QAEPAPAVIRender_Visual@@QAPAV2@ABQAV2@@Z DD 00H
	DD	00H
	DD	01H
	DD	01H
	DD	FLAT:__catchsym$??$_Emplace_reallocate@ABQAVIRender_Visual@@@?$vector@PAVIRender_Visual@@V?$xalloc@PAVIRender_Visual@@@@@std@@QAEPAPAVIRender_Visual@@QAPAV2@ABQAV2@@Z$2
__catchsym$??$_Emplace_reallocate@ABQAVIRender_Visual@@@?$vector@PAVIRender_Visual@@V?$xalloc@PAVIRender_Visual@@@@@std@@QAEPAPAVIRender_Visual@@QAPAV2@ABQAV2@@Z$2 DD 00H
	DD	00H
	DD	00H
	DD	FLAT:__catch$??$_Emplace_reallocate@ABQAVIRender_Visual@@@?$vector@PAVIRender_Visual@@V?$xalloc@PAVIRender_Visual@@@@@std@@QAEPAPAVIRender_Visual@@QAPAV2@ABQAV2@@Z$0
; Function compile flags: /Ogtpy
; File I:\Vitalya\mine\NSProjectX\layers\xrRender\fskinned.h
; File I:\Vitalya\mine\NSProjectX\layers\xrRender\FVisual.cpp
; File I:\Vitalya\mine\NSProjectX\layers\xrRender\fskinned.h
;	COMDAT ??0CSkeletonX_ST@@QAE@XZ
_TEXT	SEGMENT
??0CSkeletonX_ST@@QAE@XZ PROC				; CSkeletonX_ST::CSkeletonX_ST, COMDAT
; _this$ = ecx

; 39   : 							CSkeletonX_ST	()	{}

	push	ebx
	push	esi
	push	edi
	mov	ebx, ecx
; File I:\Vitalya\mine\NSProjectX\layers\xrRender\FVisual.cpp

; 19   : Fvisual::Fvisual()  : IRender_Visual()

	call	DWORD PTR __imp_??0IRender_Visual@@QAE@XZ

; 20   : {

	lea	ecx, DWORD PTR [ebx+68]
	call	DWORD PTR __imp_??0IRender_Mesh@@QAE@XZ
	lea	ecx, DWORD PTR [ebx+108]
	mov	DWORD PTR [ebx], OFFSET ??_7Fvisual@@6BIRender_Visual@@@
	mov	DWORD PTR [ebx+68], OFFSET ??_7Fvisual@@6BIRender_Mesh@@@

; 21   : 	m_fast	=	0;

	mov	DWORD PTR [ebx+104], 0
	call	DWORD PTR __imp_??0CSkeletonX@@QAE@XZ
; File I:\Vitalya\mine\NSProjectX\layers\xrRender\fskinned.h

; 39   : 							CSkeletonX_ST	()	{}

	pop	edi
	pop	esi
	mov	DWORD PTR [ebx], OFFSET ??_7CSkeletonX_ST@@6BIRender_Visual@@@
	mov	eax, ebx
	mov	DWORD PTR [ebx+68], OFFSET ??_7CSkeletonX_ST@@6BIRender_Mesh@@@
	mov	DWORD PTR [ebx+108], OFFSET ??_7CSkeletonX_ST@@6B@
	pop	ebx
	ret	0
??0CSkeletonX_ST@@QAE@XZ ENDP				; CSkeletonX_ST::CSkeletonX_ST
_TEXT	ENDS
; Function compile flags: /Ogtpy
; File I:\Vitalya\mine\NSProjectX\layers\xrRender\fskinned.h
; File I:\Vitalya\mine\NSProjectX\layers\xrRender\FVisual.cpp
; File I:\Vitalya\mine\NSProjectX\xrCore\xrMemory_subst_msvc.h
; File I:\Vitalya\mine\NSProjectX\layers\xrRender\FVisual.cpp
; File I:\Vitalya\mine\NSProjectX\layers\xrRender\fskinned.h
;	COMDAT ??1CSkeletonX_ST@@UAE@XZ
_TEXT	SEGMENT
??1CSkeletonX_ST@@UAE@XZ PROC				; CSkeletonX_ST::~CSkeletonX_ST, COMDAT
; _this$ = ecx

; 40   : 	virtual					~CSkeletonX_ST	()	{}

	push	ebx
	push	edi
	mov	edi, ecx
	lea	ecx, DWORD PTR [edi+108]
	mov	DWORD PTR [ecx], OFFSET ??_7CSkeletonX_ST@@6B@
	mov	DWORD PTR [edi], OFFSET ??_7CSkeletonX_ST@@6BIRender_Visual@@@
	mov	DWORD PTR [edi+68], OFFSET ??_7CSkeletonX_ST@@6BIRender_Mesh@@@
	call	DWORD PTR __imp_??1CSkeletonX@@QAE@XZ
; File I:\Vitalya\mine\NSProjectX\layers\xrRender\FVisual.cpp

; 25   : {

	mov	DWORD PTR [edi], OFFSET ??_7Fvisual@@6BIRender_Visual@@@
	mov	DWORD PTR [edi+68], OFFSET ??_7Fvisual@@6BIRender_Mesh@@@
; File I:\Vitalya\mine\NSProjectX\xrCore\xrMemory_subst_msvc.h

; 151  : 	if (ptr) 

	mov	eax, DWORD PTR [edi+104]
	test	eax, eax
	je	SHORT $LN8@CSkeletonX

; 132  : 		void*	_real_ptr	= dynamic_cast<void*>(ptr);

	push	esi
	push	eax
	call	___RTCastToVoid

; 133  : 		ptr->~T			();

	mov	ecx, DWORD PTR [edi+104]
	add	esp, 4
	mov	esi, eax
	mov	edx, DWORD PTR [ecx]
	push	0
	call	DWORD PTR [edx]

; 134  : 		Memory.mem_free	(_real_ptr);

	mov	ecx, DWORD PTR __imp_?Memory@@3VxrMemory@@A
	push	esi
	call	DWORD PTR __imp_?mem_free@xrMemory@@QAEXPAX@Z

; 154  : 		ptr = nullptr;

	mov	DWORD PTR [edi+104], 0
	pop	esi
$LN8@CSkeletonX:
; File I:\Vitalya\mine\NSProjectX\layers\xrRender\FVisual.cpp

; 27   : }

	lea	ecx, DWORD PTR [edi+68]
	call	DWORD PTR __imp_??1IRender_Mesh@@UAE@XZ
	mov	ecx, edi
	pop	edi
	pop	ebx
	jmp	DWORD PTR __imp_??1IRender_Visual@@UAE@XZ
??1CSkeletonX_ST@@UAE@XZ ENDP				; CSkeletonX_ST::~CSkeletonX_ST
_TEXT	ENDS
; Function compile flags: /Ogtpy
; File I:\Vitalya\mine\NSProjectX\layers\xrRender\fskinned.h
; File I:\Vitalya\mine\NSProjectX\layers\xrRender\FVisual.cpp
; File I:\Vitalya\mine\NSProjectX\xrCore\xrMemory_subst_msvc.h
; File I:\Vitalya\mine\NSProjectX\layers\xrRender\FVisual.cpp
;	COMDAT ??_GCSkeletonX_ST@@UAEPAXI@Z
_TEXT	SEGMENT
___flags$ = 8						; size = 4
??_GCSkeletonX_ST@@UAEPAXI@Z PROC			; CSkeletonX_ST::`scalar deleting destructor', COMDAT
; _this$ = ecx
; File I:\Vitalya\mine\NSProjectX\layers\xrRender\fskinned.h

; 40   : 	virtual					~CSkeletonX_ST	()	{}

	push	ebx
	push	edi
	mov	edi, ecx
	lea	ecx, DWORD PTR [edi+108]
	mov	DWORD PTR [ecx], OFFSET ??_7CSkeletonX_ST@@6B@
	mov	DWORD PTR [edi], OFFSET ??_7CSkeletonX_ST@@6BIRender_Visual@@@
	mov	DWORD PTR [edi+68], OFFSET ??_7CSkeletonX_ST@@6BIRender_Mesh@@@
	call	DWORD PTR __imp_??1CSkeletonX@@QAE@XZ
; File I:\Vitalya\mine\NSProjectX\layers\xrRender\FVisual.cpp

; 25   : {

	mov	DWORD PTR [edi], OFFSET ??_7Fvisual@@6BIRender_Visual@@@
	mov	DWORD PTR [edi+68], OFFSET ??_7Fvisual@@6BIRender_Mesh@@@
; File I:\Vitalya\mine\NSProjectX\xrCore\xrMemory_subst_msvc.h

; 151  : 	if (ptr) 

	mov	eax, DWORD PTR [edi+104]
	test	eax, eax
	je	SHORT $LN11@scalar

; 132  : 		void*	_real_ptr	= dynamic_cast<void*>(ptr);

	push	esi
	push	eax
	call	___RTCastToVoid

; 133  : 		ptr->~T			();

	mov	ecx, DWORD PTR [edi+104]
	add	esp, 4
	mov	esi, eax
	mov	edx, DWORD PTR [ecx]
	push	0
	call	DWORD PTR [edx]

; 134  : 		Memory.mem_free	(_real_ptr);

	mov	ecx, DWORD PTR __imp_?Memory@@3VxrMemory@@A
	push	esi
	call	DWORD PTR __imp_?mem_free@xrMemory@@QAEXPAX@Z

; 154  : 		ptr = nullptr;

	mov	DWORD PTR [edi+104], 0
	pop	esi
$LN11@scalar:
; File I:\Vitalya\mine\NSProjectX\layers\xrRender\FVisual.cpp

; 27   : }

	lea	ecx, DWORD PTR [edi+68]
	call	DWORD PTR __imp_??1IRender_Mesh@@UAE@XZ
	mov	ecx, edi
	call	DWORD PTR __imp_??1IRender_Visual@@UAE@XZ
	test	BYTE PTR ___flags$[esp+4], 1
	je	SHORT $LN15@scalar
	push	144					; 00000090H
	push	edi
	call	??3@YAXPAXI@Z				; operator delete
	add	esp, 8
$LN15@scalar:
	mov	eax, edi
	pop	edi
	pop	ebx
	ret	4
??_GCSkeletonX_ST@@UAEPAXI@Z ENDP			; CSkeletonX_ST::`scalar deleting destructor'
_TEXT	ENDS
; Function compile flags: /Ogtpy
;	COMDAT ??0CSkeletonX_ext@@QAE@XZ
_TEXT	SEGMENT
??0CSkeletonX_ext@@QAE@XZ PROC				; CSkeletonX_ext::CSkeletonX_ext, COMDAT
; _this$ = ecx
	push	esi
	mov	esi, ecx
	call	DWORD PTR __imp_??0CSkeletonX@@QAE@XZ
	mov	DWORD PTR [esi], OFFSET ??_7CSkeletonX_ext@@6B@
	mov	eax, esi
	pop	esi
	ret	0
??0CSkeletonX_ext@@QAE@XZ ENDP				; CSkeletonX_ext::CSkeletonX_ext
_TEXT	ENDS
; Function compile flags: /Ogtpy
;	COMDAT ??1CSkeletonX_ext@@QAE@XZ
_TEXT	SEGMENT
??1CSkeletonX_ext@@QAE@XZ PROC				; CSkeletonX_ext::~CSkeletonX_ext, COMDAT
; _this$ = ecx
	jmp	DWORD PTR __imp_??1CSkeletonX@@QAE@XZ
??1CSkeletonX_ext@@QAE@XZ ENDP				; CSkeletonX_ext::~CSkeletonX_ext
_TEXT	ENDS
; Function compile flags: /Ogtpy
; File I:\Vitalya\mine\NSProjectX\layers\xrRender\fskinned.h
; File I:\Vitalya\mine\NSProjectX\layers\xrRender\FVisual.cpp
; File I:\Vitalya\mine\NSProjectX\layers\xrRender\FProgressive.cpp
; File I:\Vitalya\mine\NSProjectX\layers\xrRender\FVisual.cpp
; File I:\Vitalya\mine\NSProjectX\xrEngine\Fmesh.h
; File I:\Vitalya\mine\NSProjectX\layers\xrRender\FProgressive.cpp
; File I:\Vitalya\mine\NSProjectX\layers\xrRender\fskinned.h
;	COMDAT ??0CSkeletonX_PM@@QAE@XZ
_TEXT	SEGMENT
??0CSkeletonX_PM@@QAE@XZ PROC				; CSkeletonX_PM::CSkeletonX_PM, COMDAT
; _this$ = ecx

; 60   : 							CSkeletonX_PM	()	{}

	push	ebx
	push	esi
	push	edi
	mov	ebx, ecx
; File I:\Vitalya\mine\NSProjectX\layers\xrRender\FVisual.cpp

; 19   : Fvisual::Fvisual()  : IRender_Visual()

	call	DWORD PTR __imp_??0IRender_Visual@@QAE@XZ

; 20   : {

	lea	ecx, DWORD PTR [ebx+68]
	call	DWORD PTR __imp_??0IRender_Mesh@@QAE@XZ
; File I:\Vitalya\mine\NSProjectX\layers\xrRender\FProgressive.cpp

; 16   : {

	mov	DWORD PTR [ebx], OFFSET ??_7FProgressive@@6BIRender_Visual@@@
	lea	ecx, DWORD PTR [ebx+140]
	mov	DWORD PTR [ebx+68], OFFSET ??_7FProgressive@@6BIRender_Mesh@@@
; File I:\Vitalya\mine\NSProjectX\layers\xrRender\FVisual.cpp

; 21   : 	m_fast	=	0;

	mov	DWORD PTR [ebx+104], 0
; File I:\Vitalya\mine\NSProjectX\xrEngine\Fmesh.h

; 105  : 	FSlideWindowItem() : sw(0), count(0) {};

	mov	DWORD PTR [ebx+108], 0
	mov	DWORD PTR [ebx+112], 0
; File I:\Vitalya\mine\NSProjectX\layers\xrRender\FProgressive.cpp

; 17   : 	xSWI			= 0;

	mov	DWORD PTR [ebx+132], 0

; 18   : 	last_lod		= 0;

	mov	DWORD PTR [ebx+136], 0
	call	DWORD PTR __imp_??0CSkeletonX@@QAE@XZ
; File I:\Vitalya\mine\NSProjectX\layers\xrRender\fskinned.h

; 60   : 							CSkeletonX_PM	()	{}

	pop	edi
	pop	esi
	mov	DWORD PTR [ebx], OFFSET ??_7CSkeletonX_PM@@6BIRender_Visual@@@
	mov	eax, ebx
	mov	DWORD PTR [ebx+68], OFFSET ??_7CSkeletonX_PM@@6BIRender_Mesh@@@
	mov	DWORD PTR [ebx+140], OFFSET ??_7CSkeletonX_PM@@6B@
	pop	ebx
	ret	0
??0CSkeletonX_PM@@QAE@XZ ENDP				; CSkeletonX_PM::CSkeletonX_PM
_TEXT	ENDS
; Function compile flags: /Ogtpy
; File I:\Vitalya\mine\NSProjectX\layers\xrRender\fskinned.h
; File I:\Vitalya\mine\NSProjectX\layers\xrRender\FVisual.cpp
; File I:\Vitalya\mine\NSProjectX\xrCore\xrMemory_subst_msvc.h
; File I:\Vitalya\mine\NSProjectX\layers\xrRender\FVisual.cpp
; File I:\Vitalya\mine\NSProjectX\layers\xrRender\fskinned.h
;	COMDAT ??1CSkeletonX_PM@@UAE@XZ
_TEXT	SEGMENT
??1CSkeletonX_PM@@UAE@XZ PROC				; CSkeletonX_PM::~CSkeletonX_PM, COMDAT
; _this$ = ecx

; 61   : 	virtual					~CSkeletonX_PM	()	{}

	push	ebx
	push	edi
	mov	edi, ecx
	lea	ecx, DWORD PTR [edi+140]
	mov	DWORD PTR [ecx], OFFSET ??_7CSkeletonX_PM@@6B@
	mov	DWORD PTR [edi], OFFSET ??_7CSkeletonX_PM@@6BIRender_Visual@@@
	mov	DWORD PTR [edi+68], OFFSET ??_7CSkeletonX_PM@@6BIRender_Mesh@@@
	call	DWORD PTR __imp_??1CSkeletonX@@QAE@XZ
; File I:\Vitalya\mine\NSProjectX\layers\xrRender\FVisual.cpp

; 25   : {

	mov	DWORD PTR [edi], OFFSET ??_7Fvisual@@6BIRender_Visual@@@
	mov	DWORD PTR [edi+68], OFFSET ??_7Fvisual@@6BIRender_Mesh@@@
; File I:\Vitalya\mine\NSProjectX\xrCore\xrMemory_subst_msvc.h

; 151  : 	if (ptr) 

	mov	eax, DWORD PTR [edi+104]
	test	eax, eax
	je	SHORT $LN10@CSkeletonX

; 132  : 		void*	_real_ptr	= dynamic_cast<void*>(ptr);

	push	esi
	push	eax
	call	___RTCastToVoid

; 133  : 		ptr->~T			();

	mov	ecx, DWORD PTR [edi+104]
	add	esp, 4
	mov	esi, eax
	mov	edx, DWORD PTR [ecx]
	push	0
	call	DWORD PTR [edx]

; 134  : 		Memory.mem_free	(_real_ptr);

	mov	ecx, DWORD PTR __imp_?Memory@@3VxrMemory@@A
	push	esi
	call	DWORD PTR __imp_?mem_free@xrMemory@@QAEXPAX@Z

; 154  : 		ptr = nullptr;

	mov	DWORD PTR [edi+104], 0
	pop	esi
$LN10@CSkeletonX:
; File I:\Vitalya\mine\NSProjectX\layers\xrRender\FVisual.cpp

; 27   : }

	lea	ecx, DWORD PTR [edi+68]
	call	DWORD PTR __imp_??1IRender_Mesh@@UAE@XZ
	mov	ecx, edi
	pop	edi
	pop	ebx
	jmp	DWORD PTR __imp_??1IRender_Visual@@UAE@XZ
??1CSkeletonX_PM@@UAE@XZ ENDP				; CSkeletonX_PM::~CSkeletonX_PM
_TEXT	ENDS
; Function compile flags: /Ogtpy
; File I:\Vitalya\mine\NSProjectX\layers\xrRender\fskinned.h
; File I:\Vitalya\mine\NSProjectX\layers\xrRender\FVisual.cpp
; File I:\Vitalya\mine\NSProjectX\xrCore\xrMemory_subst_msvc.h
; File I:\Vitalya\mine\NSProjectX\layers\xrRender\FVisual.cpp
;	COMDAT ??_GCSkeletonX_PM@@UAEPAXI@Z
_TEXT	SEGMENT
___flags$ = 8						; size = 4
??_GCSkeletonX_PM@@UAEPAXI@Z PROC			; CSkeletonX_PM::`scalar deleting destructor', COMDAT
; _this$ = ecx
; File I:\Vitalya\mine\NSProjectX\layers\xrRender\fskinned.h

; 61   : 	virtual					~CSkeletonX_PM	()	{}

	push	ebx
	push	edi
	mov	edi, ecx
	lea	ecx, DWORD PTR [edi+140]
	mov	DWORD PTR [ecx], OFFSET ??_7CSkeletonX_PM@@6B@
	mov	DWORD PTR [edi], OFFSET ??_7CSkeletonX_PM@@6BIRender_Visual@@@
	mov	DWORD PTR [edi+68], OFFSET ??_7CSkeletonX_PM@@6BIRender_Mesh@@@
	call	DWORD PTR __imp_??1CSkeletonX@@QAE@XZ
; File I:\Vitalya\mine\NSProjectX\layers\xrRender\FVisual.cpp

; 25   : {

	mov	DWORD PTR [edi], OFFSET ??_7Fvisual@@6BIRender_Visual@@@
	mov	DWORD PTR [edi+68], OFFSET ??_7Fvisual@@6BIRender_Mesh@@@
; File I:\Vitalya\mine\NSProjectX\xrCore\xrMemory_subst_msvc.h

; 151  : 	if (ptr) 

	mov	eax, DWORD PTR [edi+104]
	test	eax, eax
	je	SHORT $LN13@scalar

; 132  : 		void*	_real_ptr	= dynamic_cast<void*>(ptr);

	push	esi
	push	eax
	call	___RTCastToVoid

; 133  : 		ptr->~T			();

	mov	ecx, DWORD PTR [edi+104]
	add	esp, 4
	mov	esi, eax
	mov	edx, DWORD PTR [ecx]
	push	0
	call	DWORD PTR [edx]

; 134  : 		Memory.mem_free	(_real_ptr);

	mov	ecx, DWORD PTR __imp_?Memory@@3VxrMemory@@A
	push	esi
	call	DWORD PTR __imp_?mem_free@xrMemory@@QAEXPAX@Z

; 154  : 		ptr = nullptr;

	mov	DWORD PTR [edi+104], 0
	pop	esi
$LN13@scalar:
; File I:\Vitalya\mine\NSProjectX\layers\xrRender\FVisual.cpp

; 27   : }

	lea	ecx, DWORD PTR [edi+68]
	call	DWORD PTR __imp_??1IRender_Mesh@@UAE@XZ
	mov	ecx, edi
	call	DWORD PTR __imp_??1IRender_Visual@@UAE@XZ
	test	BYTE PTR ___flags$[esp+4], 1
	je	SHORT $LN17@scalar
	push	176					; 000000b0H
	push	edi
	call	??3@YAXPAXI@Z				; operator delete
	add	esp, 8
$LN17@scalar:
	mov	eax, edi
	pop	edi
	pop	ebx
	ret	4
??_GCSkeletonX_PM@@UAEPAXI@Z ENDP			; CSkeletonX_PM::`scalar deleting destructor'
_TEXT	ENDS
; Function compile flags: /Ogtpy
; File I:\Vitalya\mine\NSProjectX\layers\xrRender\ModelPool.cpp
; File I:\Vitalya\mine\NSProjectX\xrCore\xrMemory_subst_msvc.h
; File I:\Vitalya\mine\NSProjectX\layers\xrRender\FVisual.cpp
; File I:\Vitalya\mine\NSProjectX\layers\xrRender\ModelPool.cpp
; File I:\Vitalya\mine\NSProjectX\xrCore\xrMemory_subst_msvc.h
; File I:\Vitalya\mine\NSProjectX\layers\xrRender\ModelPool.cpp
; File I:\Vitalya\mine\NSProjectX\xrCore\xrMemory_subst_msvc.h
; File I:\Vitalya\mine\NSProjectX\layers\xrRender\FVisual.cpp
; File I:\Vitalya\mine\NSProjectX\layers\xrRender\FProgressive.cpp
; File I:\Vitalya\mine\NSProjectX\xrEngine\Fmesh.h
; File I:\Vitalya\mine\NSProjectX\layers\xrRender\FProgressive.cpp
; File I:\Vitalya\mine\NSProjectX\layers\xrRender\ModelPool.cpp
; File I:\Vitalya\mine\NSProjectX\xrCore\xrMemory_subst_msvc.h
; File I:\Vitalya\mine\NSProjectX\layers\xrRender\ModelPool.cpp
; File I:\Vitalya\mine\NSProjectX\xrCore\xrMemory_subst_msvc.h
; File I:\Vitalya\mine\NSProjectX\layers\xrRender\ModelPool.cpp
; File I:\Vitalya\mine\NSProjectX\xrCore\xrMemory_subst_msvc.h
; File I:\Vitalya\mine\NSProjectX\layers\xrRender\FVisual.cpp
; File I:\Vitalya\mine\NSProjectX\layers\xrRender\FProgressive.cpp
; File I:\Vitalya\mine\NSProjectX\layers\xrRender\FVisual.cpp
; File I:\Vitalya\mine\NSProjectX\xrEngine\Fmesh.h
; File I:\Vitalya\mine\NSProjectX\layers\xrRender\FProgressive.cpp
; File I:\Vitalya\mine\NSProjectX\layers\xrRender\fskinned.h
; File I:\Vitalya\mine\NSProjectX\layers\xrRender\ModelPool.cpp
; File I:\Vitalya\mine\NSProjectX\xrCore\xrMemory_subst_msvc.h
; File I:\Vitalya\mine\NSProjectX\layers\xrRender\FVisual.cpp
; File I:\Vitalya\mine\NSProjectX\layers\xrRender\fskinned.h
; File I:\Vitalya\mine\NSProjectX\layers\xrRender\ModelPool.cpp
; File I:\Vitalya\mine\NSProjectX\xrCore\xrMemory_subst_msvc.h
; File I:\Vitalya\mine\NSProjectX\layers\xrRender\ParticleEffect.cpp
; File I:\Vitalya\mine\NSProjectX\xrCore\_flags.h
; File I:\Vitalya\mine\NSProjectX\layers\xrRender\ParticleEffect.cpp
; File I:\Vitalya\mine\NSProjectX\xrCore\_vector3d.h
; File I:\Vitalya\mine\NSProjectX\layers\xrRender\ParticleEffect.cpp
; File I:\Vitalya\mine\NSProjectX\xrCore\_matrix.h
; File I:\Vitalya\mine\NSProjectX\layers\xrRender\ModelPool.cpp
; File I:\Vitalya\mine\NSProjectX\xrCore\xrMemory_subst_msvc.h
; File I:\Vitalya\mine\NSProjectX\layers\xrRender\ParticleGroup.cpp
; File C:\Program Files\Microsoft Visual Studio\2022\Community\VC\Tools\MSVC\14.29.30133\include\vector
; File I:\Vitalya\mine\NSProjectX\xrCore\_flags.h
; File I:\Vitalya\mine\NSProjectX\xrCore\_vector3d.h
; File I:\Vitalya\mine\NSProjectX\layers\xrRender\ModelPool.cpp
; File I:\Vitalya\mine\NSProjectX\xrCore\xrMemory_subst_msvc.h
; File I:\Vitalya\mine\NSProjectX\xrCore\xr_resource.h
; File I:\Vitalya\mine\NSProjectX\layers\xrRender\ModelPool.cpp
; File I:\Vitalya\mine\NSProjectX\xrCore\xrMemory_subst_msvc.h
; File I:\Vitalya\mine\NSProjectX\layers\xrRender\FTreeVisual.cpp
; File I:\Vitalya\mine\NSProjectX\layers\xrRender\ModelPool.cpp
; File I:\Vitalya\mine\NSProjectX\xrCore\xrMemory_subst_msvc.h
; File I:\Vitalya\mine\NSProjectX\layers\xrRender\FTreeVisual.cpp
; File I:\Vitalya\mine\NSProjectX\layers\xrRender\ModelPool.cpp
_TEXT	SEGMENT
_type$ = 8						; size = 4
?Instance_Create@CModelPool@@QAEPAVIRender_Visual@@I@Z PROC ; CModelPool::Instance_Create
; _this$dead$ = ecx

; 29   : {

	push	ebx
	push	ebp

; 30   : 	IRender_Visual *V = NULL;
; 31   : 
; 32   : 	// Check types
; 33   : 	switch (type) {

	mov	ebp, DWORD PTR _type$[esp+4]
	xor	ebx, ebx
	push	esi
	push	edi
	cmp	ebp, 11					; 0000000bH
	ja	$LN19@Instance_C
	jmp	DWORD PTR $LN110@Instance_C[ebp*4]
$LN7@Instance_C:
; File I:\Vitalya\mine\NSProjectX\xrCore\xrMemory_subst_msvc.h

; 68   : 	T* ptr	= (T*)Memory.mem_alloc(sizeof(T));

	mov	ecx, DWORD PTR __imp_?Memory@@3VxrMemory@@A
	push	108					; 0000006cH
	call	DWORD PTR __imp_?mem_alloc@xrMemory@@QAEPAXI@Z

; 69   : 	return new (ptr) T();

	mov	ebx, eax
; File I:\Vitalya\mine\NSProjectX\layers\xrRender\FVisual.cpp

; 19   : Fvisual::Fvisual()  : IRender_Visual()

	mov	ecx, ebx
	call	DWORD PTR __imp_??0IRender_Visual@@QAE@XZ

; 20   : {

	lea	ecx, DWORD PTR [ebx+68]
	call	DWORD PTR __imp_??0IRender_Mesh@@QAE@XZ
	mov	DWORD PTR [ebx], OFFSET ??_7Fvisual@@6BIRender_Visual@@@
	mov	DWORD PTR [ebx+68], OFFSET ??_7Fvisual@@6BIRender_Mesh@@@

; 21   : 	m_fast	=	0;

	mov	DWORD PTR [ebx+104], 0
; File I:\Vitalya\mine\NSProjectX\layers\xrRender\ModelPool.cpp

; 36   : 		break;

	jmp	$LN6@Instance_C
$LN8@Instance_C:
; File I:\Vitalya\mine\NSProjectX\xrCore\xrMemory_subst_msvc.h

; 68   : 	T* ptr	= (T*)Memory.mem_alloc(sizeof(T));

	mov	ecx, DWORD PTR __imp_?Memory@@3VxrMemory@@A
	push	84					; 00000054H
	call	DWORD PTR __imp_?mem_alloc@xrMemory@@QAEPAXI@Z

; 69   : 	return new (ptr) T();

	mov	ebx, eax
	mov	ecx, ebx
	call	DWORD PTR __imp_??0FHierrarhyVisual@@QAE@XZ
	mov	DWORD PTR [ebx], OFFSET ??_SFHierrarhyVisual@@6B@
; File I:\Vitalya\mine\NSProjectX\layers\xrRender\ModelPool.cpp

; 39   : 		break;

	jmp	$LN6@Instance_C
$LN9@Instance_C:
; File I:\Vitalya\mine\NSProjectX\xrCore\xrMemory_subst_msvc.h

; 68   : 	T* ptr	= (T*)Memory.mem_alloc(sizeof(T));

	mov	ecx, DWORD PTR __imp_?Memory@@3VxrMemory@@A
	push	140					; 0000008cH
	call	DWORD PTR __imp_?mem_alloc@xrMemory@@QAEPAXI@Z

; 69   : 	return new (ptr) T();

	mov	ebx, eax
; File I:\Vitalya\mine\NSProjectX\layers\xrRender\FVisual.cpp

; 19   : Fvisual::Fvisual()  : IRender_Visual()

	mov	ecx, ebx
	call	DWORD PTR __imp_??0IRender_Visual@@QAE@XZ

; 20   : {

	lea	ecx, DWORD PTR [ebx+68]
	call	DWORD PTR __imp_??0IRender_Mesh@@QAE@XZ

; 21   : 	m_fast	=	0;

	mov	DWORD PTR [ebx+104], 0
; File I:\Vitalya\mine\NSProjectX\layers\xrRender\FProgressive.cpp

; 16   : {

	mov	DWORD PTR [ebx], OFFSET ??_7FProgressive@@6BIRender_Visual@@@
	mov	DWORD PTR [ebx+68], OFFSET ??_7FProgressive@@6BIRender_Mesh@@@
; File I:\Vitalya\mine\NSProjectX\xrEngine\Fmesh.h

; 105  : 	FSlideWindowItem() : sw(0), count(0) {};

	mov	DWORD PTR [ebx+108], 0
	mov	DWORD PTR [ebx+112], 0
; File I:\Vitalya\mine\NSProjectX\layers\xrRender\FProgressive.cpp

; 17   : 	xSWI			= 0;

	mov	DWORD PTR [ebx+132], 0

; 18   : 	last_lod		= 0;

	mov	DWORD PTR [ebx+136], 0
; File I:\Vitalya\mine\NSProjectX\layers\xrRender\ModelPool.cpp

; 42   : 		break;

	jmp	$LN6@Instance_C
$LN10@Instance_C:
; File I:\Vitalya\mine\NSProjectX\xrCore\xrMemory_subst_msvc.h

; 68   : 	T* ptr	= (T*)Memory.mem_alloc(sizeof(T));

	mov	ecx, DWORD PTR __imp_?Memory@@3VxrMemory@@A
	push	17896					; 000045e8H
	call	DWORD PTR __imp_?mem_alloc@xrMemory@@QAEPAXI@Z

; 69   : 	return new (ptr) T();

	push	17896					; 000045e8H
	mov	ebx, eax
	push	0
	push	ebx
	call	_memset
	add	esp, 12					; 0000000cH
	mov	ecx, ebx
	call	DWORD PTR __imp_??0CKinematicsAnimated@@QAE@XZ
	mov	DWORD PTR [ebx], OFFSET ??_SCKinematicsAnimated@@6B@
; File I:\Vitalya\mine\NSProjectX\layers\xrRender\ModelPool.cpp

; 45   : 		break;

	jmp	$LN6@Instance_C
$LN11@Instance_C:
; File I:\Vitalya\mine\NSProjectX\xrCore\xrMemory_subst_msvc.h

; 68   : 	T* ptr	= (T*)Memory.mem_alloc(sizeof(T));

	mov	ecx, DWORD PTR __imp_?Memory@@3VxrMemory@@A
	push	168					; 000000a8H
	call	DWORD PTR __imp_?mem_alloc@xrMemory@@QAEPAXI@Z

; 69   : 	return new (ptr) T();

	mov	ebx, eax
	mov	ecx, ebx
	call	DWORD PTR __imp_??0CKinematics@@QAE@XZ
	mov	DWORD PTR [ebx], OFFSET ??_SCKinematics@@6B@
; File I:\Vitalya\mine\NSProjectX\layers\xrRender\ModelPool.cpp

; 48   : 		break;

	jmp	$LN6@Instance_C
$LN12@Instance_C:
; File I:\Vitalya\mine\NSProjectX\xrCore\xrMemory_subst_msvc.h

; 68   : 	T* ptr	= (T*)Memory.mem_alloc(sizeof(T));

	mov	ecx, DWORD PTR __imp_?Memory@@3VxrMemory@@A
	push	176					; 000000b0H
	call	DWORD PTR __imp_?mem_alloc@xrMemory@@QAEPAXI@Z

; 69   : 	return new (ptr) T();

	mov	ebx, eax
; File I:\Vitalya\mine\NSProjectX\layers\xrRender\FVisual.cpp

; 19   : Fvisual::Fvisual()  : IRender_Visual()

	mov	ecx, ebx
	call	DWORD PTR __imp_??0IRender_Visual@@QAE@XZ

; 20   : {

	lea	ecx, DWORD PTR [ebx+68]
	call	DWORD PTR __imp_??0IRender_Mesh@@QAE@XZ
; File I:\Vitalya\mine\NSProjectX\layers\xrRender\FProgressive.cpp

; 16   : {

	mov	DWORD PTR [ebx], OFFSET ??_7FProgressive@@6BIRender_Visual@@@
	lea	ecx, DWORD PTR [ebx+140]
	mov	DWORD PTR [ebx+68], OFFSET ??_7FProgressive@@6BIRender_Mesh@@@
; File I:\Vitalya\mine\NSProjectX\layers\xrRender\FVisual.cpp

; 21   : 	m_fast	=	0;

	mov	DWORD PTR [ebx+104], 0
; File I:\Vitalya\mine\NSProjectX\xrEngine\Fmesh.h

; 105  : 	FSlideWindowItem() : sw(0), count(0) {};

	mov	DWORD PTR [ebx+108], 0
	mov	DWORD PTR [ebx+112], 0
; File I:\Vitalya\mine\NSProjectX\layers\xrRender\FProgressive.cpp

; 17   : 	xSWI			= 0;

	mov	DWORD PTR [ebx+132], 0

; 18   : 	last_lod		= 0;

	mov	DWORD PTR [ebx+136], 0
	call	DWORD PTR __imp_??0CSkeletonX@@QAE@XZ
; File I:\Vitalya\mine\NSProjectX\layers\xrRender\fskinned.h

; 60   : 							CSkeletonX_PM	()	{}

	mov	DWORD PTR [ebx], OFFSET ??_7CSkeletonX_PM@@6BIRender_Visual@@@
	mov	DWORD PTR [ebx+68], OFFSET ??_7CSkeletonX_PM@@6BIRender_Mesh@@@
	mov	DWORD PTR [ebx+140], OFFSET ??_7CSkeletonX_PM@@6B@
; File I:\Vitalya\mine\NSProjectX\layers\xrRender\ModelPool.cpp

; 51   : 		break;

	jmp	$LN6@Instance_C
$LN13@Instance_C:
; File I:\Vitalya\mine\NSProjectX\xrCore\xrMemory_subst_msvc.h

; 68   : 	T* ptr	= (T*)Memory.mem_alloc(sizeof(T));

	mov	ecx, DWORD PTR __imp_?Memory@@3VxrMemory@@A
	push	144					; 00000090H
	call	DWORD PTR __imp_?mem_alloc@xrMemory@@QAEPAXI@Z

; 69   : 	return new (ptr) T();

	mov	ebx, eax
; File I:\Vitalya\mine\NSProjectX\layers\xrRender\FVisual.cpp

; 19   : Fvisual::Fvisual()  : IRender_Visual()

	mov	ecx, ebx
	call	DWORD PTR __imp_??0IRender_Visual@@QAE@XZ

; 20   : {

	lea	ecx, DWORD PTR [ebx+68]
	call	DWORD PTR __imp_??0IRender_Mesh@@QAE@XZ
	lea	ecx, DWORD PTR [ebx+108]
	mov	DWORD PTR [ebx], OFFSET ??_7Fvisual@@6BIRender_Visual@@@
	mov	DWORD PTR [ebx+68], OFFSET ??_7Fvisual@@6BIRender_Mesh@@@

; 21   : 	m_fast	=	0;

	mov	DWORD PTR [ebx+104], 0
	call	DWORD PTR __imp_??0CSkeletonX@@QAE@XZ
; File I:\Vitalya\mine\NSProjectX\layers\xrRender\fskinned.h

; 39   : 							CSkeletonX_ST	()	{}

	mov	DWORD PTR [ebx], OFFSET ??_7CSkeletonX_ST@@6BIRender_Visual@@@
	mov	DWORD PTR [ebx+68], OFFSET ??_7CSkeletonX_ST@@6BIRender_Mesh@@@
	mov	DWORD PTR [ebx+108], OFFSET ??_7CSkeletonX_ST@@6B@
; File I:\Vitalya\mine\NSProjectX\layers\xrRender\ModelPool.cpp

; 54   : 		break;

	jmp	$LN6@Instance_C
$LN14@Instance_C:
; File I:\Vitalya\mine\NSProjectX\xrCore\xrMemory_subst_msvc.h

; 68   : 	T* ptr	= (T*)Memory.mem_alloc(sizeof(T));

	mov	ecx, DWORD PTR __imp_?Memory@@3VxrMemory@@A
	push	180					; 000000b4H
	call	DWORD PTR __imp_?mem_alloc@xrMemory@@QAEPAXI@Z

; 69   : 	return new (ptr) T();

	mov	ebx, eax
; File I:\Vitalya\mine\NSProjectX\layers\xrRender\ParticleEffect.cpp

; 52   : {

	mov	ecx, ebx
	call	DWORD PTR __imp_??0IParticleCustom@@QAE@XZ

; 53   : 	m_HandleEffect 			= ParticleManager()->CreateEffect(1);		VERIFY(m_HandleEffect>=0);

	mov	esi, DWORD PTR __imp_?ParticleManager@PAPI@@YAPAVIParticleManager@1@XZ
	mov	DWORD PTR [ebx], OFFSET ??_7CParticleEffect@PS@@6B@
	call	esi
	push	1
	mov	ecx, eax
	mov	edx, DWORD PTR [eax]
	call	DWORD PTR [edx+4]
	mov	DWORD PTR [ebx+80], eax

; 54   : 	m_HandleActionList		= ParticleManager()->CreateActionList();	VERIFY(m_HandleActionList>=0);

	call	esi
	mov	ecx, eax
	mov	edx, DWORD PTR [eax]
	call	DWORD PTR [edx+12]
	mov	DWORD PTR [ebx+84], eax
; File I:\Vitalya\mine\NSProjectX\xrCore\_flags.h

; 15   :     IC	SelfRef	zero	()											{ flags=T(0);	return *this;	}

	mov	BYTE PTR [ebx+176], 0
; File I:\Vitalya\mine\NSProjectX\layers\xrRender\ParticleEffect.cpp

; 56   : 	m_Def					= 0;

	mov	DWORD PTR [ebx+72], 0

; 57   : 	m_fElapsedLimit			= 0.f;

	mov	DWORD PTR [ebx+76], 0

; 58   : 	m_MemDT					= 0;

	mov	DWORD PTR [ebx+88], 0
; File I:\Vitalya\mine\NSProjectX\xrCore\_vector3d.h

; 23   : 	ICF	SelfRef	set(T _x, T _y, T _z)					{ x = _x;		y = _y;		z = _z;		return *this;	};

	mov	DWORD PTR [ebx+92], 0
	mov	DWORD PTR [ebx+96], 0
	mov	DWORD PTR [ebx+100], 0
; File I:\Vitalya\mine\NSProjectX\layers\xrRender\ParticleEffect.cpp

; 60   : 	m_DestroyCallback		= 0;

	mov	DWORD PTR [ebx+168], 0

; 61   : 	m_CollisionCallback		= 0;

	mov	DWORD PTR [ebx+172], 0
; File I:\Vitalya\mine\NSProjectX\xrCore\_matrix.h

; 72   : 		_11=1; _12=0; _13=0; _14=0;

	mov	DWORD PTR [ebx+104], 1065353216		; 3f800000H
	mov	DWORD PTR [ebx+108], 0
	mov	DWORD PTR [ebx+112], 0
	mov	DWORD PTR [ebx+116], 0

; 73   : 		_21=0; _22=1; _23=0; _24=0;

	mov	DWORD PTR [ebx+120], 0
	mov	DWORD PTR [ebx+124], 1065353216		; 3f800000H
	mov	DWORD PTR [ebx+128], 0
	mov	DWORD PTR [ebx+132], 0

; 74   : 		_31=0; _32=0; _33=1; _34=0;

	mov	DWORD PTR [ebx+136], 0
	mov	DWORD PTR [ebx+140], 0
	mov	DWORD PTR [ebx+144], 1065353216		; 3f800000H
	mov	DWORD PTR [ebx+148], 0

; 75   : 		_41=0; _42=0; _43=0; _44=1;

	mov	DWORD PTR [ebx+152], 0
	mov	DWORD PTR [ebx+156], 0
	mov	DWORD PTR [ebx+160], 0
	mov	DWORD PTR [ebx+164], 1065353216		; 3f800000H
; File I:\Vitalya\mine\NSProjectX\layers\xrRender\ModelPool.cpp

; 57   : 		break;

	jmp	$LN6@Instance_C
$LN15@Instance_C:
; File I:\Vitalya\mine\NSProjectX\xrCore\xrMemory_subst_msvc.h

; 68   : 	T* ptr	= (T*)Memory.mem_alloc(sizeof(T));

	mov	ecx, DWORD PTR __imp_?Memory@@3VxrMemory@@A
	push	108					; 0000006cH
	call	DWORD PTR __imp_?mem_alloc@xrMemory@@QAEPAXI@Z

; 69   : 	return new (ptr) T();

	mov	ebx, eax
; File I:\Vitalya\mine\NSProjectX\layers\xrRender\ParticleGroup.cpp

; 367  : {

	mov	ecx, ebx
	call	DWORD PTR __imp_??0IParticleCustom@@QAE@XZ
	mov	DWORD PTR [ebx], OFFSET ??_7CParticleGroup@PS@@6B@
; File C:\Program Files\Microsoft Visual Studio\2022\Community\VC\Tools\MSVC\14.29.30133\include\vector

; 390  :     _CONSTEXPR20_CONTAINER _Vector_val() noexcept : _Myfirst(), _Mylast(), _Myend() {}

	mov	DWORD PTR [ebx+92], 0
	mov	DWORD PTR [ebx+96], 0
	mov	DWORD PTR [ebx+100], 0
; File I:\Vitalya\mine\NSProjectX\xrCore\_flags.h

; 15   :     IC	SelfRef	zero	()											{ flags=T(0);	return *this;	}

	mov	BYTE PTR [ebx+104], 0
; File I:\Vitalya\mine\NSProjectX\xrCore\_vector3d.h

; 23   : 	ICF	SelfRef	set(T _x, T _y, T _z)					{ x = _x;		y = _y;		z = _z;		return *this;	};

	mov	DWORD PTR [ebx+80], 0
	mov	DWORD PTR [ebx+84], 0
	mov	DWORD PTR [ebx+88], 0
; File I:\Vitalya\mine\NSProjectX\layers\xrRender\ModelPool.cpp

; 60   : 		break;

	jmp	$LN6@Instance_C
$LN16@Instance_C:
; File I:\Vitalya\mine\NSProjectX\xrCore\xrMemory_subst_msvc.h

; 68   : 	T* ptr	= (T*)Memory.mem_alloc(sizeof(T));

	mov	ecx, DWORD PTR __imp_?Memory@@3VxrMemory@@A
	push	1084					; 0000043cH
	call	DWORD PTR __imp_?mem_alloc@xrMemory@@QAEPAXI@Z

; 69   : 	return new (ptr) T();

	push	1084					; 0000043cH
	mov	ebx, eax
	push	0
	push	ebx
	call	_memset
	add	esp, 12					; 0000000cH
	mov	ecx, ebx
	call	DWORD PTR __imp_??0FHierrarhyVisual@@QAE@XZ
	mov	DWORD PTR [ebx], OFFSET ??_7FLOD@@6B@
; File I:\Vitalya\mine\NSProjectX\xrCore\xr_resource.h

; 61   : 						resptr_core		()												{	p_ = 0;						}

	mov	DWORD PTR [ebx+84], 0
; File I:\Vitalya\mine\NSProjectX\layers\xrRender\ModelPool.cpp

; 64   : 		break;

	jmp	$LN6@Instance_C
$LN17@Instance_C:
; File I:\Vitalya\mine\NSProjectX\xrCore\xrMemory_subst_msvc.h

; 68   : 	T* ptr	= (T*)Memory.mem_alloc(sizeof(T));

	mov	ecx, DWORD PTR __imp_?Memory@@3VxrMemory@@A
	push	208					; 000000d0H
	call	DWORD PTR __imp_?mem_alloc@xrMemory@@QAEPAXI@Z

; 69   : 	return new (ptr) T();

	mov	ebx, eax
; File I:\Vitalya\mine\NSProjectX\layers\xrRender\FTreeVisual.cpp

; 21   : {

	mov	ecx, ebx
	call	DWORD PTR __imp_??0IRender_Visual@@QAE@XZ
	lea	ecx, DWORD PTR [ebx+68]
	call	DWORD PTR __imp_??0IRender_Mesh@@QAE@XZ

; 171  : {

	mov	DWORD PTR [ebx], OFFSET ??_7FTreeVisual_ST@@6BIRender_Visual@@@
	mov	DWORD PTR [ebx+68], OFFSET ??_7FTreeVisual_ST@@6BIRender_Mesh@@@
; File I:\Vitalya\mine\NSProjectX\layers\xrRender\ModelPool.cpp

; 67   : 		break;

	jmp	SHORT $LN6@Instance_C
$LN18@Instance_C:
; File I:\Vitalya\mine\NSProjectX\xrCore\xrMemory_subst_msvc.h

; 68   : 	T* ptr	= (T*)Memory.mem_alloc(sizeof(T));

	mov	ecx, DWORD PTR __imp_?Memory@@3VxrMemory@@A
	push	216					; 000000d8H
	call	DWORD PTR __imp_?mem_alloc@xrMemory@@QAEPAXI@Z

; 69   : 	return new (ptr) T();

	mov	ebx, eax
; File I:\Vitalya\mine\NSProjectX\layers\xrRender\FTreeVisual.cpp

; 21   : {

	mov	ecx, ebx
	call	DWORD PTR __imp_??0IRender_Visual@@QAE@XZ
	lea	ecx, DWORD PTR [ebx+68]
	call	DWORD PTR __imp_??0IRender_Mesh@@QAE@XZ

; 200  : {

	mov	DWORD PTR [ebx], OFFSET ??_7FTreeVisual_PM@@6BIRender_Visual@@@
	mov	DWORD PTR [ebx+68], OFFSET ??_7FTreeVisual_PM@@6BIRender_Mesh@@@

; 201  : 	pSWI						= 0;

	mov	DWORD PTR [ebx+208], 0

; 202  : 	last_lod					= 0;

	mov	DWORD PTR [ebx+212], 0
; File I:\Vitalya\mine\NSProjectX\layers\xrRender\ModelPool.cpp

; 70   : 		break;

	jmp	SHORT $LN6@Instance_C
$LN19@Instance_C:

; 71   : #endif
; 72   : 	default:
; 73   : 		FATAL	("Unknown visual type");

	push	OFFSET ??_C@_0BE@EBDNGAIE@Unknown?5visual?5type@
	push	OFFSET ??_C@_0BM@ILNANEIH@CModelPool?3?3Instance_Create@
	push	73					; 00000049H
	push	OFFSET ??_C@_0DJ@HJNKECDB@I?3?2Vitalya?2mine?2NSProjectX?2laye@
	push	DWORD PTR __imp_?Debug@@3VxrDebug@@A
	call	DWORD PTR __imp_?fatal@xrDebug@@QAAXPBDH00ZZ
	add	esp, 20					; 00000014H
$LN6@Instance_C:

; 74   : 		break;
; 75   : 	}
; 76   : 	R_ASSERT	(V);

	cmp	BYTE PTR ?ignore_always@?5??Instance_Create@CModelPool@@QAEPAVIRender_Visual@@I@Z@4_NA, 0
	jne	SHORT $LN111@Instance_C
	test	ebx, ebx
	jne	SHORT $LN111@Instance_C
	mov	ecx, DWORD PTR __imp_?Debug@@3VxrDebug@@A
	push	OFFSET ?ignore_always@?5??Instance_Create@CModelPool@@QAEPAVIRender_Visual@@I@Z@4_NA
	push	OFFSET ??_C@_0BM@ILNANEIH@CModelPool?3?3Instance_Create@
	push	76					; 0000004cH
	push	OFFSET ??_C@_0DJ@HJNKECDB@I?3?2Vitalya?2mine?2NSProjectX?2laye@
	push	OFFSET ??_C@_01FCMHBHNC@V@
	call	DWORD PTR __imp_?fail@xrDebug@@QAEXPBD0H0AA_N@Z
$LN111@Instance_C:

; 77   : 	V->Type		= type;
; 78   : 	return		V;
; 79   : }

	pop	edi
	pop	esi
	mov	DWORD PTR [ebx+4], ebp
	mov	eax, ebx
	pop	ebp
	pop	ebx
	ret	4
	npad	2
$LN110@Instance_C:
	DD	$LN7@Instance_C
	DD	$LN8@Instance_C
	DD	$LN9@Instance_C
	DD	$LN10@Instance_C
	DD	$LN12@Instance_C
	DD	$LN13@Instance_C
	DD	$LN16@Instance_C
	DD	$LN17@Instance_C
	DD	$LN14@Instance_C
	DD	$LN15@Instance_C
	DD	$LN11@Instance_C
	DD	$LN18@Instance_C
?Instance_Create@CModelPool@@QAEPAVIRender_Visual@@I@Z ENDP ; CModelPool::Instance_Create
_TEXT	ENDS
; Function compile flags: /Ogtpy
; File I:\Vitalya\mine\NSProjectX\layers\xrRender\ModelPool.cpp
; File C:\Program Files\Microsoft Visual Studio\2022\Community\VC\Tools\MSVC\14.29.30133\include\vector
; File I:\Vitalya\mine\NSProjectX\layers\xrRender\ModelPool.cpp
; File C:\Program Files\Microsoft Visual Studio\2022\Community\VC\Tools\MSVC\14.29.30133\include\vector
; File I:\Vitalya\mine\NSProjectX\layers\xrRender\ModelPool.cpp
_TEXT	SEGMENT
_V$ = 8							; size = 4
?Instance_Duplicate@CModelPool@@QAEPAVIRender_Visual@@PAV2@@Z PROC ; CModelPool::Instance_Duplicate
; _this$ = ecx

; 83   : 	R_ASSERT(V);

	cmp	BYTE PTR ?ignore_always@?3??Instance_Duplicate@CModelPool@@QAEPAVIRender_Visual@@PAV3@@Z@4_NA, 0
	push	ebx
	push	esi
	mov	esi, DWORD PTR _V$[esp+4]
	mov	ebx, ecx
	push	edi
	jne	SHORT $LN2@Instance_D
	test	esi, esi
	jne	SHORT $LN2@Instance_D
	mov	ecx, DWORD PTR __imp_?Debug@@3VxrDebug@@A
	push	OFFSET ?ignore_always@?3??Instance_Duplicate@CModelPool@@QAEPAVIRender_Visual@@PAV3@@Z@4_NA
	push	OFFSET ??_C@_0BP@KMCMNMJD@CModelPool?3?3Instance_Duplicate@
	push	83					; 00000053H
	push	OFFSET ??_C@_0DJ@HJNKECDB@I?3?2Vitalya?2mine?2NSProjectX?2laye@
	push	OFFSET ??_C@_01FCMHBHNC@V@
	call	DWORD PTR __imp_?fail@xrDebug@@QAEXPBD0H0AA_N@Z
$LN2@Instance_D:

; 84   : 	IRender_Visual* N		= Instance_Create(V->Type);

	push	DWORD PTR [esi+4]
	call	?Instance_Create@CModelPool@@QAEPAVIRender_Visual@@I@Z ; CModelPool::Instance_Create
	mov	edi, eax

; 85   : 	N->Copy			(V);

	push	esi
	mov	ecx, edi
	mov	edx, DWORD PTR [edi]
	call	DWORD PTR [edx+12]

; 86   : 	N->Spawn		();

	mov	edx, DWORD PTR [edi]
	mov	ecx, edi
	call	DWORD PTR [edx+16]
; File C:\Program Files\Microsoft Visual Studio\2022\Community\VC\Tools\MSVC\14.29.30133\include\vector

; 41   :     _CONSTEXPR20_CONTAINER _Vector_const_iterator(_Tptr _Parg, const _Container_base* _Pvector) noexcept : _Ptr(_Parg) {

	mov	eax, DWORD PTR [ebx+4]

; 150  :         return _Ptr == _Right._Ptr;

	mov	ecx, DWORD PTR [ebx+8]
	cmp	eax, ecx
; File I:\Vitalya\mine\NSProjectX\layers\xrRender\ModelPool.cpp

; 88   : 	for (xr_vector<ModelDef>::iterator I=Models.begin(); I!=Models.end(); I++) 

	je	SHORT $LN36@Instance_D
	npad	5
$LL7@Instance_D:

; 89   : 		if (I->model==V){ I->refs++; break;}

	cmp	DWORD PTR [eax+4], esi
	je	SHORT $LN32@Instance_D
; File C:\Program Files\Microsoft Visual Studio\2022\Community\VC\Tools\MSVC\14.29.30133\include\vector

; 74   :         ++_Ptr;

	add	eax, 12					; 0000000cH

; 150  :         return _Ptr == _Right._Ptr;

	cmp	eax, ecx
; File I:\Vitalya\mine\NSProjectX\layers\xrRender\ModelPool.cpp

; 88   : 	for (xr_vector<ModelDef>::iterator I=Models.begin(); I!=Models.end(); I++) 

	jne	SHORT $LL7@Instance_D

; 90   : 	return N;
; 91   : }

	mov	eax, edi
	pop	edi
	pop	esi
	pop	ebx
	ret	4
$LN32@Instance_D:

; 89   : 		if (I->model==V){ I->refs++; break;}

	inc	DWORD PTR [eax+8]
$LN36@Instance_D:

; 90   : 	return N;
; 91   : }

	mov	eax, edi
	pop	edi
	pop	esi
	pop	ebx
	ret	4
?Instance_Duplicate@CModelPool@@QAEPAVIRender_Visual@@PAV2@@Z ENDP ; CModelPool::Instance_Duplicate
_TEXT	ENDS
; Function compile flags: /Ogtpy
; File I:\Vitalya\mine\NSProjectX\layers\xrRender\ModelPool.cpp
; File I:\Vitalya\mine\NSProjectX\xrCore\_std_extensions.h
; File I:\Vitalya\mine\NSProjectX\layers\xrRender\ModelPool.cpp
; File I:\Vitalya\mine\NSProjectX\xrCore\_std_extensions.h
; File I:\Vitalya\mine\NSProjectX\layers\xrRender\ModelPool.cpp
_TEXT	SEGMENT
_data$ = -1088						; size = 4
_H$ = -1084						; size = 44
_name$ = -1040						; size = 520
_fn$ = -520						; size = 520
_N$ = 8							; size = 4
_allow_register$ = 12					; size = 4
?Instance_Load@CModelPool@@QAEPAVIRender_Visual@@PBDH@Z PROC ; CModelPool::Instance_Load
; _this$ = ecx

; 94   : {

	sub	esp, 1088				; 00000440H
	push	ebx
	push	esi
; File I:\Vitalya\mine\NSProjectX\xrCore\_std_extensions.h

; 171  : {	return (char*) strrchr(S,'.');	}

	mov	esi, DWORD PTR _N$[esp+1092]
; File I:\Vitalya\mine\NSProjectX\layers\xrRender\ModelPool.cpp

; 94   : {

	mov	ebx, ecx
	push	edi
; File I:\Vitalya\mine\NSProjectX\xrCore\_std_extensions.h

; 171  : {	return (char*) strrchr(S,'.');	}

	push	46					; 0000002eH
	push	esi
	call	DWORD PTR __imp__strrchr
	add	esp, 8
; File I:\Vitalya\mine\NSProjectX\layers\xrRender\ModelPool.cpp

; 100  : 	if (0==strext(N))	strconcat	(sizeof(name),name,N,".ogf");

	test	eax, eax
	lea	eax, DWORD PTR _name$[esp+1100]
	jne	SHORT $LN2@Instance_L
	push	OFFSET ??_C@_04FKFGGPFG@?4ogf@
	push	esi
	push	eax
	push	520					; 00000208H
	call	DWORD PTR __imp_?strconcat@@YAPADHPADPBD1@Z
	add	esp, 16					; 00000010H
	jmp	SHORT $LN3@Instance_L
$LN2@Instance_L:

; 101  : 	else				strcpy_s	(name,sizeof(name),N);

	push	esi
	push	520					; 00000208H
	push	eax
	call	DWORD PTR __imp__strcpy_s
	add	esp, 12					; 0000000cH
$LN3@Instance_L:

; 102  : 
; 103  : 	// Load data from MESHES or LEVEL
; 104  : 	if (!FS.exist(N))	{

	mov	ecx, DWORD PTR __imp_?xr_FS@@3PAVCLocatorAPI@@A
	push	esi
	mov	ecx, DWORD PTR [ecx]
	call	DWORD PTR __imp_?exist@CLocatorAPI@@QAEPBUfile@1@PBD@Z
	test	eax, eax
	jne	SHORT $LN4@Instance_L

; 105  : 		if (!FS.exist(fn, "$level$", name))

	mov	ecx, DWORD PTR __imp_?xr_FS@@3PAVCLocatorAPI@@A
	lea	eax, DWORD PTR _name$[esp+1100]
	mov	edi, DWORD PTR __imp_?exist@CLocatorAPI@@QAEPBUfile@1@AAY0CAI@DPBD1@Z
	push	eax
	push	OFFSET ??_C@_07DJIBDFPO@$level$@
	mov	ecx, DWORD PTR [ecx]
	lea	eax, DWORD PTR _fn$[esp+1108]
	push	eax
	call	edi
	test	eax, eax
	jne	SHORT $LN5@Instance_L

; 106  : 			if (!FS.exist(fn, "$game_meshes$", name)){

	mov	ecx, DWORD PTR __imp_?xr_FS@@3PAVCLocatorAPI@@A
	lea	eax, DWORD PTR _name$[esp+1100]
	push	eax
	push	OFFSET ??_C@_0O@CGKNLCGD@$game_meshes$@
	lea	eax, DWORD PTR _fn$[esp+1108]
	mov	ecx, DWORD PTR [ecx]
	push	eax
	call	edi
	test	eax, eax
	jne	SHORT $LN5@Instance_L

; 107  : #ifdef _EDITOR
; 108  : 				Msg("!Can't find model file '%s'.",name);
; 109  :                 return 0;
; 110  : #else            
; 111  : 				Debug.fatal(DEBUG_INFO,"Can't find model file '%s'.",name);

	lea	eax, DWORD PTR _name$[esp+1100]
	push	eax
	push	OFFSET ??_C@_0BM@ENFCPNEL@Can?8t?5find?5model?5file?5?8?$CFs?8?4@
	push	OFFSET ??_C@_0BK@KFOEMNN@CModelPool?3?3Instance_Load@
	push	111					; 0000006fH
	push	OFFSET ??_C@_0DJ@HJNKECDB@I?3?2Vitalya?2mine?2NSProjectX?2laye@
	push	DWORD PTR __imp_?Debug@@3VxrDebug@@A
	call	DWORD PTR __imp_?fatal@xrDebug@@QAAXPBDH00ZZ
	add	esp, 24					; 00000018H

; 112  : #endif
; 113  : 			}
; 114  : 	} else {

	jmp	SHORT $LN5@Instance_L
$LN4@Instance_L:

; 115  : 		strcpy			(fn,N);

	lea	edx, DWORD PTR _fn$[esp+1100]
	mov	eax, esi
	sub	edx, esi
	npad	8
$LL10@Instance_L:
	mov	cl, BYTE PTR [eax]
	lea	eax, DWORD PTR [eax+1]
	mov	BYTE PTR [edx+eax-1], cl
	test	cl, cl
	jne	SHORT $LL10@Instance_L
$LN5@Instance_L:

; 116  : 	}
; 117  : 	
; 118  : 	// Actual loading
; 119  : #ifdef DEBUG
; 120  : 	if (bLogging)		Msg		("- Uncached model loading: %s",fn);
; 121  : #endif // DEBUG
; 122  : 
; 123  : 	IReader*			data	= FS.r_open(fn);

	mov	ecx, DWORD PTR __imp_?xr_FS@@3PAVCLocatorAPI@@A
	lea	eax, DWORD PTR _fn$[esp+1100]
	push	eax
	mov	ecx, DWORD PTR [ecx]
	call	DWORD PTR __imp_?r_open@CLocatorAPI@@QAEPAVIReader@@PBD@Z

; 124  : 	ogf_header			H;
; 125  : 	data->r_chunk_safe	(OGF_HEADER,&H,sizeof(H));

	push	44					; 0000002cH
	lea	ecx, DWORD PTR _H$[esp+1104]
	mov	DWORD PTR _data$[esp+1104], eax
	push	ecx
	push	1
	mov	ecx, eax
	call	DWORD PTR __imp_?r_chunk_safe@?$IReaderBase@VIReader@@@@QAEHIPAXI@Z

; 126  : 	V = Instance_Create (H.type);

	movzx	eax, BYTE PTR _H$[esp+1101]
	push	eax
	call	?Instance_Create@CModelPool@@QAEPAVIRender_Visual@@I@Z ; CModelPool::Instance_Create
	mov	edi, eax

; 127  : 	V->Load				(N,data,0);

	push	0
	push	DWORD PTR _data$[esp+1104]
	mov	ecx, edi
	mov	edx, DWORD PTR [edi]
	push	esi
	call	DWORD PTR [edx+4]

; 128  : 	FS.r_close			(data);

	mov	ecx, DWORD PTR __imp_?xr_FS@@3PAVCLocatorAPI@@A
	lea	eax, DWORD PTR _data$[esp+1100]
	push	eax
	mov	ecx, DWORD PTR [ecx]
	call	DWORD PTR __imp_?r_close@CLocatorAPI@@QAEXAAPAVIReader@@@Z

; 129  : 	g_pGamePersistent->RegisterModel(V);

	mov	eax, DWORD PTR __imp_?g_pGamePersistent@@3PAVIGame_Persistent@@A
	push	edi
	mov	ecx, DWORD PTR [eax]
	mov	eax, DWORD PTR [ecx]
	call	DWORD PTR [eax+52]

; 130  : 
; 131  : 	// Registration
; 132  : 	if (allow_register) Instance_Register(N,V);

	cmp	DWORD PTR _allow_register$[esp+1096], 0
	je	SHORT $LN16@Instance_L
	push	edi
	push	esi
	mov	ecx, ebx
	call	?Instance_Register@CModelPool@@QAEXPBDPAVIRender_Visual@@@Z ; CModelPool::Instance_Register
$LN16@Instance_L:

; 133  : 
; 134  : 	return V;
; 135  : }

	mov	eax, edi
	pop	edi
	pop	esi
	pop	ebx
	add	esp, 1088				; 00000440H
	ret	8
?Instance_Load@CModelPool@@QAEPAVIRender_Visual@@PBDH@Z ENDP ; CModelPool::Instance_Load
_TEXT	ENDS
; Function compile flags: /Ogtpy
; File I:\Vitalya\mine\NSProjectX\layers\xrRender\ModelPool.cpp
_TEXT	SEGMENT
_H$ = -44						; size = 44
_name$ = 8						; size = 4
_data$ = 12						; size = 4
_allow_register$ = 16					; size = 4
?Instance_Load@CModelPool@@QAEPAVIRender_Visual@@PBDPAVIReader@@H@Z PROC ; CModelPool::Instance_Load
; _this$ = ecx

; 138  : {

	sub	esp, 44					; 0000002cH
	push	ebx
	push	esi

; 139  : 	IRender_Visual	*V;
; 140  : 	
; 141  : 	ogf_header			H;
; 142  : 	data->r_chunk_safe	(OGF_HEADER,&H,sizeof(H));

	mov	esi, DWORD PTR _data$[esp+48]
	lea	eax, DWORD PTR _H$[esp+52]
	push	edi
	push	44					; 0000002cH
	push	eax
	mov	ebx, ecx
	mov	ecx, esi
	push	1
	call	DWORD PTR __imp_?r_chunk_safe@?$IReaderBase@VIReader@@@@QAEHIPAXI@Z

; 143  : 	V = Instance_Create (H.type);

	movzx	eax, BYTE PTR _H$[esp+57]
	push	eax
	call	?Instance_Create@CModelPool@@QAEPAVIRender_Visual@@I@Z ; CModelPool::Instance_Create
	mov	edi, eax

; 144  : 	V->Load				(name,data,0);

	push	0
	push	esi
	mov	esi, DWORD PTR _name$[esp+60]
	mov	ecx, edi
	mov	edx, DWORD PTR [edi]
	push	esi
	call	DWORD PTR [edx+4]

; 145  : 
; 146  : 	// Registration
; 147  : 	if (allow_register) Instance_Register(name,V);

	cmp	DWORD PTR _allow_register$[esp+52], 0
	je	SHORT $LN4@Instance_L
	push	edi
	push	esi
	mov	ecx, ebx
	call	?Instance_Register@CModelPool@@QAEXPBDPAVIRender_Visual@@@Z ; CModelPool::Instance_Register
$LN4@Instance_L:

; 148  : 	return V;
; 149  : }

	mov	eax, edi
	pop	edi
	pop	esi
	pop	ebx
	add	esp, 44					; 0000002cH
	ret	12					; 0000000cH
?Instance_Load@CModelPool@@QAEPAVIRender_Visual@@PBDPAVIReader@@H@Z ENDP ; CModelPool::Instance_Load
_TEXT	ENDS
; Function compile flags: /Ogtpy
; File I:\Vitalya\mine\NSProjectX\layers\xrRender\ModelPool.cpp
; File I:\Vitalya\mine\NSProjectX\layers\xrRender\modelpool.h
; File I:\Vitalya\mine\NSProjectX\xrCore\xrstring.h
; File I:\Vitalya\mine\NSProjectX\layers\xrRender\ModelPool.cpp
; File I:\Vitalya\mine\NSProjectX\xrCore\xrstring.h
; File C:\Program Files\Microsoft Visual Studio\2022\Community\VC\Tools\MSVC\14.29.30133\include\vector
; File I:\Vitalya\mine\NSProjectX\layers\xrRender\ModelPool.cpp
; File I:\Vitalya\mine\NSProjectX\xrCore\xrstring.h
; File I:\Vitalya\mine\NSProjectX\layers\xrRender\ModelPool.cpp
; File C:\Program Files\Microsoft Visual Studio\2022\Community\VC\Tools\MSVC\14.29.30133\include\vector
; File I:\Vitalya\mine\NSProjectX\xrCore\xrstring.h
; File C:\Program Files\Microsoft Visual Studio\2022\Community\VC\Tools\MSVC\14.29.30133\include\vector
; File I:\Vitalya\mine\NSProjectX\xrCore\xrstring.h
; File I:\Vitalya\mine\NSProjectX\layers\xrRender\ModelPool.cpp
_TEXT	SEGMENT
_M$ = -12						; size = 12
_N$ = 8							; size = 4
_V$ = 12						; size = 4
?Instance_Register@CModelPool@@QAEXPBDPAVIRender_Visual@@@Z PROC ; CModelPool::Instance_Register
; _this$ = ecx

; 152  : {

	sub	esp, 12					; 0000000cH
	push	ebx
	mov	ebx, ecx
; File I:\Vitalya\mine\NSProjectX\layers\xrRender\modelpool.h

; 29   :         ModelDef()			{ refs=0;model=0; }

	mov	DWORD PTR _M$[esp+24], 0
; File I:\Vitalya\mine\NSProjectX\xrCore\xrstring.h

; 52   : 	void				_set		(str_c rhs) 					{	str_value* v = g_pStringContainer->dock(rhs); if (0!=v) v->dwReference++; _dec(); p_ = v;	}

	mov	ecx, DWORD PTR __imp_?g_pStringContainer@@3PAVstr_container@@A
; File I:\Vitalya\mine\NSProjectX\layers\xrRender\ModelPool.cpp

; 152  : {

	push	esi
	push	edi
; File I:\Vitalya\mine\NSProjectX\xrCore\xrstring.h

; 52   : 	void				_set		(str_c rhs) 					{	str_value* v = g_pStringContainer->dock(rhs); if (0!=v) v->dwReference++; _dec(); p_ = v;	}

	push	DWORD PTR _N$[esp+20]
	mov	ecx, DWORD PTR [ecx]
	call	DWORD PTR __imp_?dock@str_container@@QAEPAUstr_value@@PBD@Z
	mov	esi, eax
	test	esi, esi
	je	SHORT $LN46@Instance_R
	inc	DWORD PTR [esi]
$LN46@Instance_R:
; File C:\Program Files\Microsoft Visual Studio\2022\Community\VC\Tools\MSVC\14.29.30133\include\vector

; 730  :         if (_Mylast != _My_data._Myend) {

	mov	eax, DWORD PTR [ebx+8]
; File I:\Vitalya\mine\NSProjectX\layers\xrRender\ModelPool.cpp

; 157  : 	Models.push_back	(M);

	lea	ecx, DWORD PTR [ebx+4]
	mov	edi, DWORD PTR _V$[esp+20]
; File I:\Vitalya\mine\NSProjectX\xrCore\xrstring.h

; 52   : 	void				_set		(str_c rhs) 					{	str_value* v = g_pStringContainer->dock(rhs); if (0!=v) v->dwReference++; _dec(); p_ = v;	}

	mov	DWORD PTR _M$[esp+24], esi
; File I:\Vitalya\mine\NSProjectX\layers\xrRender\ModelPool.cpp

; 156  : 	M.model				= V;

	mov	DWORD PTR _M$[esp+28], edi
; File C:\Program Files\Microsoft Visual Studio\2022\Community\VC\Tools\MSVC\14.29.30133\include\vector

; 730  :         if (_Mylast != _My_data._Myend) {

	cmp	eax, DWORD PTR [ecx+8]
	je	SHORT $LN19@Instance_R
; File I:\Vitalya\mine\NSProjectX\xrCore\xrstring.h

; 59   : 						shared_str	(shared_str const &rhs)			{	p_ = 0;	_set(rhs);								}

	mov	DWORD PTR [eax], 0

; 53   : 	void				_set		(shared_str const &rhs)			{	str_value* v = rhs.p_; if (0!=v) v->dwReference++; _dec(); p_ = v;							}

	test	esi, esi
	je	SHORT $LN36@Instance_R
	inc	DWORD PTR [esi]
	mov	edx, DWORD PTR [eax]

; 50   : 	void				_dec		()								{	if (0==p_) return;	p_->dwReference--; 	if (0==p_->dwReference)	p_=0;						}

	test	edx, edx
	je	SHORT $LN36@Instance_R
	dec	DWORD PTR [edx]
$LN36@Instance_R:

; 53   : 	void				_set		(shared_str const &rhs)			{	str_value* v = rhs.p_; if (0!=v) v->dwReference++; _dec(); p_ = v;							}

	mov	DWORD PTR [eax], esi
	mov	DWORD PTR [eax+4], edi
	mov	DWORD PTR [eax+8], 0
; File C:\Program Files\Microsoft Visual Studio\2022\Community\VC\Tools\MSVC\14.29.30133\include\vector

; 716  :         ++_Mylast;

	add	DWORD PTR [ecx+4], 12			; 0000000cH

; 731  :             return _Emplace_back_with_unused_capacity(_STD forward<_Valty>(_Val)...);

	jmp	SHORT $LN18@Instance_R
$LN19@Instance_R:

; 732  :         }
; 733  : 
; 734  :         _Ty& _Result = *_Emplace_reallocate(_Mylast, _STD forward<_Valty>(_Val)...);

	lea	edx, DWORD PTR _M$[esp+24]
	push	edx
	push	eax
	call	??$_Emplace_reallocate@ABUModelDef@CModelPool@@@?$vector@UModelDef@CModelPool@@V?$xalloc@UModelDef@CModelPool@@@@@std@@QAEPAUModelDef@CModelPool@@QAU23@ABU23@@Z ; std::vector<CModelPool::ModelDef,xalloc<CModelPool::ModelDef> >::_Emplace_reallocate<CModelPool::ModelDef const &>
$LN18@Instance_R:
; File I:\Vitalya\mine\NSProjectX\xrCore\xrstring.h

; 50   : 	void				_dec		()								{	if (0==p_) return;	p_->dwReference--; 	if (0==p_->dwReference)	p_=0;						}

	test	esi, esi
	je	SHORT $LN44@Instance_R
	dec	DWORD PTR [esi]
$LN44@Instance_R:
	pop	edi
; File I:\Vitalya\mine\NSProjectX\layers\xrRender\ModelPool.cpp

; 158  : }

	pop	esi
	pop	ebx
	add	esp, 12					; 0000000cH
	ret	8
?Instance_Register@CModelPool@@QAEXPBDPAVIRender_Visual@@@Z ENDP ; CModelPool::Instance_Register
_TEXT	ENDS
; Function compile flags: /Ogtpy
; File I:\Vitalya\mine\NSProjectX\xrCore\xrstring.h
;	COMDAT ??1ModelDef@CModelPool@@QAE@XZ
_TEXT	SEGMENT
??1ModelDef@CModelPool@@QAE@XZ PROC			; CModelPool::ModelDef::~ModelDef, COMDAT
; _this$ = ecx

; 50   : 	void				_dec		()								{	if (0==p_) return;	p_->dwReference--; 	if (0==p_->dwReference)	p_=0;						}

	mov	eax, DWORD PTR [ecx]
	test	eax, eax
	je	SHORT $LN7@ModelDef
	dec	DWORD PTR [eax]
	mov	eax, DWORD PTR [ecx]
	cmp	DWORD PTR [eax], 0
	jne	SHORT $LN7@ModelDef
	mov	DWORD PTR [ecx], 0
$LN7@ModelDef:
	ret	0
??1ModelDef@CModelPool@@QAE@XZ ENDP			; CModelPool::ModelDef::~ModelDef
_TEXT	ENDS
; Function compile flags: /Ogtpy
; File I:\Vitalya\mine\NSProjectX\layers\xrRender\ModelPool.cpp
; File C:\Program Files\Microsoft Visual Studio\2022\Community\VC\Tools\MSVC\14.29.30133\include\xtree
; File I:\Vitalya\mine\NSProjectX\layers\xrRender\ModelPool.cpp
; File C:\Program Files\Microsoft Visual Studio\2022\Community\VC\Tools\MSVC\14.29.30133\include\xtree
; File I:\Vitalya\mine\NSProjectX\layers\xrRender\ModelPool.cpp
; File C:\Program Files\Microsoft Visual Studio\2022\Community\VC\Tools\MSVC\14.29.30133\include\xtree
; File I:\Vitalya\mine\NSProjectX\layers\xrRender\ModelPool.cpp
; File C:\Program Files\Microsoft Visual Studio\2022\Community\VC\Tools\MSVC\14.29.30133\include\xtree
; File I:\Vitalya\mine\NSProjectX\layers\xrRender\ModelPool.cpp
; File C:\Program Files\Microsoft Visual Studio\2022\Community\VC\Tools\MSVC\14.29.30133\include\vector
; File I:\Vitalya\mine\NSProjectX\layers\xrRender\ModelPool.cpp
; File I:\Vitalya\mine\NSProjectX\xrCore\xrMemory_subst_msvc.h
; File C:\Program Files\Microsoft Visual Studio\2022\Community\VC\Tools\MSVC\14.29.30133\include\vector
; File I:\Vitalya\mine\NSProjectX\layers\xrRender\ModelPool.cpp
; File I:\Vitalya\mine\NSProjectX\xrCore\xrMemory_subst_msvc.h
; File I:\Vitalya\mine\NSProjectX\layers\xrRender\ModelPool.cpp
_TEXT	SEGMENT
_V$1 = -4						; size = 4
?Destroy@CModelPool@@AAEXXZ PROC			; CModelPool::Destroy
; _this$ = ecx

; 162  : {

	push	ebp
	mov	ebp, esp
	and	esp, -8					; fffffff8H
	sub	esp, 8
	push	ebx
	push	ebp
	push	esi
	push	edi
	mov	ebp, ecx
; File C:\Program Files\Microsoft Visual Studio\2022\Community\VC\Tools\MSVC\14.29.30133\include\xtree

; 1342 :         auto _Head = _Scary->_Myhead;

	mov	esi, DWORD PTR [ebp+36]
; File I:\Vitalya\mine\NSProjectX\layers\xrRender\ModelPool.cpp

; 164  : 	Pool.clear			();

	lea	edi, DWORD PTR [ebp+36]
; File C:\Program Files\Microsoft Visual Studio\2022\Community\VC\Tools\MSVC\14.29.30133\include\xtree

; 1343 :         _Scary->_Erase_tree(_Getal(), _Head->_Parent);

	mov	ecx, edi
	push	DWORD PTR [esi+4]
	push	edi
	call	??$_Erase_tree@V?$xalloc@U?$_Tree_node@U?$pair@$$CBVshared_str@@PAVIRender_Visual@@@std@@PAX@std@@@@@?$_Tree_val@U?$_Tree_simple_types@U?$pair@$$CBVshared_str@@PAVIRender_Visual@@@std@@@std@@@std@@QAEXAAV?$xalloc@U?$_Tree_node@U?$pair@$$CBVshared_str@@PAVIRender_Visual@@@std@@PAX@std@@@@PAU?$_Tree_node@U?$pair@$$CBVshared_str@@PAVIRender_Visual@@@std@@PAX@1@@Z ; std::_Tree_val<std::_Tree_simple_types<std::pair<shared_str const ,IRender_Visual *> > >::_Erase_tree<xalloc<std::_Tree_node<std::pair<shared_str const ,IRender_Visual *>,void *> > >

; 1344 :         _Head->_Parent  = _Head;

	mov	DWORD PTR [esi+4], esi

; 1345 :         _Head->_Left    = _Head;

	mov	DWORD PTR [esi], esi

; 1346 :         _Head->_Right   = _Head;

	mov	DWORD PTR [esi+8], esi

; 1347 :         _Scary->_Mysize = 0;

	mov	DWORD PTR [edi+4], 0

; 1211 :         return size() == 0;

	cmp	DWORD PTR [ebp+32], 0
; File I:\Vitalya\mine\NSProjectX\layers\xrRender\ModelPool.cpp

; 167  : 	while(!Registry.empty()){

	je	SHORT $LN3@Destroy
$LL2@Destroy:
; File C:\Program Files\Microsoft Visual Studio\2022\Community\VC\Tools\MSVC\14.29.30133\include\xtree

; 1135 :         return iterator(_Scary->_Myhead->_Left, _Scary);

	mov	eax, DWORD PTR [ebp+28]
; File I:\Vitalya\mine\NSProjectX\layers\xrRender\ModelPool.cpp

; 169  : 		IRender_Visual* V=(IRender_Visual*)it->first;

	mov	eax, DWORD PTR [eax]
	mov	ecx, DWORD PTR [eax+16]
	mov	DWORD PTR _V$1[esp+24], ecx
	test	ecx, ecx

; 282  :     if (!V)					return;

	je	SHORT $LN26@Destroy

; 283  : 	V->Depart				();

	mov	eax, DWORD PTR [ecx]
	call	DWORD PTR [eax+20]

; 284  : 	if (bDiscard||bForceDiscard){
; 285  :     	Discard	(V, TRUE); 

	push	1
	lea	eax, DWORD PTR _V$1[esp+28]
	mov	ecx, ebp
	push	eax
	call	?Discard@CModelPool@@QAEXAAPAVIRender_Visual@@H@Z ; CModelPool::Discard
$LN26@Destroy:
; File C:\Program Files\Microsoft Visual Studio\2022\Community\VC\Tools\MSVC\14.29.30133\include\xtree

; 1211 :         return size() == 0;

	cmp	DWORD PTR [ebp+32], 0
; File I:\Vitalya\mine\NSProjectX\layers\xrRender\ModelPool.cpp

; 167  : 	while(!Registry.empty()){

	jne	SHORT $LL2@Destroy
$LN3@Destroy:
; File C:\Program Files\Microsoft Visual Studio\2022\Community\VC\Tools\MSVC\14.29.30133\include\vector

; 1463 :         return iterator(_My_data._Myfirst, _STD addressof(_My_data));

	mov	edi, DWORD PTR [ebp+4]

; 41   :     _CONSTEXPR20_CONTAINER _Vector_const_iterator(_Tptr _Parg, const _Container_base* _Pvector) noexcept : _Ptr(_Parg) {

	mov	esi, DWORD PTR [ebp+8]
; File I:\Vitalya\mine\NSProjectX\layers\xrRender\ModelPool.cpp

; 179  : 	for (; I!=E; I++)

	cmp	edi, esi
	je	SHORT $LN5@Destroy
$LL6@Destroy:

; 180  : 	{
; 181  : 		I->model->Release();

	mov	ecx, DWORD PTR [edi+4]
	mov	eax, DWORD PTR [ecx]
	call	DWORD PTR [eax+8]
; File I:\Vitalya\mine\NSProjectX\xrCore\xrMemory_subst_msvc.h

; 151  : 	if (ptr) 

	mov	eax, DWORD PTR [edi+4]
	test	eax, eax
	je	SHORT $LN4@Destroy

; 132  : 		void*	_real_ptr	= dynamic_cast<void*>(ptr);

	push	eax
	call	___RTCastToVoid

; 133  : 		ptr->~T			();

	mov	ecx, DWORD PTR [edi+4]
	add	esp, 4
	mov	ebx, eax
	mov	edx, DWORD PTR [ecx]
	push	0
	call	DWORD PTR [edx+36]

; 134  : 		Memory.mem_free	(_real_ptr);

	mov	ecx, DWORD PTR __imp_?Memory@@3VxrMemory@@A
	push	ebx
	call	DWORD PTR __imp_?mem_free@xrMemory@@QAEXPAX@Z

; 154  : 		ptr = nullptr;

	mov	DWORD PTR [edi+4], 0
$LN4@Destroy:
; File C:\Program Files\Microsoft Visual Studio\2022\Community\VC\Tools\MSVC\14.29.30133\include\vector

; 74   :         ++_Ptr;

	add	edi, 12					; 0000000cH
; File I:\Vitalya\mine\NSProjectX\layers\xrRender\ModelPool.cpp

; 179  : 	for (; I!=E; I++)

	cmp	edi, esi
	jne	SHORT $LL6@Destroy
; File I:\Vitalya\mine\NSProjectX\xrCore\xrMemory_subst_msvc.h

; 154  : 		ptr = nullptr;

	mov	edi, DWORD PTR [ebp+4]
$LN5@Destroy:
; File I:\Vitalya\mine\NSProjectX\layers\xrRender\ModelPool.cpp

; 185  : 	Models.clear();

	mov	DWORD PTR [ebp+8], edi

; 186  : 
; 187  : 	// cleanup motions container
; 188  : 	g_pMotionsContainer->clean(false);

	mov	ecx, DWORD PTR __imp_?g_pMotionsContainer@@3PAVmotions_container@@A
	push	0
	mov	ecx, DWORD PTR [ecx]
	call	DWORD PTR __imp_?clean@motions_container@@QAEX_N@Z

; 189  : }

	pop	edi
	pop	esi
	pop	ebp
	pop	ebx
	mov	esp, ebp
	pop	ebp
	ret	0
?Destroy@CModelPool@@AAEXXZ ENDP			; CModelPool::Destroy
_TEXT	ENDS
; Function compile flags: /Ogtpy
; File I:\Vitalya\mine\NSProjectX\layers\xrRender\ModelPool.cpp
; File I:\Vitalya\mine\NSProjectX\xrCore\xrMemory.h
; File I:\Vitalya\mine\NSProjectX\layers\xrRender\ModelPool.cpp
; File I:\Vitalya\mine\NSProjectX\xrCore\xrMemory.h
; File I:\Vitalya\mine\NSProjectX\layers\xrRender\ModelPool.cpp
; File C:\Program Files\Microsoft Visual Studio\2022\Community\VC\Tools\MSVC\14.29.30133\include\vector
; File C:\Program Files\Microsoft Visual Studio\2022\Community\VC\Tools\MSVC\14.29.30133\include\xtree
; File I:\Vitalya\mine\NSProjectX\xrCore\xrMemory.h
; File C:\Program Files\Microsoft Visual Studio\2022\Community\VC\Tools\MSVC\14.29.30133\include\xtree
; File I:\Vitalya\mine\NSProjectX\xrCore\xrMemory.h
; File I:\Vitalya\mine\NSProjectX\xrCore\xrMemory_subst_msvc.h
; File C:\Program Files\Microsoft Visual Studio\2022\Community\VC\Tools\MSVC\14.29.30133\include\xtree
; File I:\Vitalya\mine\NSProjectX\layers\xrRender\ModelPool.cpp
; File I:\Vitalya\mine\NSProjectX\xrCore\xrMemory_subst_msvc.h
; File I:\Vitalya\mine\NSProjectX\layers\xrRender\ModelPool.cpp
_TEXT	SEGMENT
??0CModelPool@@QAE@XZ PROC				; CModelPool::CModelPool
; _this$ = ecx

; 192  : {

	push	esi
; File I:\Vitalya\mine\NSProjectX\xrCore\xrMemory.h

; 107  : 	IC T*		xr_alloc	(u32 count)				{	return  (T*)Memory.mem_alloc(count*sizeof(T));	}

	mov	esi, DWORD PTR __imp_?mem_alloc@xrMemory@@QAEPAXI@Z
; File I:\Vitalya\mine\NSProjectX\layers\xrRender\ModelPool.cpp

; 192  : {

	push	edi
	mov	edi, ecx
; File I:\Vitalya\mine\NSProjectX\xrCore\xrMemory.h

; 107  : 	IC T*		xr_alloc	(u32 count)				{	return  (T*)Memory.mem_alloc(count*sizeof(T));	}

	push	24					; 00000018H
; File I:\Vitalya\mine\NSProjectX\layers\xrRender\ModelPool.cpp

; 192  : {

	mov	DWORD PTR [edi], OFFSET ??_7CModelPool@@6B@
; File C:\Program Files\Microsoft Visual Studio\2022\Community\VC\Tools\MSVC\14.29.30133\include\vector

; 390  :     _CONSTEXPR20_CONTAINER _Vector_val() noexcept : _Myfirst(), _Mylast(), _Myend() {}

	mov	DWORD PTR [edi+4], 0
	mov	DWORD PTR [edi+8], 0
	mov	DWORD PTR [edi+12], 0
	mov	DWORD PTR [edi+16], 0
	mov	DWORD PTR [edi+20], 0
	mov	DWORD PTR [edi+24], 0
; File C:\Program Files\Microsoft Visual Studio\2022\Community\VC\Tools\MSVC\14.29.30133\include\xtree

; 435  :     _Tree_val() noexcept : _Myhead(), _Mysize(0) {}

	mov	DWORD PTR [edi+28], 0
	mov	DWORD PTR [edi+32], 0
; File I:\Vitalya\mine\NSProjectX\xrCore\xrMemory.h

; 107  : 	IC T*		xr_alloc	(u32 count)				{	return  (T*)Memory.mem_alloc(count*sizeof(T));	}

	mov	ecx, DWORD PTR __imp_?Memory@@3VxrMemory@@A
	call	esi
	push	24					; 00000018H
; File C:\Program Files\Microsoft Visual Studio\2022\Community\VC\Tools\MSVC\14.29.30133\include\xtree

; 345  :         _Construct_in_place(_Pnode->_Left, _Pnode);

	mov	DWORD PTR [eax], eax

; 346  :         _Construct_in_place(_Pnode->_Parent, _Pnode);

	mov	DWORD PTR [eax+4], eax

; 347  :         _Construct_in_place(_Pnode->_Right, _Pnode);

	mov	DWORD PTR [eax+8], eax

; 348  :         _Pnode->_Color = _Black;

	mov	WORD PTR [eax+12], 257			; 00000101H

; 1917 :         _Scary->_Myhead = _Node::_Buyheadnode(_Getal());

	mov	DWORD PTR [edi+28], eax

; 435  :     _Tree_val() noexcept : _Myhead(), _Mysize(0) {}

	mov	DWORD PTR [edi+36], 0
	mov	DWORD PTR [edi+40], 0
; File I:\Vitalya\mine\NSProjectX\xrCore\xrMemory.h

; 107  : 	IC T*		xr_alloc	(u32 count)				{	return  (T*)Memory.mem_alloc(count*sizeof(T));	}

	mov	ecx, DWORD PTR __imp_?Memory@@3VxrMemory@@A
	call	esi
; File I:\Vitalya\mine\NSProjectX\xrCore\xrMemory_subst_msvc.h

; 68   : 	T* ptr	= (T*)Memory.mem_alloc(sizeof(T));

	push	8
; File C:\Program Files\Microsoft Visual Studio\2022\Community\VC\Tools\MSVC\14.29.30133\include\xtree

; 345  :         _Construct_in_place(_Pnode->_Left, _Pnode);

	mov	DWORD PTR [eax], eax

; 346  :         _Construct_in_place(_Pnode->_Parent, _Pnode);

	mov	DWORD PTR [eax+4], eax

; 347  :         _Construct_in_place(_Pnode->_Right, _Pnode);

	mov	DWORD PTR [eax+8], eax

; 348  :         _Pnode->_Color = _Black;

	mov	WORD PTR [eax+12], 257			; 00000101H

; 1917 :         _Scary->_Myhead = _Node::_Buyheadnode(_Getal());

	mov	DWORD PTR [edi+36], eax
; File I:\Vitalya\mine\NSProjectX\layers\xrRender\ModelPool.cpp

; 193  : 	bLogging				= TRUE;

	mov	DWORD PTR [edi+44], 1

; 194  :     bForceDiscard 			= FALSE;

	mov	DWORD PTR [edi+48], 0

; 195  :     bAllowChildrenDuplicate	= TRUE; 

	mov	DWORD PTR [edi+52], 1
; File I:\Vitalya\mine\NSProjectX\xrCore\xrMemory_subst_msvc.h

; 68   : 	T* ptr	= (T*)Memory.mem_alloc(sizeof(T));

	mov	ecx, DWORD PTR __imp_?Memory@@3VxrMemory@@A
	call	esi

; 69   : 	return new (ptr) T();

	mov	ecx, eax
	call	DWORD PTR __imp_??0motions_container@@QAE@XZ
; File I:\Vitalya\mine\NSProjectX\layers\xrRender\ModelPool.cpp

; 196  : 	g_pMotionsContainer		= xr_new<motions_container>();

	mov	ecx, DWORD PTR __imp_?g_pMotionsContainer@@3PAVmotions_container@@A
	mov	DWORD PTR [ecx], eax

; 197  : }

	mov	eax, edi
	pop	edi
	pop	esi
	ret	0
??0CModelPool@@QAE@XZ ENDP				; CModelPool::CModelPool
_TEXT	ENDS
; Function compile flags: /Ogtpy
;	COMDAT ??_GCModelPool@@UAEPAXI@Z
_TEXT	SEGMENT
___flags$ = 8						; size = 4
??_GCModelPool@@UAEPAXI@Z PROC				; CModelPool::`scalar deleting destructor', COMDAT
; _this$ = ecx
	push	esi
	mov	esi, ecx
	call	??1CModelPool@@UAE@XZ			; CModelPool::~CModelPool
	test	BYTE PTR ___flags$[esp], 1
	je	SHORT $LN4@scalar
	push	56					; 00000038H
	push	esi
	call	??3@YAXPAXI@Z				; operator delete
	add	esp, 8
$LN4@scalar:
	mov	eax, esi
	pop	esi
	ret	4
??_GCModelPool@@UAEPAXI@Z ENDP				; CModelPool::`scalar deleting destructor'
_TEXT	ENDS
; Function compile flags: /Ogtpy
; File C:\Program Files\Microsoft Visual Studio\2022\Community\VC\Tools\MSVC\14.29.30133\include\vector
; File I:\Vitalya\mine\NSProjectX\xrCore\xrMemory.h
; File C:\Program Files\Microsoft Visual Studio\2022\Community\VC\Tools\MSVC\14.29.30133\include\vector
;	COMDAT ??1?$xr_vector@UModelDef@CModelPool@@V?$xalloc@UModelDef@CModelPool@@@@@@QAE@XZ
_TEXT	SEGMENT
??1?$xr_vector@UModelDef@CModelPool@@V?$xalloc@UModelDef@CModelPool@@@@@@QAE@XZ PROC ; xr_vector<CModelPool::ModelDef,xalloc<CModelPool::ModelDef> >::~xr_vector<CModelPool::ModelDef,xalloc<CModelPool::ModelDef> >, COMDAT
; _this$ = ecx

; 1750 :         if (_Myfirst) { // destroy and deallocate old array

	push	esi
	mov	esi, ecx
	mov	eax, DWORD PTR [esi]
	test	eax, eax
	je	SHORT $LN6@xr_vector
; File I:\Vitalya\mine\NSProjectX\xrCore\xrMemory.h

; 109  : 	IC void		xr_free		(T* &P)					{	if (P) { Memory.mem_free((void*)P); P=NULL;	};	}

	mov	ecx, DWORD PTR __imp_?Memory@@3VxrMemory@@A
	push	eax
	call	DWORD PTR __imp_?mem_free@xrMemory@@QAEXPAX@Z
; File C:\Program Files\Microsoft Visual Studio\2022\Community\VC\Tools\MSVC\14.29.30133\include\vector

; 1754 :             _Myfirst = nullptr;

	mov	DWORD PTR [esi], 0

; 1755 :             _Mylast  = nullptr;

	mov	DWORD PTR [esi+4], 0

; 1756 :             _Myend   = nullptr;

	mov	DWORD PTR [esi+8], 0
$LN6@xr_vector:
	pop	esi
	ret	0
??1?$xr_vector@UModelDef@CModelPool@@V?$xalloc@UModelDef@CModelPool@@@@@@QAE@XZ ENDP ; xr_vector<CModelPool::ModelDef,xalloc<CModelPool::ModelDef> >::~xr_vector<CModelPool::ModelDef,xalloc<CModelPool::ModelDef> >
_TEXT	ENDS
; Function compile flags: /Ogtpy
; File C:\Program Files\Microsoft Visual Studio\2022\Community\VC\Tools\MSVC\14.29.30133\include\vector
; File I:\Vitalya\mine\NSProjectX\xrCore\xrMemory.h
; File C:\Program Files\Microsoft Visual Studio\2022\Community\VC\Tools\MSVC\14.29.30133\include\vector
;	COMDAT ??1?$xr_vector@PAVIRender_Visual@@V?$xalloc@PAVIRender_Visual@@@@@@QAE@XZ
_TEXT	SEGMENT
??1?$xr_vector@PAVIRender_Visual@@V?$xalloc@PAVIRender_Visual@@@@@@QAE@XZ PROC ; xr_vector<IRender_Visual *,xalloc<IRender_Visual *> >::~xr_vector<IRender_Visual *,xalloc<IRender_Visual *> >, COMDAT
; _this$ = ecx

; 1750 :         if (_Myfirst) { // destroy and deallocate old array

	push	esi
	mov	esi, ecx
	mov	eax, DWORD PTR [esi]
	test	eax, eax
	je	SHORT $LN6@xr_vector
; File I:\Vitalya\mine\NSProjectX\xrCore\xrMemory.h

; 109  : 	IC void		xr_free		(T* &P)					{	if (P) { Memory.mem_free((void*)P); P=NULL;	};	}

	mov	ecx, DWORD PTR __imp_?Memory@@3VxrMemory@@A
	push	eax
	call	DWORD PTR __imp_?mem_free@xrMemory@@QAEXPAX@Z
; File C:\Program Files\Microsoft Visual Studio\2022\Community\VC\Tools\MSVC\14.29.30133\include\vector

; 1754 :             _Myfirst = nullptr;

	mov	DWORD PTR [esi], 0

; 1755 :             _Mylast  = nullptr;

	mov	DWORD PTR [esi+4], 0

; 1756 :             _Myend   = nullptr;

	mov	DWORD PTR [esi+8], 0
$LN6@xr_vector:
	pop	esi
	ret	0
??1?$xr_vector@PAVIRender_Visual@@V?$xalloc@PAVIRender_Visual@@@@@@QAE@XZ ENDP ; xr_vector<IRender_Visual *,xalloc<IRender_Visual *> >::~xr_vector<IRender_Visual *,xalloc<IRender_Visual *> >
_TEXT	ENDS
; Function compile flags: /Ogtpy
; File C:\Program Files\Microsoft Visual Studio\2022\Community\VC\Tools\MSVC\14.29.30133\include\xtree
; File I:\Vitalya\mine\NSProjectX\xrCore\xrMemory.h
; File C:\Program Files\Microsoft Visual Studio\2022\Community\VC\Tools\MSVC\14.29.30133\include\xtree
; File I:\Vitalya\mine\NSProjectX\xrCore\xrMemory.h
; File C:\Program Files\Microsoft Visual Studio\2022\Community\VC\Tools\MSVC\14.29.30133\include\xtree
;	COMDAT ??0?$xr_map@PAVIRender_Visual@@Vshared_str@@U?$less@PAVIRender_Visual@@@std@@V?$xalloc@U?$pair@PAVIRender_Visual@@Vshared_str@@@std@@@@@@QAE@XZ
_TEXT	SEGMENT
??0?$xr_map@PAVIRender_Visual@@Vshared_str@@U?$less@PAVIRender_Visual@@@std@@V?$xalloc@U?$pair@PAVIRender_Visual@@Vshared_str@@@std@@@@@@QAE@XZ PROC ; xr_map<IRender_Visual *,shared_str,std::less<IRender_Visual *>,xalloc<std::pair<IRender_Visual *,shared_str> > >::xr_map<IRender_Visual *,shared_str,std::less<IRender_Visual *>,xalloc<std::pair<IRender_Visual *,shared_str> > >, COMDAT
; _this$ = ecx

; 435  :     _Tree_val() noexcept : _Myhead(), _Mysize(0) {}

	push	esi
	mov	esi, ecx
; File I:\Vitalya\mine\NSProjectX\xrCore\xrMemory.h

; 107  : 	IC T*		xr_alloc	(u32 count)				{	return  (T*)Memory.mem_alloc(count*sizeof(T));	}

	push	24					; 00000018H
; File C:\Program Files\Microsoft Visual Studio\2022\Community\VC\Tools\MSVC\14.29.30133\include\xtree

; 435  :     _Tree_val() noexcept : _Myhead(), _Mysize(0) {}

	mov	DWORD PTR [esi], 0
	mov	DWORD PTR [esi+4], 0
; File I:\Vitalya\mine\NSProjectX\xrCore\xrMemory.h

; 107  : 	IC T*		xr_alloc	(u32 count)				{	return  (T*)Memory.mem_alloc(count*sizeof(T));	}

	mov	ecx, DWORD PTR __imp_?Memory@@3VxrMemory@@A
	call	DWORD PTR __imp_?mem_alloc@xrMemory@@QAEPAXI@Z
; File C:\Program Files\Microsoft Visual Studio\2022\Community\VC\Tools\MSVC\14.29.30133\include\xtree

; 345  :         _Construct_in_place(_Pnode->_Left, _Pnode);

	mov	DWORD PTR [eax], eax

; 346  :         _Construct_in_place(_Pnode->_Parent, _Pnode);

	mov	DWORD PTR [eax+4], eax

; 347  :         _Construct_in_place(_Pnode->_Right, _Pnode);

	mov	DWORD PTR [eax+8], eax

; 348  :         _Pnode->_Color = _Black;

	mov	WORD PTR [eax+12], 257			; 00000101H

; 1917 :         _Scary->_Myhead = _Node::_Buyheadnode(_Getal());

	mov	DWORD PTR [esi], eax
	mov	eax, esi
	pop	esi
	ret	0
??0?$xr_map@PAVIRender_Visual@@Vshared_str@@U?$less@PAVIRender_Visual@@@std@@V?$xalloc@U?$pair@PAVIRender_Visual@@Vshared_str@@@std@@@@@@QAE@XZ ENDP ; xr_map<IRender_Visual *,shared_str,std::less<IRender_Visual *>,xalloc<std::pair<IRender_Visual *,shared_str> > >::xr_map<IRender_Visual *,shared_str,std::less<IRender_Visual *>,xalloc<std::pair<IRender_Visual *,shared_str> > >
_TEXT	ENDS
; Function compile flags: /Ogtpy
; File C:\Program Files\Microsoft Visual Studio\2022\Community\VC\Tools\MSVC\14.29.30133\include\xtree
; File C:\Program Files\Microsoft Visual Studio\2022\Community\VC\Tools\MSVC\14.29.30133\include\xmemory
; File I:\Vitalya\mine\NSProjectX\xrCore\xrMemory.h
;	COMDAT ??1?$xr_map@PAVIRender_Visual@@Vshared_str@@U?$less@PAVIRender_Visual@@@std@@V?$xalloc@U?$pair@PAVIRender_Visual@@Vshared_str@@@std@@@@@@QAE@XZ
_TEXT	SEGMENT
??1?$xr_map@PAVIRender_Visual@@Vshared_str@@U?$less@PAVIRender_Visual@@@std@@V?$xalloc@U?$pair@PAVIRender_Visual@@Vshared_str@@@std@@@@@@QAE@XZ PROC ; xr_map<IRender_Visual *,shared_str,std::less<IRender_Visual *>,xalloc<std::pair<IRender_Visual *,shared_str> > >::~xr_map<IRender_Visual *,shared_str,std::less<IRender_Visual *>,xalloc<std::pair<IRender_Visual *,shared_str> > >, COMDAT
; _this$ = ecx
; File C:\Program Files\Microsoft Visual Studio\2022\Community\VC\Tools\MSVC\14.29.30133\include\xtree

; 752  :         _Erase_tree(_Al, _Myhead->_Parent);

	push	esi
	mov	esi, ecx
	mov	eax, DWORD PTR [esi]
	push	DWORD PTR [eax+4]
	push	esi
	call	??$_Erase_tree@V?$xalloc@U?$_Tree_node@U?$pair@QAVIRender_Visual@@Vshared_str@@@std@@PAX@std@@@@@?$_Tree_val@U?$_Tree_simple_types@U?$pair@QAVIRender_Visual@@Vshared_str@@@std@@@std@@@std@@QAEXAAV?$xalloc@U?$_Tree_node@U?$pair@QAVIRender_Visual@@Vshared_str@@@std@@PAX@std@@@@PAU?$_Tree_node@U?$pair@QAVIRender_Visual@@Vshared_str@@@std@@PAX@1@@Z ; std::_Tree_val<std::_Tree_simple_types<std::pair<IRender_Visual * const,shared_str> > >::_Erase_tree<xalloc<std::_Tree_node<std::pair<IRender_Visual * const,shared_str>,void *> > >
; File C:\Program Files\Microsoft Visual Studio\2022\Community\VC\Tools\MSVC\14.29.30133\include\xmemory

; 560  :         _Al.deallocate(_Ptr, _Count);

	mov	eax, DWORD PTR [esi]
	pop	esi
; File I:\Vitalya\mine\NSProjectX\xrCore\xrMemory.h

; 109  : 	IC void		xr_free		(T* &P)					{	if (P) { Memory.mem_free((void*)P); P=NULL;	};	}

	test	eax, eax
	je	SHORT $LN16@xr_map
	mov	ecx, DWORD PTR __imp_?Memory@@3VxrMemory@@A
	push	eax
	call	DWORD PTR __imp_?mem_free@xrMemory@@QAEXPAX@Z
$LN16@xr_map:
	ret	0
??1?$xr_map@PAVIRender_Visual@@Vshared_str@@U?$less@PAVIRender_Visual@@@std@@V?$xalloc@U?$pair@PAVIRender_Visual@@Vshared_str@@@std@@@@@@QAE@XZ ENDP ; xr_map<IRender_Visual *,shared_str,std::less<IRender_Visual *>,xalloc<std::pair<IRender_Visual *,shared_str> > >::~xr_map<IRender_Visual *,shared_str,std::less<IRender_Visual *>,xalloc<std::pair<IRender_Visual *,shared_str> > >
_TEXT	ENDS
; Function compile flags: /Ogtpy
; File C:\Program Files\Microsoft Visual Studio\2022\Community\VC\Tools\MSVC\14.29.30133\include\xtree
; File I:\Vitalya\mine\NSProjectX\xrCore\xrMemory.h
; File C:\Program Files\Microsoft Visual Studio\2022\Community\VC\Tools\MSVC\14.29.30133\include\xtree
; File I:\Vitalya\mine\NSProjectX\xrCore\xrMemory.h
; File C:\Program Files\Microsoft Visual Studio\2022\Community\VC\Tools\MSVC\14.29.30133\include\xtree
;	COMDAT ??0?$xr_multimap@Vshared_str@@PAVIRender_Visual@@Ustr_pred@CModelPool@@V?$xalloc@U?$pair@Vshared_str@@PAVIRender_Visual@@@std@@@@@@QAE@XZ
_TEXT	SEGMENT
??0?$xr_multimap@Vshared_str@@PAVIRender_Visual@@Ustr_pred@CModelPool@@V?$xalloc@U?$pair@Vshared_str@@PAVIRender_Visual@@@std@@@@@@QAE@XZ PROC ; xr_multimap<shared_str,IRender_Visual *,CModelPool::str_pred,xalloc<std::pair<shared_str,IRender_Visual *> > >::xr_multimap<shared_str,IRender_Visual *,CModelPool::str_pred,xalloc<std::pair<shared_str,IRender_Visual *> > >, COMDAT
; _this$ = ecx

; 435  :     _Tree_val() noexcept : _Myhead(), _Mysize(0) {}

	push	esi
	mov	esi, ecx
; File I:\Vitalya\mine\NSProjectX\xrCore\xrMemory.h

; 107  : 	IC T*		xr_alloc	(u32 count)				{	return  (T*)Memory.mem_alloc(count*sizeof(T));	}

	push	24					; 00000018H
; File C:\Program Files\Microsoft Visual Studio\2022\Community\VC\Tools\MSVC\14.29.30133\include\xtree

; 435  :     _Tree_val() noexcept : _Myhead(), _Mysize(0) {}

	mov	DWORD PTR [esi], 0
	mov	DWORD PTR [esi+4], 0
; File I:\Vitalya\mine\NSProjectX\xrCore\xrMemory.h

; 107  : 	IC T*		xr_alloc	(u32 count)				{	return  (T*)Memory.mem_alloc(count*sizeof(T));	}

	mov	ecx, DWORD PTR __imp_?Memory@@3VxrMemory@@A
	call	DWORD PTR __imp_?mem_alloc@xrMemory@@QAEPAXI@Z
; File C:\Program Files\Microsoft Visual Studio\2022\Community\VC\Tools\MSVC\14.29.30133\include\xtree

; 345  :         _Construct_in_place(_Pnode->_Left, _Pnode);

	mov	DWORD PTR [eax], eax

; 346  :         _Construct_in_place(_Pnode->_Parent, _Pnode);

	mov	DWORD PTR [eax+4], eax

; 347  :         _Construct_in_place(_Pnode->_Right, _Pnode);

	mov	DWORD PTR [eax+8], eax

; 348  :         _Pnode->_Color = _Black;

	mov	WORD PTR [eax+12], 257			; 00000101H

; 1917 :         _Scary->_Myhead = _Node::_Buyheadnode(_Getal());

	mov	DWORD PTR [esi], eax
	mov	eax, esi
	pop	esi
	ret	0
??0?$xr_multimap@Vshared_str@@PAVIRender_Visual@@Ustr_pred@CModelPool@@V?$xalloc@U?$pair@Vshared_str@@PAVIRender_Visual@@@std@@@@@@QAE@XZ ENDP ; xr_multimap<shared_str,IRender_Visual *,CModelPool::str_pred,xalloc<std::pair<shared_str,IRender_Visual *> > >::xr_multimap<shared_str,IRender_Visual *,CModelPool::str_pred,xalloc<std::pair<shared_str,IRender_Visual *> > >
_TEXT	ENDS
; Function compile flags: /Ogtpy
; File C:\Program Files\Microsoft Visual Studio\2022\Community\VC\Tools\MSVC\14.29.30133\include\xtree
; File C:\Program Files\Microsoft Visual Studio\2022\Community\VC\Tools\MSVC\14.29.30133\include\xmemory
; File I:\Vitalya\mine\NSProjectX\xrCore\xrMemory.h
;	COMDAT ??1?$xr_multimap@Vshared_str@@PAVIRender_Visual@@Ustr_pred@CModelPool@@V?$xalloc@U?$pair@Vshared_str@@PAVIRender_Visual@@@std@@@@@@QAE@XZ
_TEXT	SEGMENT
??1?$xr_multimap@Vshared_str@@PAVIRender_Visual@@Ustr_pred@CModelPool@@V?$xalloc@U?$pair@Vshared_str@@PAVIRender_Visual@@@std@@@@@@QAE@XZ PROC ; xr_multimap<shared_str,IRender_Visual *,CModelPool::str_pred,xalloc<std::pair<shared_str,IRender_Visual *> > >::~xr_multimap<shared_str,IRender_Visual *,CModelPool::str_pred,xalloc<std::pair<shared_str,IRender_Visual *> > >, COMDAT
; _this$ = ecx
; File C:\Program Files\Microsoft Visual Studio\2022\Community\VC\Tools\MSVC\14.29.30133\include\xtree

; 752  :         _Erase_tree(_Al, _Myhead->_Parent);

	push	esi
	mov	esi, ecx
	mov	eax, DWORD PTR [esi]
	push	DWORD PTR [eax+4]
	push	esi
	call	??$_Erase_tree@V?$xalloc@U?$_Tree_node@U?$pair@$$CBVshared_str@@PAVIRender_Visual@@@std@@PAX@std@@@@@?$_Tree_val@U?$_Tree_simple_types@U?$pair@$$CBVshared_str@@PAVIRender_Visual@@@std@@@std@@@std@@QAEXAAV?$xalloc@U?$_Tree_node@U?$pair@$$CBVshared_str@@PAVIRender_Visual@@@std@@PAX@std@@@@PAU?$_Tree_node@U?$pair@$$CBVshared_str@@PAVIRender_Visual@@@std@@PAX@1@@Z ; std::_Tree_val<std::_Tree_simple_types<std::pair<shared_str const ,IRender_Visual *> > >::_Erase_tree<xalloc<std::_Tree_node<std::pair<shared_str const ,IRender_Visual *>,void *> > >
; File C:\Program Files\Microsoft Visual Studio\2022\Community\VC\Tools\MSVC\14.29.30133\include\xmemory

; 560  :         _Al.deallocate(_Ptr, _Count);

	mov	eax, DWORD PTR [esi]
	pop	esi
; File I:\Vitalya\mine\NSProjectX\xrCore\xrMemory.h

; 109  : 	IC void		xr_free		(T* &P)					{	if (P) { Memory.mem_free((void*)P); P=NULL;	};	}

	test	eax, eax
	je	SHORT $LN16@xr_multima
	mov	ecx, DWORD PTR __imp_?Memory@@3VxrMemory@@A
	push	eax
	call	DWORD PTR __imp_?mem_free@xrMemory@@QAEXPAX@Z
$LN16@xr_multima:
	ret	0
??1?$xr_multimap@Vshared_str@@PAVIRender_Visual@@Ustr_pred@CModelPool@@V?$xalloc@U?$pair@Vshared_str@@PAVIRender_Visual@@@std@@@@@@QAE@XZ ENDP ; xr_multimap<shared_str,IRender_Visual *,CModelPool::str_pred,xalloc<std::pair<shared_str,IRender_Visual *> > >::~xr_multimap<shared_str,IRender_Visual *,CModelPool::str_pred,xalloc<std::pair<shared_str,IRender_Visual *> > >
_TEXT	ENDS
; Function compile flags: /Ogtpy
; File C:\Program Files\Microsoft Visual Studio\2022\Community\VC\Tools\MSVC\14.29.30133\include\xtree
; File C:\Program Files\Microsoft Visual Studio\2022\Community\VC\Tools\MSVC\14.29.30133\include\xmemory
; File I:\Vitalya\mine\NSProjectX\xrCore\xrMemory.h
;	COMDAT ??1?$map@PAVIRender_Visual@@Vshared_str@@U?$less@PAVIRender_Visual@@@std@@V?$xalloc@U?$pair@PAVIRender_Visual@@Vshared_str@@@std@@@@@std@@QAE@XZ
_TEXT	SEGMENT
??1?$map@PAVIRender_Visual@@Vshared_str@@U?$less@PAVIRender_Visual@@@std@@V?$xalloc@U?$pair@PAVIRender_Visual@@Vshared_str@@@std@@@@@std@@QAE@XZ PROC ; std::map<IRender_Visual *,shared_str,std::less<IRender_Visual *>,xalloc<std::pair<IRender_Visual *,shared_str> > >::~map<IRender_Visual *,shared_str,std::less<IRender_Visual *>,xalloc<std::pair<IRender_Visual *,shared_str> > >, COMDAT
; _this$ = ecx
; File C:\Program Files\Microsoft Visual Studio\2022\Community\VC\Tools\MSVC\14.29.30133\include\xtree

; 752  :         _Erase_tree(_Al, _Myhead->_Parent);

	push	esi
	mov	esi, ecx
	mov	eax, DWORD PTR [esi]
	push	DWORD PTR [eax+4]
	push	esi
	call	??$_Erase_tree@V?$xalloc@U?$_Tree_node@U?$pair@QAVIRender_Visual@@Vshared_str@@@std@@PAX@std@@@@@?$_Tree_val@U?$_Tree_simple_types@U?$pair@QAVIRender_Visual@@Vshared_str@@@std@@@std@@@std@@QAEXAAV?$xalloc@U?$_Tree_node@U?$pair@QAVIRender_Visual@@Vshared_str@@@std@@PAX@std@@@@PAU?$_Tree_node@U?$pair@QAVIRender_Visual@@Vshared_str@@@std@@PAX@1@@Z ; std::_Tree_val<std::_Tree_simple_types<std::pair<IRender_Visual * const,shared_str> > >::_Erase_tree<xalloc<std::_Tree_node<std::pair<IRender_Visual * const,shared_str>,void *> > >
; File C:\Program Files\Microsoft Visual Studio\2022\Community\VC\Tools\MSVC\14.29.30133\include\xmemory

; 560  :         _Al.deallocate(_Ptr, _Count);

	mov	eax, DWORD PTR [esi]
	pop	esi
; File I:\Vitalya\mine\NSProjectX\xrCore\xrMemory.h

; 109  : 	IC void		xr_free		(T* &P)					{	if (P) { Memory.mem_free((void*)P); P=NULL;	};	}

	test	eax, eax
	je	SHORT $LN14@map
	mov	ecx, DWORD PTR __imp_?Memory@@3VxrMemory@@A
	push	eax
	call	DWORD PTR __imp_?mem_free@xrMemory@@QAEXPAX@Z
$LN14@map:
	ret	0
??1?$map@PAVIRender_Visual@@Vshared_str@@U?$less@PAVIRender_Visual@@@std@@V?$xalloc@U?$pair@PAVIRender_Visual@@Vshared_str@@@std@@@@@std@@QAE@XZ ENDP ; std::map<IRender_Visual *,shared_str,std::less<IRender_Visual *>,xalloc<std::pair<IRender_Visual *,shared_str> > >::~map<IRender_Visual *,shared_str,std::less<IRender_Visual *>,xalloc<std::pair<IRender_Visual *,shared_str> > >
_TEXT	ENDS
; Function compile flags: /Ogtpy
; File C:\Program Files\Microsoft Visual Studio\2022\Community\VC\Tools\MSVC\14.29.30133\include\xtree
; File C:\Program Files\Microsoft Visual Studio\2022\Community\VC\Tools\MSVC\14.29.30133\include\xmemory
; File I:\Vitalya\mine\NSProjectX\xrCore\xrMemory.h
;	COMDAT ??1?$multimap@Vshared_str@@PAVIRender_Visual@@Ustr_pred@CModelPool@@V?$xalloc@U?$pair@Vshared_str@@PAVIRender_Visual@@@std@@@@@std@@QAE@XZ
_TEXT	SEGMENT
??1?$multimap@Vshared_str@@PAVIRender_Visual@@Ustr_pred@CModelPool@@V?$xalloc@U?$pair@Vshared_str@@PAVIRender_Visual@@@std@@@@@std@@QAE@XZ PROC ; std::multimap<shared_str,IRender_Visual *,CModelPool::str_pred,xalloc<std::pair<shared_str,IRender_Visual *> > >::~multimap<shared_str,IRender_Visual *,CModelPool::str_pred,xalloc<std::pair<shared_str,IRender_Visual *> > >, COMDAT
; _this$ = ecx
; File C:\Program Files\Microsoft Visual Studio\2022\Community\VC\Tools\MSVC\14.29.30133\include\xtree

; 752  :         _Erase_tree(_Al, _Myhead->_Parent);

	push	esi
	mov	esi, ecx
	mov	eax, DWORD PTR [esi]
	push	DWORD PTR [eax+4]
	push	esi
	call	??$_Erase_tree@V?$xalloc@U?$_Tree_node@U?$pair@$$CBVshared_str@@PAVIRender_Visual@@@std@@PAX@std@@@@@?$_Tree_val@U?$_Tree_simple_types@U?$pair@$$CBVshared_str@@PAVIRender_Visual@@@std@@@std@@@std@@QAEXAAV?$xalloc@U?$_Tree_node@U?$pair@$$CBVshared_str@@PAVIRender_Visual@@@std@@PAX@std@@@@PAU?$_Tree_node@U?$pair@$$CBVshared_str@@PAVIRender_Visual@@@std@@PAX@1@@Z ; std::_Tree_val<std::_Tree_simple_types<std::pair<shared_str const ,IRender_Visual *> > >::_Erase_tree<xalloc<std::_Tree_node<std::pair<shared_str const ,IRender_Visual *>,void *> > >
; File C:\Program Files\Microsoft Visual Studio\2022\Community\VC\Tools\MSVC\14.29.30133\include\xmemory

; 560  :         _Al.deallocate(_Ptr, _Count);

	mov	eax, DWORD PTR [esi]
	pop	esi
; File I:\Vitalya\mine\NSProjectX\xrCore\xrMemory.h

; 109  : 	IC void		xr_free		(T* &P)					{	if (P) { Memory.mem_free((void*)P); P=NULL;	};	}

	test	eax, eax
	je	SHORT $LN14@multimap
	mov	ecx, DWORD PTR __imp_?Memory@@3VxrMemory@@A
	push	eax
	call	DWORD PTR __imp_?mem_free@xrMemory@@QAEXPAX@Z
$LN14@multimap:
	ret	0
??1?$multimap@Vshared_str@@PAVIRender_Visual@@Ustr_pred@CModelPool@@V?$xalloc@U?$pair@Vshared_str@@PAVIRender_Visual@@@std@@@@@std@@QAE@XZ ENDP ; std::multimap<shared_str,IRender_Visual *,CModelPool::str_pred,xalloc<std::pair<shared_str,IRender_Visual *> > >::~multimap<shared_str,IRender_Visual *,CModelPool::str_pred,xalloc<std::pair<shared_str,IRender_Visual *> > >
_TEXT	ENDS
; Function compile flags: /Ogtpy
; File I:\Vitalya\mine\NSProjectX\layers\xrRender\ModelPool.cpp
; File C:\Program Files\Microsoft Visual Studio\2022\Community\VC\Tools\MSVC\14.29.30133\include\xtree
; File I:\Vitalya\mine\NSProjectX\layers\xrRender\ModelPool.cpp
; File C:\Program Files\Microsoft Visual Studio\2022\Community\VC\Tools\MSVC\14.29.30133\include\xtree
; File I:\Vitalya\mine\NSProjectX\layers\xrRender\ModelPool.cpp
; File C:\Program Files\Microsoft Visual Studio\2022\Community\VC\Tools\MSVC\14.29.30133\include\xtree
; File I:\Vitalya\mine\NSProjectX\layers\xrRender\ModelPool.cpp
; File C:\Program Files\Microsoft Visual Studio\2022\Community\VC\Tools\MSVC\14.29.30133\include\vector
; File I:\Vitalya\mine\NSProjectX\layers\xrRender\ModelPool.cpp
; File I:\Vitalya\mine\NSProjectX\xrCore\xrMemory_subst_msvc.h
; File C:\Program Files\Microsoft Visual Studio\2022\Community\VC\Tools\MSVC\14.29.30133\include\vector
; File I:\Vitalya\mine\NSProjectX\layers\xrRender\ModelPool.cpp
; File I:\Vitalya\mine\NSProjectX\xrCore\xrMemory_subst_msvc.h
; File I:\Vitalya\mine\NSProjectX\layers\xrRender\ModelPool.cpp
; File I:\Vitalya\mine\NSProjectX\xrCore\xrMemory_subst_msvc.h
; File C:\Program Files\Microsoft Visual Studio\2022\Community\VC\Tools\MSVC\14.29.30133\include\xtree
; File C:\Program Files\Microsoft Visual Studio\2022\Community\VC\Tools\MSVC\14.29.30133\include\xmemory
; File I:\Vitalya\mine\NSProjectX\xrCore\xrMemory.h
; File C:\Program Files\Microsoft Visual Studio\2022\Community\VC\Tools\MSVC\14.29.30133\include\xtree
; File I:\Vitalya\mine\NSProjectX\layers\xrRender\ModelPool.cpp
; File C:\Program Files\Microsoft Visual Studio\2022\Community\VC\Tools\MSVC\14.29.30133\include\xtree
; File C:\Program Files\Microsoft Visual Studio\2022\Community\VC\Tools\MSVC\14.29.30133\include\xmemory
; File I:\Vitalya\mine\NSProjectX\xrCore\xrMemory.h
; File C:\Program Files\Microsoft Visual Studio\2022\Community\VC\Tools\MSVC\14.29.30133\include\vector
; File I:\Vitalya\mine\NSProjectX\xrCore\xrMemory.h
; File C:\Program Files\Microsoft Visual Studio\2022\Community\VC\Tools\MSVC\14.29.30133\include\vector
; File I:\Vitalya\mine\NSProjectX\xrCore\xrMemory.h
; File C:\Program Files\Microsoft Visual Studio\2022\Community\VC\Tools\MSVC\14.29.30133\include\vector
; File I:\Vitalya\mine\NSProjectX\layers\xrRender\ModelPool.cpp
_TEXT	SEGMENT
_V$1 = -4						; size = 4
??1CModelPool@@UAE@XZ PROC				; CModelPool::~CModelPool
; _this$ = ecx

; 200  : {

	push	ebp
	mov	ebp, esp
	and	esp, -8					; fffffff8H
	sub	esp, 8
	push	ebx
	push	ebp
	mov	ebx, ecx
	push	esi
	push	edi

; 164  : 	Pool.clear			();

	lea	edi, DWORD PTR [ebx+36]

; 200  : {

	mov	DWORD PTR [ebx], OFFSET ??_7CModelPool@@6B@
; File C:\Program Files\Microsoft Visual Studio\2022\Community\VC\Tools\MSVC\14.29.30133\include\xtree

; 1343 :         _Scary->_Erase_tree(_Getal(), _Head->_Parent);

	mov	ecx, edi
	mov	esi, DWORD PTR [edi]
	push	DWORD PTR [esi+4]
	push	edi
	call	??$_Erase_tree@V?$xalloc@U?$_Tree_node@U?$pair@$$CBVshared_str@@PAVIRender_Visual@@@std@@PAX@std@@@@@?$_Tree_val@U?$_Tree_simple_types@U?$pair@$$CBVshared_str@@PAVIRender_Visual@@@std@@@std@@@std@@QAEXAAV?$xalloc@U?$_Tree_node@U?$pair@$$CBVshared_str@@PAVIRender_Visual@@@std@@PAX@std@@@@PAU?$_Tree_node@U?$pair@$$CBVshared_str@@PAVIRender_Visual@@@std@@PAX@1@@Z ; std::_Tree_val<std::_Tree_simple_types<std::pair<shared_str const ,IRender_Visual *> > >::_Erase_tree<xalloc<std::_Tree_node<std::pair<shared_str const ,IRender_Visual *>,void *> > >

; 1344 :         _Head->_Parent  = _Head;

	mov	DWORD PTR [esi+4], esi

; 1345 :         _Head->_Left    = _Head;

	mov	DWORD PTR [esi], esi

; 1346 :         _Head->_Right   = _Head;

	mov	DWORD PTR [esi+8], esi

; 1347 :         _Scary->_Mysize = 0;

	mov	DWORD PTR [edi+4], 0

; 1211 :         return size() == 0;

	cmp	DWORD PTR [ebx+32], 0
; File I:\Vitalya\mine\NSProjectX\layers\xrRender\ModelPool.cpp

; 167  : 	while(!Registry.empty()){

	je	SHORT $LN5@CModelPool
	npad	6
$LL4@CModelPool:
; File C:\Program Files\Microsoft Visual Studio\2022\Community\VC\Tools\MSVC\14.29.30133\include\xtree

; 1135 :         return iterator(_Scary->_Myhead->_Left, _Scary);

	mov	eax, DWORD PTR [ebx+28]
; File I:\Vitalya\mine\NSProjectX\layers\xrRender\ModelPool.cpp

; 169  : 		IRender_Visual* V=(IRender_Visual*)it->first;

	mov	eax, DWORD PTR [eax]
	mov	ecx, DWORD PTR [eax+16]
	mov	DWORD PTR _V$1[esp+24], ecx
	test	ecx, ecx

; 282  :     if (!V)					return;

	je	SHORT $LN28@CModelPool

; 283  : 	V->Depart				();

	mov	eax, DWORD PTR [ecx]
	call	DWORD PTR [eax+20]

; 284  : 	if (bDiscard||bForceDiscard){
; 285  :     	Discard	(V, TRUE); 

	push	1
	lea	eax, DWORD PTR _V$1[esp+28]
	mov	ecx, ebx
	push	eax
	call	?Discard@CModelPool@@QAEXAAPAVIRender_Visual@@H@Z ; CModelPool::Discard
$LN28@CModelPool:
; File C:\Program Files\Microsoft Visual Studio\2022\Community\VC\Tools\MSVC\14.29.30133\include\xtree

; 1211 :         return size() == 0;

	cmp	DWORD PTR [ebx+32], 0
; File I:\Vitalya\mine\NSProjectX\layers\xrRender\ModelPool.cpp

; 167  : 	while(!Registry.empty()){

	jne	SHORT $LL4@CModelPool
$LN5@CModelPool:
; File C:\Program Files\Microsoft Visual Studio\2022\Community\VC\Tools\MSVC\14.29.30133\include\vector

; 1463 :         return iterator(_My_data._Myfirst, _STD addressof(_My_data));

	mov	ebp, DWORD PTR [ebx+4]

; 41   :     _CONSTEXPR20_CONTAINER _Vector_const_iterator(_Tptr _Parg, const _Container_base* _Pvector) noexcept : _Ptr(_Parg) {

	mov	esi, DWORD PTR [ebx+8]
; File I:\Vitalya\mine\NSProjectX\layers\xrRender\ModelPool.cpp

; 179  : 	for (; I!=E; I++)

	mov	edi, DWORD PTR __imp_?mem_free@xrMemory@@QAEXPAX@Z
	cmp	ebp, esi
	je	SHORT $LN7@CModelPool
	npad	7
$LL8@CModelPool:

; 180  : 	{
; 181  : 		I->model->Release();

	mov	ecx, DWORD PTR [ebp+4]
	mov	eax, DWORD PTR [ecx]
	call	DWORD PTR [eax+8]
; File I:\Vitalya\mine\NSProjectX\xrCore\xrMemory_subst_msvc.h

; 151  : 	if (ptr) 

	mov	eax, DWORD PTR [ebp+4]
	test	eax, eax
	je	SHORT $LN6@CModelPool

; 132  : 		void*	_real_ptr	= dynamic_cast<void*>(ptr);

	push	eax
	call	___RTCastToVoid

; 133  : 		ptr->~T			();

	mov	ecx, DWORD PTR [ebp+4]
	add	esp, 4
	mov	edi, eax
	mov	edx, DWORD PTR [ecx]
	push	0
	call	DWORD PTR [edx+36]

; 134  : 		Memory.mem_free	(_real_ptr);

	mov	ecx, DWORD PTR __imp_?Memory@@3VxrMemory@@A
	push	edi
	mov	edi, DWORD PTR __imp_?mem_free@xrMemory@@QAEXPAX@Z
	call	edi

; 154  : 		ptr = nullptr;

	mov	DWORD PTR [ebp+4], 0
$LN6@CModelPool:
; File C:\Program Files\Microsoft Visual Studio\2022\Community\VC\Tools\MSVC\14.29.30133\include\vector

; 74   :         ++_Ptr;

	add	ebp, 12					; 0000000cH
; File I:\Vitalya\mine\NSProjectX\layers\xrRender\ModelPool.cpp

; 179  : 	for (; I!=E; I++)

	cmp	ebp, esi
	jne	SHORT $LL8@CModelPool
; File I:\Vitalya\mine\NSProjectX\xrCore\xrMemory_subst_msvc.h

; 154  : 		ptr = nullptr;

	mov	ebp, DWORD PTR [ebx+4]
$LN7@CModelPool:
; File I:\Vitalya\mine\NSProjectX\layers\xrRender\ModelPool.cpp

; 185  : 	Models.clear();

	mov	DWORD PTR [ebx+8], ebp

; 186  : 
; 187  : 	// cleanup motions container
; 188  : 	g_pMotionsContainer->clean(false);

	mov	ecx, DWORD PTR __imp_?g_pMotionsContainer@@3PAVmotions_container@@A
	push	0
	mov	ecx, DWORD PTR [ecx]
	call	DWORD PTR __imp_?clean@motions_container@@QAEX_N@Z

; 201  : 	Destroy					();
; 202  : 	xr_delete				(g_pMotionsContainer);

	mov	esi, DWORD PTR __imp_?g_pMotionsContainer@@3PAVmotions_container@@A
; File I:\Vitalya\mine\NSProjectX\xrCore\xrMemory_subst_msvc.h

; 151  : 	if (ptr) 

	mov	ecx, DWORD PTR [esi]
	test	ecx, ecx
	je	SHORT $LN248@CModelPool
	call	DWORD PTR __imp_??1motions_container@@QAE@XZ

; 144  : 		Memory.mem_free	(ptr);

	push	DWORD PTR [esi]
	mov	ecx, DWORD PTR __imp_?Memory@@3VxrMemory@@A
	call	edi

; 154  : 		ptr = nullptr;

	mov	DWORD PTR [esi], 0
$LN248@CModelPool:
; File C:\Program Files\Microsoft Visual Studio\2022\Community\VC\Tools\MSVC\14.29.30133\include\xtree

; 752  :         _Erase_tree(_Al, _Myhead->_Parent);

	mov	eax, DWORD PTR [ebx+36]
	lea	esi, DWORD PTR [ebx+36]
	mov	ecx, esi
	push	DWORD PTR [eax+4]
	push	esi
	call	??$_Erase_tree@V?$xalloc@U?$_Tree_node@U?$pair@$$CBVshared_str@@PAVIRender_Visual@@@std@@PAX@std@@@@@?$_Tree_val@U?$_Tree_simple_types@U?$pair@$$CBVshared_str@@PAVIRender_Visual@@@std@@@std@@@std@@QAEXAAV?$xalloc@U?$_Tree_node@U?$pair@$$CBVshared_str@@PAVIRender_Visual@@@std@@PAX@std@@@@PAU?$_Tree_node@U?$pair@$$CBVshared_str@@PAVIRender_Visual@@@std@@PAX@1@@Z ; std::_Tree_val<std::_Tree_simple_types<std::pair<shared_str const ,IRender_Visual *> > >::_Erase_tree<xalloc<std::_Tree_node<std::pair<shared_str const ,IRender_Visual *>,void *> > >
; File C:\Program Files\Microsoft Visual Studio\2022\Community\VC\Tools\MSVC\14.29.30133\include\xmemory

; 560  :         _Al.deallocate(_Ptr, _Count);

	mov	eax, DWORD PTR [esi]
; File I:\Vitalya\mine\NSProjectX\xrCore\xrMemory.h

; 109  : 	IC void		xr_free		(T* &P)					{	if (P) { Memory.mem_free((void*)P); P=NULL;	};	}

	test	eax, eax
	je	SHORT $LN270@CModelPool
	mov	ecx, DWORD PTR __imp_?Memory@@3VxrMemory@@A
	push	eax
	call	edi
$LN270@CModelPool:
; File C:\Program Files\Microsoft Visual Studio\2022\Community\VC\Tools\MSVC\14.29.30133\include\xtree

; 752  :         _Erase_tree(_Al, _Myhead->_Parent);

	mov	eax, DWORD PTR [ebx+28]
; File I:\Vitalya\mine\NSProjectX\layers\xrRender\ModelPool.cpp

; 203  : }

	lea	esi, DWORD PTR [ebx+28]
; File C:\Program Files\Microsoft Visual Studio\2022\Community\VC\Tools\MSVC\14.29.30133\include\xtree

; 752  :         _Erase_tree(_Al, _Myhead->_Parent);

	mov	ecx, esi
	push	DWORD PTR [eax+4]
	push	esi
	call	??$_Erase_tree@V?$xalloc@U?$_Tree_node@U?$pair@QAVIRender_Visual@@Vshared_str@@@std@@PAX@std@@@@@?$_Tree_val@U?$_Tree_simple_types@U?$pair@QAVIRender_Visual@@Vshared_str@@@std@@@std@@@std@@QAEXAAV?$xalloc@U?$_Tree_node@U?$pair@QAVIRender_Visual@@Vshared_str@@@std@@PAX@std@@@@PAU?$_Tree_node@U?$pair@QAVIRender_Visual@@Vshared_str@@@std@@PAX@1@@Z ; std::_Tree_val<std::_Tree_simple_types<std::pair<IRender_Visual * const,shared_str> > >::_Erase_tree<xalloc<std::_Tree_node<std::pair<IRender_Visual * const,shared_str>,void *> > >
; File C:\Program Files\Microsoft Visual Studio\2022\Community\VC\Tools\MSVC\14.29.30133\include\xmemory

; 560  :         _Al.deallocate(_Ptr, _Count);

	mov	eax, DWORD PTR [esi]
; File I:\Vitalya\mine\NSProjectX\xrCore\xrMemory.h

; 109  : 	IC void		xr_free		(T* &P)					{	if (P) { Memory.mem_free((void*)P); P=NULL;	};	}

	test	eax, eax
	je	SHORT $LN287@CModelPool
	mov	ecx, DWORD PTR __imp_?Memory@@3VxrMemory@@A
	push	eax
	call	edi
$LN287@CModelPool:
; File C:\Program Files\Microsoft Visual Studio\2022\Community\VC\Tools\MSVC\14.29.30133\include\vector

; 1750 :         if (_Myfirst) { // destroy and deallocate old array

	mov	eax, DWORD PTR [ebx+16]
	test	eax, eax
	je	SHORT $LN294@CModelPool
; File I:\Vitalya\mine\NSProjectX\xrCore\xrMemory.h

; 109  : 	IC void		xr_free		(T* &P)					{	if (P) { Memory.mem_free((void*)P); P=NULL;	};	}

	mov	ecx, DWORD PTR __imp_?Memory@@3VxrMemory@@A
	push	eax
	call	edi
; File C:\Program Files\Microsoft Visual Studio\2022\Community\VC\Tools\MSVC\14.29.30133\include\vector

; 1754 :             _Myfirst = nullptr;

	mov	DWORD PTR [ebx+16], 0

; 1755 :             _Mylast  = nullptr;

	mov	DWORD PTR [ebx+20], 0

; 1756 :             _Myend   = nullptr;

	mov	DWORD PTR [ebx+24], 0
$LN294@CModelPool:

; 1750 :         if (_Myfirst) { // destroy and deallocate old array

	mov	eax, DWORD PTR [ebx+4]
	test	eax, eax
	je	SHORT $LN306@CModelPool
; File I:\Vitalya\mine\NSProjectX\xrCore\xrMemory.h

; 109  : 	IC void		xr_free		(T* &P)					{	if (P) { Memory.mem_free((void*)P); P=NULL;	};	}

	mov	ecx, DWORD PTR __imp_?Memory@@3VxrMemory@@A
	push	eax
	call	edi
; File C:\Program Files\Microsoft Visual Studio\2022\Community\VC\Tools\MSVC\14.29.30133\include\vector

; 1754 :             _Myfirst = nullptr;

	mov	DWORD PTR [ebx+4], 0

; 1755 :             _Mylast  = nullptr;

	mov	DWORD PTR [ebx+8], 0

; 1756 :             _Myend   = nullptr;

	mov	DWORD PTR [ebx+12], 0
$LN306@CModelPool:
; File I:\Vitalya\mine\NSProjectX\layers\xrRender\ModelPool.cpp

; 203  : }

	pop	edi
	pop	esi
	pop	ebp
	pop	ebx
	mov	esp, ebp
	pop	ebp
	ret	0
??1CModelPool@@UAE@XZ ENDP				; CModelPool::~CModelPool
_TEXT	ENDS
; Function compile flags: /Ogtpy
; File I:\Vitalya\mine\NSProjectX\layers\xrRender\ModelPool.cpp
; File C:\Program Files\Microsoft Visual Studio\2022\Community\VC\Tools\MSVC\14.29.30133\include\vector
; File I:\Vitalya\mine\NSProjectX\layers\xrRender\ModelPool.cpp
; File I:\Vitalya\mine\NSProjectX\xrCore\xrstring.h
; File I:\Vitalya\mine\NSProjectX\layers\xrRender\ModelPool.cpp
; File I:\Vitalya\mine\NSProjectX\xrCore\xrstring.h
; File I:\Vitalya\mine\NSProjectX\layers\xrRender\ModelPool.cpp
; File I:\Vitalya\mine\NSProjectX\xrCore\_std_extensions.h
; File I:\Vitalya\mine\NSProjectX\layers\xrRender\ModelPool.cpp
; File C:\Program Files\Microsoft Visual Studio\2022\Community\VC\Tools\MSVC\14.29.30133\include\vector
; File I:\Vitalya\mine\NSProjectX\layers\xrRender\ModelPool.cpp
_TEXT	SEGMENT
_N$ = 8							; size = 4
?Instance_Find@CModelPool@@QAEPAVIRender_Visual@@PBD@Z PROC ; CModelPool::Instance_Find
; _this$ = ecx

; 209  : 	for (I=Models.begin(); I!=Models.end(); I++)

	mov	eax, DWORD PTR [ecx+4]
	push	edi
; File C:\Program Files\Microsoft Visual Studio\2022\Community\VC\Tools\MSVC\14.29.30133\include\vector

; 150  :         return _Ptr == _Right._Ptr;

	mov	edi, DWORD PTR [ecx+8]
	cmp	eax, edi
; File I:\Vitalya\mine\NSProjectX\layers\xrRender\ModelPool.cpp

; 209  : 	for (I=Models.begin(); I!=Models.end(); I++)

	je	SHORT $LN51@Instance_F
	push	ebp
	mov	ebp, DWORD PTR _N$[esp+4]
	push	ebx
	push	esi
$LL4@Instance_F:
; File I:\Vitalya\mine\NSProjectX\xrCore\xrstring.h

; 67   : 	char				operator[]	(size_t id)						{	return p_->value[id];							}

	mov	esi, DWORD PTR [eax]
; File I:\Vitalya\mine\NSProjectX\layers\xrRender\ModelPool.cpp

; 211  : 		if (I->name[0]&&(0==xr_strcmp(*I->name,N))) {

	cmp	BYTE PTR [esi+12], 0
; File I:\Vitalya\mine\NSProjectX\xrCore\xrstring.h

; 67   : 	char				operator[]	(size_t id)						{	return p_->value[id];							}

	lea	ecx, DWORD PTR [esi+12]
; File I:\Vitalya\mine\NSProjectX\layers\xrRender\ModelPool.cpp

; 211  : 		if (I->name[0]&&(0==xr_strcmp(*I->name,N))) {

	je	SHORT $LN2@Instance_F
; File I:\Vitalya\mine\NSProjectX\xrCore\_std_extensions.h

; 183  : {	return (int)strcmp(S1,S2);  }

	xor	ebx, ebx
	mov	edx, ebp
	test	esi, esi
	cmove	ecx, ebx
$LL46@Instance_F:
	mov	bl, BYTE PTR [ecx]
	cmp	bl, BYTE PTR [edx]
	jne	SHORT $LN47@Instance_F
	test	bl, bl
	je	SHORT $LN48@Instance_F
	mov	bl, BYTE PTR [ecx+1]
	cmp	bl, BYTE PTR [edx+1]
	jne	SHORT $LN47@Instance_F
	add	ecx, 2
	add	edx, 2
	test	bl, bl
	jne	SHORT $LL46@Instance_F
$LN48@Instance_F:
	xor	ecx, ecx
	jmp	SHORT $LN49@Instance_F
$LN47@Instance_F:
	sbb	ecx, ecx
	or	ecx, 1
$LN49@Instance_F:
; File I:\Vitalya\mine\NSProjectX\layers\xrRender\ModelPool.cpp

; 211  : 		if (I->name[0]&&(0==xr_strcmp(*I->name,N))) {

	test	ecx, ecx
	je	SHORT $LN40@Instance_F
$LN2@Instance_F:
; File C:\Program Files\Microsoft Visual Studio\2022\Community\VC\Tools\MSVC\14.29.30133\include\vector

; 74   :         ++_Ptr;

	add	eax, 12					; 0000000cH

; 150  :         return _Ptr == _Right._Ptr;

	cmp	eax, edi
; File I:\Vitalya\mine\NSProjectX\layers\xrRender\ModelPool.cpp

; 209  : 	for (I=Models.begin(); I!=Models.end(); I++)

	jne	SHORT $LL4@Instance_F

; 212  : 			Model = I->model;
; 213  : 			break;
; 214  : 		}
; 215  : 	}
; 216  : 	return Model;

	pop	esi
	pop	ebx
	pop	ebp
	xor	eax, eax
	pop	edi

; 217  : }

	ret	4
$LN40@Instance_F:

; 212  : 			Model = I->model;
