; Listing generated by Microsoft (R) Optimizing Compiler Version 19.29.30146.0 

	TITLE	i:\vitalya\mine\nsprojectx\nspx_build\intermediate\release-win32\xrrender_r1\nvtristripobjects.obj
	.686P
	.XMM
	include listing.inc
	.model	flat

INCLUDELIB OLDNAMES

PUBLIC	??_C@_0ED@PGPLFOBO@?$CB?5WARNING?3?5GetNextIndex?3?5Triang@ ; `string'
PUBLIC	??_C@_0EF@NPIJGPAE@?$CB?5WARNING?3?5GetNextIndex?3?5Duplic@ ; `string'
PUBLIC	??_C@_0DB@JOONJBKI@?$CB?5WARNING?3?5GetNextIndex?3?5Duplic@ ; `string'
;	COMDAT ??_C@_0DB@JOONJBKI@?$CB?5WARNING?3?5GetNextIndex?3?5Duplic@
CONST	SEGMENT
??_C@_0DB@JOONJBKI@?$CB?5WARNING?3?5GetNextIndex?3?5Duplic@ DB '! WARNING'
	DB	': GetNextIndex: Duplicate triangle sent', 00H ; `string'
CONST	ENDS
;	COMDAT ??_C@_0EF@NPIJGPAE@?$CB?5WARNING?3?5GetNextIndex?3?5Duplic@
CONST	SEGMENT
??_C@_0EF@NPIJGPAE@?$CB?5WARNING?3?5GetNextIndex?3?5Duplic@ DB '! WARNING'
	DB	': GetNextIndex: Duplicate triangle probably got us derailed', 00H ; `string'
CONST	ENDS
;	COMDAT ??_C@_0ED@PGPLFOBO@?$CB?5WARNING?3?5GetNextIndex?3?5Triang@
CONST	SEGMENT
??_C@_0ED@PGPLFOBO@?$CB?5WARNING?3?5GetNextIndex?3?5Triang@ DB '! WARNING'
	DB	': GetNextIndex: Triangle doesn''t have all of its vertices', 00H ; `string'
?_Fake_alloc@std@@3U_Fake_allocator@1@B	ORG $+1		; std::_Fake_alloc
PUBLIC	?_max@@YAHHH@Z					; _max
PUBLIC	??$construct@PAVNvStripInfo@@AAPAV1@@?$_Normal_allocator_traits@V?$xalloc@PAVNvStripInfo@@@@@std@@SAXAAV?$xalloc@PAVNvStripInfo@@@@PAPAVNvStripInfo@@AAPAV3@@Z ; std::_Normal_allocator_traits<xalloc<NvStripInfo *> >::construct<NvStripInfo *,NvStripInfo * &>
PUBLIC	??$forward@AAPAVNvStripInfo@@@std@@YAAAPAVNvStripInfo@@AAPAV1@@Z ; std::forward<NvStripInfo * &>
PUBLIC	??$_Emplace_back@AAPAVNvStripInfo@@@?$_Uninitialized_backout_al@V?$xalloc@PAVNvStripInfo@@@@@std@@QAEXAAPAVNvStripInfo@@@Z ; std::_Uninitialized_backout_al<xalloc<NvStripInfo *> >::_Emplace_back<NvStripInfo * &>
PUBLIC	??$_Uninitialized_copy@PAPAVNvStripInfo@@V?$xalloc@PAVNvStripInfo@@@@@std@@YAPAPAVNvStripInfo@@QAPAV1@0PAPAV1@AAV?$xalloc@PAVNvStripInfo@@@@@Z ; std::_Uninitialized_copy<NvStripInfo * *,xalloc<NvStripInfo *> >
PUBLIC	??$forward@V?$xalloc@PAVNvStripInfo@@@@@std@@YA$$QAV?$xalloc@PAVNvStripInfo@@@@AAV1@@Z ; std::forward<xalloc<NvStripInfo *> >
PUBLIC	??$_Ucopy@PAPAVNvStripInfo@@@?$vector@PAVNvStripInfo@@V?$xalloc@PAVNvStripInfo@@@@@std@@AAEPAPAVNvStripInfo@@PAPAV2@00@Z ; std::vector<NvStripInfo *,xalloc<NvStripInfo *> >::_Ucopy<NvStripInfo * *>
PUBLIC	??$?0V?$xalloc@PAVNvStripInfo@@@@$$V@?$_Compressed_pair@V?$xalloc@PAVNvStripInfo@@@@V?$_Vector_val@U?$_Simple_types@PAVNvStripInfo@@@std@@@std@@$00@std@@QAE@U_One_then_variadic_args_t@1@$$QAV?$xalloc@PAVNvStripInfo@@@@@Z ; std::_Compressed_pair<xalloc<NvStripInfo *>,std::_Vector_val<std::_Simple_types<NvStripInfo *> >,1>::_Compressed_pair<xalloc<NvStripInfo *>,std::_Vector_val<std::_Simple_types<NvStripInfo *> >,1><xalloc<NvStripInfo *> >
PUBLIC	??0?$xalloc@PAVNvStripInfo@@@@QAE@ABV0@@Z	; xalloc<NvStripInfo *>::xalloc<NvStripInfo *>
PUBLIC	?select_on_container_copy_construction@?$_Normal_allocator_traits@V?$xalloc@PAVNvStripInfo@@@@@std@@SA?AV?$xalloc@PAVNvStripInfo@@@@ABV3@@Z ; std::_Normal_allocator_traits<xalloc<NvStripInfo *> >::select_on_container_copy_construction
PUBLIC	?_Buy_raw@?$vector@PAVNvStripInfo@@V?$xalloc@PAVNvStripInfo@@@@@std@@AAEXI@Z ; std::vector<NvStripInfo *,xalloc<NvStripInfo *> >::_Buy_raw
PUBLIC	??1?$_Tidy_guard@V?$vector@PAVNvStripInfo@@V?$xalloc@PAVNvStripInfo@@@@@std@@@std@@QAE@XZ ; std::_Tidy_guard<std::vector<NvStripInfo *,xalloc<NvStripInfo *> > >::~_Tidy_guard<std::vector<NvStripInfo *,xalloc<NvStripInfo *> > >
PUBLIC	??0?$vector@PAVNvStripInfo@@V?$xalloc@PAVNvStripInfo@@@@@std@@QAE@ABV01@@Z ; std::vector<NvStripInfo *,xalloc<NvStripInfo *> >::vector<NvStripInfo *,xalloc<NvStripInfo *> >
PUBLIC	??0?$xr_vector@PAVNvStripInfo@@V?$xalloc@PAVNvStripInfo@@@@@@QAE@ABV0@@Z ; xr_vector<NvStripInfo *,xalloc<NvStripInfo *> >::xr_vector<NvStripInfo *,xalloc<NvStripInfo *> >
PUBLIC	?construct@?$xalloc@PAVNvEdgeInfo@@@@QAEXPAPAVNvEdgeInfo@@ABQAV2@@Z ; xalloc<NvEdgeInfo *>::construct
PUBLIC	?construct@?$xalloc@V?$xr_vector@PAVNvStripInfo@@V?$xalloc@PAVNvStripInfo@@@@@@@@QAEXPAV?$xr_vector@PAVNvStripInfo@@V?$xalloc@PAVNvStripInfo@@@@@@ABV2@@Z ; xalloc<xr_vector<NvStripInfo *,xalloc<NvStripInfo *> > >::construct
PUBLIC	??$construct@PAVNvEdgeInfo@@PAV1@@?$_Normal_allocator_traits@V?$xalloc@PAVNvEdgeInfo@@@@@std@@SAXAAV?$xalloc@PAVNvEdgeInfo@@@@PAPAVNvEdgeInfo@@$$QAPAV3@@Z ; std::_Normal_allocator_traits<xalloc<NvEdgeInfo *> >::construct<NvEdgeInfo *,NvEdgeInfo *>
PUBLIC	??$forward@PAVNvEdgeInfo@@@std@@YA$$QAPAVNvEdgeInfo@@AAPAV1@@Z ; std::forward<NvEdgeInfo *>
PUBLIC	??$construct@V?$xr_vector@PAVNvStripInfo@@V?$xalloc@PAVNvStripInfo@@@@@@V1@@?$_Normal_allocator_traits@V?$xalloc@V?$xr_vector@PAVNvStripInfo@@V?$xalloc@PAVNvStripInfo@@@@@@@@@std@@SAXAAV?$xalloc@V?$xr_vector@PAVNvStripInfo@@V?$xalloc@PAVNvStripInfo@@@@@@@@PAV?$xr_vector@PAVNvStripInfo@@V?$xalloc@PAVNvStripInfo@@@@@@$$QAV3@@Z ; std::_Normal_allocator_traits<xalloc<xr_vector<NvStripInfo *,xalloc<NvStripInfo *> > > >::construct<xr_vector<NvStripInfo *,xalloc<NvStripInfo *> >,xr_vector<NvStripInfo *,xalloc<NvStripInfo *> > >
PUBLIC	??$forward@V?$xr_vector@PAVNvStripInfo@@V?$xalloc@PAVNvStripInfo@@@@@@@std@@YA$$QAV?$xr_vector@PAVNvStripInfo@@V?$xalloc@PAVNvStripInfo@@@@@@AAV1@@Z ; std::forward<xr_vector<NvStripInfo *,xalloc<NvStripInfo *> > >
PUBLIC	??$_Emplace_back@PAVNvEdgeInfo@@@?$_Uninitialized_backout_al@V?$xalloc@PAVNvEdgeInfo@@@@@std@@QAEX$$QAPAVNvEdgeInfo@@@Z ; std::_Uninitialized_backout_al<xalloc<NvEdgeInfo *> >::_Emplace_back<NvEdgeInfo *>
PUBLIC	??$move@AAPAVNvEdgeInfo@@@std@@YA$$QAPAVNvEdgeInfo@@AAPAV1@@Z ; std::move<NvEdgeInfo * &>
PUBLIC	??$_Emplace_back@V?$xr_vector@PAVNvStripInfo@@V?$xalloc@PAVNvStripInfo@@@@@@@?$_Uninitialized_backout_al@V?$xalloc@V?$xr_vector@PAVNvStripInfo@@V?$xalloc@PAVNvStripInfo@@@@@@@@@std@@QAEX$$QAV?$xr_vector@PAVNvStripInfo@@V?$xalloc@PAVNvStripInfo@@@@@@@Z ; std::_Uninitialized_backout_al<xalloc<xr_vector<NvStripInfo *,xalloc<NvStripInfo *> > > >::_Emplace_back<xr_vector<NvStripInfo *,xalloc<NvStripInfo *> > >
PUBLIC	??$move@AAV?$xr_vector@PAVNvStripInfo@@V?$xalloc@PAVNvStripInfo@@@@@@@std@@YA$$QAV?$xr_vector@PAVNvStripInfo@@V?$xalloc@PAVNvStripInfo@@@@@@AAV1@@Z ; std::move<xr_vector<NvStripInfo *,xalloc<NvStripInfo *> > &>
PUBLIC	??$construct@PAVNvEdgeInfo@@$$V@?$_Normal_allocator_traits@V?$xalloc@PAVNvEdgeInfo@@@@@std@@SAXAAV?$xalloc@PAVNvEdgeInfo@@@@PAPAVNvEdgeInfo@@@Z ; std::_Normal_allocator_traits<xalloc<NvEdgeInfo *> >::construct<NvEdgeInfo *>
PUBLIC	??$construct@PAVNvStripInfo@@PAV1@@?$_Normal_allocator_traits@V?$xalloc@PAVNvStripInfo@@@@@std@@SAXAAV?$xalloc@PAVNvStripInfo@@@@PAPAVNvStripInfo@@$$QAPAV3@@Z ; std::_Normal_allocator_traits<xalloc<NvStripInfo *> >::construct<NvStripInfo *,NvStripInfo *>
PUBLIC	??$forward@PAVNvStripInfo@@@std@@YA$$QAPAVNvStripInfo@@AAPAV1@@Z ; std::forward<NvStripInfo *>
PUBLIC	??$construct@V?$xr_vector@PAVNvStripInfo@@V?$xalloc@PAVNvStripInfo@@@@@@$$V@?$_Normal_allocator_traits@V?$xalloc@V?$xr_vector@PAVNvStripInfo@@V?$xalloc@PAVNvStripInfo@@@@@@@@@std@@SAXAAV?$xalloc@V?$xr_vector@PAVNvStripInfo@@V?$xalloc@PAVNvStripInfo@@@@@@@@PAV?$xr_vector@PAVNvStripInfo@@V?$xalloc@PAVNvStripInfo@@@@@@@Z ; std::_Normal_allocator_traits<xalloc<xr_vector<NvStripInfo *,xalloc<NvStripInfo *> > > >::construct<xr_vector<NvStripInfo *,xalloc<NvStripInfo *> > >
PUBLIC	??$forward@PAU?$_Tree_node@PAVNvFaceInfo@@PAX@std@@@std@@YA$$QAPAU?$_Tree_node@PAVNvFaceInfo@@PAX@0@AAPAU10@@Z ; std::forward<std::_Tree_node<NvFaceInfo *,void *> *>
PUBLIC	??$_Construct_in_place@PAU?$_Tree_node@PAVNvFaceInfo@@PAX@std@@AAPAU12@@std@@YAXAAPAU?$_Tree_node@PAVNvFaceInfo@@PAX@0@0@Z ; std::_Construct_in_place<std::_Tree_node<NvFaceInfo *,void *> *,std::_Tree_node<NvFaceInfo *,void *> * &>
PUBLIC	??$construct@PAVNvFaceInfo@@ABQAV1@@?$_Normal_allocator_traits@V?$xalloc@U?$_Tree_node@PAVNvFaceInfo@@PAX@std@@@@@std@@SAXAAV?$xalloc@U?$_Tree_node@PAVNvFaceInfo@@PAX@std@@@@PAPAVNvFaceInfo@@ABQAV3@@Z ; std::_Normal_allocator_traits<xalloc<std::_Tree_node<NvFaceInfo *,void *> > >::construct<NvFaceInfo *,NvFaceInfo * const &>
PUBLIC	??$forward@AAPAU?$_Tree_node@PAVNvFaceInfo@@PAX@std@@@std@@YAAAPAU?$_Tree_node@PAVNvFaceInfo@@PAX@0@AAPAU10@@Z ; std::forward<std::_Tree_node<NvFaceInfo *,void *> * &>
PUBLIC	??0?$_Alloc_construct_ptr@V?$xalloc@U?$_Tree_node@PAVNvFaceInfo@@PAX@std@@@@@std@@QAE@AAV?$xalloc@U?$_Tree_node@PAVNvFaceInfo@@PAX@std@@@@@Z ; std::_Alloc_construct_ptr<xalloc<std::_Tree_node<NvFaceInfo *,void *> > >::_Alloc_construct_ptr<xalloc<std::_Tree_node<NvFaceInfo *,void *> > >
PUBLIC	?_Allocate@?$_Alloc_construct_ptr@V?$xalloc@U?$_Tree_node@PAVNvFaceInfo@@PAX@std@@@@@std@@QAEXXZ ; std::_Alloc_construct_ptr<xalloc<std::_Tree_node<NvFaceInfo *,void *> > >::_Allocate
PUBLIC	??0?$_Tree_temp_node_alloc@V?$xalloc@U?$_Tree_node@PAVNvFaceInfo@@PAX@std@@@@@std@@QAE@AAV?$xalloc@U?$_Tree_node@PAVNvFaceInfo@@PAX@std@@@@@Z ; std::_Tree_temp_node_alloc<xalloc<std::_Tree_node<NvFaceInfo *,void *> > >::_Tree_temp_node_alloc<xalloc<std::_Tree_node<NvFaceInfo *,void *> > >
PUBLIC	??$_Get_unwrapped@ABQAPAVNvEdgeInfo@@@std@@YA?A_TABQAPAVNvEdgeInfo@@@Z ; std::_Get_unwrapped<NvEdgeInfo * * const &>
PUBLIC	??$_Uninitialized_move@PAPAVNvEdgeInfo@@V?$xalloc@PAVNvEdgeInfo@@@@@std@@YAPAPAVNvEdgeInfo@@QAPAV1@0PAPAV1@AAV?$xalloc@PAVNvEdgeInfo@@@@@Z ; std::_Uninitialized_move<NvEdgeInfo * *,xalloc<NvEdgeInfo *> >
PUBLIC	??$_Get_unwrapped@ABQAV?$xr_vector@PAVNvStripInfo@@V?$xalloc@PAVNvStripInfo@@@@@@@std@@YA?A_TABQAV?$xr_vector@PAVNvStripInfo@@V?$xalloc@PAVNvStripInfo@@@@@@@Z ; std::_Get_unwrapped<xr_vector<NvStripInfo *,xalloc<NvStripInfo *> > * const &>
PUBLIC	??$_Uninitialized_move@PAV?$xr_vector@PAVNvStripInfo@@V?$xalloc@PAVNvStripInfo@@@@@@V?$xalloc@V?$xr_vector@PAVNvStripInfo@@V?$xalloc@PAVNvStripInfo@@@@@@@@@std@@YAPAV?$xr_vector@PAVNvStripInfo@@V?$xalloc@PAVNvStripInfo@@@@@@QAV1@0PAV1@AAV?$xalloc@V?$xr_vector@PAVNvStripInfo@@V?$xalloc@PAVNvStripInfo@@@@@@@@@Z ; std::_Uninitialized_move<xr_vector<NvStripInfo *,xalloc<NvStripInfo *> > *,xalloc<xr_vector<NvStripInfo *,xalloc<NvStripInfo *> > > >
PUBLIC	??$xr_free@U?$_Tree_node@PAVNvFaceInfo@@PAX@std@@@@YAXAAPAU?$_Tree_node@PAVNvFaceInfo@@PAX@std@@@Z ; xr_free<std::_Tree_node<NvFaceInfo *,void *> >
PUBLIC	??$xr_alloc@PAVNvEdgeInfo@@@@YAPAPAVNvEdgeInfo@@I@Z ; xr_alloc<NvEdgeInfo *>
PUBLIC	??$_Destroy_in_place@PAPAVNvEdgeInfo@@@std@@YAXAAPAPAVNvEdgeInfo@@@Z ; std::_Destroy_in_place<NvEdgeInfo * *>
PUBLIC	??$xr_alloc@V?$xr_vector@PAVNvStripInfo@@V?$xalloc@PAVNvStripInfo@@@@@@@@YAPAV?$xr_vector@PAVNvStripInfo@@V?$xalloc@PAVNvStripInfo@@@@@@I@Z ; xr_alloc<xr_vector<NvStripInfo *,xalloc<NvStripInfo *> > >
PUBLIC	??$_Destroy_in_place@PAV?$xr_vector@PAVNvStripInfo@@V?$xalloc@PAVNvStripInfo@@@@@@@std@@YAXAAPAV?$xr_vector@PAVNvStripInfo@@V?$xalloc@PAVNvStripInfo@@@@@@@Z ; std::_Destroy_in_place<xr_vector<NvStripInfo *,xalloc<NvStripInfo *> > *>
PUBLIC	??$exchange@PAU?$_Tree_node@PAVNvFaceInfo@@PAX@std@@$$T@std@@YAPAU?$_Tree_node@PAVNvFaceInfo@@PAX@0@AAPAU10@$$QA$$T@Z ; std::exchange<std::_Tree_node<NvFaceInfo *,void *> *,std::nullptr_t>
PUBLIC	??$destroy@PAVNvFaceInfo@@@?$_Normal_allocator_traits@V?$xalloc@U?$_Tree_node@PAVNvFaceInfo@@PAX@std@@@@@std@@SAXAAV?$xalloc@U?$_Tree_node@PAVNvFaceInfo@@PAX@std@@@@PAPAVNvFaceInfo@@@Z ; std::_Normal_allocator_traits<xalloc<std::_Tree_node<NvFaceInfo *,void *> > >::destroy<NvFaceInfo *>
PUBLIC	??$addressof@PAVNvFaceInfo@@@std@@YAPAPAVNvFaceInfo@@AAPAV1@@Z ; std::addressof<NvFaceInfo *>
PUBLIC	??$_Emplace_back@H@?$_Uninitialized_backout_al@V?$xalloc@H@@@std@@QAEX$$QAH@Z ; std::_Uninitialized_backout_al<xalloc<int> >::_Emplace_back<int>
PUBLIC	??$_Emplace_back@$$V@?$_Uninitialized_backout_al@V?$xalloc@PAVNvEdgeInfo@@@@@std@@QAEXXZ ; std::_Uninitialized_backout_al<xalloc<NvEdgeInfo *> >::_Emplace_back<>
PUBLIC	??$_To_address@PAPAVNvEdgeInfo@@@std@@YA?A_PABQAPAVNvEdgeInfo@@@Z ; std::_To_address<NvEdgeInfo * *>
PUBLIC	??$_Zero_range@PAPAVNvEdgeInfo@@@std@@YAPAPAVNvEdgeInfo@@QAPAV1@0@Z ; std::_Zero_range<NvEdgeInfo * *>
PUBLIC	??$_Emplace_back@PAVNvStripInfo@@@?$_Uninitialized_backout_al@V?$xalloc@PAVNvStripInfo@@@@@std@@QAEX$$QAPAVNvStripInfo@@@Z ; std::_Uninitialized_backout_al<xalloc<NvStripInfo *> >::_Emplace_back<NvStripInfo *>
PUBLIC	??$move@AAPAVNvStripInfo@@@std@@YA$$QAPAVNvStripInfo@@AAPAV1@@Z ; std::move<NvStripInfo * &>
PUBLIC	??$_Emplace_back@$$V@?$_Uninitialized_backout_al@V?$xalloc@V?$xr_vector@PAVNvStripInfo@@V?$xalloc@PAVNvStripInfo@@@@@@@@@std@@QAEXXZ ; std::_Uninitialized_backout_al<xalloc<xr_vector<NvStripInfo *,xalloc<NvStripInfo *> > > >::_Emplace_back<>
PUBLIC	??$construct@PAVNvFaceInfo@@PAV1@@?$_Normal_allocator_traits@V?$xalloc@PAVNvFaceInfo@@@@@std@@SAXAAV?$xalloc@PAVNvFaceInfo@@@@PAPAVNvFaceInfo@@$$QAPAV3@@Z ; std::_Normal_allocator_traits<xalloc<NvFaceInfo *> >::construct<NvFaceInfo *,NvFaceInfo *>
PUBLIC	??$forward@PAVNvFaceInfo@@@std@@YA$$QAPAVNvFaceInfo@@AAPAV1@@Z ; std::forward<NvFaceInfo *>
PUBLIC	??$forward@ABQAU?$_Tree_node@PAVNvFaceInfo@@PAX@std@@@std@@YAABQAU?$_Tree_node@PAVNvFaceInfo@@PAX@0@ABQAU10@@Z ; std::forward<std::_Tree_node<NvFaceInfo *,void *> * const &>
PUBLIC	??$_Voidify_iter@PAPAU?$_Tree_node@PAVNvFaceInfo@@PAX@std@@@std@@YAPAXPAPAU?$_Tree_node@PAVNvFaceInfo@@PAX@0@@Z ; std::_Voidify_iter<std::_Tree_node<NvFaceInfo *,void *> * *>
PUBLIC	??$addressof@PAU?$_Tree_node@PAVNvFaceInfo@@PAX@std@@@std@@YAPAPAU?$_Tree_node@PAVNvFaceInfo@@PAX@0@AAPAU10@@Z ; std::addressof<std::_Tree_node<NvFaceInfo *,void *> *>
PUBLIC	??$_Destroy_in_place@PAU?$_Tree_node@PAVNvFaceInfo@@PAX@std@@@std@@YAXAAPAU?$_Tree_node@PAVNvFaceInfo@@PAX@0@@Z ; std::_Destroy_in_place<std::_Tree_node<NvFaceInfo *,void *> *>
PUBLIC	??$_Freenode@V?$xalloc@U?$_Tree_node@PAVNvFaceInfo@@PAX@std@@@@@?$_Tree_node@PAVNvFaceInfo@@PAX@std@@SAXAAV?$xalloc@U?$_Tree_node@PAVNvFaceInfo@@PAX@std@@@@PAU01@@Z ; std::_Tree_node<NvFaceInfo *,void *>::_Freenode<xalloc<std::_Tree_node<NvFaceInfo *,void *> > >
PUBLIC	??$exchange@PAU?$_Tree_node@PAVNvFaceInfo@@PAX@std@@AAPAU12@@std@@YAPAU?$_Tree_node@PAVNvFaceInfo@@PAX@0@AAPAU10@0@Z ; std::exchange<std::_Tree_node<NvFaceInfo *,void *> *,std::_Tree_node<NvFaceInfo *,void *> * &>
PUBLIC	??$forward@V?$_Tree_const_iterator@V?$_Tree_val@U?$_Tree_simple_types@PAVNvFaceInfo@@@std@@@std@@@std@@@std@@YA$$QAV?$_Tree_const_iterator@V?$_Tree_val@U?$_Tree_simple_types@PAVNvFaceInfo@@@std@@@std@@@0@AAV10@@Z ; std::forward<std::_Tree_const_iterator<std::_Tree_val<std::_Tree_simple_types<NvFaceInfo *> > > >
PUBLIC	??$?0PAU?$_Tree_node@PAVNvFaceInfo@@PAX@std@@_N$0A@@?$pair@PAU?$_Tree_node@PAVNvFaceInfo@@PAX@std@@_N@std@@QAE@$$QAPAU?$_Tree_node@PAVNvFaceInfo@@PAX@1@$$QA_N@Z ; std::pair<std::_Tree_node<NvFaceInfo *,void *> *,bool>::pair<std::_Tree_node<NvFaceInfo *,void *> *,bool><std::_Tree_node<NvFaceInfo *,void *> *,bool,0>
PUBLIC	??$?0ABQAVNvFaceInfo@@@?$_Tree_temp_node@V?$xalloc@U?$_Tree_node@PAVNvFaceInfo@@PAX@std@@@@@std@@QAE@AAV?$xalloc@U?$_Tree_node@PAVNvFaceInfo@@PAX@std@@@@PAU?$_Tree_node@PAVNvFaceInfo@@PAX@1@ABQAVNvFaceInfo@@@Z ; std::_Tree_temp_node<xalloc<std::_Tree_node<NvFaceInfo *,void *> > >::_Tree_temp_node<xalloc<std::_Tree_node<NvFaceInfo *,void *> > ><NvFaceInfo * const &>
PUBLIC	??$?0AAPAU?$_Tree_node@PAVNvFaceInfo@@PAX@std@@_N$0A@@?$pair@PAU?$_Tree_node@PAVNvFaceInfo@@PAX@std@@_N@std@@QAE@AAPAU?$_Tree_node@PAVNvFaceInfo@@PAX@1@$$QA_N@Z ; std::pair<std::_Tree_node<NvFaceInfo *,void *> *,bool>::pair<std::_Tree_node<NvFaceInfo *,void *> *,bool><std::_Tree_node<NvFaceInfo *,void *> * &,bool,0>
PUBLIC	?max_size@?$xalloc@U?$_Tree_node@PAVNvFaceInfo@@PAX@std@@@@QBEIXZ ; xalloc<std::_Tree_node<NvFaceInfo *,void *> >::max_size
PUBLIC	?_Get_first@?$_Compressed_pair@V?$xalloc@U?$_Tree_node@PAVNvFaceInfo@@PAX@std@@@@V?$_Tree_val@U?$_Tree_simple_types@PAVNvFaceInfo@@@std@@@std@@$00@std@@QBEABV?$xalloc@U?$_Tree_node@PAVNvFaceInfo@@PAX@std@@@@XZ ; std::_Compressed_pair<xalloc<std::_Tree_node<NvFaceInfo *,void *> >,std::_Tree_val<std::_Tree_simple_types<NvFaceInfo *> >,1>::_Get_first
PUBLIC	?max_size@?$xalloc@PAVNvEdgeInfo@@@@QBEIXZ	; xalloc<NvEdgeInfo *>::max_size
PUBLIC	?_Get_first@?$_Compressed_pair@V?$xalloc@PAVNvEdgeInfo@@@@V?$_Vector_val@U?$_Simple_types@PAVNvEdgeInfo@@@std@@@std@@$00@std@@QBEABV?$xalloc@PAVNvEdgeInfo@@@@XZ ; std::_Compressed_pair<xalloc<NvEdgeInfo *>,std::_Vector_val<std::_Simple_types<NvEdgeInfo *> >,1>::_Get_first
PUBLIC	?max_size@?$xalloc@V?$xr_vector@PAVNvStripInfo@@V?$xalloc@PAVNvStripInfo@@@@@@@@QBEIXZ ; xalloc<xr_vector<NvStripInfo *,xalloc<NvStripInfo *> > >::max_size
PUBLIC	?_Get_first@?$_Compressed_pair@V?$xalloc@V?$xr_vector@PAVNvStripInfo@@V?$xalloc@PAVNvStripInfo@@@@@@@@V?$_Vector_val@U?$_Simple_types@V?$xr_vector@PAVNvStripInfo@@V?$xalloc@PAVNvStripInfo@@@@@@@std@@@std@@$00@std@@QBEABV?$xalloc@V?$xr_vector@PAVNvStripInfo@@V?$xalloc@PAVNvStripInfo@@@@@@@@XZ ; std::_Compressed_pair<xalloc<xr_vector<NvStripInfo *,xalloc<NvStripInfo *> > >,std::_Vector_val<std::_Simple_types<xr_vector<NvStripInfo *,xalloc<NvStripInfo *> > > >,1>::_Get_first
PUBLIC	?max_size@?$_Normal_allocator_traits@V?$xalloc@U?$_Tree_node@PAVNvFaceInfo@@PAX@std@@@@@std@@SAIABV?$xalloc@U?$_Tree_node@PAVNvFaceInfo@@PAX@std@@@@@Z ; std::_Normal_allocator_traits<xalloc<std::_Tree_node<NvFaceInfo *,void *> > >::max_size
PUBLIC	?_Getal@?$_Tree@V?$_Tset_traits@PAVNvFaceInfo@@U?$less@PAVNvFaceInfo@@@std@@V?$xalloc@PAVNvFaceInfo@@@@$0A@@std@@@std@@IBEABV?$xalloc@U?$_Tree_node@PAVNvFaceInfo@@PAX@std@@@@XZ ; std::_Tree<std::_Tset_traits<NvFaceInfo *,std::less<NvFaceInfo *>,xalloc<NvFaceInfo *>,0> >::_Getal
PUBLIC	?max_size@?$_Normal_allocator_traits@V?$xalloc@PAVNvEdgeInfo@@@@@std@@SAIABV?$xalloc@PAVNvEdgeInfo@@@@@Z ; std::_Normal_allocator_traits<xalloc<NvEdgeInfo *> >::max_size
PUBLIC	?capacity@?$vector@PAVNvEdgeInfo@@V?$xalloc@PAVNvEdgeInfo@@@@@std@@QBEIXZ ; std::vector<NvEdgeInfo *,xalloc<NvEdgeInfo *> >::capacity
PUBLIC	?_Umove_if_noexcept1@?$vector@PAVNvEdgeInfo@@V?$xalloc@PAVNvEdgeInfo@@@@@std@@AAEXPAPAVNvEdgeInfo@@00U?$integral_constant@_N$00@2@@Z ; std::vector<NvEdgeInfo *,xalloc<NvEdgeInfo *> >::_Umove_if_noexcept1
PUBLIC	?_Getal@?$vector@PAVNvEdgeInfo@@V?$xalloc@PAVNvEdgeInfo@@@@@std@@ABEABV?$xalloc@PAVNvEdgeInfo@@@@XZ ; std::vector<NvEdgeInfo *,xalloc<NvEdgeInfo *> >::_Getal
PUBLIC	?max_size@?$_Normal_allocator_traits@V?$xalloc@V?$xr_vector@PAVNvStripInfo@@V?$xalloc@PAVNvStripInfo@@@@@@@@@std@@SAIABV?$xalloc@V?$xr_vector@PAVNvStripInfo@@V?$xalloc@PAVNvStripInfo@@@@@@@@@Z ; std::_Normal_allocator_traits<xalloc<xr_vector<NvStripInfo *,xalloc<NvStripInfo *> > > >::max_size
PUBLIC	?capacity@?$vector@V?$xr_vector@PAVNvStripInfo@@V?$xalloc@PAVNvStripInfo@@@@@@V?$xalloc@V?$xr_vector@PAVNvStripInfo@@V?$xalloc@PAVNvStripInfo@@@@@@@@@std@@QBEIXZ ; std::vector<xr_vector<NvStripInfo *,xalloc<NvStripInfo *> >,xalloc<xr_vector<NvStripInfo *,xalloc<NvStripInfo *> > > >::capacity
PUBLIC	?_Umove_if_noexcept1@?$vector@V?$xr_vector@PAVNvStripInfo@@V?$xalloc@PAVNvStripInfo@@@@@@V?$xalloc@V?$xr_vector@PAVNvStripInfo@@V?$xalloc@PAVNvStripInfo@@@@@@@@@std@@AAEXPAV?$xr_vector@PAVNvStripInfo@@V?$xalloc@PAVNvStripInfo@@@@@@00U?$integral_constant@_N$00@2@@Z ; std::vector<xr_vector<NvStripInfo *,xalloc<NvStripInfo *> >,xalloc<xr_vector<NvStripInfo *,xalloc<NvStripInfo *> > > >::_Umove_if_noexcept1
PUBLIC	?_Getal@?$vector@V?$xr_vector@PAVNvStripInfo@@V?$xalloc@PAVNvStripInfo@@@@@@V?$xalloc@V?$xr_vector@PAVNvStripInfo@@V?$xalloc@PAVNvStripInfo@@@@@@@@@std@@ABEABV?$xalloc@V?$xr_vector@PAVNvStripInfo@@V?$xalloc@PAVNvStripInfo@@@@@@@@XZ ; std::vector<xr_vector<NvStripInfo *,xalloc<NvStripInfo *> >,xalloc<xr_vector<NvStripInfo *,xalloc<NvStripInfo *> > > >::_Getal
PUBLIC	?deallocate@?$xalloc@U?$_Tree_node@PAVNvFaceInfo@@PAX@std@@@@QBEXPAU?$_Tree_node@PAVNvFaceInfo@@PAX@std@@I@Z ; xalloc<std::_Tree_node<NvFaceInfo *,void *> >::deallocate
PUBLIC	?max_size@?$_Tree@V?$_Tset_traits@PAVNvFaceInfo@@U?$less@PAVNvFaceInfo@@@std@@V?$xalloc@PAVNvFaceInfo@@@@$0A@@std@@@std@@QBEIXZ ; std::_Tree<std::_Tset_traits<NvFaceInfo *,std::less<NvFaceInfo *>,xalloc<NvFaceInfo *>,0> >::max_size
PUBLIC	?_Lrotate@?$_Tree_val@U?$_Tree_simple_types@PAVNvFaceInfo@@@std@@@std@@QAEXPAU?$_Tree_node@PAVNvFaceInfo@@PAX@2@@Z ; std::_Tree_val<std::_Tree_simple_types<NvFaceInfo *> >::_Lrotate
PUBLIC	?_Rrotate@?$_Tree_val@U?$_Tree_simple_types@PAVNvFaceInfo@@@std@@@std@@QAEXPAU?$_Tree_node@PAVNvFaceInfo@@PAX@2@@Z ; std::_Tree_val<std::_Tree_simple_types<NvFaceInfo *> >::_Rrotate
PUBLIC	?_Get_first@?$_Compressed_pair@U?$less@PAVNvFaceInfo@@@std@@V?$_Compressed_pair@V?$xalloc@U?$_Tree_node@PAVNvFaceInfo@@PAX@std@@@@V?$_Tree_val@U?$_Tree_simple_types@PAVNvFaceInfo@@@std@@@std@@$00@2@$00@std@@QBEABU?$less@PAVNvFaceInfo@@@2@XZ ; std::_Compressed_pair<std::less<NvFaceInfo *>,std::_Compressed_pair<xalloc<std::_Tree_node<NvFaceInfo *,void *> >,std::_Tree_val<std::_Tree_simple_types<NvFaceInfo *> >,1>,1>::_Get_first
PUBLIC	??1?$_Alloc_construct_ptr@V?$xalloc@U?$_Tree_node@PAVNvFaceInfo@@PAX@std@@@@@std@@QAE@XZ ; std::_Alloc_construct_ptr<xalloc<std::_Tree_node<NvFaceInfo *,void *> > >::~_Alloc_construct_ptr<xalloc<std::_Tree_node<NvFaceInfo *,void *> > >
PUBLIC	??1?$_Tree_temp_node_alloc@V?$xalloc@U?$_Tree_node@PAVNvFaceInfo@@PAX@std@@@@@std@@QAE@XZ ; std::_Tree_temp_node_alloc<xalloc<std::_Tree_node<NvFaceInfo *,void *> > >::~_Tree_temp_node_alloc<xalloc<std::_Tree_node<NvFaceInfo *,void *> > >
PUBLIC	?allocate@?$xalloc@PAVNvEdgeInfo@@@@QBEPAPAVNvEdgeInfo@@IPBX@Z ; xalloc<NvEdgeInfo *>::allocate
PUBLIC	?destroy@?$xalloc@PAVNvEdgeInfo@@@@QAEXPAPAVNvEdgeInfo@@@Z ; xalloc<NvEdgeInfo *>::destroy
PUBLIC	?max_size@?$vector@PAVNvEdgeInfo@@V?$xalloc@PAVNvEdgeInfo@@@@@std@@QBEIXZ ; std::vector<NvEdgeInfo *,xalloc<NvEdgeInfo *> >::max_size
PUBLIC	?_Umove_if_noexcept@?$vector@PAVNvEdgeInfo@@V?$xalloc@PAVNvEdgeInfo@@@@@std@@AAEXPAPAVNvEdgeInfo@@00@Z ; std::vector<NvEdgeInfo *,xalloc<NvEdgeInfo *> >::_Umove_if_noexcept
PUBLIC	?_Calculate_growth@?$vector@PAVNvEdgeInfo@@V?$xalloc@PAVNvEdgeInfo@@@@@std@@ABEII@Z ; std::vector<NvEdgeInfo *,xalloc<NvEdgeInfo *> >::_Calculate_growth
PUBLIC	?_Change_array@?$vector@PAVNvEdgeInfo@@V?$xalloc@PAVNvEdgeInfo@@@@@std@@AAEXQAPAVNvEdgeInfo@@II@Z ; std::vector<NvEdgeInfo *,xalloc<NvEdgeInfo *> >::_Change_array
PUBLIC	?_Xlength@?$vector@PAVNvEdgeInfo@@V?$xalloc@PAVNvEdgeInfo@@@@@std@@CAXXZ ; std::vector<NvEdgeInfo *,xalloc<NvEdgeInfo *> >::_Xlength
PUBLIC	?allocate@?$xalloc@V?$xr_vector@PAVNvStripInfo@@V?$xalloc@PAVNvStripInfo@@@@@@@@QBEPAV?$xr_vector@PAVNvStripInfo@@V?$xalloc@PAVNvStripInfo@@@@@@IPBX@Z ; xalloc<xr_vector<NvStripInfo *,xalloc<NvStripInfo *> > >::allocate
PUBLIC	?destroy@?$xalloc@V?$xr_vector@PAVNvStripInfo@@V?$xalloc@PAVNvStripInfo@@@@@@@@QAEXPAV?$xr_vector@PAVNvStripInfo@@V?$xalloc@PAVNvStripInfo@@@@@@@Z ; xalloc<xr_vector<NvStripInfo *,xalloc<NvStripInfo *> > >::destroy
PUBLIC	?max_size@?$vector@V?$xr_vector@PAVNvStripInfo@@V?$xalloc@PAVNvStripInfo@@@@@@V?$xalloc@V?$xr_vector@PAVNvStripInfo@@V?$xalloc@PAVNvStripInfo@@@@@@@@@std@@QBEIXZ ; std::vector<xr_vector<NvStripInfo *,xalloc<NvStripInfo *> >,xalloc<xr_vector<NvStripInfo *,xalloc<NvStripInfo *> > > >::max_size
PUBLIC	?_Umove_if_noexcept@?$vector@V?$xr_vector@PAVNvStripInfo@@V?$xalloc@PAVNvStripInfo@@@@@@V?$xalloc@V?$xr_vector@PAVNvStripInfo@@V?$xalloc@PAVNvStripInfo@@@@@@@@@std@@AAEXPAV?$xr_vector@PAVNvStripInfo@@V?$xalloc@PAVNvStripInfo@@@@@@00@Z ; std::vector<xr_vector<NvStripInfo *,xalloc<NvStripInfo *> >,xalloc<xr_vector<NvStripInfo *,xalloc<NvStripInfo *> > > >::_Umove_if_noexcept
PUBLIC	?_Calculate_growth@?$vector@V?$xr_vector@PAVNvStripInfo@@V?$xalloc@PAVNvStripInfo@@@@@@V?$xalloc@V?$xr_vector@PAVNvStripInfo@@V?$xalloc@PAVNvStripInfo@@@@@@@@@std@@ABEII@Z ; std::vector<xr_vector<NvStripInfo *,xalloc<NvStripInfo *> >,xalloc<xr_vector<NvStripInfo *,xalloc<NvStripInfo *> > > >::_Calculate_growth
PUBLIC	?_Change_array@?$vector@V?$xr_vector@PAVNvStripInfo@@V?$xalloc@PAVNvStripInfo@@@@@@V?$xalloc@V?$xr_vector@PAVNvStripInfo@@V?$xalloc@PAVNvStripInfo@@@@@@@@@std@@AAEXQAV?$xr_vector@PAVNvStripInfo@@V?$xalloc@PAVNvStripInfo@@@@@@II@Z ; std::vector<xr_vector<NvStripInfo *,xalloc<NvStripInfo *> >,xalloc<xr_vector<NvStripInfo *,xalloc<NvStripInfo *> > > >::_Change_array
PUBLIC	?_Xlength@?$vector@V?$xr_vector@PAVNvStripInfo@@V?$xalloc@PAVNvStripInfo@@@@@@V?$xalloc@V?$xr_vector@PAVNvStripInfo@@V?$xalloc@PAVNvStripInfo@@@@@@@@@std@@CAXXZ ; std::vector<xr_vector<NvStripInfo *,xalloc<NvStripInfo *> >,xalloc<xr_vector<NvStripInfo *,xalloc<NvStripInfo *> > > >::_Xlength
PUBLIC	?_Kfn@?$_Tset_traits@PAVNvFaceInfo@@U?$less@PAVNvFaceInfo@@@std@@V?$xalloc@PAVNvFaceInfo@@@@$0A@@std@@SAABQAVNvFaceInfo@@ABQAV3@@Z ; std::_Tset_traits<NvFaceInfo *,std::less<NvFaceInfo *>,xalloc<NvFaceInfo *>,0>::_Kfn
PUBLIC	??0?$xalloc@U?$_Tree_node@PAVNvFaceInfo@@PAX@std@@@@QAE@XZ ; xalloc<std::_Tree_node<NvFaceInfo *,void *> >::xalloc<std::_Tree_node<NvFaceInfo *,void *> >
PUBLIC	?deallocate@?$_Normal_allocator_traits@V?$xalloc@U?$_Tree_node@PAVNvFaceInfo@@PAX@std@@@@@std@@SAXAAV?$xalloc@U?$_Tree_node@PAVNvFaceInfo@@PAX@std@@@@PAU?$_Tree_node@PAVNvFaceInfo@@PAX@2@I@Z ; std::_Normal_allocator_traits<xalloc<std::_Tree_node<NvFaceInfo *,void *> > >::deallocate
PUBLIC	?_Check_grow_by_1@?$_Tree@V?$_Tset_traits@PAVNvFaceInfo@@U?$less@PAVNvFaceInfo@@@std@@V?$xalloc@PAVNvFaceInfo@@@@$0A@@std@@@std@@IAEXXZ ; std::_Tree<std::_Tset_traits<NvFaceInfo *,std::less<NvFaceInfo *>,xalloc<NvFaceInfo *>,0> >::_Check_grow_by_1
PUBLIC	?_Getcomp@?$_Tree@V?$_Tset_traits@PAVNvFaceInfo@@U?$less@PAVNvFaceInfo@@@std@@V?$xalloc@PAVNvFaceInfo@@@@$0A@@std@@@std@@IBEABU?$less@PAVNvFaceInfo@@@2@XZ ; std::_Tree<std::_Tset_traits<NvFaceInfo *,std::less<NvFaceInfo *>,xalloc<NvFaceInfo *>,0> >::_Getcomp
PUBLIC	??R?$less@PAVNvFaceInfo@@@std@@QBE_NABQAVNvFaceInfo@@0@Z ; std::less<NvFaceInfo *>::operator()
PUBLIC	??0?$_Tree_val@U?$_Tree_simple_types@PAVNvFaceInfo@@@std@@@std@@QAE@XZ ; std::_Tree_val<std::_Tree_simple_types<NvFaceInfo *> >::_Tree_val<std::_Tree_simple_types<NvFaceInfo *> >
PUBLIC	?_Insert_node@?$_Tree_val@U?$_Tree_simple_types@PAVNvFaceInfo@@@std@@@std@@QAEPAU?$_Tree_node@PAVNvFaceInfo@@PAX@2@U?$_Tree_id@PAU?$_Tree_node@PAVNvFaceInfo@@PAX@std@@@2@QAU32@@Z ; std::_Tree_val<std::_Tree_simple_types<NvFaceInfo *> >::_Insert_node
PUBLIC	?_Extract@?$_In_place_key_extract_set@PAVNvFaceInfo@@PAV1@@std@@SAABQAVNvFaceInfo@@ABQAV3@@Z ; std::_In_place_key_extract_set<NvFaceInfo *,NvFaceInfo *>::_Extract
PUBLIC	?_Release@?$_Alloc_construct_ptr@V?$xalloc@U?$_Tree_node@PAVNvFaceInfo@@PAX@std@@@@@std@@QAEPAU?$_Tree_node@PAVNvFaceInfo@@PAX@2@XZ ; std::_Alloc_construct_ptr<xalloc<std::_Tree_node<NvFaceInfo *,void *> > >::_Release
PUBLIC	??1?$_Tree_temp_node@V?$xalloc@U?$_Tree_node@PAVNvFaceInfo@@PAX@std@@@@@std@@QAE@XZ ; std::_Tree_temp_node<xalloc<std::_Tree_node<NvFaceInfo *,void *> > >::~_Tree_temp_node<xalloc<std::_Tree_node<NvFaceInfo *,void *> > >
PUBLIC	??0?$_Uninitialized_backout_al@V?$xalloc@V?$xr_vector@PAVNvStripInfo@@V?$xalloc@PAVNvStripInfo@@@@@@@@@std@@QAE@PAV?$xr_vector@PAVNvStripInfo@@V?$xalloc@PAVNvStripInfo@@@@@@AAV?$xalloc@V?$xr_vector@PAVNvStripInfo@@V?$xalloc@PAVNvStripInfo@@@@@@@@@Z ; std::_Uninitialized_backout_al<xalloc<xr_vector<NvStripInfo *,xalloc<NvStripInfo *> > > >::_Uninitialized_backout_al<xalloc<xr_vector<NvStripInfo *,xalloc<NvStripInfo *> > > >
PUBLIC	??1?$_Uninitialized_backout_al@V?$xalloc@V?$xr_vector@PAVNvStripInfo@@V?$xalloc@PAVNvStripInfo@@@@@@@@@std@@QAE@XZ ; std::_Uninitialized_backout_al<xalloc<xr_vector<NvStripInfo *,xalloc<NvStripInfo *> > > >::~_Uninitialized_backout_al<xalloc<xr_vector<NvStripInfo *,xalloc<NvStripInfo *> > > >
PUBLIC	?_Release@?$_Uninitialized_backout_al@V?$xalloc@V?$xr_vector@PAVNvStripInfo@@V?$xalloc@PAVNvStripInfo@@@@@@@@@std@@QAEPAV?$xr_vector@PAVNvStripInfo@@V?$xalloc@PAVNvStripInfo@@@@@@XZ ; std::_Uninitialized_backout_al<xalloc<xr_vector<NvStripInfo *,xalloc<NvStripInfo *> > > >::_Release
PUBLIC	??0?$_Uninitialized_backout_al@V?$xalloc@PAVNvStripInfo@@@@@std@@QAE@PAPAVNvStripInfo@@AAV?$xalloc@PAVNvStripInfo@@@@@Z ; std::_Uninitialized_backout_al<xalloc<NvStripInfo *> >::_Uninitialized_backout_al<xalloc<NvStripInfo *> >
PUBLIC	??1?$_Uninitialized_backout_al@V?$xalloc@PAVNvStripInfo@@@@@std@@QAE@XZ ; std::_Uninitialized_backout_al<xalloc<NvStripInfo *> >::~_Uninitialized_backout_al<xalloc<NvStripInfo *> >
PUBLIC	?_Release@?$_Uninitialized_backout_al@V?$xalloc@PAVNvStripInfo@@@@@std@@QAEPAPAVNvStripInfo@@XZ ; std::_Uninitialized_backout_al<xalloc<NvStripInfo *> >::_Release
PUBLIC	??0?$_Uninitialized_backout_al@V?$xalloc@PAVNvEdgeInfo@@@@@std@@QAE@PAPAVNvEdgeInfo@@AAV?$xalloc@PAVNvEdgeInfo@@@@@Z ; std::_Uninitialized_backout_al<xalloc<NvEdgeInfo *> >::_Uninitialized_backout_al<xalloc<NvEdgeInfo *> >
PUBLIC	??1?$_Uninitialized_backout_al@V?$xalloc@PAVNvEdgeInfo@@@@@std@@QAE@XZ ; std::_Uninitialized_backout_al<xalloc<NvEdgeInfo *> >::~_Uninitialized_backout_al<xalloc<NvEdgeInfo *> >
PUBLIC	?_Release@?$_Uninitialized_backout_al@V?$xalloc@PAVNvEdgeInfo@@@@@std@@QAEPAPAVNvEdgeInfo@@XZ ; std::_Uninitialized_backout_al<xalloc<NvEdgeInfo *> >::_Release
PUBLIC	??0?$_Uninitialized_backout_al@V?$xalloc@H@@@std@@QAE@PAHAAV?$xalloc@H@@@Z ; std::_Uninitialized_backout_al<xalloc<int> >::_Uninitialized_backout_al<xalloc<int> >
PUBLIC	??1?$_Uninitialized_backout_al@V?$xalloc@H@@@std@@QAE@XZ ; std::_Uninitialized_backout_al<xalloc<int> >::~_Uninitialized_backout_al<xalloc<int> >
PUBLIC	?_Release@?$_Uninitialized_backout_al@V?$xalloc@H@@@std@@QAEPAHXZ ; std::_Uninitialized_backout_al<xalloc<int> >::_Release
PUBLIC	??$_Get_unwrapped@ABQAH@std@@YA?A_TABQAH@Z	; std::_Get_unwrapped<int * const &>
PUBLIC	??$_Uninitialized_move@PAHV?$xalloc@H@@@std@@YAPAHQAH0PAHAAV?$xalloc@H@@@Z ; std::_Uninitialized_move<int *,xalloc<int> >
PUBLIC	??$xr_alloc@PAVNvStripInfo@@@@YAPAPAVNvStripInfo@@I@Z ; xr_alloc<NvStripInfo *>
PUBLIC	??$_Uninitialized_value_construct_n@V?$xalloc@PAVNvEdgeInfo@@@@@std@@YAPAPAVNvEdgeInfo@@PAPAV1@IAAV?$xalloc@PAVNvEdgeInfo@@@@@Z ; std::_Uninitialized_value_construct_n<xalloc<NvEdgeInfo *> >
PUBLIC	??$_Get_unwrapped@ABQAPAVNvStripInfo@@@std@@YA?A_TABQAPAVNvStripInfo@@@Z ; std::_Get_unwrapped<NvStripInfo * * const &>
PUBLIC	??$_Uninitialized_move@PAPAVNvStripInfo@@V?$xalloc@PAVNvStripInfo@@@@@std@@YAPAPAVNvStripInfo@@QAPAV1@0PAPAV1@AAV?$xalloc@PAVNvStripInfo@@@@@Z ; std::_Uninitialized_move<NvStripInfo * *,xalloc<NvStripInfo *> >
PUBLIC	??$_Uninitialized_value_construct_n@V?$xalloc@V?$xr_vector@PAVNvStripInfo@@V?$xalloc@PAVNvStripInfo@@@@@@@@@std@@YAPAV?$xr_vector@PAVNvStripInfo@@V?$xalloc@PAVNvStripInfo@@@@@@PAV1@IAAV?$xalloc@V?$xr_vector@PAVNvStripInfo@@V?$xalloc@PAVNvStripInfo@@@@@@@@@Z ; std::_Uninitialized_value_construct_n<xalloc<xr_vector<NvStripInfo *,xalloc<NvStripInfo *> > > >
PUBLIC	??$xr_alloc@U?$_Tree_node@PAVNvFaceInfo@@PAX@std@@@@YAPAU?$_Tree_node@PAVNvFaceInfo@@PAX@std@@I@Z ; xr_alloc<std::_Tree_node<NvFaceInfo *,void *> >
PUBLIC	??$addressof@$$CBV?$_Tree_val@U?$_Tree_simple_types@PAVNvFaceInfo@@@std@@@std@@@std@@YAPBV?$_Tree_val@U?$_Tree_simple_types@PAVNvFaceInfo@@@std@@@0@ABV10@@Z ; std::addressof<std::_Tree_val<std::_Tree_simple_types<NvFaceInfo *> > const >
PUBLIC	??$_Emplace_back@PAVNvFaceInfo@@@?$_Uninitialized_backout_al@V?$xalloc@PAVNvFaceInfo@@@@@std@@QAEX$$QAPAVNvFaceInfo@@@Z ; std::_Uninitialized_backout_al<xalloc<NvFaceInfo *> >::_Emplace_back<NvFaceInfo *>
PUBLIC	??$move@AAPAVNvFaceInfo@@@std@@YA$$QAPAVNvFaceInfo@@AAPAV1@@Z ; std::move<NvFaceInfo * &>
PUBLIC	??$destroy@PAVNvEdgeInfo@@@?$_Normal_allocator_traits@V?$xalloc@PAVNvEdgeInfo@@@@@std@@SAXAAV?$xalloc@PAVNvEdgeInfo@@@@PAPAVNvEdgeInfo@@@Z ; std::_Normal_allocator_traits<xalloc<NvEdgeInfo *> >::destroy<NvEdgeInfo *>
PUBLIC	??$_Unfancy@PAVNvEdgeInfo@@@std@@YAPAPAVNvEdgeInfo@@PAPAV1@@Z ; std::_Unfancy<NvEdgeInfo *>
PUBLIC	??$destroy@V?$xr_vector@PAVNvStripInfo@@V?$xalloc@PAVNvStripInfo@@@@@@@?$_Normal_allocator_traits@V?$xalloc@V?$xr_vector@PAVNvStripInfo@@V?$xalloc@PAVNvStripInfo@@@@@@@@@std@@SAXAAV?$xalloc@V?$xr_vector@PAVNvStripInfo@@V?$xalloc@PAVNvStripInfo@@@@@@@@PAV?$xr_vector@PAVNvStripInfo@@V?$xalloc@PAVNvStripInfo@@@@@@@Z ; std::_Normal_allocator_traits<xalloc<xr_vector<NvStripInfo *,xalloc<NvStripInfo *> > > >::destroy<xr_vector<NvStripInfo *,xalloc<NvStripInfo *> > >
PUBLIC	??$_Unfancy@V?$xr_vector@PAVNvStripInfo@@V?$xalloc@PAVNvStripInfo@@@@@@@std@@YAPAV?$xr_vector@PAVNvStripInfo@@V?$xalloc@PAVNvStripInfo@@@@@@PAV1@@Z ; std::_Unfancy<xr_vector<NvStripInfo *,xalloc<NvStripInfo *> > >
PUBLIC	??$_Construct_in_place@PAU?$_Tree_node@PAVNvFaceInfo@@PAX@std@@ABQAU12@@std@@YAXAAPAU?$_Tree_node@PAVNvFaceInfo@@PAX@0@ABQAU10@@Z ; std::_Construct_in_place<std::_Tree_node<NvFaceInfo *,void *> *,std::_Tree_node<NvFaceInfo *,void *> * const &>
PUBLIC	??$forward@ABU?$less@PAVNvFaceInfo@@@std@@@std@@YAABU?$less@PAVNvFaceInfo@@@0@ABU10@@Z ; std::forward<std::less<NvFaceInfo *> const &>
PUBLIC	??$_Resize_reallocate@U_Value_init_tag@std@@@?$vector@PAVNvEdgeInfo@@V?$xalloc@PAVNvEdgeInfo@@@@@std@@AAEXIABU_Value_init_tag@1@@Z ; std::vector<NvEdgeInfo *,xalloc<NvEdgeInfo *> >::_Resize_reallocate<std::_Value_init_tag>
PUBLIC	??$_Resize_reallocate@U_Value_init_tag@std@@@?$vector@V?$xr_vector@PAVNvStripInfo@@V?$xalloc@PAVNvStripInfo@@@@@@V?$xalloc@V?$xr_vector@PAVNvStripInfo@@V?$xalloc@PAVNvStripInfo@@@@@@@@@std@@AAEXIABU_Value_init_tag@1@@Z ; std::vector<xr_vector<NvStripInfo *,xalloc<NvStripInfo *> >,xalloc<xr_vector<NvStripInfo *,xalloc<NvStripInfo *> > > >::_Resize_reallocate<std::_Value_init_tag>
PUBLIC	??$_Freenode0@V?$xalloc@U?$_Tree_node@PAVNvFaceInfo@@PAX@std@@@@@?$_Tree_node@PAVNvFaceInfo@@PAX@std@@SAXAAV?$xalloc@U?$_Tree_node@PAVNvFaceInfo@@PAX@std@@@@PAU01@@Z ; std::_Tree_node<NvFaceInfo *,void *>::_Freenode0<xalloc<std::_Tree_node<NvFaceInfo *,void *> > >
PUBLIC	??$_Erase_tree@V?$xalloc@U?$_Tree_node@PAVNvFaceInfo@@PAX@std@@@@@?$_Tree_val@U?$_Tree_simple_types@PAVNvFaceInfo@@@std@@@std@@QAEXAAV?$xalloc@U?$_Tree_node@PAVNvFaceInfo@@PAX@std@@@@PAU?$_Tree_node@PAVNvFaceInfo@@PAX@1@@Z ; std::_Tree_val<std::_Tree_simple_types<NvFaceInfo *> >::_Erase_tree<xalloc<std::_Tree_node<NvFaceInfo *,void *> > >
PUBLIC	??$_Lower_bound_duplicate@PAVNvFaceInfo@@@?$_Tree@V?$_Tset_traits@PAVNvFaceInfo@@U?$less@PAVNvFaceInfo@@@std@@V?$xalloc@PAVNvFaceInfo@@@@$0A@@std@@@std@@IBE_NQAU?$_Tree_node@PAVNvFaceInfo@@PAX@1@ABQAVNvFaceInfo@@@Z ; std::_Tree<std::_Tset_traits<NvFaceInfo *,std::less<NvFaceInfo *>,xalloc<NvFaceInfo *>,0> >::_Lower_bound_duplicate<NvFaceInfo *>
PUBLIC	??$_Find_lower_bound@PAVNvFaceInfo@@@?$_Tree@V?$_Tset_traits@PAVNvFaceInfo@@U?$less@PAVNvFaceInfo@@@std@@V?$xalloc@PAVNvFaceInfo@@@@$0A@@std@@@std@@IBE?AU?$_Tree_find_result@PAU?$_Tree_node@PAVNvFaceInfo@@PAX@std@@@1@ABQAVNvFaceInfo@@@Z ; std::_Tree<std::_Tset_traits<NvFaceInfo *,std::less<NvFaceInfo *>,xalloc<NvFaceInfo *>,0> >::_Find_lower_bound<NvFaceInfo *>
PUBLIC	??$?0V?$_Tree_const_iterator@V?$_Tree_val@U?$_Tree_simple_types@PAVNvFaceInfo@@@std@@@std@@@std@@AB_N$0A@@?$pair@V?$_Tree_const_iterator@V?$_Tree_val@U?$_Tree_simple_types@PAVNvFaceInfo@@@std@@@std@@@std@@_N@std@@QAE@$$QAV?$_Tree_const_iterator@V?$_Tree_val@U?$_Tree_simple_types@PAVNvFaceInfo@@@std@@@std@@@1@AB_N@Z ; std::pair<std::_Tree_const_iterator<std::_Tree_val<std::_Tree_simple_types<NvFaceInfo *> > >,bool>::pair<std::_Tree_const_iterator<std::_Tree_val<std::_Tree_simple_types<NvFaceInfo *> > >,bool><std::_Tree_const_iterator<std::_Tree_val<std::_Tree_simple_types<NvFaceInfo *> > >,bool const &,0>
PUBLIC	??$_Emplace@ABQAVNvFaceInfo@@@?$_Tree@V?$_Tset_traits@PAVNvFaceInfo@@U?$less@PAVNvFaceInfo@@@std@@V?$xalloc@PAVNvFaceInfo@@@@$0A@@std@@@std@@IAE?AU?$pair@PAU?$_Tree_node@PAVNvFaceInfo@@PAX@std@@_N@1@ABQAVNvFaceInfo@@@Z ; std::_Tree<std::_Tset_traits<NvFaceInfo *,std::less<NvFaceInfo *>,xalloc<NvFaceInfo *>,0> >::_Emplace<NvFaceInfo * const &>
PUBLIC	??$?0$$V@?$_Compressed_pair@V?$xalloc@U?$_Tree_node@PAVNvFaceInfo@@PAX@std@@@@V?$_Tree_val@U?$_Tree_simple_types@PAVNvFaceInfo@@@std@@@std@@$00@std@@QAE@U_Zero_then_variadic_args_t@1@@Z ; std::_Compressed_pair<xalloc<std::_Tree_node<NvFaceInfo *,void *> >,std::_Tree_val<std::_Tree_simple_types<NvFaceInfo *> >,1>::_Compressed_pair<xalloc<std::_Tree_node<NvFaceInfo *,void *> >,std::_Tree_val<std::_Tree_simple_types<NvFaceInfo *> >,1><>
PUBLIC	?max_size@?$xalloc@H@@QBEIXZ			; xalloc<int>::max_size
PUBLIC	?_Get_first@?$_Compressed_pair@V?$xalloc@H@@V?$_Vector_val@U?$_Simple_types@H@std@@@std@@$00@std@@QBEABV?$xalloc@H@@XZ ; std::_Compressed_pair<xalloc<int>,std::_Vector_val<std::_Simple_types<int> >,1>::_Get_first
PUBLIC	?max_size@?$xalloc@PAVNvStripInfo@@@@QBEIXZ	; xalloc<NvStripInfo *>::max_size
PUBLIC	?_Get_first@?$_Compressed_pair@V?$xalloc@PAVNvStripInfo@@@@V?$_Vector_val@U?$_Simple_types@PAVNvStripInfo@@@std@@@std@@$00@std@@QBEABV?$xalloc@PAVNvStripInfo@@@@XZ ; std::_Compressed_pair<xalloc<NvStripInfo *>,std::_Vector_val<std::_Simple_types<NvStripInfo *> >,1>::_Get_first
PUBLIC	?max_size@?$_Normal_allocator_traits@V?$xalloc@H@@@std@@SAIABV?$xalloc@H@@@Z ; std::_Normal_allocator_traits<xalloc<int> >::max_size
PUBLIC	?capacity@?$vector@HV?$xalloc@H@@@std@@QBEIXZ	; std::vector<int,xalloc<int> >::capacity
PUBLIC	?_Umove_if_noexcept1@?$vector@HV?$xalloc@H@@@std@@AAEXPAH00U?$integral_constant@_N$00@2@@Z ; std::vector<int,xalloc<int> >::_Umove_if_noexcept1
PUBLIC	?_Getal@?$vector@HV?$xalloc@H@@@std@@ABEABV?$xalloc@H@@XZ ; std::vector<int,xalloc<int> >::_Getal
PUBLIC	?max_size@?$_Normal_allocator_traits@V?$xalloc@PAVNvStripInfo@@@@@std@@SAIABV?$xalloc@PAVNvStripInfo@@@@@Z ; std::_Normal_allocator_traits<xalloc<NvStripInfo *> >::max_size
PUBLIC	?capacity@?$vector@PAVNvStripInfo@@V?$xalloc@PAVNvStripInfo@@@@@std@@QBEIXZ ; std::vector<NvStripInfo *,xalloc<NvStripInfo *> >::capacity
PUBLIC	?_Umove_if_noexcept1@?$vector@PAVNvStripInfo@@V?$xalloc@PAVNvStripInfo@@@@@std@@AAEXPAPAVNvStripInfo@@00U?$integral_constant@_N$00@2@@Z ; std::vector<NvStripInfo *,xalloc<NvStripInfo *> >::_Umove_if_noexcept1
PUBLIC	?_Getal@?$vector@PAVNvStripInfo@@V?$xalloc@PAVNvStripInfo@@@@@std@@ABEABV?$xalloc@PAVNvStripInfo@@@@XZ ; std::vector<NvStripInfo *,xalloc<NvStripInfo *> >::_Getal
PUBLIC	??_GVertexCache@@QAEPAXI@Z			; VertexCache::`scalar deleting destructor'
PUBLIC	?allocate@?$xalloc@H@@QBEPAHIPBX@Z		; xalloc<int>::allocate
PUBLIC	?construct@?$xalloc@H@@QAEXPAHABH@Z		; xalloc<int>::construct
PUBLIC	?max_size@?$vector@HV?$xalloc@H@@@std@@QBEIXZ	; std::vector<int,xalloc<int> >::max_size
PUBLIC	?_Umove@?$vector@HV?$xalloc@H@@@std@@AAEPAHPAH00@Z ; std::vector<int,xalloc<int> >::_Umove
PUBLIC	?_Umove_if_noexcept@?$vector@HV?$xalloc@H@@@std@@AAEXPAH00@Z ; std::vector<int,xalloc<int> >::_Umove_if_noexcept
PUBLIC	?_Calculate_growth@?$vector@HV?$xalloc@H@@@std@@ABEII@Z ; std::vector<int,xalloc<int> >::_Calculate_growth
PUBLIC	?_Change_array@?$vector@HV?$xalloc@H@@@std@@AAEXQAHII@Z ; std::vector<int,xalloc<int> >::_Change_array
PUBLIC	?_Xlength@?$vector@HV?$xalloc@H@@@std@@CAXXZ	; std::vector<int,xalloc<int> >::_Xlength
PUBLIC	?_Umove@?$vector@GV?$xalloc@G@@@std@@AAEPAGPAG00@Z ; std::vector<unsigned short,xalloc<unsigned short> >::_Umove
PUBLIC	?construct@?$xalloc@PAVNvFaceInfo@@@@QAEXPAPAVNvFaceInfo@@ABQAV2@@Z ; xalloc<NvFaceInfo *>::construct
PUBLIC	?_Umove@?$vector@PAVNvFaceInfo@@V?$xalloc@PAVNvFaceInfo@@@@@std@@AAEPAPAVNvFaceInfo@@PAPAV3@00@Z ; std::vector<NvFaceInfo *,xalloc<NvFaceInfo *> >::_Umove
PUBLIC	?_Calculate_growth@?$vector@PAVNvFaceInfo@@V?$xalloc@PAVNvFaceInfo@@@@@std@@ABEII@Z ; std::vector<NvFaceInfo *,xalloc<NvFaceInfo *> >::_Calculate_growth
PUBLIC	?allocate@?$xalloc@PAVNvStripInfo@@@@QBEPAPAVNvStripInfo@@IPBX@Z ; xalloc<NvStripInfo *>::allocate
PUBLIC	?construct@?$xalloc@PAVNvStripInfo@@@@QAEXPAPAVNvStripInfo@@ABQAV2@@Z ; xalloc<NvStripInfo *>::construct
PUBLIC	??0?$xalloc@PAVNvEdgeInfo@@@@QAE@XZ		; xalloc<NvEdgeInfo *>::xalloc<NvEdgeInfo *>
PUBLIC	?_Ufill@?$vector@PAVNvEdgeInfo@@V?$xalloc@PAVNvEdgeInfo@@@@@std@@AAEPAPAVNvEdgeInfo@@PAPAV3@IU_Value_init_tag@2@@Z ; std::vector<NvEdgeInfo *,xalloc<NvEdgeInfo *> >::_Ufill
PUBLIC	?_Orphan_range@?$vector@PAVNvEdgeInfo@@V?$xalloc@PAVNvEdgeInfo@@@@@std@@ABEXPAPAVNvEdgeInfo@@0@Z ; std::vector<NvEdgeInfo *,xalloc<NvEdgeInfo *> >::_Orphan_range
PUBLIC	??0?$_Vector_val@U?$_Simple_types@PAVNvEdgeInfo@@@std@@@std@@QAE@XZ ; std::_Vector_val<std::_Simple_types<NvEdgeInfo *> >::_Vector_val<std::_Simple_types<NvEdgeInfo *> >
PUBLIC	?max_size@?$vector@PAVNvStripInfo@@V?$xalloc@PAVNvStripInfo@@@@@std@@QBEIXZ ; std::vector<NvStripInfo *,xalloc<NvStripInfo *> >::max_size
PUBLIC	?_Umove@?$vector@PAVNvStripInfo@@V?$xalloc@PAVNvStripInfo@@@@@std@@AAEPAPAVNvStripInfo@@PAPAV3@00@Z ; std::vector<NvStripInfo *,xalloc<NvStripInfo *> >::_Umove
PUBLIC	?_Umove_if_noexcept@?$vector@PAVNvStripInfo@@V?$xalloc@PAVNvStripInfo@@@@@std@@AAEXPAPAVNvStripInfo@@00@Z ; std::vector<NvStripInfo *,xalloc<NvStripInfo *> >::_Umove_if_noexcept
PUBLIC	?_Calculate_growth@?$vector@PAVNvStripInfo@@V?$xalloc@PAVNvStripInfo@@@@@std@@ABEII@Z ; std::vector<NvStripInfo *,xalloc<NvStripInfo *> >::_Calculate_growth
PUBLIC	?_Change_array@?$vector@PAVNvStripInfo@@V?$xalloc@PAVNvStripInfo@@@@@std@@AAEXQAPAVNvStripInfo@@II@Z ; std::vector<NvStripInfo *,xalloc<NvStripInfo *> >::_Change_array
PUBLIC	?_Xlength@?$vector@PAVNvStripInfo@@V?$xalloc@PAVNvStripInfo@@@@@std@@CAXXZ ; std::vector<NvStripInfo *,xalloc<NvStripInfo *> >::_Xlength
PUBLIC	??0?$xalloc@V?$xr_vector@PAVNvStripInfo@@V?$xalloc@PAVNvStripInfo@@@@@@@@QAE@XZ ; xalloc<xr_vector<NvStripInfo *,xalloc<NvStripInfo *> > >::xalloc<xr_vector<NvStripInfo *,xalloc<NvStripInfo *> > >
PUBLIC	?_Ufill@?$vector@V?$xr_vector@PAVNvStripInfo@@V?$xalloc@PAVNvStripInfo@@@@@@V?$xalloc@V?$xr_vector@PAVNvStripInfo@@V?$xalloc@PAVNvStripInfo@@@@@@@@@std@@AAEPAV?$xr_vector@PAVNvStripInfo@@V?$xalloc@PAVNvStripInfo@@@@@@PAV3@IU_Value_init_tag@2@@Z ; std::vector<xr_vector<NvStripInfo *,xalloc<NvStripInfo *> >,xalloc<xr_vector<NvStripInfo *,xalloc<NvStripInfo *> > > >::_Ufill
PUBLIC	?_Orphan_range@?$vector@V?$xr_vector@PAVNvStripInfo@@V?$xalloc@PAVNvStripInfo@@@@@@V?$xalloc@V?$xr_vector@PAVNvStripInfo@@V?$xalloc@PAVNvStripInfo@@@@@@@@@std@@ABEXPAV?$xr_vector@PAVNvStripInfo@@V?$xalloc@PAVNvStripInfo@@@@@@0@Z ; std::vector<xr_vector<NvStripInfo *,xalloc<NvStripInfo *> >,xalloc<xr_vector<NvStripInfo *,xalloc<NvStripInfo *> > > >::_Orphan_range
PUBLIC	??0?$_Vector_val@U?$_Simple_types@V?$xr_vector@PAVNvStripInfo@@V?$xalloc@PAVNvStripInfo@@@@@@@std@@@std@@QAE@XZ ; std::_Vector_val<std::_Simple_types<xr_vector<NvStripInfo *,xalloc<NvStripInfo *> > > >::_Vector_val<std::_Simple_types<xr_vector<NvStripInfo *,xalloc<NvStripInfo *> > > >
PUBLIC	?allocate@?$xalloc@U?$_Tree_node@PAVNvFaceInfo@@PAX@std@@@@QBEPAU?$_Tree_node@PAVNvFaceInfo@@PAX@std@@IPBX@Z ; xalloc<std::_Tree_node<NvFaceInfo *,void *> >::allocate
PUBLIC	?_Get_scary@?$_Tree@V?$_Tset_traits@PAVNvFaceInfo@@U?$less@PAVNvFaceInfo@@@std@@V?$xalloc@PAVNvFaceInfo@@@@$0A@@std@@@std@@IBEPBV?$_Tree_val@U?$_Tree_simple_types@PAVNvFaceInfo@@@std@@@2@XZ ; std::_Tree<std::_Tset_traits<NvFaceInfo *,std::less<NvFaceInfo *>,xalloc<NvFaceInfo *>,0> >::_Get_scary
PUBLIC	??R?$xr_special_free@$0A@VVertexCache@@@@QAEXAAPAVVertexCache@@@Z ; xr_special_free<0,VertexCache>::operator()
PUBLIC	??0?$_Uninitialized_backout_al@V?$xalloc@PAVNvFaceInfo@@@@@std@@QAE@PAPAVNvFaceInfo@@AAV?$xalloc@PAVNvFaceInfo@@@@@Z ; std::_Uninitialized_backout_al<xalloc<NvFaceInfo *> >::_Uninitialized_backout_al<xalloc<NvFaceInfo *> >
PUBLIC	??1?$_Uninitialized_backout_al@V?$xalloc@PAVNvFaceInfo@@@@@std@@QAE@XZ ; std::_Uninitialized_backout_al<xalloc<NvFaceInfo *> >::~_Uninitialized_backout_al<xalloc<NvFaceInfo *> >
PUBLIC	?_Release@?$_Uninitialized_backout_al@V?$xalloc@PAVNvFaceInfo@@@@@std@@QAEPAPAVNvFaceInfo@@XZ ; std::_Uninitialized_backout_al<xalloc<NvFaceInfo *> >::_Release
PUBLIC	??$_Get_unwrapped@ABQAPAVNvFaceInfo@@@std@@YA?A_TABQAPAVNvFaceInfo@@@Z ; std::_Get_unwrapped<NvFaceInfo * * const &>
PUBLIC	??$_Uninitialized_move@PAPAVNvFaceInfo@@V?$xalloc@PAVNvFaceInfo@@@@@std@@YAPAPAVNvFaceInfo@@QAPAV1@0PAPAV1@AAV?$xalloc@PAVNvFaceInfo@@@@@Z ; std::_Uninitialized_move<NvFaceInfo * *,xalloc<NvFaceInfo *> >
PUBLIC	??$xr_alloc@PAVNvFaceInfo@@@@YAPAPAVNvFaceInfo@@I@Z ; xr_alloc<NvFaceInfo *>
PUBLIC	??$xr_free@PAVNvEdgeInfo@@@@YAXAAPAPAVNvEdgeInfo@@@Z ; xr_free<NvEdgeInfo *>
PUBLIC	??$_Destroy_range@V?$xalloc@PAVNvEdgeInfo@@@@@std@@YAXPAPAVNvEdgeInfo@@QAPAV1@AAV?$xalloc@PAVNvEdgeInfo@@@@@Z ; std::_Destroy_range<xalloc<NvEdgeInfo *> >
PUBLIC	??$xr_free@V?$xr_vector@PAVNvStripInfo@@V?$xalloc@PAVNvStripInfo@@@@@@@@YAXAAPAV?$xr_vector@PAVNvStripInfo@@V?$xalloc@PAVNvStripInfo@@@@@@@Z ; xr_free<xr_vector<NvStripInfo *,xalloc<NvStripInfo *> > >
PUBLIC	??$_Destroy_range@V?$xalloc@V?$xr_vector@PAVNvStripInfo@@V?$xalloc@PAVNvStripInfo@@@@@@@@@std@@YAXPAV?$xr_vector@PAVNvStripInfo@@V?$xalloc@PAVNvStripInfo@@@@@@QAV1@AAV?$xalloc@V?$xr_vector@PAVNvStripInfo@@V?$xalloc@PAVNvStripInfo@@@@@@@@@Z ; std::_Destroy_range<xalloc<xr_vector<NvStripInfo *,xalloc<NvStripInfo *> > > >
PUBLIC	??$_Buyheadnode@V?$xalloc@U?$_Tree_node@PAVNvFaceInfo@@PAX@std@@@@@?$_Tree_node@PAVNvFaceInfo@@PAX@std@@SAPAU01@AAV?$xalloc@U?$_Tree_node@PAVNvFaceInfo@@PAX@std@@@@@Z ; std::_Tree_node<NvFaceInfo *,void *>::_Buyheadnode<xalloc<std::_Tree_node<NvFaceInfo *,void *> > >
PUBLIC	??$_Pocca@V?$xalloc@G@@@std@@YAXAAV?$xalloc@G@@ABV1@@Z ; std::_Pocca<xalloc<unsigned short> >
PUBLIC	??$addressof@$$CBV?$_Vector_val@U?$_Simple_types@G@std@@@std@@@std@@YAPBV?$_Vector_val@U?$_Simple_types@G@std@@@0@ABV10@@Z ; std::addressof<std::_Vector_val<std::_Simple_types<unsigned short> > const >
PUBLIC	??$addressof@$$CBV?$_Vector_val@U?$_Simple_types@PAVNvFaceInfo@@@std@@@std@@@std@@YAPBV?$_Vector_val@U?$_Simple_types@PAVNvFaceInfo@@@std@@@0@ABV10@@Z ; std::addressof<std::_Vector_val<std::_Simple_types<NvFaceInfo *> > const >
PUBLIC	??$?0$$V@?$_Compressed_pair@V?$xalloc@PAVNvEdgeInfo@@@@V?$_Vector_val@U?$_Simple_types@PAVNvEdgeInfo@@@std@@@std@@$00@std@@QAE@U_Zero_then_variadic_args_t@1@@Z ; std::_Compressed_pair<xalloc<NvEdgeInfo *>,std::_Vector_val<std::_Simple_types<NvEdgeInfo *> >,1>::_Compressed_pair<xalloc<NvEdgeInfo *>,std::_Vector_val<std::_Simple_types<NvEdgeInfo *> >,1><>
PUBLIC	??$addressof@V?$_Vector_val@U?$_Simple_types@PAVNvEdgeInfo@@@std@@@std@@@std@@YAPAV?$_Vector_val@U?$_Simple_types@PAVNvEdgeInfo@@@std@@@0@AAV10@@Z ; std::addressof<std::_Vector_val<std::_Simple_types<NvEdgeInfo *> > >
PUBLIC	??$addressof@$$CBV?$_Vector_val@U?$_Simple_types@PAVNvStripInfo@@@std@@@std@@@std@@YAPBV?$_Vector_val@U?$_Simple_types@PAVNvStripInfo@@@std@@@0@ABV10@@Z ; std::addressof<std::_Vector_val<std::_Simple_types<NvStripInfo *> > const >
PUBLIC	??$?0$$V@?$_Compressed_pair@V?$xalloc@V?$xr_vector@PAVNvStripInfo@@V?$xalloc@PAVNvStripInfo@@@@@@@@V?$_Vector_val@U?$_Simple_types@V?$xr_vector@PAVNvStripInfo@@V?$xalloc@PAVNvStripInfo@@@@@@@std@@@std@@$00@std@@QAE@U_Zero_then_variadic_args_t@1@@Z ; std::_Compressed_pair<xalloc<xr_vector<NvStripInfo *,xalloc<NvStripInfo *> > >,std::_Vector_val<std::_Simple_types<xr_vector<NvStripInfo *,xalloc<NvStripInfo *> > > >,1>::_Compressed_pair<xalloc<xr_vector<NvStripInfo *,xalloc<NvStripInfo *> > >,std::_Vector_val<std::_Simple_types<xr_vector<NvStripInfo *,xalloc<NvStripInfo *> > > >,1><>
PUBLIC	??$addressof@V?$_Vector_val@U?$_Simple_types@V?$xr_vector@PAVNvStripInfo@@V?$xalloc@PAVNvStripInfo@@@@@@@std@@@std@@@std@@YAPAV?$_Vector_val@U?$_Simple_types@V?$xr_vector@PAVNvStripInfo@@V?$xalloc@PAVNvStripInfo@@@@@@@std@@@0@AAV10@@Z ; std::addressof<std::_Vector_val<std::_Simple_types<xr_vector<NvStripInfo *,xalloc<NvStripInfo *> > > > >
PUBLIC	??$?0ABU?$less@PAVNvFaceInfo@@@std@@U_Zero_then_variadic_args_t@1@@?$_Compressed_pair@U?$less@PAVNvFaceInfo@@@std@@V?$_Compressed_pair@V?$xalloc@U?$_Tree_node@PAVNvFaceInfo@@PAX@std@@@@V?$_Tree_val@U?$_Tree_simple_types@PAVNvFaceInfo@@@std@@@std@@$00@2@$00@std@@QAE@U_One_then_variadic_args_t@1@ABU?$less@PAVNvFaceInfo@@@1@$$QAU_Zero_then_variadic_args_t@1@@Z ; std::_Compressed_pair<std::less<NvFaceInfo *>,std::_Compressed_pair<xalloc<std::_Tree_node<NvFaceInfo *,void *> >,std::_Tree_val<std::_Tree_simple_types<NvFaceInfo *> >,1>,1>::_Compressed_pair<std::less<NvFaceInfo *>,std::_Compressed_pair<xalloc<std::_Tree_node<NvFaceInfo *,void *> >,std::_Tree_val<std::_Tree_simple_types<NvFaceInfo *> >,1>,1><std::less<NvFaceInfo *> const &,std::_Zero_then_variadic_args_t>
PUBLIC	??$addressof@V?$_Tree_val@U?$_Tree_simple_types@PAVNvFaceInfo@@@std@@@std@@@std@@YAPAV?$_Tree_val@U?$_Tree_simple_types@PAVNvFaceInfo@@@std@@@0@AAV10@@Z ; std::addressof<std::_Tree_val<std::_Tree_simple_types<NvFaceInfo *> > >
PUBLIC	??$_Emplace_reallocate@ABH@?$vector@HV?$xalloc@H@@@std@@QAEPAHQAHABH@Z ; std::vector<int,xalloc<int> >::_Emplace_reallocate<int const &>
PUBLIC	??$construct@HABH@?$_Normal_allocator_traits@V?$xalloc@H@@@std@@SAXAAV?$xalloc@H@@PAHABH@Z ; std::_Normal_allocator_traits<xalloc<int> >::construct<int,int const &>
PUBLIC	??$forward@ABH@std@@YAABHABH@Z			; std::forward<int const &>
PUBLIC	??$_Emplace_reallocate@H@?$vector@HV?$xalloc@H@@@std@@QAEPAHQAH$$QAH@Z ; std::vector<int,xalloc<int> >::_Emplace_reallocate<int>
PUBLIC	??$construct@HH@?$_Normal_allocator_traits@V?$xalloc@H@@@std@@SAXAAV?$xalloc@H@@PAH$$QAH@Z ; std::_Normal_allocator_traits<xalloc<int> >::construct<int,int>
PUBLIC	??$forward@H@std@@YA$$QAHAAH@Z			; std::forward<int>
PUBLIC	??$move@AAH@std@@YA$$QAHAAH@Z			; std::move<int &>
PUBLIC	??$_Emplace_reallocate@G@?$vector@GV?$xalloc@G@@@std@@QAEPAGQAG$$QAG@Z ; std::vector<unsigned short,xalloc<unsigned short> >::_Emplace_reallocate<unsigned short>
PUBLIC	??$addressof@$$CBV?$vector@GV?$xalloc@G@@@std@@@std@@YAPBV?$vector@GV?$xalloc@G@@@0@ABV10@@Z ; std::addressof<std::vector<unsigned short,xalloc<unsigned short> > const >
PUBLIC	??$_Emplace_reallocate@ABQAVNvFaceInfo@@@?$vector@PAVNvFaceInfo@@V?$xalloc@PAVNvFaceInfo@@@@@std@@QAEPAPAVNvFaceInfo@@QAPAV2@ABQAV2@@Z ; std::vector<NvFaceInfo *,xalloc<NvFaceInfo *> >::_Emplace_reallocate<NvFaceInfo * const &>
PUBLIC	??$construct@PAVNvFaceInfo@@ABQAV1@@?$_Normal_allocator_traits@V?$xalloc@PAVNvFaceInfo@@@@@std@@SAXAAV?$xalloc@PAVNvFaceInfo@@@@PAPAVNvFaceInfo@@ABQAV3@@Z ; std::_Normal_allocator_traits<xalloc<NvFaceInfo *> >::construct<NvFaceInfo *,NvFaceInfo * const &>
PUBLIC	??$forward@ABQAVNvFaceInfo@@@std@@YAABQAVNvFaceInfo@@ABQAV1@@Z ; std::forward<NvFaceInfo * const &>
PUBLIC	??$_Resize@U_Value_init_tag@std@@@?$vector@PAVNvEdgeInfo@@V?$xalloc@PAVNvEdgeInfo@@@@@std@@AAEXIABU_Value_init_tag@1@@Z ; std::vector<NvEdgeInfo *,xalloc<NvEdgeInfo *> >::_Resize<std::_Value_init_tag>
PUBLIC	??$_Emplace_reallocate@ABQAVNvStripInfo@@@?$vector@PAVNvStripInfo@@V?$xalloc@PAVNvStripInfo@@@@@std@@QAEPAPAVNvStripInfo@@QAPAV2@ABQAV2@@Z ; std::vector<NvStripInfo *,xalloc<NvStripInfo *> >::_Emplace_reallocate<NvStripInfo * const &>
PUBLIC	??$construct@PAVNvStripInfo@@ABQAV1@@?$_Normal_allocator_traits@V?$xalloc@PAVNvStripInfo@@@@@std@@SAXAAV?$xalloc@PAVNvStripInfo@@@@PAPAVNvStripInfo@@ABQAV3@@Z ; std::_Normal_allocator_traits<xalloc<NvStripInfo *> >::construct<NvStripInfo *,NvStripInfo * const &>
PUBLIC	??$forward@ABQAVNvStripInfo@@@std@@YAABQAVNvStripInfo@@ABQAV1@@Z ; std::forward<NvStripInfo * const &>
PUBLIC	??$_Resize@U_Value_init_tag@std@@@?$vector@V?$xr_vector@PAVNvStripInfo@@V?$xalloc@PAVNvStripInfo@@@@@@V?$xalloc@V?$xr_vector@PAVNvStripInfo@@V?$xalloc@PAVNvStripInfo@@@@@@@@@std@@AAEXIABU_Value_init_tag@1@@Z ; std::vector<xr_vector<NvStripInfo *,xalloc<NvStripInfo *> >,xalloc<xr_vector<NvStripInfo *,xalloc<NvStripInfo *> > > >::_Resize<std::_Value_init_tag>
PUBLIC	??$_Erase_head@V?$xalloc@U?$_Tree_node@PAVNvFaceInfo@@PAX@std@@@@@?$_Tree_val@U?$_Tree_simple_types@PAVNvFaceInfo@@@std@@@std@@QAEXAAV?$xalloc@U?$_Tree_node@PAVNvFaceInfo@@PAX@std@@@@@Z ; std::_Tree_val<std::_Tree_simple_types<NvFaceInfo *> >::_Erase_head<xalloc<std::_Tree_node<NvFaceInfo *,void *> > >
PUBLIC	??$_Find@PAVNvFaceInfo@@@?$_Tree@V?$_Tset_traits@PAVNvFaceInfo@@U?$less@PAVNvFaceInfo@@@std@@V?$xalloc@PAVNvFaceInfo@@@@$0A@@std@@@std@@ABEPAU?$_Tree_node@PAVNvFaceInfo@@PAX@1@ABQAVNvFaceInfo@@@Z ; std::_Tree<std::_Tset_traits<NvFaceInfo *,std::less<NvFaceInfo *>,xalloc<NvFaceInfo *>,0> >::_Find<NvFaceInfo *>
PUBLIC	??$insert@$0A@$0A@@?$_Tree@V?$_Tset_traits@PAVNvFaceInfo@@U?$less@PAVNvFaceInfo@@@std@@V?$xalloc@PAVNvFaceInfo@@@@$0A@@std@@@std@@QAE?AU?$pair@V?$_Tree_const_iterator@V?$_Tree_val@U?$_Tree_simple_types@PAVNvFaceInfo@@@std@@@std@@@std@@_N@1@ABQAVNvFaceInfo@@@Z ; std::_Tree<std::_Tset_traits<NvFaceInfo *,std::less<NvFaceInfo *>,xalloc<NvFaceInfo *>,0> >::insert<0,0>
PUBLIC	??$xr_new@VNvStripInfo@@VNvStripStartInfo@@HH@@YAPAVNvStripInfo@@ABVNvStripStartInfo@@ABH1@Z ; xr_new<NvStripInfo,NvStripStartInfo,int,int>
PUBLIC	??$SWAP@H@@YAXAAH0@Z				; SWAP<int>
PUBLIC	??$xr_free@_N@@YAXAAPA_N@Z			; xr_free<bool>
PUBLIC	??$xr_delete@VVertexCache@@@@YAXAAPAVVertexCache@@@Z ; xr_delete<VertexCache>
PUBLIC	??$xr_new@VVertexCache@@H@@YAPAVVertexCache@@ABH@Z ; xr_new<VertexCache,int>
PUBLIC	??$xr_alloc@_N@@YAPA_NI@Z			; xr_alloc<bool>
PUBLIC	??$xr_new@VNvEdgeInfo@@HH@@YAPAVNvEdgeInfo@@ABH0@Z ; xr_new<NvEdgeInfo,int,int>
PUBLIC	??$xr_new@VNvFaceInfo@@HHH@@YAPAVNvFaceInfo@@ABH00@Z ; xr_new<NvFaceInfo,int,int,int>
PUBLIC	?_Verify_offset@?$_Vector_const_iterator@V?$_Vector_val@U?$_Simple_types@V?$xr_vector@PAVNvStripInfo@@V?$xalloc@PAVNvStripInfo@@@@@@@std@@@std@@@std@@QBEXH@Z ; std::_Vector_const_iterator<std::_Vector_val<std::_Simple_types<xr_vector<NvStripInfo *,xalloc<NvStripInfo *> > > > >::_Verify_offset
PUBLIC	?_Verify_offset@?$_Vector_const_iterator@V?$_Vector_val@U?$_Simple_types@PAVNvEdgeInfo@@@std@@@std@@@std@@QBEXH@Z ; std::_Vector_const_iterator<std::_Vector_val<std::_Simple_types<NvEdgeInfo *> > >::_Verify_offset
PUBLIC	?max_size@?$xalloc@PAVNvFaceInfo@@@@QBEIXZ	; xalloc<NvFaceInfo *>::max_size
PUBLIC	?_Umove_if_noexcept1@?$vector@PAVNvFaceInfo@@V?$xalloc@PAVNvFaceInfo@@@@@std@@AAEXPAPAVNvFaceInfo@@00U?$integral_constant@_N$00@2@@Z ; std::vector<NvFaceInfo *,xalloc<NvFaceInfo *> >::_Umove_if_noexcept1
PUBLIC	?_Get_first@?$_Compressed_pair@V?$xalloc@PAVNvFaceInfo@@@@V?$_Vector_val@U?$_Simple_types@PAVNvFaceInfo@@@std@@@std@@$00@std@@QBEABV?$xalloc@PAVNvFaceInfo@@@@XZ ; std::_Compressed_pair<xalloc<NvFaceInfo *>,std::_Vector_val<std::_Simple_types<NvFaceInfo *> >,1>::_Get_first
PUBLIC	?_Get_first@?$_Compressed_pair@V?$xalloc@PAVNvEdgeInfo@@@@V?$_Vector_val@U?$_Simple_types@PAVNvEdgeInfo@@@std@@@std@@$00@std@@QAEAAV?$xalloc@PAVNvEdgeInfo@@@@XZ ; std::_Compressed_pair<xalloc<NvEdgeInfo *>,std::_Vector_val<std::_Simple_types<NvEdgeInfo *> >,1>::_Get_first
PUBLIC	?_Get_first@?$_Compressed_pair@V?$xalloc@V?$xr_vector@PAVNvStripInfo@@V?$xalloc@PAVNvStripInfo@@@@@@@@V?$_Vector_val@U?$_Simple_types@V?$xr_vector@PAVNvStripInfo@@V?$xalloc@PAVNvStripInfo@@@@@@@std@@@std@@$00@std@@QAEAAV?$xalloc@V?$xr_vector@PAVNvStripInfo@@V?$xalloc@PAVNvStripInfo@@@@@@@@XZ ; std::_Compressed_pair<xalloc<xr_vector<NvStripInfo *,xalloc<NvStripInfo *> > >,std::_Vector_val<std::_Simple_types<xr_vector<NvStripInfo *,xalloc<NvStripInfo *> > > >,1>::_Get_first
PUBLIC	??Y?$_Vector_const_iterator@V?$_Vector_val@U?$_Simple_types@V?$xr_vector@PAVNvStripInfo@@V?$xalloc@PAVNvStripInfo@@@@@@@std@@@std@@@std@@QAEAAV01@H@Z ; std::_Vector_const_iterator<std::_Vector_val<std::_Simple_types<xr_vector<NvStripInfo *,xalloc<NvStripInfo *> > > > >::operator+=
PUBLIC	??Y?$_Vector_const_iterator@V?$_Vector_val@U?$_Simple_types@PAVNvEdgeInfo@@@std@@@std@@@std@@QAEAAV01@H@Z ; std::_Vector_const_iterator<std::_Vector_val<std::_Simple_types<NvEdgeInfo *> > >::operator+=
PUBLIC	?allocate@?$xalloc@PAVNvFaceInfo@@@@QBEPAPAVNvFaceInfo@@IPBX@Z ; xalloc<NvFaceInfo *>::allocate
PUBLIC	?max_size@?$_Normal_allocator_traits@V?$xalloc@PAVNvFaceInfo@@@@@std@@SAIABV?$xalloc@PAVNvFaceInfo@@@@@Z ; std::_Normal_allocator_traits<xalloc<NvFaceInfo *> >::max_size
PUBLIC	?clear@?$vector@PAVNvFaceInfo@@V?$xalloc@PAVNvFaceInfo@@@@@std@@QAEXXZ ; std::vector<NvFaceInfo *,xalloc<NvFaceInfo *> >::clear
PUBLIC	?_Umove_if_noexcept@?$vector@PAVNvFaceInfo@@V?$xalloc@PAVNvFaceInfo@@@@@std@@AAEXPAPAVNvFaceInfo@@00@Z ; std::vector<NvFaceInfo *,xalloc<NvFaceInfo *> >::_Umove_if_noexcept
PUBLIC	?_Change_array@?$vector@PAVNvFaceInfo@@V?$xalloc@PAVNvFaceInfo@@@@@std@@AAEXQAPAVNvFaceInfo@@II@Z ; std::vector<NvFaceInfo *,xalloc<NvFaceInfo *> >::_Change_array
PUBLIC	?_Getal@?$vector@PAVNvFaceInfo@@V?$xalloc@PAVNvFaceInfo@@@@@std@@ABEABV?$xalloc@PAVNvFaceInfo@@@@XZ ; std::vector<NvFaceInfo *,xalloc<NvFaceInfo *> >::_Getal
PUBLIC	?deallocate@?$xalloc@PAVNvEdgeInfo@@@@QBEXPAPAVNvEdgeInfo@@I@Z ; xalloc<NvEdgeInfo *>::deallocate
PUBLIC	?_Destroy@?$vector@PAVNvEdgeInfo@@V?$xalloc@PAVNvEdgeInfo@@@@@std@@AAEXPAPAVNvEdgeInfo@@0@Z ; std::vector<NvEdgeInfo *,xalloc<NvEdgeInfo *> >::_Destroy
PUBLIC	?_Getal@?$vector@PAVNvEdgeInfo@@V?$xalloc@PAVNvEdgeInfo@@@@@std@@AAEAAV?$xalloc@PAVNvEdgeInfo@@@@XZ ; std::vector<NvEdgeInfo *,xalloc<NvEdgeInfo *> >::_Getal
PUBLIC	?clear@?$vector@PAVNvStripInfo@@V?$xalloc@PAVNvStripInfo@@@@@std@@QAEXXZ ; std::vector<NvStripInfo *,xalloc<NvStripInfo *> >::clear
PUBLIC	?deallocate@?$xalloc@V?$xr_vector@PAVNvStripInfo@@V?$xalloc@PAVNvStripInfo@@@@@@@@QBEXPAV?$xr_vector@PAVNvStripInfo@@V?$xalloc@PAVNvStripInfo@@@@@@I@Z ; xalloc<xr_vector<NvStripInfo *,xalloc<NvStripInfo *> > >::deallocate
PUBLIC	?clear@?$vector@V?$xr_vector@PAVNvStripInfo@@V?$xalloc@PAVNvStripInfo@@@@@@V?$xalloc@V?$xr_vector@PAVNvStripInfo@@V?$xalloc@PAVNvStripInfo@@@@@@@@@std@@QAEXXZ ; std::vector<xr_vector<NvStripInfo *,xalloc<NvStripInfo *> >,xalloc<xr_vector<NvStripInfo *,xalloc<NvStripInfo *> > > >::clear
PUBLIC	?_Destroy@?$vector@V?$xr_vector@PAVNvStripInfo@@V?$xalloc@PAVNvStripInfo@@@@@@V?$xalloc@V?$xr_vector@PAVNvStripInfo@@V?$xalloc@PAVNvStripInfo@@@@@@@@@std@@AAEXPAV?$xr_vector@PAVNvStripInfo@@V?$xalloc@PAVNvStripInfo@@@@@@0@Z ; std::vector<xr_vector<NvStripInfo *,xalloc<NvStripInfo *> >,xalloc<xr_vector<NvStripInfo *,xalloc<NvStripInfo *> > > >::_Destroy
PUBLIC	?_Getal@?$vector@V?$xr_vector@PAVNvStripInfo@@V?$xalloc@PAVNvStripInfo@@@@@@V?$xalloc@V?$xr_vector@PAVNvStripInfo@@V?$xalloc@PAVNvStripInfo@@@@@@@@@std@@AAEAAV?$xalloc@V?$xr_vector@PAVNvStripInfo@@V?$xalloc@PAVNvStripInfo@@@@@@@@XZ ; std::vector<xr_vector<NvStripInfo *,xalloc<NvStripInfo *> >,xalloc<xr_vector<NvStripInfo *,xalloc<NvStripInfo *> > > >::_Getal
PUBLIC	?_Alloc_sentinel_and_proxy@?$_Tree@V?$_Tset_traits@PAVNvFaceInfo@@U?$less@PAVNvFaceInfo@@@std@@V?$xalloc@PAVNvFaceInfo@@@@$0A@@std@@@std@@IAEXXZ ; std::_Tree<std::_Tset_traits<NvFaceInfo *,std::less<NvFaceInfo *>,xalloc<NvFaceInfo *>,0> >::_Alloc_sentinel_and_proxy
PUBLIC	?_Get_first@?$_Compressed_pair@V?$xalloc@U?$_Tree_node@PAVNvFaceInfo@@PAX@std@@@@V?$_Tree_val@U?$_Tree_simple_types@PAVNvFaceInfo@@@std@@@std@@$00@std@@QAEAAV?$xalloc@U?$_Tree_node@PAVNvFaceInfo@@PAX@std@@@@XZ ; std::_Compressed_pair<xalloc<std::_Tree_node<NvFaceInfo *,void *> >,std::_Tree_val<std::_Tree_simple_types<NvFaceInfo *> >,1>::_Get_first
PUBLIC	??0?$_Vector_const_iterator@V?$_Vector_val@U?$_Simple_types@V?$xr_vector@PAVNvStripInfo@@V?$xalloc@PAVNvStripInfo@@@@@@@std@@@std@@@std@@QAE@PAV?$xr_vector@PAVNvStripInfo@@V?$xalloc@PAVNvStripInfo@@@@@@PBU_Container_base0@1@@Z ; std::_Vector_const_iterator<std::_Vector_val<std::_Simple_types<xr_vector<NvStripInfo *,xalloc<NvStripInfo *> > > > >::_Vector_const_iterator<std::_Vector_val<std::_Simple_types<xr_vector<NvStripInfo *,xalloc<NvStripInfo *> > > > >
PUBLIC	??D?$_Vector_const_iterator@V?$_Vector_val@U?$_Simple_types@V?$xr_vector@PAVNvStripInfo@@V?$xalloc@PAVNvStripInfo@@@@@@@std@@@std@@@std@@QBEABV?$xr_vector@PAVNvStripInfo@@V?$xalloc@PAVNvStripInfo@@@@@@XZ ; std::_Vector_const_iterator<std::_Vector_val<std::_Simple_types<xr_vector<NvStripInfo *,xalloc<NvStripInfo *> > > > >::operator*
PUBLIC	??Y?$_Vector_iterator@V?$_Vector_val@U?$_Simple_types@V?$xr_vector@PAVNvStripInfo@@V?$xalloc@PAVNvStripInfo@@@@@@@std@@@std@@@std@@QAEAAV01@H@Z ; std::_Vector_iterator<std::_Vector_val<std::_Simple_types<xr_vector<NvStripInfo *,xalloc<NvStripInfo *> > > > >::operator+=
PUBLIC	??0?$_Vector_const_iterator@V?$_Vector_val@U?$_Simple_types@PAVNvEdgeInfo@@@std@@@std@@@std@@QAE@PAPAVNvEdgeInfo@@PBU_Container_base0@1@@Z ; std::_Vector_const_iterator<std::_Vector_val<std::_Simple_types<NvEdgeInfo *> > >::_Vector_const_iterator<std::_Vector_val<std::_Simple_types<NvEdgeInfo *> > >
PUBLIC	??D?$_Vector_const_iterator@V?$_Vector_val@U?$_Simple_types@PAVNvEdgeInfo@@@std@@@std@@@std@@QBEABQAVNvEdgeInfo@@XZ ; std::_Vector_const_iterator<std::_Vector_val<std::_Simple_types<NvEdgeInfo *> > >::operator*
PUBLIC	??Y?$_Vector_iterator@V?$_Vector_val@U?$_Simple_types@PAVNvEdgeInfo@@@std@@@std@@@std@@QAEAAV01@H@Z ; std::_Vector_iterator<std::_Vector_val<std::_Simple_types<NvEdgeInfo *> > >::operator+=
PUBLIC	??0?$_Vector_iterator@V?$_Vector_val@U?$_Simple_types@PAVNvEdgeInfo@@@std@@@std@@@std@@QAE@PAPAVNvEdgeInfo@@PBU_Container_base0@1@@Z ; std::_Vector_iterator<std::_Vector_val<std::_Simple_types<NvEdgeInfo *> > >::_Vector_iterator<std::_Vector_val<std::_Simple_types<NvEdgeInfo *> > >
PUBLIC	??0?$_Vector_iterator@V?$_Vector_val@U?$_Simple_types@V?$xr_vector@PAVNvStripInfo@@V?$xalloc@PAVNvStripInfo@@@@@@@std@@@std@@@std@@QAE@PAV?$xr_vector@PAVNvStripInfo@@V?$xalloc@PAVNvStripInfo@@@@@@PBU_Container_base0@1@@Z ; std::_Vector_iterator<std::_Vector_val<std::_Simple_types<xr_vector<NvStripInfo *,xalloc<NvStripInfo *> > > > >::_Vector_iterator<std::_Vector_val<std::_Simple_types<xr_vector<NvStripInfo *,xalloc<NvStripInfo *> > > > >
PUBLIC	?_Orphan_range@?$vector@HV?$xalloc@H@@@std@@ABEXPAH0@Z ; std::vector<int,xalloc<int> >::_Orphan_range
PUBLIC	?_Copy_assign@?$vector@GV?$xalloc@G@@@std@@AAEXABV12@U?$integral_constant@_N$0A@@2@@Z ; std::vector<unsigned short,xalloc<unsigned short> >::_Copy_assign
PUBLIC	?begin@?$vector@GV?$xalloc@G@@@std@@QBE?AV?$_Vector_const_iterator@V?$_Vector_val@U?$_Simple_types@G@std@@@std@@@2@XZ ; std::vector<unsigned short,xalloc<unsigned short> >::begin
PUBLIC	?_Reallocate_exactly@?$vector@PAVNvFaceInfo@@V?$xalloc@PAVNvFaceInfo@@@@@std@@AAEXI@Z ; std::vector<NvFaceInfo *,xalloc<NvFaceInfo *> >::_Reallocate_exactly
PUBLIC	?begin@?$vector@PAVNvFaceInfo@@V?$xalloc@PAVNvFaceInfo@@@@@std@@QBE?AV?$_Vector_const_iterator@V?$_Vector_val@U?$_Simple_types@PAVNvFaceInfo@@@std@@@std@@@2@XZ ; std::vector<NvFaceInfo *,xalloc<NvFaceInfo *> >::begin
PUBLIC	?max_size@?$vector@PAVNvFaceInfo@@V?$xalloc@PAVNvFaceInfo@@@@@std@@QBEIXZ ; std::vector<NvFaceInfo *,xalloc<NvFaceInfo *> >::max_size
PUBLIC	?capacity@?$vector@PAVNvFaceInfo@@V?$xalloc@PAVNvFaceInfo@@@@@std@@QBEIXZ ; std::vector<NvFaceInfo *,xalloc<NvFaceInfo *> >::capacity
PUBLIC	?_Xlength@?$vector@PAVNvFaceInfo@@V?$xalloc@PAVNvFaceInfo@@@@@std@@CAXXZ ; std::vector<NvFaceInfo *,xalloc<NvFaceInfo *> >::_Xlength
PUBLIC	?_Orphan_range@?$vector@PAVNvFaceInfo@@V?$xalloc@PAVNvFaceInfo@@@@@std@@ABEXPAPAVNvFaceInfo@@0@Z ; std::vector<NvFaceInfo *,xalloc<NvFaceInfo *> >::_Orphan_range
PUBLIC	?clear_and_free@?$xr_vector@PAVNvFaceInfo@@V?$xalloc@PAVNvFaceInfo@@@@@@QAEXXZ ; xr_vector<NvFaceInfo *,xalloc<NvFaceInfo *> >::clear_and_free
PUBLIC	??0?$vector@PAVNvEdgeInfo@@V?$xalloc@PAVNvEdgeInfo@@@@@std@@QAE@XZ ; std::vector<NvEdgeInfo *,xalloc<NvEdgeInfo *> >::vector<NvEdgeInfo *,xalloc<NvEdgeInfo *> >
PUBLIC	?begin@?$vector@PAVNvEdgeInfo@@V?$xalloc@PAVNvEdgeInfo@@@@@std@@QAE?AV?$_Vector_iterator@V?$_Vector_val@U?$_Simple_types@PAVNvEdgeInfo@@@std@@@std@@@2@XZ ; std::vector<NvEdgeInfo *,xalloc<NvEdgeInfo *> >::begin
PUBLIC	?size@?$vector@PAVNvEdgeInfo@@V?$xalloc@PAVNvEdgeInfo@@@@@std@@QBEIXZ ; std::vector<NvEdgeInfo *,xalloc<NvEdgeInfo *> >::size
PUBLIC	?_Tidy@?$vector@PAVNvEdgeInfo@@V?$xalloc@PAVNvEdgeInfo@@@@@std@@AAEXXZ ; std::vector<NvEdgeInfo *,xalloc<NvEdgeInfo *> >::_Tidy
PUBLIC	?begin@?$vector@PAVNvStripInfo@@V?$xalloc@PAVNvStripInfo@@@@@std@@QBE?AV?$_Vector_const_iterator@V?$_Vector_val@U?$_Simple_types@PAVNvStripInfo@@@std@@@std@@@2@XZ ; std::vector<NvStripInfo *,xalloc<NvStripInfo *> >::begin
PUBLIC	?_Orphan_range@?$vector@PAVNvStripInfo@@V?$xalloc@PAVNvStripInfo@@@@@std@@ABEXPAPAVNvStripInfo@@0@Z ; std::vector<NvStripInfo *,xalloc<NvStripInfo *> >::_Orphan_range
PUBLIC	?clear_and_free@?$xr_vector@PAVNvStripInfo@@V?$xalloc@PAVNvStripInfo@@@@@@QAEXXZ ; xr_vector<NvStripInfo *,xalloc<NvStripInfo *> >::clear_and_free
PUBLIC	??0?$vector@V?$xr_vector@PAVNvStripInfo@@V?$xalloc@PAVNvStripInfo@@@@@@V?$xalloc@V?$xr_vector@PAVNvStripInfo@@V?$xalloc@PAVNvStripInfo@@@@@@@@@std@@QAE@XZ ; std::vector<xr_vector<NvStripInfo *,xalloc<NvStripInfo *> >,xalloc<xr_vector<NvStripInfo *,xalloc<NvStripInfo *> > > >::vector<xr_vector<NvStripInfo *,xalloc<NvStripInfo *> >,xalloc<xr_vector<NvStripInfo *,xalloc<NvStripInfo *> > > >
PUBLIC	?begin@?$vector@V?$xr_vector@PAVNvStripInfo@@V?$xalloc@PAVNvStripInfo@@@@@@V?$xalloc@V?$xr_vector@PAVNvStripInfo@@V?$xalloc@PAVNvStripInfo@@@@@@@@@std@@QAE?AV?$_Vector_iterator@V?$_Vector_val@U?$_Simple_types@V?$xr_vector@PAVNvStripInfo@@V?$xalloc@PAVNvStripInfo@@@@@@@std@@@std@@@2@XZ ; std::vector<xr_vector<NvStripInfo *,xalloc<NvStripInfo *> >,xalloc<xr_vector<NvStripInfo *,xalloc<NvStripInfo *> > > >::begin
PUBLIC	?_Tidy@?$vector@V?$xr_vector@PAVNvStripInfo@@V?$xalloc@PAVNvStripInfo@@@@@@V?$xalloc@V?$xr_vector@PAVNvStripInfo@@V?$xalloc@PAVNvStripInfo@@@@@@@@@std@@AAEXXZ ; std::vector<xr_vector<NvStripInfo *,xalloc<NvStripInfo *> >,xalloc<xr_vector<NvStripInfo *,xalloc<NvStripInfo *> > > >::_Tidy
PUBLIC	?clear_and_free@?$xr_vector@V?$xr_vector@PAVNvStripInfo@@V?$xalloc@PAVNvStripInfo@@@@@@V?$xalloc@V?$xr_vector@PAVNvStripInfo@@V?$xalloc@PAVNvStripInfo@@@@@@@@@@QAEXXZ ; xr_vector<xr_vector<NvStripInfo *,xalloc<NvStripInfo *> >,xalloc<xr_vector<NvStripInfo *,xalloc<NvStripInfo *> > > >::clear_and_free
PUBLIC	??0?$_Tree@V?$_Tset_traits@PAVNvFaceInfo@@U?$less@PAVNvFaceInfo@@@std@@V?$xalloc@PAVNvFaceInfo@@@@$0A@@std@@@std@@QAE@ABU?$less@PAVNvFaceInfo@@@1@@Z ; std::_Tree<std::_Tset_traits<NvFaceInfo *,std::less<NvFaceInfo *>,xalloc<NvFaceInfo *>,0> >::_Tree<std::_Tset_traits<NvFaceInfo *,std::less<NvFaceInfo *>,xalloc<NvFaceInfo *>,0> >
PUBLIC	?_Getal@?$_Tree@V?$_Tset_traits@PAVNvFaceInfo@@U?$less@PAVNvFaceInfo@@@std@@V?$xalloc@PAVNvFaceInfo@@@@$0A@@std@@@std@@IAEAAV?$xalloc@U?$_Tree_node@PAVNvFaceInfo@@PAX@std@@@@XZ ; std::_Tree<std::_Tset_traits<NvFaceInfo *,std::less<NvFaceInfo *>,xalloc<NvFaceInfo *>,0> >::_Getal
PUBLIC	?_Get_scary@?$_Tree@V?$_Tset_traits@PAVNvFaceInfo@@U?$less@PAVNvFaceInfo@@@std@@V?$xalloc@PAVNvFaceInfo@@@@$0A@@std@@@std@@IAEPAV?$_Tree_val@U?$_Tree_simple_types@PAVNvFaceInfo@@@std@@@2@XZ ; std::_Tree<std::_Tset_traits<NvFaceInfo *,std::less<NvFaceInfo *>,xalloc<NvFaceInfo *>,0> >::_Get_scary
PUBLIC	??0?$_Tree_unchecked_const_iterator@V?$_Tree_val@U?$_Tree_simple_types@PAVNvFaceInfo@@@std@@@std@@U_Iterator_base0@2@@std@@QAE@PAU?$_Tree_node@PAVNvFaceInfo@@PAX@1@PBV?$_Tree_val@U?$_Tree_simple_types@PAVNvFaceInfo@@@std@@@1@@Z ; std::_Tree_unchecked_const_iterator<std::_Tree_val<std::_Tree_simple_types<NvFaceInfo *> >,std::_Iterator_base0>::_Tree_unchecked_const_iterator<std::_Tree_val<std::_Tree_simple_types<NvFaceInfo *> >,std::_Iterator_base0>
PUBLIC	??8?$_Tree_const_iterator@V?$_Tree_val@U?$_Tree_simple_types@PAVNvFaceInfo@@@std@@@std@@@std@@QBE_NABV01@@Z ; std::_Tree_const_iterator<std::_Tree_val<std::_Tree_simple_types<NvFaceInfo *> > >::operator==
PUBLIC	??D?$_Vector_iterator@V?$_Vector_val@U?$_Simple_types@V?$xr_vector@PAVNvStripInfo@@V?$xalloc@PAVNvStripInfo@@@@@@@std@@@std@@@std@@QBEAAV?$xr_vector@PAVNvStripInfo@@V?$xalloc@PAVNvStripInfo@@@@@@XZ ; std::_Vector_iterator<std::_Vector_val<std::_Simple_types<xr_vector<NvStripInfo *,xalloc<NvStripInfo *> > > > >::operator*
PUBLIC	??H?$_Vector_iterator@V?$_Vector_val@U?$_Simple_types@V?$xr_vector@PAVNvStripInfo@@V?$xalloc@PAVNvStripInfo@@@@@@@std@@@std@@@std@@QBE?AV01@H@Z ; std::_Vector_iterator<std::_Vector_val<std::_Simple_types<xr_vector<NvStripInfo *,xalloc<NvStripInfo *> > > > >::operator+
PUBLIC	??H?$_Vector_const_iterator@V?$_Vector_val@U?$_Simple_types@PAVNvStripInfo@@@std@@@std@@@std@@QBE?AV01@H@Z ; std::_Vector_const_iterator<std::_Vector_val<std::_Simple_types<NvStripInfo *> > >::operator+
PUBLIC	??D?$_Vector_iterator@V?$_Vector_val@U?$_Simple_types@PAVNvEdgeInfo@@@std@@@std@@@std@@QBEAAPAVNvEdgeInfo@@XZ ; std::_Vector_iterator<std::_Vector_val<std::_Simple_types<NvEdgeInfo *> > >::operator*
PUBLIC	??H?$_Vector_iterator@V?$_Vector_val@U?$_Simple_types@PAVNvEdgeInfo@@@std@@@std@@@std@@QBE?AV01@H@Z ; std::_Vector_iterator<std::_Vector_val<std::_Simple_types<NvEdgeInfo *> > >::operator+
PUBLIC	??H?$_Vector_const_iterator@V?$_Vector_val@U?$_Simple_types@PAVNvFaceInfo@@@std@@@std@@@std@@QBE?AV01@H@Z ; std::_Vector_const_iterator<std::_Vector_val<std::_Simple_types<NvFaceInfo *> > >::operator+
PUBLIC	??H?$_Vector_const_iterator@V?$_Vector_val@U?$_Simple_types@G@std@@@std@@@std@@QBE?AV01@H@Z ; std::_Vector_const_iterator<std::_Vector_val<std::_Simple_types<unsigned short> > >::operator+
PUBLIC	??0?$_Tree_const_iterator@V?$_Tree_val@U?$_Tree_simple_types@PAVNvFaceInfo@@@std@@@std@@@std@@QAE@PAU?$_Tree_node@PAVNvFaceInfo@@PAX@1@PBV?$_Tree_val@U?$_Tree_simple_types@PAVNvFaceInfo@@@std@@@1@@Z ; std::_Tree_const_iterator<std::_Tree_val<std::_Tree_simple_types<NvFaceInfo *> > >::_Tree_const_iterator<std::_Tree_val<std::_Tree_simple_types<NvFaceInfo *> > >
PUBLIC	??$_Emplace_back_with_unused_capacity@ABH@?$vector@HV?$xalloc@H@@@std@@AAE?A_TABH@Z ; std::vector<int,xalloc<int> >::_Emplace_back_with_unused_capacity<int const &>
PUBLIC	??$emplace_back@ABH@?$vector@HV?$xalloc@H@@@std@@QAE?A_TABH@Z ; std::vector<int,xalloc<int> >::emplace_back<int const &>
PUBLIC	?push_back@?$vector@HV?$xalloc@H@@@std@@QAEXABH@Z ; std::vector<int,xalloc<int> >::push_back
PUBLIC	??$_Emplace_back_with_unused_capacity@H@?$vector@HV?$xalloc@H@@@std@@AAE?A_T$$QAH@Z ; std::vector<int,xalloc<int> >::_Emplace_back_with_unused_capacity<int>
PUBLIC	??$emplace_back@H@?$vector@HV?$xalloc@H@@@std@@QAE?A_T$$QAH@Z ; std::vector<int,xalloc<int> >::emplace_back<int>
PUBLIC	?push_back@?$vector@HV?$xalloc@H@@@std@@QAEX$$QAH@Z ; std::vector<int,xalloc<int> >::push_back
PUBLIC	??$_Emplace_back_with_unused_capacity@G@?$vector@GV?$xalloc@G@@@std@@AAE?A_T$$QAG@Z ; std::vector<unsigned short,xalloc<unsigned short> >::_Emplace_back_with_unused_capacity<unsigned short>
PUBLIC	??$emplace_back@G@?$vector@GV?$xalloc@G@@@std@@QAE?A_T$$QAG@Z ; std::vector<unsigned short,xalloc<unsigned short> >::emplace_back<unsigned short>
PUBLIC	?push_back@?$vector@GV?$xalloc@G@@@std@@QAEX$$QAG@Z ; std::vector<unsigned short,xalloc<unsigned short> >::push_back
PUBLIC	??4?$vector@GV?$xalloc@G@@@std@@QAEAAV01@ABV01@@Z ; std::vector<unsigned short,xalloc<unsigned short> >::operator=
PUBLIC	??A?$xr_vector@GV?$xalloc@G@@@@QBEABGI@Z	; xr_vector<unsigned short,xalloc<unsigned short> >::operator[]
PUBLIC	??$_Emplace_back_with_unused_capacity@ABQAVNvFaceInfo@@@?$vector@PAVNvFaceInfo@@V?$xalloc@PAVNvFaceInfo@@@@@std@@AAE?A_TABQAVNvFaceInfo@@@Z ; std::vector<NvFaceInfo *,xalloc<NvFaceInfo *> >::_Emplace_back_with_unused_capacity<NvFaceInfo * const &>
PUBLIC	??$emplace_back@ABQAVNvFaceInfo@@@?$vector@PAVNvFaceInfo@@V?$xalloc@PAVNvFaceInfo@@@@@std@@QAE?A_TABQAVNvFaceInfo@@@Z ; std::vector<NvFaceInfo *,xalloc<NvFaceInfo *> >::emplace_back<NvFaceInfo * const &>
PUBLIC	?push_back@?$vector@PAVNvFaceInfo@@V?$xalloc@PAVNvFaceInfo@@@@@std@@QAEXABQAVNvFaceInfo@@@Z ; std::vector<NvFaceInfo *,xalloc<NvFaceInfo *> >::push_back
PUBLIC	?reserve@?$vector@PAVNvFaceInfo@@V?$xalloc@PAVNvFaceInfo@@@@@std@@QAEXI@Z ; std::vector<NvFaceInfo *,xalloc<NvFaceInfo *> >::reserve
PUBLIC	?clear@?$xr_vector@PAVNvFaceInfo@@V?$xalloc@PAVNvFaceInfo@@@@@@QAEXXZ ; xr_vector<NvFaceInfo *,xalloc<NvFaceInfo *> >::clear
PUBLIC	??A?$xr_vector@PAVNvFaceInfo@@V?$xalloc@PAVNvFaceInfo@@@@@@QBEABQAVNvFaceInfo@@I@Z ; xr_vector<NvFaceInfo *,xalloc<NvFaceInfo *> >::operator[]
PUBLIC	??1?$vector@PAVNvEdgeInfo@@V?$xalloc@PAVNvEdgeInfo@@@@@std@@QAE@XZ ; std::vector<NvEdgeInfo *,xalloc<NvEdgeInfo *> >::~vector<NvEdgeInfo *,xalloc<NvEdgeInfo *> >
PUBLIC	?resize@?$vector@PAVNvEdgeInfo@@V?$xalloc@PAVNvEdgeInfo@@@@@std@@QAEXI@Z ; std::vector<NvEdgeInfo *,xalloc<NvEdgeInfo *> >::resize
PUBLIC	??0?$xr_vector@PAVNvEdgeInfo@@V?$xalloc@PAVNvEdgeInfo@@@@@@QAE@XZ ; xr_vector<NvEdgeInfo *,xalloc<NvEdgeInfo *> >::xr_vector<NvEdgeInfo *,xalloc<NvEdgeInfo *> >
PUBLIC	?size@?$xr_vector@PAVNvEdgeInfo@@V?$xalloc@PAVNvEdgeInfo@@@@@@QBEIXZ ; xr_vector<NvEdgeInfo *,xalloc<NvEdgeInfo *> >::size
PUBLIC	??A?$xr_vector@PAVNvEdgeInfo@@V?$xalloc@PAVNvEdgeInfo@@@@@@QAEAAPAVNvEdgeInfo@@I@Z ; xr_vector<NvEdgeInfo *,xalloc<NvEdgeInfo *> >::operator[]
PUBLIC	??$_Emplace_back_with_unused_capacity@ABQAVNvStripInfo@@@?$vector@PAVNvStripInfo@@V?$xalloc@PAVNvStripInfo@@@@@std@@AAE?A_TABQAVNvStripInfo@@@Z ; std::vector<NvStripInfo *,xalloc<NvStripInfo *> >::_Emplace_back_with_unused_capacity<NvStripInfo * const &>
PUBLIC	??$emplace_back@ABQAVNvStripInfo@@@?$vector@PAVNvStripInfo@@V?$xalloc@PAVNvStripInfo@@@@@std@@QAE?A_TABQAVNvStripInfo@@@Z ; std::vector<NvStripInfo *,xalloc<NvStripInfo *> >::emplace_back<NvStripInfo * const &>
PUBLIC	?push_back@?$vector@PAVNvStripInfo@@V?$xalloc@PAVNvStripInfo@@@@@std@@QAEXABQAVNvStripInfo@@@Z ; std::vector<NvStripInfo *,xalloc<NvStripInfo *> >::push_back
PUBLIC	?clear@?$xr_vector@PAVNvStripInfo@@V?$xalloc@PAVNvStripInfo@@@@@@QAEXXZ ; xr_vector<NvStripInfo *,xalloc<NvStripInfo *> >::clear
PUBLIC	??A?$xr_vector@PAVNvStripInfo@@V?$xalloc@PAVNvStripInfo@@@@@@QBEABQAVNvStripInfo@@I@Z ; xr_vector<NvStripInfo *,xalloc<NvStripInfo *> >::operator[]
PUBLIC	??1?$vector@V?$xr_vector@PAVNvStripInfo@@V?$xalloc@PAVNvStripInfo@@@@@@V?$xalloc@V?$xr_vector@PAVNvStripInfo@@V?$xalloc@PAVNvStripInfo@@@@@@@@@std@@QAE@XZ ; std::vector<xr_vector<NvStripInfo *,xalloc<NvStripInfo *> >,xalloc<xr_vector<NvStripInfo *,xalloc<NvStripInfo *> > > >::~vector<xr_vector<NvStripInfo *,xalloc<NvStripInfo *> >,xalloc<xr_vector<NvStripInfo *,xalloc<NvStripInfo *> > > >
PUBLIC	?resize@?$vector@V?$xr_vector@PAVNvStripInfo@@V?$xalloc@PAVNvStripInfo@@@@@@V?$xalloc@V?$xr_vector@PAVNvStripInfo@@V?$xalloc@PAVNvStripInfo@@@@@@@@@std@@QAEXI@Z ; std::vector<xr_vector<NvStripInfo *,xalloc<NvStripInfo *> >,xalloc<xr_vector<NvStripInfo *,xalloc<NvStripInfo *> > > >::resize
PUBLIC	??0?$xr_vector@V?$xr_vector@PAVNvStripInfo@@V?$xalloc@PAVNvStripInfo@@@@@@V?$xalloc@V?$xr_vector@PAVNvStripInfo@@V?$xalloc@PAVNvStripInfo@@@@@@@@@@QAE@XZ ; xr_vector<xr_vector<NvStripInfo *,xalloc<NvStripInfo *> >,xalloc<xr_vector<NvStripInfo *,xalloc<NvStripInfo *> > > >::xr_vector<xr_vector<NvStripInfo *,xalloc<NvStripInfo *> >,xalloc<xr_vector<NvStripInfo *,xalloc<NvStripInfo *> > > >
PUBLIC	?clear@?$xr_vector@V?$xr_vector@PAVNvStripInfo@@V?$xalloc@PAVNvStripInfo@@@@@@V?$xalloc@V?$xr_vector@PAVNvStripInfo@@V?$xalloc@PAVNvStripInfo@@@@@@@@@@QAEXXZ ; xr_vector<xr_vector<NvStripInfo *,xalloc<NvStripInfo *> >,xalloc<xr_vector<NvStripInfo *,xalloc<NvStripInfo *> > > >::clear
PUBLIC	??A?$xr_vector@V?$xr_vector@PAVNvStripInfo@@V?$xalloc@PAVNvStripInfo@@@@@@V?$xalloc@V?$xr_vector@PAVNvStripInfo@@V?$xalloc@PAVNvStripInfo@@@@@@@@@@QAEAAV?$xr_vector@PAVNvStripInfo@@V?$xalloc@PAVNvStripInfo@@@@@@I@Z ; xr_vector<xr_vector<NvStripInfo *,xalloc<NvStripInfo *> >,xalloc<xr_vector<NvStripInfo *,xalloc<NvStripInfo *> > > >::operator[]
PUBLIC	??1?$_Tree@V?$_Tset_traits@PAVNvFaceInfo@@U?$less@PAVNvFaceInfo@@@std@@V?$xalloc@PAVNvFaceInfo@@@@$0A@@std@@@std@@QAE@XZ ; std::_Tree<std::_Tset_traits<NvFaceInfo *,std::less<NvFaceInfo *>,xalloc<NvFaceInfo *>,0> >::~_Tree<std::_Tset_traits<NvFaceInfo *,std::less<NvFaceInfo *>,xalloc<NvFaceInfo *>,0> >
PUBLIC	?end@?$_Tree@V?$_Tset_traits@PAVNvFaceInfo@@U?$less@PAVNvFaceInfo@@@std@@V?$xalloc@PAVNvFaceInfo@@@@$0A@@std@@@std@@QAE?AV?$_Tree_const_iterator@V?$_Tree_val@U?$_Tree_simple_types@PAVNvFaceInfo@@@std@@@std@@@2@XZ ; std::_Tree<std::_Tset_traits<NvFaceInfo *,std::less<NvFaceInfo *>,xalloc<NvFaceInfo *>,0> >::end
PUBLIC	?find@?$_Tree@V?$_Tset_traits@PAVNvFaceInfo@@U?$less@PAVNvFaceInfo@@@std@@V?$xalloc@PAVNvFaceInfo@@@@$0A@@std@@@std@@QAE?AV?$_Tree_const_iterator@V?$_Tree_val@U?$_Tree_simple_types@PAVNvFaceInfo@@@std@@@std@@@2@ABQAVNvFaceInfo@@@Z ; std::_Tree<std::_Tset_traits<NvFaceInfo *,std::less<NvFaceInfo *>,xalloc<NvFaceInfo *>,0> >::find
PUBLIC	??0?$set@PAVNvFaceInfo@@U?$less@PAVNvFaceInfo@@@std@@V?$xalloc@PAVNvFaceInfo@@@@@std@@QAE@XZ ; std::set<NvFaceInfo *,std::less<NvFaceInfo *>,xalloc<NvFaceInfo *> >::set<NvFaceInfo *,std::less<NvFaceInfo *>,xalloc<NvFaceInfo *> >
PUBLIC	??9?$_Tree_const_iterator@V?$_Tree_val@U?$_Tree_simple_types@PAVNvFaceInfo@@@std@@@std@@@std@@QBE_NABV01@@Z ; std::_Tree_const_iterator<std::_Tree_val<std::_Tree_simple_types<NvFaceInfo *> > >::operator!=
PUBLIC	??1?$set@PAVNvFaceInfo@@U?$less@PAVNvFaceInfo@@@std@@V?$xalloc@PAVNvFaceInfo@@@@@std@@QAE@XZ ; std::set<NvFaceInfo *,std::less<NvFaceInfo *>,xalloc<NvFaceInfo *> >::~set<NvFaceInfo *,std::less<NvFaceInfo *>,xalloc<NvFaceInfo *> >
PUBLIC	??1?$xr_set@PAVNvFaceInfo@@U?$less@PAVNvFaceInfo@@@std@@V?$xalloc@PAVNvFaceInfo@@@@@@QAE@XZ ; xr_set<NvFaceInfo *,std::less<NvFaceInfo *>,xalloc<NvFaceInfo *> >::~xr_set<NvFaceInfo *,std::less<NvFaceInfo *>,xalloc<NvFaceInfo *> >
PUBLIC	??0?$xr_set@PAVNvFaceInfo@@U?$less@PAVNvFaceInfo@@@std@@V?$xalloc@PAVNvFaceInfo@@@@@@QAE@XZ ; xr_set<NvFaceInfo *,std::less<NvFaceInfo *>,xalloc<NvFaceInfo *> >::xr_set<NvFaceInfo *,std::less<NvFaceInfo *>,xalloc<NvFaceInfo *> >
PUBLIC	??1?$xr_vector@V?$xr_vector@PAVNvStripInfo@@V?$xalloc@PAVNvStripInfo@@@@@@V?$xalloc@V?$xr_vector@PAVNvStripInfo@@V?$xalloc@PAVNvStripInfo@@@@@@@@@@QAE@XZ ; xr_vector<xr_vector<NvStripInfo *,xalloc<NvStripInfo *> >,xalloc<xr_vector<NvStripInfo *,xalloc<NvStripInfo *> > > >::~xr_vector<xr_vector<NvStripInfo *,xalloc<NvStripInfo *> >,xalloc<xr_vector<NvStripInfo *,xalloc<NvStripInfo *> > > >
PUBLIC	?FindAllStrips@NvStripifier@@IAEXAAV?$xr_vector@PAVNvStripInfo@@V?$xalloc@PAVNvStripInfo@@@@@@AAV?$xr_vector@PAVNvFaceInfo@@V?$xalloc@PAVNvFaceInfo@@@@@@AAV?$xr_vector@PAVNvEdgeInfo@@V?$xalloc@PAVNvEdgeInfo@@@@@@H@Z ; NvStripifier::FindAllStrips
PUBLIC	?AvgStripSize@NvStripifier@@IAEMABV?$xr_vector@PAVNvStripInfo@@V?$xalloc@PAVNvStripInfo@@@@@@@Z ; NvStripifier::AvgStripSize
PUBLIC	?NumNeighbors@NvStripifier@@IAEHPAVNvFaceInfo@@AAV?$xr_vector@PAVNvEdgeInfo@@V?$xalloc@PAVNvEdgeInfo@@@@@@@Z ; NvStripifier::NumNeighbors
PUBLIC	?CalcNumHitsFace@NvStripifier@@IAEHPAVVertexCache@@PAVNvFaceInfo@@@Z ; NvStripifier::CalcNumHitsFace
PUBLIC	?CalcNumHitsStrip@NvStripifier@@IAEMPAVVertexCache@@PAVNvStripInfo@@@Z ; NvStripifier::CalcNumHitsStrip
PUBLIC	?UpdateCacheFace@NvStripifier@@IAEXPAVVertexCache@@PAVNvFaceInfo@@@Z ; NvStripifier::UpdateCacheFace
PUBLIC	?UpdateCacheStrip@NvStripifier@@IAEXPAVVertexCache@@PAVNvStripInfo@@@Z ; NvStripifier::UpdateCacheStrip
PUBLIC	?SplitUpStripsAndOptimize@NvStripifier@@IAEXAAV?$xr_vector@PAVNvStripInfo@@V?$xalloc@PAVNvStripInfo@@@@@@0AAV?$xr_vector@PAVNvEdgeInfo@@V?$xalloc@PAVNvEdgeInfo@@@@@@AAV?$xr_vector@PAVNvFaceInfo@@V?$xalloc@PAVNvFaceInfo@@@@@@@Z ; NvStripifier::SplitUpStripsAndOptimize
PUBLIC	??1?$xr_vector@PAVNvEdgeInfo@@V?$xalloc@PAVNvEdgeInfo@@@@@@QAE@XZ ; xr_vector<NvEdgeInfo *,xalloc<NvEdgeInfo *> >::~xr_vector<NvEdgeInfo *,xalloc<NvEdgeInfo *> >
PUBLIC	??4?$xr_vector@GV?$xalloc@G@@@@QAEAAV0@ABV0@@Z	; xr_vector<unsigned short,xalloc<unsigned short> >::operator=
PUBLIC	?IsCW@NvStripifier@@IAE_NPAVNvFaceInfo@@HH@Z	; NvStripifier::IsCW
PUBLIC	?NextIsCW@NvStripifier@@IAE_NH@Z		; NvStripifier::NextIsCW
PUBLIC	?RemoveSmallStrips@NvStripifier@@IAEXAAV?$xr_vector@PAVNvStripInfo@@V?$xalloc@PAVNvStripInfo@@@@@@0AAV?$xr_vector@PAVNvFaceInfo@@V?$xalloc@PAVNvFaceInfo@@@@@@@Z ; NvStripifier::RemoveSmallStrips
PUBLIC	?FindTraversal@NvStripifier@@IAE_NAAV?$xr_vector@PAVNvFaceInfo@@V?$xalloc@PAVNvFaceInfo@@@@@@AAV?$xr_vector@PAVNvEdgeInfo@@V?$xalloc@PAVNvEdgeInfo@@@@@@PAVNvStripInfo@@AAVNvStripStartInfo@@@Z ; NvStripifier::FindTraversal
PUBLIC	?CommitStrips@NvStripifier@@IAEXAAV?$xr_vector@PAVNvStripInfo@@V?$xalloc@PAVNvStripInfo@@@@@@ABV2@@Z ; NvStripifier::CommitStrips
PUBLIC	?SharesEdge@NvStripInfo@@QAE_NPBVNvFaceInfo@@AAV?$xr_vector@PAVNvEdgeInfo@@V?$xalloc@PAVNvEdgeInfo@@@@@@@Z ; NvStripInfo::SharesEdge
PUBLIC	?Combine@NvStripInfo@@QAEXABV?$xr_vector@PAVNvFaceInfo@@V?$xalloc@PAVNvFaceInfo@@@@@@0@Z ; NvStripInfo::Combine
PUBLIC	?Build@NvStripInfo@@QAEXAAV?$xr_vector@PAVNvEdgeInfo@@V?$xalloc@PAVNvEdgeInfo@@@@@@AAV?$xr_vector@PAVNvFaceInfo@@V?$xalloc@PAVNvFaceInfo@@@@@@@Z ; NvStripInfo::Build
PUBLIC	?Unique@NvStripInfo@@QAE_NAAV?$xr_vector@PAVNvFaceInfo@@V?$xalloc@PAVNvFaceInfo@@@@@@PAVNvFaceInfo@@@Z ; NvStripInfo::Unique
PUBLIC	?MarkTriangle@NvStripInfo@@QAEXPAVNvFaceInfo@@@Z ; NvStripInfo::MarkTriangle
PUBLIC	?IsMarked@NvStripInfo@@QAE_NPAVNvFaceInfo@@@Z	; NvStripInfo::IsMarked
PUBLIC	?GetNextIndex@NvStripifier@@KAHABV?$xr_vector@GV?$xalloc@G@@@@PAVNvFaceInfo@@@Z ; NvStripifier::GetNextIndex
PUBLIC	?GetSharedVertex@NvStripifier@@SAHPAVNvFaceInfo@@0@Z ; NvStripifier::GetSharedVertex
PUBLIC	?GetUniqueVertexInB@NvStripifier@@SAHPAVNvFaceInfo@@0@Z ; NvStripifier::GetUniqueVertexInB
PUBLIC	?FindGoodResetPoint@NvStripifier@@IAEPAVNvFaceInfo@@AAV?$xr_vector@PAVNvFaceInfo@@V?$xalloc@PAVNvFaceInfo@@@@@@AAV?$xr_vector@PAVNvEdgeInfo@@V?$xalloc@PAVNvEdgeInfo@@@@@@@Z ; NvStripifier::FindGoodResetPoint
PUBLIC	?FindStartPoint@NvStripifier@@IAEHAAV?$xr_vector@PAVNvFaceInfo@@V?$xalloc@PAVNvFaceInfo@@@@@@AAV?$xr_vector@PAVNvEdgeInfo@@V?$xalloc@PAVNvEdgeInfo@@@@@@@Z ; NvStripifier::FindStartPoint
PUBLIC	?BuildStripifyInfo@NvStripifier@@IAEXAAV?$xr_vector@PAVNvFaceInfo@@V?$xalloc@PAVNvFaceInfo@@@@@@AAV?$xr_vector@PAVNvEdgeInfo@@V?$xalloc@PAVNvEdgeInfo@@@@@@@Z ; NvStripifier::BuildStripifyInfo
PUBLIC	?AlreadyExists@NvStripifier@@IAE_NPAVNvFaceInfo@@AAV?$xr_vector@PAVNvFaceInfo@@V?$xalloc@PAVNvFaceInfo@@@@@@@Z ; NvStripifier::AlreadyExists
PUBLIC	?FindOtherFace@NvStripifier@@KAPAVNvFaceInfo@@AAV?$xr_vector@PAVNvEdgeInfo@@V?$xalloc@PAVNvEdgeInfo@@@@@@HHPAV2@@Z ; NvStripifier::FindOtherFace
PUBLIC	?FindEdgeInfo@NvStripifier@@KAPAVNvEdgeInfo@@AAV?$xr_vector@PAVNvEdgeInfo@@V?$xalloc@PAVNvEdgeInfo@@@@@@HH@Z ; NvStripifier::FindEdgeInfo
PUBLIC	?IsInStrip@NvStripInfo@@QBE_NPBVNvFaceInfo@@@Z	; NvStripInfo::IsInStrip
PUBLIC	?IsExperiment@NvStripInfo@@QBE_NXZ		; NvStripInfo::IsExperiment
PUBLIC	??0NvStripInfo@@QAE@ABVNvStripStartInfo@@HH@Z	; NvStripInfo::NvStripInfo
PUBLIC	??0NvStripStartInfo@@QAE@PAVNvFaceInfo@@PAVNvEdgeInfo@@_N@Z ; NvStripStartInfo::NvStripStartInfo
PUBLIC	?Unref@NvEdgeInfo@@QAEXXZ			; NvEdgeInfo::Unref
PUBLIC	??0NvEdgeInfo@@QAE@HH@Z				; NvEdgeInfo::NvEdgeInfo
PUBLIC	??0NvFaceInfo@@QAE@HHH@Z			; NvFaceInfo::NvFaceInfo
PUBLIC	?AddEntry@VertexCache@@QAEHH@Z			; VertexCache::AddEntry
PUBLIC	?InCache@VertexCache@@QAE_NH@Z			; VertexCache::InCache
PUBLIC	??0NvStripifier@@QAE@XZ				; NvStripifier::NvStripifier
PUBLIC	??1NvStripifier@@QAE@XZ				; NvStripifier::~NvStripifier
PUBLIC	?Stripify@NvStripifier@@QAEXABV?$xr_vector@GV?$xalloc@G@@@@HHAAV?$xr_vector@PAVNvStripInfo@@V?$xalloc@PAVNvStripInfo@@@@@@AAV?$xr_vector@PAVNvFaceInfo@@V?$xalloc@PAVNvFaceInfo@@@@@@@Z ; NvStripifier::Stripify
PUBLIC	?CreateStrips@NvStripifier@@QAEXABV?$xr_vector@PAVNvStripInfo@@V?$xalloc@PAVNvStripInfo@@@@@@AAV?$xr_vector@HV?$xalloc@H@@@@_NAAI@Z ; NvStripifier::CreateStrips
;	COMDAT ?$TSS0@?1??Build@NvStripInfo@@QAEXAAV?$xr_vector@PAVNvEdgeInfo@@V?$xalloc@PAVNvEdgeInfo@@@@@@AAV?$xr_vector@PAVNvFaceInfo@@V?$xalloc@PAVNvFaceInfo@@@@@@@Z@4HA
_BSS	SEGMENT
?$TSS0@?1??Build@NvStripInfo@@QAEXAAV?$xr_vector@PAVNvEdgeInfo@@V?$xalloc@PAVNvEdgeInfo@@@@@@AAV?$xr_vector@PAVNvFaceInfo@@V?$xalloc@PAVNvFaceInfo@@@@@@@Z@4HA DD 01H DUP (?) ; `NvStripInfo::Build'::`2'::$TSS0
_BSS	ENDS
;	COMDAT ?scratchIndices@?1??Build@NvStripInfo@@QAEXAAV?$xr_vector@PAVNvEdgeInfo@@V?$xalloc@PAVNvEdgeInfo@@@@@@AAV?$xr_vector@PAVNvFaceInfo@@V?$xalloc@PAVNvFaceInfo@@@@@@@Z@4V?$xr_vector@GV?$xalloc@G@@@@A
_BSS	SEGMENT
?scratchIndices@?1??Build@NvStripInfo@@QAEXAAV?$xr_vector@PAVNvEdgeInfo@@V?$xalloc@PAVNvEdgeInfo@@@@@@AAV?$xr_vector@PAVNvFaceInfo@@V?$xalloc@PAVNvFaceInfo@@@@@@@Z@4V?$xr_vector@GV?$xalloc@G@@@@A DB 0cH DUP (?) ; `NvStripInfo::Build'::`2'::scratchIndices
_BSS	ENDS
;	COMDAT xdata$x
xdata$x	SEGMENT
__ehfuncinfo$?_Reallocate_exactly@?$vector@PAVNvFaceInfo@@V?$xalloc@PAVNvFaceInfo@@@@@std@@AAEXI@Z DD 019930522H
	DD	02H
	DD	FLAT:__unwindtable$?_Reallocate_exactly@?$vector@PAVNvFaceInfo@@V?$xalloc@PAVNvFaceInfo@@@@@std@@AAEXI@Z
	DD	01H
	DD	FLAT:__tryblocktable$?_Reallocate_exactly@?$vector@PAVNvFaceInfo@@V?$xalloc@PAVNvFaceInfo@@@@@std@@AAEXI@Z
	DD	2 DUP(00H)
	DD	00H
	DD	00H
__unwindtable$?_Reallocate_exactly@?$vector@PAVNvFaceInfo@@V?$xalloc@PAVNvFaceInfo@@@@@std@@AAEXI@Z DD 0ffffffffH
	DD	00H
	DD	0ffffffffH
	DD	00H
__tryblocktable$?_Reallocate_exactly@?$vector@PAVNvFaceInfo@@V?$xalloc@PAVNvFaceInfo@@@@@std@@AAEXI@Z DD 00H
	DD	00H
	DD	01H
	DD	01H
	DD	FLAT:__catchsym$?_Reallocate_exactly@?$vector@PAVNvFaceInfo@@V?$xalloc@PAVNvFaceInfo@@@@@std@@AAEXI@Z$2
__catchsym$?_Reallocate_exactly@?$vector@PAVNvFaceInfo@@V?$xalloc@PAVNvFaceInfo@@@@@std@@AAEXI@Z$2 DD 00H
	DD	00H
	DD	00H
	DD	FLAT:__catch$?_Reallocate_exactly@?$vector@PAVNvFaceInfo@@V?$xalloc@PAVNvFaceInfo@@@@@std@@AAEXI@Z$0
xdata$x	ENDS
;	COMDAT xdata$x
xdata$x	SEGMENT
__ehfuncinfo$??$_Emplace_reallocate@ABQAVNvStripInfo@@@?$vector@PAVNvStripInfo@@V?$xalloc@PAVNvStripInfo@@@@@std@@QAEPAPAVNvStripInfo@@QAPAV2@ABQAV2@@Z DD 019930522H
	DD	02H
	DD	FLAT:__unwindtable$??$_Emplace_reallocate@ABQAVNvStripInfo@@@?$vector@PAVNvStripInfo@@V?$xalloc@PAVNvStripInfo@@@@@std@@QAEPAPAVNvStripInfo@@QAPAV2@ABQAV2@@Z
	DD	01H
	DD	FLAT:__tryblocktable$??$_Emplace_reallocate@ABQAVNvStripInfo@@@?$vector@PAVNvStripInfo@@V?$xalloc@PAVNvStripInfo@@@@@std@@QAEPAPAVNvStripInfo@@QAPAV2@ABQAV2@@Z
	DD	2 DUP(00H)
	DD	00H
	DD	00H
__unwindtable$??$_Emplace_reallocate@ABQAVNvStripInfo@@@?$vector@PAVNvStripInfo@@V?$xalloc@PAVNvStripInfo@@@@@std@@QAEPAPAVNvStripInfo@@QAPAV2@ABQAV2@@Z DD 0ffffffffH
	DD	00H
	DD	0ffffffffH
	DD	00H
__tryblocktable$??$_Emplace_reallocate@ABQAVNvStripInfo@@@?$vector@PAVNvStripInfo@@V?$xalloc@PAVNvStripInfo@@@@@std@@QAEPAPAVNvStripInfo@@QAPAV2@ABQAV2@@Z DD 00H
	DD	00H
	DD	01H
	DD	01H
	DD	FLAT:__catchsym$??$_Emplace_reallocate@ABQAVNvStripInfo@@@?$vector@PAVNvStripInfo@@V?$xalloc@PAVNvStripInfo@@@@@std@@QAEPAPAVNvStripInfo@@QAPAV2@ABQAV2@@Z$2
__catchsym$??$_Emplace_reallocate@ABQAVNvStripInfo@@@?$vector@PAVNvStripInfo@@V?$xalloc@PAVNvStripInfo@@@@@std@@QAEPAPAVNvStripInfo@@QAPAV2@ABQAV2@@Z$2 DD 00H
	DD	00H
	DD	00H
	DD	FLAT:__catch$??$_Emplace_reallocate@ABQAVNvStripInfo@@@?$vector@PAVNvStripInfo@@V?$xalloc@PAVNvStripInfo@@@@@std@@QAEPAPAVNvStripInfo@@QAPAV2@ABQAV2@@Z$0
xdata$x	ENDS
;	COMDAT xdata$x
xdata$x	SEGMENT
__ehfuncinfo$??$_Emplace_reallocate@ABQAVNvFaceInfo@@@?$vector@PAVNvFaceInfo@@V?$xalloc@PAVNvFaceInfo@@@@@std@@QAEPAPAVNvFaceInfo@@QAPAV2@ABQAV2@@Z DD 019930522H
	DD	02H
	DD	FLAT:__unwindtable$??$_Emplace_reallocate@ABQAVNvFaceInfo@@@?$vector@PAVNvFaceInfo@@V?$xalloc@PAVNvFaceInfo@@@@@std@@QAEPAPAVNvFaceInfo@@QAPAV2@ABQAV2@@Z
	DD	01H
	DD	FLAT:__tryblocktable$??$_Emplace_reallocate@ABQAVNvFaceInfo@@@?$vector@PAVNvFaceInfo@@V?$xalloc@PAVNvFaceInfo@@@@@std@@QAEPAPAVNvFaceInfo@@QAPAV2@ABQAV2@@Z
	DD	2 DUP(00H)
	DD	00H
	DD	00H
__unwindtable$??$_Emplace_reallocate@ABQAVNvFaceInfo@@@?$vector@PAVNvFaceInfo@@V?$xalloc@PAVNvFaceInfo@@@@@std@@QAEPAPAVNvFaceInfo@@QAPAV2@ABQAV2@@Z DD 0ffffffffH
	DD	00H
	DD	0ffffffffH
	DD	00H
__tryblocktable$??$_Emplace_reallocate@ABQAVNvFaceInfo@@@?$vector@PAVNvFaceInfo@@V?$xalloc@PAVNvFaceInfo@@@@@std@@QAEPAPAVNvFaceInfo@@QAPAV2@ABQAV2@@Z DD 00H
	DD	00H
	DD	01H
	DD	01H
	DD	FLAT:__catchsym$??$_Emplace_reallocate@ABQAVNvFaceInfo@@@?$vector@PAVNvFaceInfo@@V?$xalloc@PAVNvFaceInfo@@@@@std@@QAEPAPAVNvFaceInfo@@QAPAV2@ABQAV2@@Z$2
__catchsym$??$_Emplace_reallocate@ABQAVNvFaceInfo@@@?$vector@PAVNvFaceInfo@@V?$xalloc@PAVNvFaceInfo@@@@@std@@QAEPAPAVNvFaceInfo@@QAPAV2@ABQAV2@@Z$2 DD 00H
	DD	00H
	DD	00H
	DD	FLAT:__catch$??$_Emplace_reallocate@ABQAVNvFaceInfo@@@?$vector@PAVNvFaceInfo@@V?$xalloc@PAVNvFaceInfo@@@@@std@@QAEPAPAVNvFaceInfo@@QAPAV2@ABQAV2@@Z$0
xdata$x	ENDS
;	COMDAT xdata$x
xdata$x	SEGMENT
__ehfuncinfo$??$_Emplace_reallocate@G@?$vector@GV?$xalloc@G@@@std@@QAEPAGQAG$$QAG@Z DD 019930522H
	DD	02H
	DD	FLAT:__unwindtable$??$_Emplace_reallocate@G@?$vector@GV?$xalloc@G@@@std@@QAEPAGQAG$$QAG@Z
	DD	01H
	DD	FLAT:__tryblocktable$??$_Emplace_reallocate@G@?$vector@GV?$xalloc@G@@@std@@QAEPAGQAG$$QAG@Z
	DD	2 DUP(00H)
	DD	00H
	DD	00H
__unwindtable$??$_Emplace_reallocate@G@?$vector@GV?$xalloc@G@@@std@@QAEPAGQAG$$QAG@Z DD 0ffffffffH
	DD	00H
	DD	0ffffffffH
	DD	00H
__tryblocktable$??$_Emplace_reallocate@G@?$vector@GV?$xalloc@G@@@std@@QAEPAGQAG$$QAG@Z DD 00H
	DD	00H
	DD	01H
	DD	01H
	DD	FLAT:__catchsym$??$_Emplace_reallocate@G@?$vector@GV?$xalloc@G@@@std@@QAEPAGQAG$$QAG@Z$2
__catchsym$??$_Emplace_reallocate@G@?$vector@GV?$xalloc@G@@@std@@QAEPAGQAG$$QAG@Z$2 DD 00H
	DD	00H
	DD	00H
	DD	FLAT:__catch$??$_Emplace_reallocate@G@?$vector@GV?$xalloc@G@@@std@@QAEPAGQAG$$QAG@Z$0
xdata$x	ENDS
;	COMDAT xdata$x
xdata$x	SEGMENT
__ehfuncinfo$??$_Emplace_reallocate@H@?$vector@HV?$xalloc@H@@@std@@QAEPAHQAH$$QAH@Z DD 019930522H
	DD	02H
	DD	FLAT:__unwindtable$??$_Emplace_reallocate@H@?$vector@HV?$xalloc@H@@@std@@QAEPAHQAH$$QAH@Z
	DD	01H
	DD	FLAT:__tryblocktable$??$_Emplace_reallocate@H@?$vector@HV?$xalloc@H@@@std@@QAEPAHQAH$$QAH@Z
	DD	2 DUP(00H)
	DD	00H
	DD	00H
__unwindtable$??$_Emplace_reallocate@H@?$vector@HV?$xalloc@H@@@std@@QAEPAHQAH$$QAH@Z DD 0ffffffffH
	DD	00H
	DD	0ffffffffH
	DD	00H
__tryblocktable$??$_Emplace_reallocate@H@?$vector@HV?$xalloc@H@@@std@@QAEPAHQAH$$QAH@Z DD 00H
	DD	00H
	DD	01H
	DD	01H
	DD	FLAT:__catchsym$??$_Emplace_reallocate@H@?$vector@HV?$xalloc@H@@@std@@QAEPAHQAH$$QAH@Z$2
__catchsym$??$_Emplace_reallocate@H@?$vector@HV?$xalloc@H@@@std@@QAEPAHQAH$$QAH@Z$2 DD 00H
	DD	00H
	DD	00H
	DD	FLAT:__catch$??$_Emplace_reallocate@H@?$vector@HV?$xalloc@H@@@std@@QAEPAHQAH$$QAH@Z$0
xdata$x	ENDS
;	COMDAT xdata$x
xdata$x	SEGMENT
__ehfuncinfo$??$_Emplace_reallocate@ABH@?$vector@HV?$xalloc@H@@@std@@QAEPAHQAHABH@Z DD 019930522H
	DD	02H
	DD	FLAT:__unwindtable$??$_Emplace_reallocate@ABH@?$vector@HV?$xalloc@H@@@std@@QAEPAHQAHABH@Z
	DD	01H
	DD	FLAT:__tryblocktable$??$_Emplace_reallocate@ABH@?$vector@HV?$xalloc@H@@@std@@QAEPAHQAHABH@Z
	DD	2 DUP(00H)
	DD	00H
	DD	00H
__unwindtable$??$_Emplace_reallocate@ABH@?$vector@HV?$xalloc@H@@@std@@QAEPAHQAHABH@Z DD 0ffffffffH
	DD	00H
	DD	0ffffffffH
	DD	00H
__tryblocktable$??$_Emplace_reallocate@ABH@?$vector@HV?$xalloc@H@@@std@@QAEPAHQAHABH@Z DD 00H
	DD	00H
	DD	01H
	DD	01H
	DD	FLAT:__catchsym$??$_Emplace_reallocate@ABH@?$vector@HV?$xalloc@H@@@std@@QAEPAHQAHABH@Z$2
__catchsym$??$_Emplace_reallocate@ABH@?$vector@HV?$xalloc@H@@@std@@QAEPAHQAHABH@Z$2 DD 00H
	DD	00H
	DD	00H
	DD	FLAT:__catch$??$_Emplace_reallocate@ABH@?$vector@HV?$xalloc@H@@@std@@QAEPAHQAHABH@Z$0
xdata$x	ENDS
;	COMDAT xdata$x
xdata$x	SEGMENT
__ehfuncinfo$??$_Resize_reallocate@U_Value_init_tag@std@@@?$vector@V?$xr_vector@PAVNvStripInfo@@V?$xalloc@PAVNvStripInfo@@@@@@V?$xalloc@V?$xr_vector@PAVNvStripInfo@@V?$xalloc@PAVNvStripInfo@@@@@@@@@std@@AAEXIABU_Value_init_tag@1@@Z DD 019930522H
	DD	02H
	DD	FLAT:__unwindtable$??$_Resize_reallocate@U_Value_init_tag@std@@@?$vector@V?$xr_vector@PAVNvStripInfo@@V?$xalloc@PAVNvStripInfo@@@@@@V?$xalloc@V?$xr_vector@PAVNvStripInfo@@V?$xalloc@PAVNvStripInfo@@@@@@@@@std@@AAEXIABU_Value_init_tag@1@@Z
	DD	01H
	DD	FLAT:__tryblocktable$??$_Resize_reallocate@U_Value_init_tag@std@@@?$vector@V?$xr_vector@PAVNvStripInfo@@V?$xalloc@PAVNvStripInfo@@@@@@V?$xalloc@V?$xr_vector@PAVNvStripInfo@@V?$xalloc@PAVNvStripInfo@@@@@@@@@std@@AAEXIABU_Value_init_tag@1@@Z
	DD	2 DUP(00H)
	DD	00H
	DD	00H
__unwindtable$??$_Resize_reallocate@U_Value_init_tag@std@@@?$vector@V?$xr_vector@PAVNvStripInfo@@V?$xalloc@PAVNvStripInfo@@@@@@V?$xalloc@V?$xr_vector@PAVNvStripInfo@@V?$xalloc@PAVNvStripInfo@@@@@@@@@std@@AAEXIABU_Value_init_tag@1@@Z DD 0ffffffffH
	DD	00H
	DD	0ffffffffH
	DD	00H
__tryblocktable$??$_Resize_reallocate@U_Value_init_tag@std@@@?$vector@V?$xr_vector@PAVNvStripInfo@@V?$xalloc@PAVNvStripInfo@@@@@@V?$xalloc@V?$xr_vector@PAVNvStripInfo@@V?$xalloc@PAVNvStripInfo@@@@@@@@@std@@AAEXIABU_Value_init_tag@1@@Z DD 00H
	DD	00H
	DD	01H
	DD	01H
	DD	FLAT:__catchsym$??$_Resize_reallocate@U_Value_init_tag@std@@@?$vector@V?$xr_vector@PAVNvStripInfo@@V?$xalloc@PAVNvStripInfo@@@@@@V?$xalloc@V?$xr_vector@PAVNvStripInfo@@V?$xalloc@PAVNvStripInfo@@@@@@@@@std@@AAEXIABU_Value_init_tag@1@@Z$2
__catchsym$??$_Resize_reallocate@U_Value_init_tag@std@@@?$vector@V?$xr_vector@PAVNvStripInfo@@V?$xalloc@PAVNvStripInfo@@@@@@V?$xalloc@V?$xr_vector@PAVNvStripInfo@@V?$xalloc@PAVNvStripInfo@@@@@@@@@std@@AAEXIABU_Value_init_tag@1@@Z$2 DD 00H
	DD	00H
	DD	00H
	DD	FLAT:__catch$??$_Resize_reallocate@U_Value_init_tag@std@@@?$vector@V?$xr_vector@PAVNvStripInfo@@V?$xalloc@PAVNvStripInfo@@@@@@V?$xalloc@V?$xr_vector@PAVNvStripInfo@@V?$xalloc@PAVNvStripInfo@@@@@@@@@std@@AAEXIABU_Value_init_tag@1@@Z$0
xdata$x	ENDS
;	COMDAT xdata$x
xdata$x	SEGMENT
__ehfuncinfo$??$_Resize_reallocate@U_Value_init_tag@std@@@?$vector@PAVNvEdgeInfo@@V?$xalloc@PAVNvEdgeInfo@@@@@std@@AAEXIABU_Value_init_tag@1@@Z DD 019930522H
	DD	02H
	DD	FLAT:__unwindtable$??$_Resize_reallocate@U_Value_init_tag@std@@@?$vector@PAVNvEdgeInfo@@V?$xalloc@PAVNvEdgeInfo@@@@@std@@AAEXIABU_Value_init_tag@1@@Z
	DD	01H
	DD	FLAT:__tryblocktable$??$_Resize_reallocate@U_Value_init_tag@std@@@?$vector@PAVNvEdgeInfo@@V?$xalloc@PAVNvEdgeInfo@@@@@std@@AAEXIABU_Value_init_tag@1@@Z
	DD	2 DUP(00H)
	DD	00H
	DD	00H
__unwindtable$??$_Resize_reallocate@U_Value_init_tag@std@@@?$vector@PAVNvEdgeInfo@@V?$xalloc@PAVNvEdgeInfo@@@@@std@@AAEXIABU_Value_init_tag@1@@Z DD 0ffffffffH
	DD	00H
	DD	0ffffffffH
	DD	00H
__tryblocktable$??$_Resize_reallocate@U_Value_init_tag@std@@@?$vector@PAVNvEdgeInfo@@V?$xalloc@PAVNvEdgeInfo@@@@@std@@AAEXIABU_Value_init_tag@1@@Z DD 00H
	DD	00H
	DD	01H
	DD	01H
	DD	FLAT:__catchsym$??$_Resize_reallocate@U_Value_init_tag@std@@@?$vector@PAVNvEdgeInfo@@V?$xalloc@PAVNvEdgeInfo@@@@@std@@AAEXIABU_Value_init_tag@1@@Z$2
__catchsym$??$_Resize_reallocate@U_Value_init_tag@std@@@?$vector@PAVNvEdgeInfo@@V?$xalloc@PAVNvEdgeInfo@@@@@std@@AAEXIABU_Value_init_tag@1@@Z$2 DD 00H
	DD	00H
	DD	00H
	DD	FLAT:__catch$??$_Resize_reallocate@U_Value_init_tag@std@@@?$vector@PAVNvEdgeInfo@@V?$xalloc@PAVNvEdgeInfo@@@@@std@@AAEXIABU_Value_init_tag@1@@Z$0
; Function compile flags: /Ogtpy
; File I:\Vitalya\mine\NSProjectX\layers\xrRender\NvTriStripObjects.cpp
; File C:\Program Files\Microsoft Visual Studio\2022\Community\VC\Tools\MSVC\14.29.30133\include\vector
; File I:\Vitalya\mine\NSProjectX\layers\xrRender\NvTriStripObjects.cpp
; File C:\Program Files\Microsoft Visual Studio\2022\Community\VC\Tools\MSVC\14.29.30133\include\vector
; File I:\Vitalya\mine\NSProjectX\layers\xrRender\NvTriStripObjects.cpp
; File C:\Program Files\Microsoft Visual Studio\2022\Community\VC\Tools\MSVC\14.29.30133\include\vector
; File I:\Vitalya\mine\NSProjectX\layers\xrRender\NvTriStripObjects.cpp
; File I:\Vitalya\mine\NSProjectX\layers\xrRender\NvTriStripObjects.h
; File I:\Vitalya\mine\NSProjectX\layers\xrRender\NvTriStripObjects.cpp
; File C:\Program Files\Microsoft Visual Studio\2022\Community\VC\Tools\MSVC\14.29.30133\include\vector
; File I:\Vitalya\mine\NSProjectX\layers\xrRender\NvTriStripObjects.cpp
; File C:\Program Files\Microsoft Visual Studio\2022\Community\VC\Tools\MSVC\14.29.30133\include\vector
; File I:\Vitalya\mine\NSProjectX\layers\xrRender\NvTriStripObjects.cpp
; File I:\Vitalya\mine\NSProjectX\layers\xrRender\NvTriStripObjects.h
; File I:\Vitalya\mine\NSProjectX\layers\xrRender\NvTriStripObjects.cpp
; File I:\Vitalya\mine\NSProjectX\layers\xrRender\NvTriStripObjects.h
; File I:\Vitalya\mine\NSProjectX\layers\xrRender\NvTriStripObjects.cpp
; File I:\Vitalya\mine\NSProjectX\layers\xrRender\NvTriStripObjects.h
; File I:\Vitalya\mine\NSProjectX\layers\xrRender\NvTriStripObjects.cpp
; File I:\Vitalya\mine\NSProjectX\layers\xrRender\NvTriStripObjects.h
; File I:\Vitalya\mine\NSProjectX\layers\xrRender\NvTriStripObjects.cpp
; File C:\Program Files\Microsoft Visual Studio\2022\Community\VC\Tools\MSVC\14.29.30133\include\vector
; File I:\Vitalya\mine\NSProjectX\layers\xrRender\NvTriStripObjects.cpp
; File C:\Program Files\Microsoft Visual Studio\2022\Community\VC\Tools\MSVC\14.29.30133\include\vector
; File I:\Vitalya\mine\NSProjectX\layers\xrRender\NvTriStripObjects.cpp
; File C:\Program Files\Microsoft Visual Studio\2022\Community\VC\Tools\MSVC\14.29.30133\include\vector
; File I:\Vitalya\mine\NSProjectX\layers\xrRender\NvTriStripObjects.cpp
; File C:\Program Files\Microsoft Visual Studio\2022\Community\VC\Tools\MSVC\14.29.30133\include\vector
; File I:\Vitalya\mine\NSProjectX\layers\xrRender\NvTriStripObjects.cpp
; File C:\Program Files\Microsoft Visual Studio\2022\Community\VC\Tools\MSVC\14.29.30133\include\vector
; File I:\Vitalya\mine\NSProjectX\layers\xrRender\NvTriStripObjects.cpp
; File C:\Program Files\Microsoft Visual Studio\2022\Community\VC\Tools\MSVC\14.29.30133\include\vector
; File I:\Vitalya\mine\NSProjectX\layers\xrRender\NvTriStripObjects.cpp
_TEXT	SEGMENT
$T1 = -81						; size = 1
_tLastFace$3$ = -80					; size = 4
_tLastFace$2$ = -76					; size = 4
_nUnique$2 = -76					; size = 4
_strip$1$ = -72						; size = 4
_nStripFaceCount$1$ = -68				; size = 4
_i$1$ = -64						; size = 4
tv1991 = -60						; size = 4
tv1985 = -60						; size = 4
tv1971 = -60						; size = 4
_j$1$ = -60						; size = 4
tv1982 = -56						; size = 4
_nStripCount$1$ = -52					; size = 4
_tFirstFace$3 = -48					; size = 24
_tLastFace$ = -24					; size = 24
_allStrips$ = 8						; size = 4
_stripIndices$ = 12					; size = 4
_bStitchStrips$dead$ = 16				; size = 1
_numSeparateStrips$ = 20				; size = 4
?CreateStrips@NvStripifier@@QAEXABV?$xr_vector@PAVNvStripInfo@@V?$xalloc@PAVNvStripInfo@@@@@@AAV?$xr_vector@HV?$xalloc@H@@@@_NAAI@Z PROC ; NvStripifier::CreateStrips
; _this$dead$ = ecx

; 771  : {

	push	ebp
	mov	ebp, esp
	and	esp, -8					; fffffff8H
	sub	esp, 84					; 00000054H
; File C:\Program Files\Microsoft Visual Studio\2022\Community\VC\Tools\MSVC\14.29.30133\include\vector

; 1536 :         return static_cast<size_type>(_My_data._Mylast - _My_data._Myfirst);

	mov	ecx, DWORD PTR _allStrips$[ebp]
; File I:\Vitalya\mine\NSProjectX\layers\xrRender\NvTriStripObjects.cpp

; 771  : {

	push	ebx
; File C:\Program Files\Microsoft Visual Studio\2022\Community\VC\Tools\MSVC\14.29.30133\include\vector

; 1535 :         auto& _My_data = _Mypair._Myval2;

	xor	ebx, ebx
; File I:\Vitalya\mine\NSProjectX\layers\xrRender\NvTriStripObjects.cpp

; 771  : {

	push	esi
; File C:\Program Files\Microsoft Visual Studio\2022\Community\VC\Tools\MSVC\14.29.30133\include\vector

; 1536 :         return static_cast<size_type>(_My_data._Mylast - _My_data._Myfirst);

	mov	eax, DWORD PTR [ecx+4]
	sub	eax, DWORD PTR [ecx]
	sar	eax, 2
	mov	DWORD PTR _nStripCount$1$[esp+92], eax
	mov	DWORD PTR _i$1$[esp+92], ebx
; File I:\Vitalya\mine\NSProjectX\layers\xrRender\NvTriStripObjects.cpp

; 771  : {

	push	edi

; 783  : 	for (int i = 0; i < nStripCount; i++)

	test	eax, eax
	jle	$LN303@CreateStri
	mov	edi, DWORD PTR _stripIndices$[ebp]
	dec	eax
	mov	DWORD PTR tv1982[esp+96], eax
$LL4@CreateStri:

; 785  : 		NvStripInfo *strip = allStrips[i];

	mov	eax, DWORD PTR [ecx]
; File I:\Vitalya\mine\NSProjectX\layers\xrRender\NvTriStripObjects.h

; 33   : 		m_stripId      = -1;

	mov	DWORD PTR _tFirstFace$3[esp+108], -1

; 34   : 		m_testStripId  = -1;

	mov	DWORD PTR _tFirstFace$3[esp+112], -1

; 35   : 		m_experimentId = -1;

	mov	DWORD PTR _tFirstFace$3[esp+116], -1
; File I:\Vitalya\mine\NSProjectX\layers\xrRender\NvTriStripObjects.cpp

; 785  : 		NvStripInfo *strip = allStrips[i];

	mov	ecx, DWORD PTR [eax+ebx*4]
	mov	DWORD PTR _strip$1$[esp+96], ecx
; File C:\Program Files\Microsoft Visual Studio\2022\Community\VC\Tools\MSVC\14.29.30133\include\vector

; 1536 :         return static_cast<size_type>(_My_data._Mylast - _My_data._Myfirst);

	mov	eax, DWORD PTR [ecx+12]
	mov	ecx, DWORD PTR [ecx+16]
	sub	ecx, eax
	sar	ecx, 2
; File I:\Vitalya\mine\NSProjectX\layers\xrRender\NvTriStripObjects.cpp

; 791  : 			NvFaceInfo tFirstFace(strip->m_faces[0]->m_v0, strip->m_faces[0]->m_v1, strip->m_faces[0]->m_v2);

	mov	eax, DWORD PTR [eax]
; File C:\Program Files\Microsoft Visual Studio\2022\Community\VC\Tools\MSVC\14.29.30133\include\vector

; 1536 :         return static_cast<size_type>(_My_data._Mylast - _My_data._Myfirst);

	mov	DWORD PTR _nStripFaceCount$1$[esp+96], ecx
; File I:\Vitalya\mine\NSProjectX\layers\xrRender\NvTriStripObjects.cpp

; 795  : 			if (nStripFaceCount > 1)

	cmp	DWORD PTR _nStripFaceCount$1$[esp+96], 1
; File I:\Vitalya\mine\NSProjectX\layers\xrRender\NvTriStripObjects.h

; 32   : 		m_v0 = v0; m_v1 = v1; m_v2 = v2;

	mov	edx, DWORD PTR [eax]
	mov	ecx, edx
	mov	esi, DWORD PTR [eax+8]
	mov	ebx, DWORD PTR [eax+4]
	mov	DWORD PTR _tLastFace$2$[esp+96], ecx
	mov	DWORD PTR _tFirstFace$3[esp+96], ecx
	mov	DWORD PTR _tFirstFace$3[esp+100], ebx
	mov	DWORD PTR _tLastFace$3$[esp+96], esi
	mov	DWORD PTR _tFirstFace$3[esp+104], esi
; File I:\Vitalya\mine\NSProjectX\layers\xrRender\NvTriStripObjects.cpp

; 795  : 			if (nStripFaceCount > 1)

	jle	$LN13@CreateStri

; 796  : 			{
; 797  : 				int nUnique = NvStripifier::GetUniqueVertexInB(strip->m_faces[1], &tFirstFace);

	mov	edi, DWORD PTR _strip$1$[esp+96]
	mov	eax, DWORD PTR [edi+12]

; 273  : 		facev0 != faceA->m_v1 &&

	mov	edi, DWORD PTR _stripIndices$[ebp]

; 796  : 			{
; 797  : 				int nUnique = NvStripifier::GetUniqueVertexInB(strip->m_faces[1], &tFirstFace);

	mov	eax, DWORD PTR [eax+4]

; 273  : 		facev0 != faceA->m_v1 &&

	cmp	edx, DWORD PTR [eax]
	je	SHORT $LN119@CreateStri
	cmp	edx, DWORD PTR [eax+4]
	je	SHORT $LN119@CreateStri
	cmp	edx, DWORD PTR [eax+8]
	je	SHORT $LN119@CreateStri

; 274  : 		facev0 != faceA->m_v2)
; 275  : 		return facev0;

	mov	eax, edx
	jmp	SHORT $LN118@CreateStri
$LN119@CreateStri:

; 278  : 	if (facev1 != faceA->m_v0 &&
; 279  : 		facev1 != faceA->m_v1 &&

	cmp	ebx, DWORD PTR [eax]
	je	SHORT $LN120@CreateStri
	cmp	ebx, DWORD PTR [eax+4]
	je	SHORT $LN120@CreateStri
	cmp	ebx, DWORD PTR [eax+8]
	je	SHORT $LN120@CreateStri

; 280  : 		facev1 != faceA->m_v2)
; 281  : 		return facev1;

	mov	eax, ebx
	jmp	SHORT $LN118@CreateStri
$LN120@CreateStri:

; 284  : 	if (facev2 != faceA->m_v0 &&
; 285  : 		facev2 != faceA->m_v1 &&

	cmp	esi, DWORD PTR [eax]
	je	SHORT $LN121@CreateStri
	cmp	esi, DWORD PTR [eax+4]
	je	SHORT $LN121@CreateStri
	cmp	esi, DWORD PTR [eax+8]
	je	SHORT $LN121@CreateStri

; 286  : 		facev2 != faceA->m_v2)
; 287  : 		return facev2;

	mov	eax, esi
	jmp	SHORT $LN118@CreateStri
$LN121@CreateStri:

; 288  : 	
; 289  : 	// nothing is different
; 290  : 	return -1;

	or	eax, -1
$LN118@CreateStri:

; 798  : 				if (nUnique == tFirstFace.m_v1)

	cmp	eax, ebx
	jne	SHORT $LN9@CreateStri
; File I:\Vitalya\mine\NSProjectX\layers\xrRender\NvTriStripObjects.h

; 113  : 	first = second;

	mov	ecx, ebx

; 114  : 	second = temp;

	mov	ebx, edx
	mov	DWORD PTR _tFirstFace$3[esp+100], ebx
; File I:\Vitalya\mine\NSProjectX\layers\xrRender\NvTriStripObjects.cpp

; 801  : 				}

	jmp	SHORT $LN310@CreateStri
$LN9@CreateStri:

; 802  : 				else if (nUnique == tFirstFace.m_v2)

	cmp	eax, esi
	jne	SHORT $LN11@CreateStri
; File I:\Vitalya\mine\NSProjectX\layers\xrRender\NvTriStripObjects.h

; 113  : 	first = second;

	mov	ecx, esi

; 114  : 	second = temp;

	mov	esi, edx
	mov	DWORD PTR _tLastFace$3$[esp+96], esi
	mov	DWORD PTR _tFirstFace$3[esp+104], esi
$LN310@CreateStri:
; File I:\Vitalya\mine\NSProjectX\layers\xrRender\NvTriStripObjects.cpp

; 809  : 				if (nStripFaceCount > 2)

	mov	DWORD PTR _tFirstFace$3[esp+96], ecx
	mov	DWORD PTR _tLastFace$2$[esp+96], ecx
$LN11@CreateStri:
	cmp	DWORD PTR _nStripFaceCount$1$[esp+96], 2
	jle	SHORT $LN13@CreateStri

; 810  : 				{
; 811  : 					int nShared = GetSharedVertex(strip->m_faces[2], &tFirstFace);

	mov	eax, DWORD PTR _strip$1$[esp+96]
	mov	eax, DWORD PTR [eax+12]
	mov	eax, DWORD PTR [eax+8]

; 303  : 		facev0 == faceA->m_v1 ||

	mov	edx, DWORD PTR [eax]
	mov	DWORD PTR tv1991[esp+96], edx
	cmp	ecx, edx
	je	SHORT $LN146@CreateStri
	mov	edx, DWORD PTR [eax+4]
	cmp	ecx, edx
	je	SHORT $LN146@CreateStri
	mov	eax, DWORD PTR [eax+8]
	cmp	ecx, eax
	je	SHORT $LN146@CreateStri

; 306  : 	
; 307  : 	int facev1 = faceB->m_v1;
; 308  : 	if (facev1 == faceA->m_v0 ||
; 309  : 		facev1 == faceA->m_v1 ||

	cmp	ebx, DWORD PTR tv1991[esp+96]
	je	SHORT $LN300@CreateStri
	cmp	ebx, edx
	je	SHORT $LN300@CreateStri
	cmp	ebx, eax
	je	SHORT $LN300@CreateStri

; 310  : 		facev1 == faceA->m_v2)
; 311  : 		return facev1;
; 312  : 	
; 313  : 	int facev2 = faceB->m_v2;
; 314  : 	if (facev2 == faceA->m_v0 ||
; 315  : 		facev2 == faceA->m_v1 ||

	cmp	esi, DWORD PTR tv1991[esp+96]
	je	SHORT $LN150@CreateStri
	cmp	esi, edx
	je	SHORT $LN150@CreateStri
	cmp	esi, eax
	je	SHORT $LN150@CreateStri

; 318  : 	
; 319  : 	// nothing is shared
; 320  : 	return -1;

	or	eax, -1
	jmp	SHORT $LN144@CreateStri
$LN150@CreateStri:

; 316  : 		facev2 == faceA->m_v2)
; 317  : 		return facev2;

	mov	eax, esi
	jmp	SHORT $LN144@CreateStri
$LN146@CreateStri:

; 304  : 		facev0 == faceA->m_v2)
; 305  : 		return facev0;

	mov	eax, ecx
$LN144@CreateStri:

; 812  : 					if (nShared == tFirstFace.m_v1)

	cmp	eax, ebx
	jne	SHORT $LN13@CreateStri
$LN300@CreateStri:
; File I:\Vitalya\mine\NSProjectX\layers\xrRender\NvTriStripObjects.h

; 112  : 	T temp = first;

	mov	eax, ebx

; 113  : 	first = second;

	mov	ebx, esi

; 114  : 	second = temp;

	mov	esi, eax
	mov	DWORD PTR _tFirstFace$3[esp+100], ebx
	mov	DWORD PTR _tLastFace$3$[esp+96], esi
	mov	DWORD PTR _tFirstFace$3[esp+104], esi
$LN13@CreateStri:
; File I:\Vitalya\mine\NSProjectX\layers\xrRender\NvTriStripObjects.cpp

; 819  : 			if( (i == 0) || !bStitchStrips)

	cmp	DWORD PTR _i$1$[esp+96], 0
	je	SHORT $LN157@CreateStri
; File C:\Program Files\Microsoft Visual Studio\2022\Community\VC\Tools\MSVC\14.29.30133\include\vector

; 730  :         if (_Mylast != _My_data._Myend) {

	mov	eax, DWORD PTR [edi+4]
	cmp	eax, DWORD PTR [edi+8]
	je	SHORT $LN187@CreateStri

; 713  :         _Alty_traits::construct(_Getal(), _Unfancy(_Mylast), _STD forward<_Valty>(_Val)...);

	mov	DWORD PTR [eax], ecx

; 714  :         _Orphan_range(_Mylast, _Mylast);
; 715  :         _Ty& _Result = *_Mylast;
; 716  :         ++_Mylast;

	add	DWORD PTR [edi+4], 4

; 731  :             return _Emplace_back_with_unused_capacity(_STD forward<_Valty>(_Val)...);

	jmp	SHORT $LN311@CreateStri
$LN187@CreateStri:

; 732  :         }
; 733  : 
; 734  :         _Ty& _Result = *_Emplace_reallocate(_Mylast, _STD forward<_Valty>(_Val)...);

	lea	ecx, DWORD PTR _tFirstFace$3[esp+96]
	push	ecx
	push	eax
	mov	ecx, edi
	call	??$_Emplace_reallocate@ABH@?$vector@HV?$xalloc@H@@@std@@QAEPAHQAHABH@Z ; std::vector<int,xalloc<int> >::_Emplace_reallocate<int const &>
	mov	ecx, DWORD PTR _tLastFace$2$[esp+96]
$LN311@CreateStri:

; 1463 :         return iterator(_My_data._Myfirst, _STD addressof(_My_data));

	mov	eax, DWORD PTR _strip$1$[esp+96]
	mov	edx, DWORD PTR [edi+4]
	mov	eax, DWORD PTR [eax+12]
; File I:\Vitalya\mine\NSProjectX\layers\xrRender\NvTriStripObjects.cpp

; 830  : 				if (NextIsCW(stripIndices.size() - accountForNegatives) != IsCW(strip->m_faces[0], tFirstFace.m_v0, tFirstFace.m_v1))

	mov	eax, DWORD PTR [eax]

; 754  : 	if (faceInfo->m_v0 == v0)

	mov	esi, DWORD PTR [eax+4]
	mov	DWORD PTR tv1971[esp+96], esi
	mov	esi, DWORD PTR [eax]
	cmp	esi, ecx
	jne	SHORT $LN215@CreateStri

; 755  : 		return (faceInfo->m_v1 == v1);

	cmp	DWORD PTR tv1971[esp+96], ebx
	jmp	SHORT $LN312@CreateStri
$LN215@CreateStri:

; 756  : 	
; 757  : 	else if (faceInfo->m_v1 == v0)

	cmp	DWORD PTR [eax+4], ecx
	jne	SHORT $LN217@CreateStri

; 758  : 		return (faceInfo->m_v2 == v1);

	cmp	DWORD PTR [eax+8], ebx
	jmp	SHORT $LN312@CreateStri
$LN217@CreateStri:

; 759  : 	
; 760  : 	else 
; 761  : 		return (faceInfo->m_v0 == v1);

	cmp	esi, ebx
$LN312@CreateStri:

; 830  : 				if (NextIsCW(stripIndices.size() - accountForNegatives) != IsCW(strip->m_faces[0], tFirstFace.m_v0, tFirstFace.m_v1))

	mov	esi, DWORD PTR _tLastFace$3$[esp+96]
; File C:\Program Files\Microsoft Visual Studio\2022\Community\VC\Tools\MSVC\14.29.30133\include\vector

; 1536 :         return static_cast<size_type>(_My_data._Mylast - _My_data._Myfirst);

	sete	BYTE PTR $T1[esp+96]
	mov	eax, edx
	sub	eax, DWORD PTR [edi]
	sar	eax, 2
; File I:\Vitalya\mine\NSProjectX\layers\xrRender\NvTriStripObjects.cpp

; 830  : 				if (NextIsCW(stripIndices.size() - accountForNegatives) != IsCW(strip->m_faces[0], tFirstFace.m_v0, tFirstFace.m_v1))

	not	al

; 743  : 	return ((numIndices % 2) == 0);

	and	al, 1

; 830  : 				if (NextIsCW(stripIndices.size() - accountForNegatives) != IsCW(strip->m_faces[0], tFirstFace.m_v0, tFirstFace.m_v1))

	cmp	al, BYTE PTR $T1[esp+96]
	je	SHORT $LN179@CreateStri
; File C:\Program Files\Microsoft Visual Studio\2022\Community\VC\Tools\MSVC\14.29.30133\include\vector

; 730  :         if (_Mylast != _My_data._Myend) {

	cmp	edx, DWORD PTR [edi+8]
	je	SHORT $LN223@CreateStri

; 713  :         _Alty_traits::construct(_Getal(), _Unfancy(_Mylast), _STD forward<_Valty>(_Val)...);

	mov	DWORD PTR [edx], ecx

; 714  :         _Orphan_range(_Mylast, _Mylast);
; 715  :         _Ty& _Result = *_Mylast;
; 716  :         ++_Mylast;

	add	DWORD PTR [edi+4], 4

; 731  :             return _Emplace_back_with_unused_capacity(_STD forward<_Valty>(_Val)...);

	jmp	SHORT $LN179@CreateStri
$LN223@CreateStri:

; 732  :         }
; 733  : 
; 734  :         _Ty& _Result = *_Emplace_reallocate(_Mylast, _STD forward<_Valty>(_Val)...);

	lea	eax, DWORD PTR _tFirstFace$3[esp+96]
	push	eax
	push	edx
	jmp	SHORT $LN313@CreateStri
$LN157@CreateStri:

; 1463 :         return iterator(_My_data._Myfirst, _STD addressof(_My_data));

	mov	eax, DWORD PTR _strip$1$[esp+96]
	mov	eax, DWORD PTR [eax+12]
; File I:\Vitalya\mine\NSProjectX\layers\xrRender\NvTriStripObjects.cpp

; 821  : 				if(!IsCW(strip->m_faces[0], tFirstFace.m_v0, tFirstFace.m_v1))

	mov	eax, DWORD PTR [eax]

; 754  : 	if (faceInfo->m_v0 == v0)

	mov	edx, DWORD PTR [eax]
	mov	DWORD PTR tv1985[esp+96], edx
	mov	edx, DWORD PTR [eax+4]
	cmp	DWORD PTR [eax], ecx
	jne	SHORT $LN172@CreateStri

; 755  : 		return (faceInfo->m_v1 == v1);

	cmp	edx, ebx
	jmp	SHORT $LN314@CreateStri
$LN172@CreateStri:

; 756  : 	
; 757  : 	else if (faceInfo->m_v1 == v0)

	cmp	edx, ecx
	jne	SHORT $LN174@CreateStri

; 758  : 		return (faceInfo->m_v2 == v1);

	cmp	DWORD PTR [eax+8], ebx
	jmp	SHORT $LN314@CreateStri
$LN174@CreateStri:

; 759  : 	
; 760  : 	else 
; 761  : 		return (faceInfo->m_v0 == v1);

	cmp	DWORD PTR tv1985[esp+96], ebx
$LN314@CreateStri:

; 821  : 				if(!IsCW(strip->m_faces[0], tFirstFace.m_v0, tFirstFace.m_v1))

	sete	al
	test	al, al
	jne	SHORT $LN179@CreateStri
; File C:\Program Files\Microsoft Visual Studio\2022\Community\VC\Tools\MSVC\14.29.30133\include\vector

; 730  :         if (_Mylast != _My_data._Myend) {

	mov	eax, DWORD PTR [edi+4]
	cmp	eax, DWORD PTR [edi+8]
	je	SHORT $LN180@CreateStri

; 713  :         _Alty_traits::construct(_Getal(), _Unfancy(_Mylast), _STD forward<_Valty>(_Val)...);

	mov	DWORD PTR [eax], ecx

; 714  :         _Orphan_range(_Mylast, _Mylast);
; 715  :         _Ty& _Result = *_Mylast;
; 716  :         ++_Mylast;

	add	DWORD PTR [edi+4], 4

; 731  :             return _Emplace_back_with_unused_capacity(_STD forward<_Valty>(_Val)...);

	jmp	SHORT $LN179@CreateStri
$LN180@CreateStri:

; 732  :         }
; 733  : 
; 734  :         _Ty& _Result = *_Emplace_reallocate(_Mylast, _STD forward<_Valty>(_Val)...);

	lea	ecx, DWORD PTR _tFirstFace$3[esp+96]
	push	ecx
	push	eax
$LN313@CreateStri:

; 730  :         if (_Mylast != _My_data._Myend) {

	mov	ecx, edi
	call	??$_Emplace_reallocate@ABH@?$vector@HV?$xalloc@H@@@std@@QAEPAHQAHABH@Z ; std::vector<int,xalloc<int> >::_Emplace_reallocate<int const &>
	mov	ecx, DWORD PTR _tLastFace$2$[esp+96]
$LN179@CreateStri:
	mov	eax, DWORD PTR [edi+4]
	cmp	eax, DWORD PTR [edi+8]
	je	SHORT $LN230@CreateStri

; 713  :         _Alty_traits::construct(_Getal(), _Unfancy(_Mylast), _STD forward<_Valty>(_Val)...);

	mov	DWORD PTR [eax], ecx

; 714  :         _Orphan_range(_Mylast, _Mylast);
; 715  :         _Ty& _Result = *_Mylast;
; 716  :         ++_Mylast;

	add	DWORD PTR [edi+4], 4

; 731  :             return _Emplace_back_with_unused_capacity(_STD forward<_Valty>(_Val)...);

	jmp	SHORT $LN315@CreateStri
$LN230@CreateStri:

; 732  :         }
; 733  : 
; 734  :         _Ty& _Result = *_Emplace_reallocate(_Mylast, _STD forward<_Valty>(_Val)...);

	lea	ecx, DWORD PTR _tFirstFace$3[esp+96]
	push	ecx
	push	eax
	mov	ecx, edi
	call	??$_Emplace_reallocate@ABH@?$vector@HV?$xalloc@H@@@std@@QAEPAHQAHABH@Z ; std::vector<int,xalloc<int> >::_Emplace_reallocate<int const &>
$LN315@CreateStri:

; 730  :         if (_Mylast != _My_data._Myend) {

	mov	eax, DWORD PTR [edi+4]
	cmp	eax, DWORD PTR [edi+8]
	je	SHORT $LN237@CreateStri

; 713  :         _Alty_traits::construct(_Getal(), _Unfancy(_Mylast), _STD forward<_Valty>(_Val)...);

	mov	DWORD PTR [eax], ebx

; 714  :         _Orphan_range(_Mylast, _Mylast);
; 715  :         _Ty& _Result = *_Mylast;
; 716  :         ++_Mylast;

	add	DWORD PTR [edi+4], 4

; 731  :             return _Emplace_back_with_unused_capacity(_STD forward<_Valty>(_Val)...);

	jmp	SHORT $LN316@CreateStri
$LN237@CreateStri:

; 732  :         }
; 733  : 
; 734  :         _Ty& _Result = *_Emplace_reallocate(_Mylast, _STD forward<_Valty>(_Val)...);

	lea	ecx, DWORD PTR _tFirstFace$3[esp+100]
	push	ecx
	push	eax
	mov	ecx, edi
	call	??$_Emplace_reallocate@ABH@?$vector@HV?$xalloc@H@@@std@@QAEPAHQAHABH@Z ; std::vector<int,xalloc<int> >::_Emplace_reallocate<int const &>
$LN316@CreateStri:

; 730  :         if (_Mylast != _My_data._Myend) {

	mov	eax, DWORD PTR [edi+4]
	cmp	eax, DWORD PTR [edi+8]
	je	SHORT $LN244@CreateStri

; 713  :         _Alty_traits::construct(_Getal(), _Unfancy(_Mylast), _STD forward<_Valty>(_Val)...);

	mov	DWORD PTR [eax], esi

; 714  :         _Orphan_range(_Mylast, _Mylast);
; 715  :         _Ty& _Result = *_Mylast;
; 716  :         ++_Mylast;

	add	DWORD PTR [edi+4], 4

; 731  :             return _Emplace_back_with_unused_capacity(_STD forward<_Valty>(_Val)...);

	jmp	SHORT $LN243@CreateStri
$LN244@CreateStri:

; 732  :         }
; 733  : 
; 734  :         _Ty& _Result = *_Emplace_reallocate(_Mylast, _STD forward<_Valty>(_Val)...);

	lea	ecx, DWORD PTR _tFirstFace$3[esp+104]
	push	ecx
	push	eax
	mov	ecx, edi
	call	??$_Emplace_reallocate@ABH@?$vector@HV?$xalloc@H@@@std@@QAEPAHQAHABH@Z ; std::vector<int,xalloc<int> >::_Emplace_reallocate<int const &>
$LN243@CreateStri:
; File I:\Vitalya\mine\NSProjectX\layers\xrRender\NvTriStripObjects.cpp

; 841  : 			tLastFace = tFirstFace;

	mov	ecx, DWORD PTR _tLastFace$2$[esp+96]
	mov	edx, 1
	mov	DWORD PTR _tLastFace$[esp+96], ecx
	mov	DWORD PTR _tLastFace$[esp+100], ebx
	mov	DWORD PTR _tLastFace$[esp+104], esi
	mov	DWORD PTR _tLastFace$[esp+108], -1
	mov	DWORD PTR _tLastFace$[esp+112], -1
	mov	DWORD PTR _tLastFace$[esp+116], -1
	mov	DWORD PTR _j$1$[esp+96], edx

; 842  : 		}
; 843  : 
; 844  : 		for (int j = 1; j < nStripFaceCount; j++)

	cmp	DWORD PTR _nStripFaceCount$1$[esp+96], edx
	jle	$LN302@CreateStri
$LL7@CreateStri:

; 845  : 		{
; 846  : 			int nUnique = GetUniqueVertexInB(&tLastFace, strip->m_faces[j]);

	mov	eax, DWORD PTR _strip$1$[esp+96]
	mov	eax, DWORD PTR [eax+12]
	mov	edx, DWORD PTR [eax+edx*4]

; 273  : 		facev0 != faceA->m_v1 &&

	mov	eax, DWORD PTR _tLastFace$3$[esp+96]
	mov	esi, DWORD PTR [edx]
	cmp	esi, ecx
	je	SHORT $LN266@CreateStri
	cmp	esi, ebx
	je	SHORT $LN266@CreateStri
	cmp	esi, eax
	jne	SHORT $LN265@CreateStri
$LN266@CreateStri:

; 276  : 	
; 277  : 	int facev1 = faceB->m_v1;

	mov	esi, DWORD PTR [edx+4]

; 278  : 	if (facev1 != faceA->m_v0 &&
; 279  : 		facev1 != faceA->m_v1 &&

	cmp	esi, ecx
	je	SHORT $LN267@CreateStri
	cmp	esi, ebx
	je	SHORT $LN267@CreateStri
	cmp	esi, eax
	jne	SHORT $LN265@CreateStri
$LN267@CreateStri:

; 282  : 	
; 283  : 	int facev2 = faceB->m_v2;

	mov	esi, DWORD PTR [edx+8]

; 284  : 	if (facev2 != faceA->m_v0 &&
; 285  : 		facev2 != faceA->m_v1 &&

	cmp	esi, ecx
	je	SHORT $LN309@CreateStri
	cmp	esi, ebx
	je	SHORT $LN309@CreateStri
	cmp	esi, eax
	je	SHORT $LN309@CreateStri
$LN265@CreateStri:

; 845  : 		{
; 846  : 			int nUnique = GetUniqueVertexInB(&tLastFace, strip->m_faces[j]);

	mov	DWORD PTR _nUnique$2[esp+96], esi
	cmp	esi, -1

; 847  : 			if (nUnique != -1)

	je	SHORT $LN309@CreateStri
; File C:\Program Files\Microsoft Visual Studio\2022\Community\VC\Tools\MSVC\14.29.30133\include\vector

; 730  :         if (_Mylast != _My_data._Myend) {

	mov	ecx, DWORD PTR [edi+4]
	cmp	ecx, DWORD PTR [edi+8]
	je	SHORT $LN273@CreateStri

; 713  :         _Alty_traits::construct(_Getal(), _Unfancy(_Mylast), _STD forward<_Valty>(_Val)...);

	mov	DWORD PTR [ecx], esi

; 714  :         _Orphan_range(_Mylast, _Mylast);
; 715  :         _Ty& _Result = *_Mylast;
; 716  :         ++_Mylast;

	add	DWORD PTR [edi+4], 4

; 731  :             return _Emplace_back_with_unused_capacity(_STD forward<_Valty>(_Val)...);

	jmp	SHORT $LN272@CreateStri
$LN273@CreateStri:

; 732  :         }
; 733  : 
; 734  :         _Ty& _Result = *_Emplace_reallocate(_Mylast, _STD forward<_Valty>(_Val)...);

	lea	eax, DWORD PTR _nUnique$2[esp+96]
	push	eax
	push	ecx
	mov	ecx, edi
	call	??$_Emplace_reallocate@ABH@?$vector@HV?$xalloc@H@@@std@@QAEPAHQAHABH@Z ; std::vector<int,xalloc<int> >::_Emplace_reallocate<int const &>
	mov	eax, DWORD PTR _tLastFace$3$[esp+96]
$LN272@CreateStri:
; File I:\Vitalya\mine\NSProjectX\layers\xrRender\NvTriStripObjects.cpp

; 852  : 				tLastFace.m_v0 = tLastFace.m_v1;

	mov	ecx, ebx

; 853  : 				tLastFace.m_v1 = tLastFace.m_v2;
; 854  : 				tLastFace.m_v2 = nUnique;

	mov	DWORD PTR _tLastFace$3$[esp+96], esi
	mov	ebx, eax
	mov	DWORD PTR _tLastFace$[esp+96], ecx
	mov	DWORD PTR _tLastFace$[esp+100], ebx
	mov	DWORD PTR _tLastFace$[esp+104], esi

; 285  : 		facev2 != faceA->m_v1 &&

	jmp	SHORT $LN5@CreateStri
$LN309@CreateStri:

; 842  : 		}
; 843  : 
; 844  : 		for (int j = 1; j < nStripFaceCount; j++)

	mov	esi, DWORD PTR _tLastFace$3$[esp+96]
$LN5@CreateStri:
	mov	edx, DWORD PTR _j$1$[esp+96]
	inc	edx
	mov	DWORD PTR _j$1$[esp+96], edx
	cmp	edx, DWORD PTR _nStripFaceCount$1$[esp+96]
	jl	$LL7@CreateStri
$LN302@CreateStri:

; 855  : 			}
; 856  : 		}
; 857  : 
; 858  : 		// Double tap between strips.
; 859  : 		if(bStitchStrips)
; 860  : 		{
; 861  : 			if(i != nStripCount - 1)

	mov	ebx, DWORD PTR _i$1$[esp+96]
	cmp	ebx, DWORD PTR tv1982[esp+96]
	je	SHORT $LN279@CreateStri
; File C:\Program Files\Microsoft Visual Studio\2022\Community\VC\Tools\MSVC\14.29.30133\include\vector

; 730  :         if (_Mylast != _My_data._Myend) {

	mov	eax, DWORD PTR [edi+4]
	cmp	eax, DWORD PTR [edi+8]
	je	SHORT $LN280@CreateStri

; 713  :         _Alty_traits::construct(_Getal(), _Unfancy(_Mylast), _STD forward<_Valty>(_Val)...);

	mov	DWORD PTR [eax], esi

; 714  :         _Orphan_range(_Mylast, _Mylast);
; 715  :         _Ty& _Result = *_Mylast;
; 716  :         ++_Mylast;

	add	DWORD PTR [edi+4], 4

; 731  :             return _Emplace_back_with_unused_capacity(_STD forward<_Valty>(_Val)...);

	jmp	SHORT $LN279@CreateStri
$LN280@CreateStri:

; 732  :         }
; 733  : 
; 734  :         _Ty& _Result = *_Emplace_reallocate(_Mylast, _STD forward<_Valty>(_Val)...);

	lea	ecx, DWORD PTR _tLastFace$[esp+104]
	push	ecx
	push	eax
	mov	ecx, edi
	call	??$_Emplace_reallocate@ABH@?$vector@HV?$xalloc@H@@@std@@QAEPAHQAHABH@Z ; std::vector<int,xalloc<int> >::_Emplace_reallocate<int const &>
$LN279@CreateStri:
; File I:\Vitalya\mine\NSProjectX\layers\xrRender\NvTriStripObjects.cpp

; 783  : 	for (int i = 0; i < nStripCount; i++)

	mov	ecx, DWORD PTR _allStrips$[ebp]
	inc	ebx
	mov	DWORD PTR _i$1$[esp+96], ebx
	cmp	ebx, DWORD PTR _nStripCount$1$[esp+96]
	jl	$LL4@CreateStri
$LN303@CreateStri:

; 862  : 				stripIndices.push_back(tLastFace.m_v2);
; 863  : 		}
; 864  : 		else
; 865  : 		{
; 866  : 			//-1 index indicates next strip
; 867  : 			stripIndices.push_back(-1);
; 868  : 			accountForNegatives++;
; 869  : 			numSeparateStrips++;
; 870  : 		}
; 871  : 
; 872  : 		// Update last face info
; 873  : 		tLastFace.m_v0 = tLastFace.m_v1;
; 874  : 		tLastFace.m_v1 = tLastFace.m_v2;
; 875  : 		tLastFace.m_v2 = tLastFace.m_v2;
; 876  : 	}
; 877  : 	
; 878  : 	if(bStitchStrips)
; 879  : 		numSeparateStrips = 1;
; 880  : }

	mov	eax, DWORD PTR _numSeparateStrips$[ebp]
	pop	edi
	pop	esi
	pop	ebx
	mov	DWORD PTR [eax], 1
	mov	esp, ebp
	pop	ebp
	ret	16					; 00000010H
?CreateStrips@NvStripifier@@QAEXABV?$xr_vector@PAVNvStripInfo@@V?$xalloc@PAVNvStripInfo@@@@@@AAV?$xr_vector@HV?$xalloc@H@@@@_NAAI@Z ENDP ; NvStripifier::CreateStrips
_TEXT	ENDS
; Function compile flags: /Ogtpy
; File I:\Vitalya\mine\NSProjectX\layers\xrRender\NvTriStripObjects.cpp
; File I:\Vitalya\mine\NSProjectX\xrCore\_std_extensions.h
; File I:\Vitalya\mine\NSProjectX\layers\xrRender\NvTriStripObjects.cpp
; File I:\Vitalya\mine\NSProjectX\xrCore\_std_extensions.h
; File I:\Vitalya\mine\NSProjectX\layers\xrRender\NvTriStripObjects.cpp
; File I:\Vitalya\mine\NSProjectX\xrCore\_std_extensions.h
; File I:\Vitalya\mine\NSProjectX\layers\xrRender\NvTriStripObjects.cpp
; File C:\Program Files\Microsoft Visual Studio\2022\Community\VC\Tools\MSVC\14.29.30133\include\vector
; File I:\Vitalya\mine\NSProjectX\layers\xrRender\NvTriStripObjects.cpp
; File C:\Program Files\Microsoft Visual Studio\2022\Community\VC\Tools\MSVC\14.29.30133\include\vector
; File I:\Vitalya\mine\NSProjectX\layers\xrRender\NvTriStripObjects.cpp
; File C:\Program Files\Microsoft Visual Studio\2022\Community\VC\Tools\MSVC\14.29.30133\include\vector
; File I:\Vitalya\mine\NSProjectX\layers\xrRender\NvTriStripObjects.cpp
; File C:\Program Files\Microsoft Visual Studio\2022\Community\VC\Tools\MSVC\14.29.30133\include\vector
; File I:\Vitalya\mine\NSProjectX\layers\xrRender\NvTriStripObjects.cpp
; File C:\Program Files\Microsoft Visual Studio\2022\Community\VC\Tools\MSVC\14.29.30133\include\vector
; File I:\Vitalya\mine\NSProjectX\layers\xrRender\NvTriStripObjects.cpp
; File C:\Program Files\Microsoft Visual Studio\2022\Community\VC\Tools\MSVC\14.29.30133\include\vector
; File I:\Vitalya\mine\NSProjectX\layers\xrRender\NvTriStripObjects.cpp
; File C:\Program Files\Microsoft Visual Studio\2022\Community\VC\Tools\MSVC\14.29.30133\include\vector
; File I:\Vitalya\mine\NSProjectX\layers\xrRender\NvTriStripObjects.cpp
; File C:\Program Files\Microsoft Visual Studio\2022\Community\VC\Tools\MSVC\14.29.30133\include\vector
; File I:\Vitalya\mine\NSProjectX\layers\xrRender\NvTriStripObjects.cpp
; File C:\Program Files\Microsoft Visual Studio\2022\Community\VC\Tools\MSVC\14.29.30133\include\vector
; File I:\Vitalya\mine\NSProjectX\layers\xrRender\NvTriStripObjects.cpp
; File C:\Program Files\Microsoft Visual Studio\2022\Community\VC\Tools\MSVC\14.29.30133\include\vector
; File I:\Vitalya\mine\NSProjectX\layers\xrRender\NvTriStripObjects.cpp
; File C:\Program Files\Microsoft Visual Studio\2022\Community\VC\Tools\MSVC\14.29.30133\include\vector
; File I:\Vitalya\mine\NSProjectX\layers\xrRender\NvTriStripObjects.cpp
; File I:\Vitalya\mine\NSProjectX\xrCore\xrMemory_subst_msvc.h
; File C:\Program Files\Microsoft Visual Studio\2022\Community\VC\Tools\MSVC\14.29.30133\include\vector
; File I:\Vitalya\mine\NSProjectX\xrCore\xrMemory.h
; File C:\Program Files\Microsoft Visual Studio\2022\Community\VC\Tools\MSVC\14.29.30133\include\vector
; File I:\Vitalya\mine\NSProjectX\xrCore\xrMemory_subst_msvc.h
; File I:\Vitalya\mine\NSProjectX\layers\xrRender\NvTriStripObjects.cpp
; File C:\Program Files\Microsoft Visual Studio\2022\Community\VC\Tools\MSVC\14.29.30133\include\vector
; File I:\Vitalya\mine\NSProjectX\layers\xrRender\NvTriStripObjects.cpp
; File C:\Program Files\Microsoft Visual Studio\2022\Community\VC\Tools\MSVC\14.29.30133\include\vector
; File I:\Vitalya\mine\NSProjectX\layers\xrRender\NvTriStripObjects.cpp
; File I:\Vitalya\mine\NSProjectX\layers\xrRender\NvTriStripObjects.h
; File I:\Vitalya\mine\NSProjectX\layers\xrRender\NvTriStripObjects.cpp
; File C:\Program Files\Microsoft Visual Studio\2022\Community\VC\Tools\MSVC\14.29.30133\include\vector
; File I:\Vitalya\mine\NSProjectX\layers\xrRender\NvTriStripObjects.cpp
; File C:\Program Files\Microsoft Visual Studio\2022\Community\VC\Tools\MSVC\14.29.30133\include\vector
; File I:\Vitalya\mine\NSProjectX\layers\xrRender\NvTriStripObjects.cpp
; File C:\Program Files\Microsoft Visual Studio\2022\Community\VC\Tools\MSVC\14.29.30133\include\vector
; File I:\Vitalya\mine\NSProjectX\xrCore\xrMemory.h
; File C:\Program Files\Microsoft Visual Studio\2022\Community\VC\Tools\MSVC\14.29.30133\include\vector
; File I:\Vitalya\mine\NSProjectX\xrCore\xrMemory.h
; File C:\Program Files\Microsoft Visual Studio\2022\Community\VC\Tools\MSVC\14.29.30133\include\vector
; File I:\Vitalya\mine\NSProjectX\xrCore\xrMemory.h
; File I:\Vitalya\mine\NSProjectX\layers\xrRender\NvTriStripObjects.cpp
_TEXT	SEGMENT
_allEdgeInfos$ = -36					; size = 12
_allStrips$ = -24					; size = 12
_allFaceInfos$ = -12					; size = 12
tv814 = 8						; size = 4
_in_indices$ = 8					; size = 4
_in_cacheSize$dead$ = 12				; size = 4
_in_minStripLength$dead$ = 16				; size = 4
_outStrips$ = 20					; size = 4
_outFaceList$ = 24					; size = 4
?Stripify@NvStripifier@@QAEXABV?$xr_vector@GV?$xalloc@G@@@@HHAAV?$xr_vector@PAVNvStripInfo@@V?$xalloc@PAVNvStripInfo@@@@@@AAV?$xr_vector@PAVNvFaceInfo@@V?$xalloc@PAVNvFaceInfo@@@@@@@Z PROC ; NvStripifier::Stripify
; _this$ = ecx

; 892  : {

	sub	esp, 36					; 00000024H
; File I:\Vitalya\mine\NSProjectX\xrCore\_std_extensions.h

; 159  : IC s32		_max	(s32 x, s32 y)	{ return x - ((x - y) & ((x - y) >> (sizeof(s32) * 8 - 1))); };

	mov	eax, 7
	sub	eax, DWORD PTR ?cacheSize@@3IA
	mov	edx, eax
	sar	edx, 31					; 0000001fH
; File I:\Vitalya\mine\NSProjectX\layers\xrRender\NvTriStripObjects.cpp

; 892  : {

	push	ebx
	push	ebp
; File I:\Vitalya\mine\NSProjectX\xrCore\_std_extensions.h

; 159  : IC s32		_max	(s32 x, s32 y)	{ return x - ((x - y) & ((x - y) >> (sizeof(s32) * 8 - 1))); };

	and	edx, eax
	mov	eax, 1
; File I:\Vitalya\mine\NSProjectX\layers\xrRender\NvTriStripObjects.cpp

; 892  : {

	push	esi
	mov	esi, ecx
; File I:\Vitalya\mine\NSProjectX\xrCore\_std_extensions.h

; 159  : IC s32		_max	(s32 x, s32 y)	{ return x - ((x - y) & ((x - y) >> (sizeof(s32) * 8 - 1))); };

	sub	eax, edx
; File I:\Vitalya\mine\NSProjectX\layers\xrRender\NvTriStripObjects.cpp

; 892  : {

	push	edi

; 895  : 
; 896  : 	//the number of times to run the experiments
; 897  : 	int numSamples = 10;
; 898  : 	
; 899  : 	//the cache size, clamped to one
; 900  : 	cacheSize = _max	(1, in_cacheSize - CACHE_INEFFICIENCY);

	mov	DWORD PTR [esi+12], eax

; 901  : 	
; 902  : 	minStripLength = in_minStripLength;  //this is the strip size threshold below which we dump the strip into a list

	mov	eax, DWORD PTR ?minStripSize@@3IA
	mov	DWORD PTR [esi+16], eax
; File C:\Program Files\Microsoft Visual Studio\2022\Community\VC\Tools\MSVC\14.29.30133\include\vector

; 1202 :         if (this != _STD addressof(_Right)) {

	mov	eax, DWORD PTR _in_indices$[esp+48]
; File I:\Vitalya\mine\NSProjectX\layers\xrRender\NvTriStripObjects.cpp

; 893  : 	meshJump = 0.0f;

	mov	DWORD PTR [esi+20], 0

; 894  : 	bFirstTimeResetPoint = true; //used in FindGoodResetPoint()

	mov	BYTE PTR [esi+24], 1
; File C:\Program Files\Microsoft Visual Studio\2022\Community\VC\Tools\MSVC\14.29.30133\include\vector

; 1202 :         if (this != _STD addressof(_Right)) {

	cmp	esi, eax
	je	SHORT $LN18@Stripify

; 1187 :         assign(_Right_data._Myfirst, _Right_data._Mylast);

	push	DWORD PTR [eax+4]
	push	DWORD PTR [eax]
	call	??$assign@PAG$0A@@?$vector@GV?$xalloc@G@@@std@@QAEXPAG0@Z ; std::vector<unsigned short,xalloc<unsigned short> >::assign<unsigned short *,0>
$LN18@Stripify:
; File I:\Vitalya\mine\NSProjectX\layers\xrRender\NvTriStripObjects.cpp

; 910  : 	BuildStripifyInfo(allFaceInfos, allEdgeInfos);

	lea	eax, DWORD PTR _allEdgeInfos$[esp+52]
; File C:\Program Files\Microsoft Visual Studio\2022\Community\VC\Tools\MSVC\14.29.30133\include\vector

; 390  :     _CONSTEXPR20_CONTAINER _Vector_val() noexcept : _Myfirst(), _Mylast(), _Myend() {}

	mov	DWORD PTR _allFaceInfos$[esp+52], 0
; File I:\Vitalya\mine\NSProjectX\layers\xrRender\NvTriStripObjects.cpp

; 910  : 	BuildStripifyInfo(allFaceInfos, allEdgeInfos);

	push	eax
	lea	eax, DWORD PTR _allFaceInfos$[esp+56]
; File C:\Program Files\Microsoft Visual Studio\2022\Community\VC\Tools\MSVC\14.29.30133\include\vector

; 390  :     _CONSTEXPR20_CONTAINER _Vector_val() noexcept : _Myfirst(), _Mylast(), _Myend() {}

	mov	DWORD PTR _allFaceInfos$[esp+60], 0
; File I:\Vitalya\mine\NSProjectX\layers\xrRender\NvTriStripObjects.cpp

; 910  : 	BuildStripifyInfo(allFaceInfos, allEdgeInfos);

	push	eax
	mov	ecx, esi
; File C:\Program Files\Microsoft Visual Studio\2022\Community\VC\Tools\MSVC\14.29.30133\include\vector

; 390  :     _CONSTEXPR20_CONTAINER _Vector_val() noexcept : _Myfirst(), _Mylast(), _Myend() {}

	mov	DWORD PTR _allFaceInfos$[esp+68], 0
	mov	DWORD PTR _allEdgeInfos$[esp+60], 0
	mov	DWORD PTR _allEdgeInfos$[esp+64], 0
	mov	DWORD PTR _allEdgeInfos$[esp+68], 0
; File I:\Vitalya\mine\NSProjectX\layers\xrRender\NvTriStripObjects.cpp

; 910  : 	BuildStripifyInfo(allFaceInfos, allEdgeInfos);

	call	?BuildStripifyInfo@NvStripifier@@IAEXAAV?$xr_vector@PAVNvFaceInfo@@V?$xalloc@PAVNvFaceInfo@@@@@@AAV?$xr_vector@PAVNvEdgeInfo@@V?$xalloc@PAVNvEdgeInfo@@@@@@@Z ; NvStripifier::BuildStripifyInfo

; 915  : 	FindAllStrips(allStrips, allFaceInfos, allEdgeInfos, numSamples);

	push	ecx
	lea	eax, DWORD PTR _allEdgeInfos$[esp+56]
; File C:\Program Files\Microsoft Visual Studio\2022\Community\VC\Tools\MSVC\14.29.30133\include\vector

; 390  :     _CONSTEXPR20_CONTAINER _Vector_val() noexcept : _Myfirst(), _Mylast(), _Myend() {}

	mov	DWORD PTR _allStrips$[esp+56], 0
; File I:\Vitalya\mine\NSProjectX\layers\xrRender\NvTriStripObjects.cpp

; 915  : 	FindAllStrips(allStrips, allFaceInfos, allEdgeInfos, numSamples);

	push	eax
	lea	eax, DWORD PTR _allFaceInfos$[esp+60]
; File C:\Program Files\Microsoft Visual Studio\2022\Community\VC\Tools\MSVC\14.29.30133\include\vector

; 390  :     _CONSTEXPR20_CONTAINER _Vector_val() noexcept : _Myfirst(), _Mylast(), _Myend() {}

	mov	DWORD PTR _allStrips$[esp+64], 0
; File I:\Vitalya\mine\NSProjectX\layers\xrRender\NvTriStripObjects.cpp

; 915  : 	FindAllStrips(allStrips, allFaceInfos, allEdgeInfos, numSamples);

	push	eax
	lea	eax, DWORD PTR _allStrips$[esp+64]
; File C:\Program Files\Microsoft Visual Studio\2022\Community\VC\Tools\MSVC\14.29.30133\include\vector

; 390  :     _CONSTEXPR20_CONTAINER _Vector_val() noexcept : _Myfirst(), _Mylast(), _Myend() {}

	mov	DWORD PTR _allStrips$[esp+72], 0
; File I:\Vitalya\mine\NSProjectX\layers\xrRender\NvTriStripObjects.cpp

; 915  : 	FindAllStrips(allStrips, allFaceInfos, allEdgeInfos, numSamples);

	push	eax
	mov	ecx, esi
	call	?FindAllStrips@NvStripifier@@IAEXAAV?$xr_vector@PAVNvStripInfo@@V?$xalloc@PAVNvStripInfo@@@@@@AAV?$xr_vector@PAVNvFaceInfo@@V?$xalloc@PAVNvFaceInfo@@@@@@AAV?$xr_vector@PAVNvEdgeInfo@@V?$xalloc@PAVNvEdgeInfo@@@@@@H@Z ; NvStripifier::FindAllStrips

; 916  : 	
; 917  : 	//split up the strips into cache friendly pieces, optimize them, then dump these into outStrips
; 918  : 	SplitUpStripsAndOptimize(allStrips, outStrips, allEdgeInfos, outFaceList);

	push	DWORD PTR _outFaceList$[esp+48]
	lea	eax, DWORD PTR _allEdgeInfos$[esp+56]
	mov	ecx, esi
	push	eax
	push	DWORD PTR _outStrips$[esp+56]
	lea	eax, DWORD PTR _allStrips$[esp+64]
	push	eax
	call	?SplitUpStripsAndOptimize@NvStripifier@@IAEXAAV?$xr_vector@PAVNvStripInfo@@V?$xalloc@PAVNvStripInfo@@@@@@0AAV?$xr_vector@PAVNvEdgeInfo@@V?$xalloc@PAVNvEdgeInfo@@@@@@AAV?$xr_vector@PAVNvFaceInfo@@V?$xalloc@PAVNvFaceInfo@@@@@@@Z ; NvStripifier::SplitUpStripsAndOptimize
; File C:\Program Files\Microsoft Visual Studio\2022\Community\VC\Tools\MSVC\14.29.30133\include\vector

; 1536 :         return static_cast<size_type>(_My_data._Mylast - _My_data._Myfirst);

	mov	eax, DWORD PTR _allStrips$[esp+56]
; File I:\Vitalya\mine\NSProjectX\layers\xrRender\NvTriStripObjects.cpp

; 921  : 	for(int i = 0; i < allStrips.size(); i++)

	xor	esi, esi
; File C:\Program Files\Microsoft Visual Studio\2022\Community\VC\Tools\MSVC\14.29.30133\include\vector

; 1536 :         return static_cast<size_type>(_My_data._Mylast - _My_data._Myfirst);

	mov	ebp, DWORD PTR _allStrips$[esp+52]
	sub	eax, ebp
; File I:\Vitalya\mine\NSProjectX\layers\xrRender\NvTriStripObjects.cpp

; 921  : 	for(int i = 0; i < allStrips.size(); i++)

	mov	ebx, DWORD PTR __imp_?mem_free@xrMemory@@QAEXPAX@Z
; File C:\Program Files\Microsoft Visual Studio\2022\Community\VC\Tools\MSVC\14.29.30133\include\vector

; 1536 :         return static_cast<size_type>(_My_data._Mylast - _My_data._Myfirst);

	sar	eax, 2
	mov	DWORD PTR tv814[esp+48], eax
; File I:\Vitalya\mine\NSProjectX\layers\xrRender\NvTriStripObjects.cpp

; 921  : 	for(int i = 0; i < allStrips.size(); i++)

	test	eax, eax
	je	SHORT $LN3@Stripify
$LL4@Stripify:
; File I:\Vitalya\mine\NSProjectX\xrCore\xrMemory_subst_msvc.h

; 151  : 	if (ptr) 

	mov	edi, DWORD PTR [ebp+esi*4]
	test	edi, edi
	je	SHORT $LN2@Stripify
; File C:\Program Files\Microsoft Visual Studio\2022\Community\VC\Tools\MSVC\14.29.30133\include\vector

; 1750 :         if (_Myfirst) { // destroy and deallocate old array

	mov	eax, DWORD PTR [edi+12]
	test	eax, eax
	je	SHORT $LN82@Stripify
; File I:\Vitalya\mine\NSProjectX\xrCore\xrMemory.h

; 109  : 	IC void		xr_free		(T* &P)					{	if (P) { Memory.mem_free((void*)P); P=NULL;	};	}

	mov	ecx, DWORD PTR __imp_?Memory@@3VxrMemory@@A
	push	eax
	call	ebx
; File C:\Program Files\Microsoft Visual Studio\2022\Community\VC\Tools\MSVC\14.29.30133\include\vector

; 1754 :             _Myfirst = nullptr;

	mov	DWORD PTR [edi+12], 0

; 1755 :             _Mylast  = nullptr;

	mov	DWORD PTR [edi+16], 0

; 1756 :             _Myend   = nullptr;

	mov	DWORD PTR [edi+20], 0
	mov	edi, DWORD PTR [ebp+esi*4]
$LN82@Stripify:
; File I:\Vitalya\mine\NSProjectX\xrCore\xrMemory_subst_msvc.h

; 144  : 		Memory.mem_free	(ptr);

	mov	ecx, DWORD PTR __imp_?Memory@@3VxrMemory@@A
	push	edi
	call	ebx
	mov	eax, DWORD PTR tv814[esp+48]

; 154  : 		ptr = nullptr;

	mov	DWORD PTR [ebp+esi*4], 0
$LN2@Stripify:
; File I:\Vitalya\mine\NSProjectX\layers\xrRender\NvTriStripObjects.cpp

; 921  : 	for(int i = 0; i < allStrips.size(); i++)

	inc	esi
	cmp	esi, eax
	jb	SHORT $LL4@Stripify
$LN3@Stripify:
; File C:\Program Files\Microsoft Visual Studio\2022\Community\VC\Tools\MSVC\14.29.30133\include\vector

; 1536 :         return static_cast<size_type>(_My_data._Mylast - _My_data._Myfirst);

	mov	edx, DWORD PTR _allEdgeInfos$[esp+56]
; File I:\Vitalya\mine\NSProjectX\layers\xrRender\NvTriStripObjects.cpp

; 926  : 	for (u32 i = 0; i < allEdgeInfos.size(); i++)

	xor	edi, edi
; File C:\Program Files\Microsoft Visual Studio\2022\Community\VC\Tools\MSVC\14.29.30133\include\vector

; 1536 :         return static_cast<size_type>(_My_data._Mylast - _My_data._Myfirst);

	mov	ecx, DWORD PTR _allEdgeInfos$[esp+52]
	mov	eax, edx
	sub	eax, ecx
	sar	eax, 2
; File I:\Vitalya\mine\NSProjectX\layers\xrRender\NvTriStripObjects.cpp

; 926  : 	for (u32 i = 0; i < allEdgeInfos.size(); i++)

	test	eax, eax
	je	SHORT $LN6@Stripify
$LL7@Stripify:

; 927  : 	{
; 928  : 		NvEdgeInfo *info = allEdgeInfos[i];

	mov	eax, DWORD PTR [ecx+edi*4]

; 929  : 		while (info != NULL)

	test	eax, eax
	je	SHORT $LN5@Stripify
$LL8@Stripify:

; 930  : 		{
; 931  : 			NvEdgeInfo *next = (info->m_v0 == int(i) ? info->m_nextV0 : info->m_nextV1);

	cmp	DWORD PTR [eax+12], edi
	jne	SHORT $LN11@Stripify
	mov	esi, DWORD PTR [eax+20]
	jmp	SHORT $LN12@Stripify
$LN11@Stripify:
	mov	esi, DWORD PTR [eax+24]
$LN12@Stripify:
; File I:\Vitalya\mine\NSProjectX\layers\xrRender\NvTriStripObjects.h

; 68   : 		if (--m_refCount == 0) 

	add	DWORD PTR [eax], -1
	jne	SHORT $LN111@Stripify

; 69   : 		{
; 70   : 			Memory.mem_free	(this);

	mov	ecx, DWORD PTR __imp_?Memory@@3VxrMemory@@A
	push	eax
	call	ebx
$LN111@Stripify:
; File I:\Vitalya\mine\NSProjectX\layers\xrRender\NvTriStripObjects.cpp

; 933  : 			info = next;

	mov	eax, esi
	test	esi, esi
	jne	SHORT $LL8@Stripify
	mov	edx, DWORD PTR _allEdgeInfos$[esp+56]
	mov	ecx, DWORD PTR _allEdgeInfos$[esp+52]
$LN5@Stripify:
; File C:\Program Files\Microsoft Visual Studio\2022\Community\VC\Tools\MSVC\14.29.30133\include\vector

; 1536 :         return static_cast<size_type>(_My_data._Mylast - _My_data._Myfirst);

	mov	eax, edx
; File I:\Vitalya\mine\NSProjectX\layers\xrRender\NvTriStripObjects.cpp

; 926  : 	for (u32 i = 0; i < allEdgeInfos.size(); i++)

	inc	edi
; File C:\Program Files\Microsoft Visual Studio\2022\Community\VC\Tools\MSVC\14.29.30133\include\vector

; 1536 :         return static_cast<size_type>(_My_data._Mylast - _My_data._Myfirst);

	sub	eax, ecx
	sar	eax, 2
; File I:\Vitalya\mine\NSProjectX\layers\xrRender\NvTriStripObjects.cpp

; 926  : 	for (u32 i = 0; i < allEdgeInfos.size(); i++)

	cmp	edi, eax
	jb	SHORT $LL7@Stripify
$LN6@Stripify:
; File C:\Program Files\Microsoft Visual Studio\2022\Community\VC\Tools\MSVC\14.29.30133\include\vector

; 1750 :         if (_Myfirst) { // destroy and deallocate old array

	test	ebp, ebp
	je	SHORT $LN123@Stripify
; File I:\Vitalya\mine\NSProjectX\xrCore\xrMemory.h

; 109  : 	IC void		xr_free		(T* &P)					{	if (P) { Memory.mem_free((void*)P); P=NULL;	};	}

	mov	ecx, DWORD PTR __imp_?Memory@@3VxrMemory@@A
	push	ebp
	call	ebx
	mov	ecx, DWORD PTR _allEdgeInfos$[esp+52]
$LN123@Stripify:
; File C:\Program Files\Microsoft Visual Studio\2022\Community\VC\Tools\MSVC\14.29.30133\include\vector

; 1750 :         if (_Myfirst) { // destroy and deallocate old array

	test	ecx, ecx
	je	SHORT $LN130@Stripify
; File I:\Vitalya\mine\NSProjectX\xrCore\xrMemory.h

; 109  : 	IC void		xr_free		(T* &P)					{	if (P) { Memory.mem_free((void*)P); P=NULL;	};	}

	push	ecx
	mov	ecx, DWORD PTR __imp_?Memory@@3VxrMemory@@A
	call	ebx
; File C:\Program Files\Microsoft Visual Studio\2022\Community\VC\Tools\MSVC\14.29.30133\include\vector

; 1754 :             _Myfirst = nullptr;

	mov	DWORD PTR _allEdgeInfos$[esp+52], 0

; 1755 :             _Mylast  = nullptr;

	mov	DWORD PTR _allEdgeInfos$[esp+56], 0

; 1756 :             _Myend   = nullptr;

	mov	DWORD PTR _allEdgeInfos$[esp+60], 0
$LN130@Stripify:

; 1750 :         if (_Myfirst) { // destroy and deallocate old array

	mov	eax, DWORD PTR _allFaceInfos$[esp+52]
	test	eax, eax
	je	SHORT $LN147@Stripify
; File I:\Vitalya\mine\NSProjectX\xrCore\xrMemory.h

; 109  : 	IC void		xr_free		(T* &P)					{	if (P) { Memory.mem_free((void*)P); P=NULL;	};	}

	mov	ecx, DWORD PTR __imp_?Memory@@3VxrMemory@@A
	push	eax
	call	ebx
$LN147@Stripify:
	pop	edi
; File I:\Vitalya\mine\NSProjectX\layers\xrRender\NvTriStripObjects.cpp

; 937  : }

	pop	esi
	pop	ebp
	pop	ebx
	add	esp, 36					; 00000024H
	ret	20					; 00000014H
?Stripify@NvStripifier@@QAEXABV?$xr_vector@GV?$xalloc@G@@@@HHAAV?$xr_vector@PAVNvStripInfo@@V?$xalloc@PAVNvStripInfo@@@@@@AAV?$xr_vector@PAVNvFaceInfo@@V?$xalloc@PAVNvFaceInfo@@@@@@@Z ENDP ; NvStripifier::Stripify
_TEXT	ENDS
; Function compile flags: /Ogtpy
; File I:\Vitalya\mine\NSProjectX\layers\xrRender\NvTriStripObjects.cpp
; File C:\Program Files\Microsoft Visual Studio\2022\Community\VC\Tools\MSVC\14.29.30133\include\vector
; File I:\Vitalya\mine\NSProjectX\xrCore\xrMemory.h
; File C:\Program Files\Microsoft Visual Studio\2022\Community\VC\Tools\MSVC\14.29.30133\include\vector
; File I:\Vitalya\mine\NSProjectX\layers\xrRender\NvTriStripObjects.cpp
_TEXT	SEGMENT
??1NvStripifier@@QAE@XZ PROC				; NvStripifier::~NvStripifier
; _this$ = ecx

; 18   : {

	push	esi
	mov	esi, ecx
; File C:\Program Files\Microsoft Visual Studio\2022\Community\VC\Tools\MSVC\14.29.30133\include\vector

; 1750 :         if (_Myfirst) { // destroy and deallocate old array

	mov	eax, DWORD PTR [esi]
	test	eax, eax
	je	SHORT $LN8@NvStripifi
; File I:\Vitalya\mine\NSProjectX\xrCore\xrMemory.h

; 109  : 	IC void		xr_free		(T* &P)					{	if (P) { Memory.mem_free((void*)P); P=NULL;	};	}

	mov	ecx, DWORD PTR __imp_?Memory@@3VxrMemory@@A
	push	eax
	call	DWORD PTR __imp_?mem_free@xrMemory@@QAEXPAX@Z
; File C:\Program Files\Microsoft Visual Studio\2022\Community\VC\Tools\MSVC\14.29.30133\include\vector

; 1754 :             _Myfirst = nullptr;

	mov	DWORD PTR [esi], 0

; 1755 :             _Mylast  = nullptr;

	mov	DWORD PTR [esi+4], 0

; 1756 :             _Myend   = nullptr;

	mov	DWORD PTR [esi+8], 0
$LN8@NvStripifi:
	pop	esi
; File I:\Vitalya\mine\NSProjectX\layers\xrRender\NvTriStripObjects.cpp

; 20   : }

	ret	0
??1NvStripifier@@QAE@XZ ENDP				; NvStripifier::~NvStripifier
_TEXT	ENDS
; Function compile flags: /Ogtpy
; File I:\Vitalya\mine\NSProjectX\layers\xrRender\NvTriStripObjects.cpp
; File C:\Program Files\Microsoft Visual Studio\2022\Community\VC\Tools\MSVC\14.29.30133\include\vector
; File I:\Vitalya\mine\NSProjectX\layers\xrRender\NvTriStripObjects.cpp
; File C:\Program Files\Microsoft Visual Studio\2022\Community\VC\Tools\MSVC\14.29.30133\include\vector
; File I:\Vitalya\mine\NSProjectX\layers\xrRender\NvTriStripObjects.cpp
_TEXT	SEGMENT
??0NvStripifier@@QAE@XZ PROC				; NvStripifier::NvStripifier
; _this$ = ecx
; File C:\Program Files\Microsoft Visual Studio\2022\Community\VC\Tools\MSVC\14.29.30133\include\vector

; 390  :     _CONSTEXPR20_CONTAINER _Vector_val() noexcept : _Myfirst(), _Mylast(), _Myend() {}

	mov	DWORD PTR [ecx], 0
; File I:\Vitalya\mine\NSProjectX\layers\xrRender\NvTriStripObjects.cpp

; 15   : }

	mov	eax, ecx
; File C:\Program Files\Microsoft Visual Studio\2022\Community\VC\Tools\MSVC\14.29.30133\include\vector

; 390  :     _CONSTEXPR20_CONTAINER _Vector_val() noexcept : _Myfirst(), _Mylast(), _Myend() {}

	mov	DWORD PTR [ecx+4], 0
	mov	DWORD PTR [ecx+8], 0
; File I:\Vitalya\mine\NSProjectX\layers\xrRender\NvTriStripObjects.cpp

; 15   : }

	ret	0
??0NvStripifier@@QAE@XZ ENDP				; NvStripifier::NvStripifier
_TEXT	ENDS
; Function compile flags: /Ogtpy
; File I:\Vitalya\mine\NSProjectX\layers\xrRender\VertexCache.h
; File C:\Program Files\Microsoft Visual Studio\2022\Community\VC\Tools\MSVC\14.29.30133\include\vector
; File I:\Vitalya\mine\NSProjectX\layers\xrRender\VertexCache.h
; File C:\Program Files\Microsoft Visual Studio\2022\Community\VC\Tools\MSVC\14.29.30133\include\vector
; File I:\Vitalya\mine\NSProjectX\layers\xrRender\VertexCache.h
; File C:\Program Files\Microsoft Visual Studio\2022\Community\VC\Tools\MSVC\14.29.30133\include\vector
; File I:\Vitalya\mine\NSProjectX\layers\xrRender\VertexCache.h
;	COMDAT ?InCache@VertexCache@@QAE_NH@Z
_TEXT	SEGMENT
_entry$ = 8						; size = 4
?InCache@VertexCache@@QAE_NH@Z PROC			; VertexCache::InCache, COMDAT
; _this$ = ecx
; File C:\Program Files\Microsoft Visual Studio\2022\Community\VC\Tools\MSVC\14.29.30133\include\vector

; 1536 :         return static_cast<size_type>(_My_data._Mylast - _My_data._Myfirst);

	mov	edx, DWORD PTR [ecx]
; File I:\Vitalya\mine\NSProjectX\layers\xrRender\VertexCache.h

; 26   : 	bool returnVal = false;

	xor	al, al
; File C:\Program Files\Microsoft Visual Studio\2022\Community\VC\Tools\MSVC\14.29.30133\include\vector

; 1536 :         return static_cast<size_type>(_My_data._Mylast - _My_data._Myfirst);

	mov	ecx, DWORD PTR [ecx+4]
	sub	ecx, edx
; File I:\Vitalya\mine\NSProjectX\layers\xrRender\VertexCache.h

; 25   : {

	push	esi
; File C:\Program Files\Microsoft Visual Studio\2022\Community\VC\Tools\MSVC\14.29.30133\include\vector

; 1536 :         return static_cast<size_type>(_My_data._Mylast - _My_data._Myfirst);

	sar	ecx, 2
; File I:\Vitalya\mine\NSProjectX\layers\xrRender\VertexCache.h

; 28   : 	for(u32 i = 0; i < entries.size(); i++)

	xor	esi, esi
	test	ecx, ecx
	je	SHORT $LN3@InCache
	push	edi
	mov	edi, DWORD PTR _entry$[esp+4]
$LL4@InCache:

; 29   : 	{
; 30   : 		if(entries[i] == entry)

	cmp	DWORD PTR [edx], edi
	je	SHORT $LN29@InCache

; 28   : 	for(u32 i = 0; i < entries.size(); i++)

	inc	esi
	add	edx, 4
	cmp	esi, ecx
	jb	SHORT $LL4@InCache
	pop	edi
	pop	esi

; 33   : 			break;
; 34   : 		}
; 35   : 	}
; 36   : 
; 37   : 	return returnVal;
; 38   : }

	ret	4
$LN29@InCache:

; 31   : 		{
; 32   : 			returnVal = true;

	mov	al, 1
	pop	edi
$LN3@InCache:

; 33   : 			break;
; 34   : 		}
; 35   : 	}
; 36   : 
; 37   : 	return returnVal;
; 38   : }

	pop	esi
	ret	4
?InCache@VertexCache@@QAE_NH@Z ENDP			; VertexCache::InCache
_TEXT	ENDS
; Function compile flags: /Ogtpy
; File I:\Vitalya\mine\NSProjectX\layers\xrRender\VertexCache.h
; File C:\Program Files\Microsoft Visual Studio\2022\Community\VC\Tools\MSVC\14.29.30133\include\vector
; File I:\Vitalya\mine\NSProjectX\layers\xrRender\VertexCache.h
; File C:\Program Files\Microsoft Visual Studio\2022\Community\VC\Tools\MSVC\14.29.30133\include\vector
; File I:\Vitalya\mine\NSProjectX\layers\xrRender\VertexCache.h
;	COMDAT ?AddEntry@VertexCache@@QAEHH@Z
_TEXT	SEGMENT
_entry$ = 8						; size = 4
?AddEntry@VertexCache@@QAEHH@Z PROC			; VertexCache::AddEntry, COMDAT
; _this$ = ecx

; 42   : {

	push	esi
	mov	esi, ecx
	push	edi
; File C:\Program Files\Microsoft Visual Studio\2022\Community\VC\Tools\MSVC\14.29.30133\include\vector

; 1536 :         return static_cast<size_type>(_My_data._Mylast - _My_data._Myfirst);

	mov	ecx, DWORD PTR [esi]
	mov	edx, DWORD PTR [esi+4]
	sub	edx, ecx
	sar	edx, 2
; File I:\Vitalya\mine\NSProjectX\layers\xrRender\VertexCache.h

; 45   : 	removed = entries[entries.size() - 1];

	mov	edi, DWORD PTR [ecx+edx*4-4]

; 46   : 
; 47   : 	//push everything right one
; 48   : 	for(int i = (u32)entries.size() - 2; i >= 0; i--)

	add	edx, -2					; fffffffeH
	js	SHORT $LN86@AddEntry
$LL4@AddEntry:
; File C:\Program Files\Microsoft Visual Studio\2022\Community\VC\Tools\MSVC\14.29.30133\include\vector

; 119  :         _Ptr += _Off;

	mov	eax, DWORD PTR [esi]
; File I:\Vitalya\mine\NSProjectX\layers\xrRender\VertexCache.h

; 50   : 		entries[i + 1] = entries[i];

	mov	ecx, DWORD PTR [eax+edx*4]
	mov	DWORD PTR [eax+edx*4+4], ecx
	sub	edx, 1
	jns	SHORT $LL4@AddEntry

; 54   : 
; 55   : 	return removed;
; 56   : }

	mov	edx, DWORD PTR [esi]
	mov	eax, edi
	mov	ecx, DWORD PTR _entry$[esp+4]
	pop	edi
	pop	esi
	mov	DWORD PTR [edx], ecx
	ret	4
$LN86@AddEntry:

; 51   : 	}
; 52   : 
; 53   : 	entries[0] = entry;

	mov	eax, DWORD PTR _entry$[esp+4]
	mov	DWORD PTR [ecx], eax

; 54   : 
; 55   : 	return removed;
; 56   : }

	mov	eax, edi
	pop	edi
	pop	esi
	ret	4
?AddEntry@VertexCache@@QAEHH@Z ENDP			; VertexCache::AddEntry
_TEXT	ENDS
; Function compile flags: /Ogtpy
; File I:\Vitalya\mine\NSProjectX\layers\xrRender\NvTriStripObjects.h
;	COMDAT ??0NvFaceInfo@@QAE@HHH@Z
_TEXT	SEGMENT
_v0$ = 8						; size = 4
_v1$ = 12						; size = 4
_v2$ = 16						; size = 4
??0NvFaceInfo@@QAE@HHH@Z PROC				; NvFaceInfo::NvFaceInfo, COMDAT
; _this$ = ecx

; 32   : 		m_v0 = v0; m_v1 = v1; m_v2 = v2;

	mov	eax, DWORD PTR _v0$[esp-4]
	mov	DWORD PTR [ecx], eax
	mov	eax, DWORD PTR _v1$[esp-4]
	mov	DWORD PTR [ecx+4], eax
	mov	eax, DWORD PTR _v2$[esp-4]
	mov	DWORD PTR [ecx+8], eax

; 33   : 		m_stripId      = -1;
; 34   : 		m_testStripId  = -1;
; 35   : 		m_experimentId = -1;
; 36   : 	}

	mov	eax, ecx
	mov	DWORD PTR [ecx+12], -1
	mov	DWORD PTR [ecx+16], -1
	mov	DWORD PTR [ecx+20], -1
	ret	12					; 0000000cH
??0NvFaceInfo@@QAE@HHH@Z ENDP				; NvFaceInfo::NvFaceInfo
_TEXT	ENDS
; Function compile flags: /Ogtpy
; File I:\Vitalya\mine\NSProjectX\layers\xrRender\NvTriStripObjects.h
;	COMDAT ??0NvEdgeInfo@@QAE@HH@Z
_TEXT	SEGMENT
_v0$ = 8						; size = 4
_v1$ = 12						; size = 4
??0NvEdgeInfo@@QAE@HH@Z PROC				; NvEdgeInfo::NvEdgeInfo, COMDAT
; _this$ = ecx

; 53   : 		m_v0       = v0;

	mov	eax, DWORD PTR _v0$[esp-4]
	mov	DWORD PTR [ecx+12], eax

; 54   : 		m_v1       = v1;

	mov	eax, DWORD PTR _v1$[esp-4]
	mov	DWORD PTR [ecx+16], eax

; 55   : 		m_face0    = NULL;
; 56   : 		m_face1    = NULL;
; 57   : 		m_nextV0   = NULL;
; 58   : 		m_nextV1   = NULL;
; 59   : 		
; 60   : 		// we will appear in 2 lists.  this is a good
; 61   : 		// way to make sure we _delete it the second time
; 62   : 		// we hit it in the edge infos
; 63   : 		m_refCount = 2;    
; 64   : 	}

	mov	eax, ecx
	mov	DWORD PTR [ecx+4], 0
	mov	DWORD PTR [ecx+8], 0
	mov	DWORD PTR [ecx+20], 0
	mov	DWORD PTR [ecx+24], 0
	mov	DWORD PTR [ecx], 2
	ret	8
??0NvEdgeInfo@@QAE@HH@Z ENDP				; NvEdgeInfo::NvEdgeInfo
_TEXT	ENDS
; Function compile flags: /Ogtpy
; File I:\Vitalya\mine\NSProjectX\layers\xrRender\NvTriStripObjects.h
;	COMDAT ?Unref@NvEdgeInfo@@QAEXXZ
_TEXT	SEGMENT
?Unref@NvEdgeInfo@@QAEXXZ PROC				; NvEdgeInfo::Unref, COMDAT
; _this$ = ecx

; 68   : 		if (--m_refCount == 0) 

	add	DWORD PTR [ecx], -1
	jne	SHORT $LN2@Unref

; 69   : 		{
; 70   : 			Memory.mem_free	(this);

	push	ecx
	mov	ecx, DWORD PTR __imp_?Memory@@3VxrMemory@@A
	call	DWORD PTR __imp_?mem_free@xrMemory@@QAEXPAX@Z
$LN2@Unref:

; 71   : 		}
; 72   : 	}

	ret	0
?Unref@NvEdgeInfo@@QAEXXZ ENDP				; NvEdgeInfo::Unref
_TEXT	ENDS
; Function compile flags: /Ogtpy
; File I:\Vitalya\mine\NSProjectX\layers\xrRender\NvTriStripObjects.h
;	COMDAT ??0NvStripStartInfo@@QAE@PAVNvFaceInfo@@PAVNvEdgeInfo@@_N@Z
_TEXT	SEGMENT
_startFace$ = 8						; size = 4
_startEdge$ = 12					; size = 4
_toV1$ = 16						; size = 1
??0NvStripStartInfo@@QAE@PAVNvFaceInfo@@PAVNvEdgeInfo@@_N@Z PROC ; NvStripStartInfo::NvStripStartInfo, COMDAT
; _this$ = ecx

; 89   : 		m_startFace    = startFace;

	mov	eax, DWORD PTR _startFace$[esp-4]
	mov	DWORD PTR [ecx], eax

; 90   : 		m_startEdge    = startEdge;

	mov	eax, DWORD PTR _startEdge$[esp-4]
	mov	DWORD PTR [ecx+4], eax

; 91   : 		m_toV1         = toV1;

	mov	al, BYTE PTR _toV1$[esp-4]
	mov	BYTE PTR [ecx+8], al

; 92   : 	}

	mov	eax, ecx
	ret	12					; 0000000cH
??0NvStripStartInfo@@QAE@PAVNvFaceInfo@@PAVNvEdgeInfo@@_N@Z ENDP ; NvStripStartInfo::NvStripStartInfo
_TEXT	ENDS
; Function compile flags: /Ogtpy
; File I:\Vitalya\mine\NSProjectX\layers\xrRender\NvTriStripObjects.h
; File C:\Program Files\Microsoft Visual Studio\2022\Community\VC\Tools\MSVC\14.29.30133\include\vector
; File I:\Vitalya\mine\NSProjectX\layers\xrRender\NvTriStripObjects.h
;	COMDAT ??0NvStripInfo@@QAE@ABVNvStripStartInfo@@HH@Z
_TEXT	SEGMENT
_startInfo$ = 8						; size = 4
_stripId$ = 12						; size = 4
_experimentId$ = 16					; size = 4
??0NvStripInfo@@QAE@ABVNvStripStartInfo@@HH@Z PROC	; NvStripInfo::NvStripInfo, COMDAT
; _this$ = ecx

; 123  : 	  m_startInfo(startInfo)

	mov	edx, DWORD PTR _startInfo$[esp-4]
	mov	eax, DWORD PTR [edx]
	mov	DWORD PTR [ecx], eax
	mov	eax, DWORD PTR [edx+4]
	mov	DWORD PTR [ecx+4], eax
	mov	eax, DWORD PTR [edx+8]
	mov	DWORD PTR [ecx+8], eax

; 125  : 		m_stripId      = stripId;

	mov	eax, DWORD PTR _stripId$[esp-4]
	mov	DWORD PTR [ecx+24], eax

; 126  : 		m_experimentId = experimentId;

	mov	eax, DWORD PTR _experimentId$[esp-4]
	mov	DWORD PTR [ecx+28], eax

; 128  : 	}

	mov	eax, ecx
; File C:\Program Files\Microsoft Visual Studio\2022\Community\VC\Tools\MSVC\14.29.30133\include\vector

; 390  :     _CONSTEXPR20_CONTAINER _Vector_val() noexcept : _Myfirst(), _Mylast(), _Myend() {}

	mov	DWORD PTR [ecx+12], 0
	mov	DWORD PTR [ecx+16], 0
	mov	DWORD PTR [ecx+20], 0
; File I:\Vitalya\mine\NSProjectX\layers\xrRender\NvTriStripObjects.h

; 127  : 		visited = false;

	mov	BYTE PTR [ecx+32], 0

; 128  : 	}

	ret	12					; 0000000cH
??0NvStripInfo@@QAE@ABVNvStripStartInfo@@HH@Z ENDP	; NvStripInfo::NvStripInfo
_TEXT	ENDS
; Function compile flags: /Ogtpy
; File I:\Vitalya\mine\NSProjectX\layers\xrRender\NvTriStripObjects.h
;	COMDAT ?IsExperiment@NvStripInfo@@QBE_NXZ
_TEXT	SEGMENT
?IsExperiment@NvStripInfo@@QBE_NXZ PROC			; NvStripInfo::IsExperiment, COMDAT
; _this$ = ecx

; 131  : 	inline bool IsExperiment () const { return m_experimentId >= 0; }

	mov	eax, DWORD PTR [ecx+28]
	shr	eax, 31					; 0000001fH
	xor	al, 1
	ret	0
?IsExperiment@NvStripInfo@@QBE_NXZ ENDP			; NvStripInfo::IsExperiment
_TEXT	ENDS
; Function compile flags: /Ogtpy
; File I:\Vitalya\mine\NSProjectX\layers\xrRender\NvTriStripObjects.h
;	COMDAT ?IsInStrip@NvStripInfo@@QBE_NPBVNvFaceInfo@@@Z
_TEXT	SEGMENT
_faceInfo$ = 8						; size = 4
?IsInStrip@NvStripInfo@@QBE_NPBVNvFaceInfo@@@Z PROC	; NvStripInfo::IsInStrip, COMDAT
; _this$ = ecx

; 134  : 	{

	push	esi
	mov	esi, ecx

; 135  : 		if(faceInfo == NULL)

	mov	ecx, DWORD PTR _faceInfo$[esp]
	test	ecx, ecx
	jne	SHORT $LN2@IsInStrip

; 136  : 			return false;

	xor	al, al
	pop	esi

; 139  : 	}

	ret	4
$LN2@IsInStrip:

; 137  : 		  
; 138  : 		return (m_experimentId >= 0 ? faceInfo->m_testStripId == m_stripId : faceInfo->m_stripId == m_stripId);

	xor	edx, edx
	cmp	DWORD PTR [esi+28], edx
	jl	SHORT $LN4@IsInStrip
	mov	eax, DWORD PTR [ecx+16]
	cmp	eax, DWORD PTR [esi+24]
	pop	esi
	sete	dl
	mov	al, dl

; 139  : 	}

	ret	4
$LN4@IsInStrip:

; 137  : 		  
; 138  : 		return (m_experimentId >= 0 ? faceInfo->m_testStripId == m_stripId : faceInfo->m_stripId == m_stripId);

	mov	ecx, DWORD PTR [ecx+12]
	cmp	ecx, DWORD PTR [esi+24]
	pop	esi
	sete	dl
	mov	al, dl

; 139  : 	}

	ret	4
?IsInStrip@NvStripInfo@@QBE_NPBVNvFaceInfo@@@Z ENDP	; NvStripInfo::IsInStrip
_TEXT	ENDS
; Function compile flags: /Ogtpy
; File I:\Vitalya\mine\NSProjectX\layers\xrRender\NvTriStripObjects.cpp
_TEXT	SEGMENT
_v1$ = 8						; size = 4
?FindEdgeInfo@NvStripifier@@KAPAVNvEdgeInfo@@AAV?$xr_vector@PAVNvEdgeInfo@@V?$xalloc@PAVNvEdgeInfo@@@@@@HH@Z PROC ; NvStripifier::FindEdgeInfo
; _edgeInfos$ = ecx
; _v0$ = edx

; 28   : 	
; 29   : 	// we can get to it through either array
; 30   : 	// because the edge infos have a v0 and v1
; 31   : 	// and there is no order except how it was
; 32   : 	// first created.
; 33   : 	NvEdgeInfo *infoIter = edgeInfos[v0];

	mov	eax, DWORD PTR [ecx]
	push	esi
	mov	eax, DWORD PTR [eax+edx*4]

; 34   : 	while (infoIter != NULL){

	test	eax, eax
	je	SHORT $LN3@FindEdgeIn
	mov	esi, DWORD PTR _v1$[esp]
	npad	2
$LL2@FindEdgeIn:

; 35   : 		if (infoIter->m_v0 == v0){

	mov	ecx, DWORD PTR [eax+12]
	cmp	ecx, edx
	jne	SHORT $LN4@FindEdgeIn

; 36   : 			if (infoIter->m_v1 == v1)

	cmp	DWORD PTR [eax+16], esi
	je	SHORT $LN1@FindEdgeIn

; 37   : 				return infoIter;
; 38   : 			else
; 39   : 				infoIter = infoIter->m_nextV0;

	mov	eax, DWORD PTR [eax+20]

; 40   : 		}

	jmp	SHORT $LN9@FindEdgeIn
$LN4@FindEdgeIn:

; 41   : 		else {
; 42   : 			assert(infoIter->m_v1 == v0);
; 43   : 			if (infoIter->m_v0 == v1)

	cmp	ecx, esi
	je	SHORT $LN1@FindEdgeIn

; 44   : 				return infoIter;
; 45   : 			else
; 46   : 				infoIter = infoIter->m_nextV1;

	mov	eax, DWORD PTR [eax+24]
$LN9@FindEdgeIn:

; 34   : 	while (infoIter != NULL){

	test	eax, eax
	jne	SHORT $LL2@FindEdgeIn
$LN3@FindEdgeIn:

; 47   : 		}
; 48   : 	}
; 49   : 	return NULL;

	xor	eax, eax
$LN1@FindEdgeIn:
	pop	esi

; 50   : }

	ret	0
?FindEdgeInfo@NvStripifier@@KAPAVNvEdgeInfo@@AAV?$xr_vector@PAVNvEdgeInfo@@V?$xalloc@PAVNvEdgeInfo@@@@@@HH@Z ENDP ; NvStripifier::FindEdgeInfo
_TEXT	ENDS
; Function compile flags: /Ogtpy
; File I:\Vitalya\mine\NSProjectX\layers\xrRender\NvTriStripObjects.cpp
_TEXT	SEGMENT
_v1$ = 8						; size = 4
_faceInfo$ = 12						; size = 4
?FindOtherFace@NvStripifier@@KAPAVNvFaceInfo@@AAV?$xr_vector@PAVNvEdgeInfo@@V?$xalloc@PAVNvEdgeInfo@@@@@@HHPAV2@@Z PROC ; NvStripifier::FindOtherFace
; _edgeInfos$ = ecx
; _v0$ = edx

; 33   : 	NvEdgeInfo *infoIter = edgeInfos[v0];

	mov	eax, DWORD PTR [ecx]

; 59   : NvFaceInfo * NvStripifier::FindOtherFace(NvEdgeInfoVec &edgeInfos, int v0, int v1, NvFaceInfo *faceInfo){

	push	esi

; 33   : 	NvEdgeInfo *infoIter = edgeInfos[v0];

	mov	eax, DWORD PTR [eax+edx*4]

; 34   : 	while (infoIter != NULL){

	test	eax, eax
	je	SHORT $LN7@FindOtherF
	mov	esi, DWORD PTR _v1$[esp]
	npad	2
$LL6@FindOtherF:

; 35   : 		if (infoIter->m_v0 == v0){

	mov	ecx, DWORD PTR [eax+12]
	cmp	ecx, edx
	jne	SHORT $LN8@FindOtherF

; 36   : 			if (infoIter->m_v1 == v1)

	cmp	DWORD PTR [eax+16], esi
	je	SHORT $LN5@FindOtherF

; 37   : 				return infoIter;
; 38   : 			else
; 39   : 				infoIter = infoIter->m_nextV0;

	mov	eax, DWORD PTR [eax+20]

; 40   : 		}

	jmp	SHORT $LN13@FindOtherF
$LN8@FindOtherF:

; 41   : 		else {
; 42   : 			assert(infoIter->m_v1 == v0);
; 43   : 			if (infoIter->m_v0 == v1)

	cmp	ecx, esi
	je	SHORT $LN5@FindOtherF

; 44   : 				return infoIter;
; 45   : 			else
; 46   : 				infoIter = infoIter->m_nextV1;

	mov	eax, DWORD PTR [eax+24]
$LN13@FindOtherF:

; 34   : 	while (infoIter != NULL){

	test	eax, eax
	jne	SHORT $LL6@FindOtherF
$LN7@FindOtherF:

; 47   : 		}
; 48   : 	}
; 49   : 	return NULL;

	xor	eax, eax
$LN5@FindOtherF:

; 60   : 	NvEdgeInfo *edgeInfo = FindEdgeInfo(edgeInfos, v0, v1);
; 61   : 	assert(edgeInfo != NULL);
; 62   : 	return (edgeInfo->m_face0 == faceInfo ? edgeInfo->m_face1 : edgeInfo->m_face0);

	mov	ecx, DWORD PTR [eax+4]
	pop	esi
	cmp	ecx, DWORD PTR _faceInfo$[esp-4]
	jne	SHORT $LN3@FindOtherF
	mov	eax, DWORD PTR [eax+8]

; 63   : }

	ret	0
$LN3@FindOtherF:

; 60   : 	NvEdgeInfo *edgeInfo = FindEdgeInfo(edgeInfos, v0, v1);
; 61   : 	assert(edgeInfo != NULL);
; 62   : 	return (edgeInfo->m_face0 == faceInfo ? edgeInfo->m_face1 : edgeInfo->m_face0);

	mov	eax, ecx

; 63   : }

	ret	0
?FindOtherFace@NvStripifier@@KAPAVNvFaceInfo@@AAV?$xr_vector@PAVNvEdgeInfo@@V?$xalloc@PAVNvEdgeInfo@@@@@@HHPAV2@@Z ENDP ; NvStripifier::FindOtherFace
_TEXT	ENDS
; Function compile flags: /Ogtpy
; File I:\Vitalya\mine\NSProjectX\layers\xrRender\NvTriStripObjects.cpp
; File C:\Program Files\Microsoft Visual Studio\2022\Community\VC\Tools\MSVC\14.29.30133\include\vector
; File I:\Vitalya\mine\NSProjectX\layers\xrRender\NvTriStripObjects.cpp
; File C:\Program Files\Microsoft Visual Studio\2022\Community\VC\Tools\MSVC\14.29.30133\include\vector
; File I:\Vitalya\mine\NSProjectX\layers\xrRender\NvTriStripObjects.cpp
_TEXT	SEGMENT
_faceInfo$ = 8						; size = 4
_faceInfos$ = 12					; size = 4
?AlreadyExists@NvStripifier@@IAE_NPAVNvFaceInfo@@AAV?$xr_vector@PAVNvFaceInfo@@V?$xalloc@PAVNvFaceInfo@@@@@@@Z PROC ; NvStripifier::AlreadyExists
; _this$dead$ = ecx
; File C:\Program Files\Microsoft Visual Studio\2022\Community\VC\Tools\MSVC\14.29.30133\include\vector

; 1536 :         return static_cast<size_type>(_My_data._Mylast - _My_data._Myfirst);

	mov	eax, DWORD PTR _faceInfos$[esp-4]
; File I:\Vitalya\mine\NSProjectX\layers\xrRender\NvTriStripObjects.cpp

; 68   : 	for(int i = 0; i < faceInfos.size(); i++)

	xor	ecx, ecx
	push	ebx
	push	ebp
	push	esi
; File C:\Program Files\Microsoft Visual Studio\2022\Community\VC\Tools\MSVC\14.29.30133\include\vector

; 1536 :         return static_cast<size_type>(_My_data._Mylast - _My_data._Myfirst);

	mov	esi, DWORD PTR [eax+4]
	mov	ebx, DWORD PTR [eax]
	sub	esi, ebx
	sar	esi, 2
; File I:\Vitalya\mine\NSProjectX\layers\xrRender\NvTriStripObjects.cpp

; 67   : {

	push	edi

; 68   : 	for(int i = 0; i < faceInfos.size(); i++)

	test	esi, esi
	je	SHORT $LN67@AlreadyExi

; 69   : 	{
; 70   : 		if( (faceInfos[i]->m_v0 == faceInfo->m_v0) &&
; 71   : 			(faceInfos[i]->m_v1 == faceInfo->m_v1) &&

	mov	edi, DWORD PTR _faceInfo$[esp+12]
	mov	ebp, DWORD PTR [edi]
	npad	2
$LL4@AlreadyExi:
	mov	edx, DWORD PTR [ebx+ecx*4]
	cmp	DWORD PTR [edx], ebp
	jne	SHORT $LN2@AlreadyExi
	mov	eax, DWORD PTR [edx+4]
	cmp	eax, DWORD PTR [edi+4]
	jne	SHORT $LN2@AlreadyExi
	mov	eax, DWORD PTR [edx+8]
	cmp	eax, DWORD PTR [edi+8]
	je	SHORT $LN63@AlreadyExi
$LN2@AlreadyExi:

; 68   : 	for(int i = 0; i < faceInfos.size(); i++)

	inc	ecx
	cmp	ecx, esi
	jb	SHORT $LL4@AlreadyExi
$LN67@AlreadyExi:
	pop	edi

; 72   : 			(faceInfos[i]->m_v2 == faceInfo->m_v2) )
; 73   : 			return true;
; 74   : 	}
; 75   : 
; 76   : 	return false;
; 77   : }

	pop	esi
	pop	ebp
	xor	al, al
	pop	ebx
	ret	8
$LN63@AlreadyExi:
	pop	edi
	pop	esi
	pop	ebp
	mov	al, 1
	pop	ebx
	ret	8
?AlreadyExists@NvStripifier@@IAE_NPAVNvFaceInfo@@AAV?$xr_vector@PAVNvFaceInfo@@V?$xalloc@PAVNvFaceInfo@@@@@@@Z ENDP ; NvStripifier::AlreadyExists
_TEXT	ENDS
; Function compile flags: /Ogtpy
; File I:\Vitalya\mine\NSProjectX\layers\xrRender\NvTriStripObjects.cpp
; File C:\Program Files\Microsoft Visual Studio\2022\Community\VC\Tools\MSVC\14.29.30133\include\vector
; File I:\Vitalya\mine\NSProjectX\layers\xrRender\NvTriStripObjects.cpp
; File C:\Program Files\Microsoft Visual Studio\2022\Community\VC\Tools\MSVC\14.29.30133\include\vector
; File C:\Program Files\Microsoft Visual Studio\2022\Community\VC\Tools\MSVC\14.29.30133\include\xmemory
; File I:\Vitalya\mine\NSProjectX\layers\xrRender\NvTriStripObjects.cpp
; File C:\Program Files\Microsoft Visual Studio\2022\Community\VC\Tools\MSVC\14.29.30133\include\vector
; File I:\Vitalya\mine\NSProjectX\xrCore\xrMemory_subst_msvc.h
; File I:\Vitalya\mine\NSProjectX\layers\xrRender\NvTriStripObjects.cpp
; File I:\Vitalya\mine\NSProjectX\xrCore\xrMemory_subst_msvc.h
; File C:\Program Files\Microsoft Visual Studio\2022\Community\VC\Tools\MSVC\14.29.30133\include\vector
; File I:\Vitalya\mine\NSProjectX\layers\xrRender\NvTriStripObjects.cpp
; File I:\Vitalya\mine\NSProjectX\xrCore\xrMemory_subst_msvc.h
; File I:\Vitalya\mine\NSProjectX\layers\xrRender\NvTriStripObjects.cpp
; File I:\Vitalya\mine\NSProjectX\layers\xrRender\NvTriStripObjects.h
; File C:\Program Files\Microsoft Visual Studio\2022\Community\VC\Tools\MSVC\14.29.30133\include\vector
; File I:\Vitalya\mine\NSProjectX\layers\xrRender\NvTriStripObjects.cpp
; File C:\Program Files\Microsoft Visual Studio\2022\Community\VC\Tools\MSVC\14.29.30133\include\vector
; File I:\Vitalya\mine\NSProjectX\layers\xrRender\NvTriStripObjects.cpp
; File I:\Vitalya\mine\NSProjectX\xrCore\xrMemory_subst_msvc.h
; File I:\Vitalya\mine\NSProjectX\layers\xrRender\NvTriStripObjects.cpp
; File I:\Vitalya\mine\NSProjectX\layers\xrRender\NvTriStripObjects.h
; File I:\Vitalya\mine\NSProjectX\layers\xrRender\NvTriStripObjects.cpp
; File I:\Vitalya\mine\NSProjectX\xrCore\xrMemory_subst_msvc.h
; File I:\Vitalya\mine\NSProjectX\layers\xrRender\NvTriStripObjects.cpp
; File I:\Vitalya\mine\NSProjectX\layers\xrRender\NvTriStripObjects.h
; File I:\Vitalya\mine\NSProjectX\layers\xrRender\NvTriStripObjects.cpp
; File I:\Vitalya\mine\NSProjectX\xrCore\xrMemory_subst_msvc.h
; File I:\Vitalya\mine\NSProjectX\layers\xrRender\NvTriStripObjects.h
; File I:\Vitalya\mine\NSProjectX\layers\xrRender\NvTriStripObjects.cpp
; File C:\Program Files\Microsoft Visual Studio\2022\Community\VC\Tools\MSVC\14.29.30133\include\vector
; File I:\Vitalya\mine\NSProjectX\layers\xrRender\NvTriStripObjects.cpp
_TEXT	SEGMENT
$T1 = -24						; size = 4
_numTriangles$1$ = -20					; size = 4
_this$1$ = -16						; size = 4
tv2466 = -12						; size = 4
_faceInfo$2 = -8					; size = 4
_index$1$ = -4						; size = 4
_faceInfos$ = 8						; size = 4
_edgeInfos$ = 12					; size = 4
?BuildStripifyInfo@NvStripifier@@IAEXAAV?$xr_vector@PAVNvFaceInfo@@V?$xalloc@PAVNvFaceInfo@@@@@@AAV?$xr_vector@PAVNvEdgeInfo@@V?$xalloc@PAVNvEdgeInfo@@@@@@@Z PROC ; NvStripifier::BuildStripifyInfo
; _this$ = ecx

; 84   : void NvStripifier::BuildStripifyInfo(NvFaceInfoVec &faceInfos, NvEdgeInfoVec &edgeInfos){

	sub	esp, 24					; 00000018H
	push	esi
	mov	esi, ecx
; File C:\Program Files\Microsoft Visual Studio\2022\Community\VC\Tools\MSVC\14.29.30133\include\vector

; 1546 :         return static_cast<size_type>(_My_data._Myend - _My_data._Myfirst);

	mov	ecx, DWORD PTR _faceInfos$[esp+24]
; File I:\Vitalya\mine\NSProjectX\layers\xrRender\NvTriStripObjects.cpp

; 84   : void NvStripifier::BuildStripifyInfo(NvFaceInfoVec &faceInfos, NvEdgeInfoVec &edgeInfos){

	push	edi
	mov	DWORD PTR _this$1$[esp+32], esi
; File C:\Program Files\Microsoft Visual Studio\2022\Community\VC\Tools\MSVC\14.29.30133\include\vector

; 1536 :         return static_cast<size_type>(_My_data._Mylast - _My_data._Myfirst);

	mov	edi, DWORD PTR [esi+4]

; 1546 :         return static_cast<size_type>(_My_data._Myend - _My_data._Myfirst);

	mov	eax, DWORD PTR [ecx+8]

; 1536 :         return static_cast<size_type>(_My_data._Mylast - _My_data._Myfirst);

	sub	edi, DWORD PTR [esi]

; 1546 :         return static_cast<size_type>(_My_data._Myend - _My_data._Myfirst);

	sub	eax, DWORD PTR [ecx]

; 1536 :         return static_cast<size_type>(_My_data._Mylast - _My_data._Myfirst);

	sar	edi, 1

; 1546 :         return static_cast<size_type>(_My_data._Myend - _My_data._Myfirst);

	sar	eax, 2

; 1358 :         if (_Newcapacity > capacity()) { // something to do (reserve() never shrinks)

	cmp	edi, eax
	jbe	SHORT $LN27@BuildStrip

; 1359 :             if (_Newcapacity > max_size()) {

	cmp	edi, 1073741823				; 3fffffffH
	ja	$LN531@BuildStrip

; 1361 :             }
; 1362 : 
; 1363 :             _Reallocate_exactly(_Newcapacity);

	push	edi
	call	?_Reallocate_exactly@?$vector@PAVNvFaceInfo@@V?$xalloc@PAVNvFaceInfo@@@@@std@@AAEXI@Z ; std::vector<NvFaceInfo *,xalloc<NvFaceInfo *> >::_Reallocate_exactly
$LN27@BuildStrip:
	push	ebx
	push	ebp

; 1250 :         const auto _Oldsize = static_cast<size_type>(_Mylast - _Myfirst);

	mov	ebp, DWORD PTR _edgeInfos$[esp+36]
	mov	ebx, DWORD PTR [ebp+4]
	mov	ecx, ebx
	mov	edx, DWORD PTR [ebp]
	sub	ecx, edx
	sar	ecx, 2

; 1251 :         if (_Newsize < _Oldsize) { // trim

	cmp	edi, ecx
	jae	SHORT $LN36@BuildStrip

; 1252 :             const pointer _Newlast = _Myfirst + _Newsize;

	lea	eax, DWORD PTR [edx+edi*4]

; 1253 :             _Orphan_range(_Newlast, _Mylast);
; 1254 :             _Destroy(_Newlast, _Mylast);
; 1255 :             _Mylast = _Newlast;
; 1256 :             return;

	jmp	SHORT $LN529@BuildStrip
$LN36@BuildStrip:

; 1257 :         }
; 1258 : 
; 1259 :         if (_Newsize > _Oldsize) { // append

	jbe	SHORT $LN37@BuildStrip

; 1260 :             const auto _Oldcapacity = static_cast<size_type>(_My_data._Myend - _Myfirst);

	mov	eax, DWORD PTR [ebp+8]
	sub	eax, edx
	sar	eax, 2

; 1261 :             if (_Newsize > _Oldcapacity) { // reallocate

	cmp	edi, eax
	jbe	SHORT $LN38@BuildStrip

; 1262 :                 _Resize_reallocate(_Newsize, _Val);

	push	ecx
	push	edi
	mov	ecx, ebp
	call	??$_Resize_reallocate@U_Value_init_tag@std@@@?$vector@PAVNvEdgeInfo@@V?$xalloc@PAVNvEdgeInfo@@@@@std@@AAEXIABU_Value_init_tag@1@@Z ; std::vector<NvEdgeInfo *,xalloc<NvEdgeInfo *> >::_Resize_reallocate<std::_Value_init_tag>

; 1263 :                 return;

	jmp	SHORT $LN37@BuildStrip
$LN38@BuildStrip:

; 1264 :             }
; 1265 : 
; 1266 :             const pointer _Oldlast = _Mylast;
; 1267 :             _Mylast                = _Ufill(_Oldlast, _Newsize - _Oldsize, _Val);

	mov	eax, edi
	sub	eax, ecx
; File C:\Program Files\Microsoft Visual Studio\2022\Community\VC\Tools\MSVC\14.29.30133\include\xmemory

; 1807 :             _Zero_range(_PFirst, _PFirst + _Count);

	lea	esi, DWORD PTR [eax*4]

; 1792 :     _CSTD memset(_First_ch, 0, static_cast<size_t>(_Last_ch - _First_ch));

	push	esi
	push	0
	push	ebx
	call	_memset

; 1808 :             return _First + _Count;

	lea	eax, DWORD PTR [esi+ebx]

; 1792 :     _CSTD memset(_First_ch, 0, static_cast<size_t>(_Last_ch - _First_ch));

	add	esp, 12					; 0000000cH
	mov	esi, DWORD PTR _this$1$[esp+40]
$LN529@BuildStrip:
; File I:\Vitalya\mine\NSProjectX\layers\xrRender\NvTriStripObjects.cpp

; 92   : 	for (int i = 0; i < numIndices; i++)

	mov	DWORD PTR [ebp+4], eax
$LN37@BuildStrip:
	xor	ecx, ecx
	test	edi, edi
	jle	SHORT $LN3@BuildStrip
$LL4@BuildStrip:

; 93   : 		edgeInfos[i] = NULL;

	mov	eax, DWORD PTR [ebp]
	mov	DWORD PTR [eax+ecx*4], 0
	inc	ecx
	cmp	ecx, edi
	jl	SHORT $LL4@BuildStrip
$LN3@BuildStrip:

; 94   : 	
; 95   : 	// iterate through the triangles of the triangle list
; 96   : 	int numTriangles = numIndices / 3;

	mov	eax, 1431655766				; 55555556H

; 97   : 	int index        = 0;

	mov	ecx, 0
	imul	edi
	mov	eax, edx
	shr	eax, 31					; 0000001fH
	add	eax, edx
	mov	DWORD PTR _numTriangles$1$[esp+40], eax

; 98   : 	for (u32 i = 0; i < numTriangles; i++)

	je	$LN526@BuildStrip
	npad	4
$LL7@BuildStrip:
; File C:\Program Files\Microsoft Visual Studio\2022\Community\VC\Tools\MSVC\14.29.30133\include\vector

; 119  :         _Ptr += _Off;

	mov	eax, DWORD PTR [esi]
; File I:\Vitalya\mine\NSProjectX\xrCore\xrMemory_subst_msvc.h

; 86   : 	T* ptr	= (T*)Memory.mem_alloc(sizeof(T));

	push	24					; 00000018H
; File I:\Vitalya\mine\NSProjectX\layers\xrRender\NvTriStripObjects.cpp

; 101  : 		int v0 = indices[index++];

	movzx	edi, WORD PTR [eax+ecx*2]

; 102  : 		int v1 = indices[index++];

	movzx	esi, WORD PTR [eax+ecx*2+2]

; 103  : 		int v2 = indices[index++];

	movzx	ebx, WORD PTR [eax+ecx*2+4]
	add	ecx, 3
	mov	DWORD PTR _index$1$[esp+44], ecx
; File I:\Vitalya\mine\NSProjectX\xrCore\xrMemory_subst_msvc.h

; 86   : 	T* ptr	= (T*)Memory.mem_alloc(sizeof(T));

	mov	ecx, DWORD PTR __imp_?Memory@@3VxrMemory@@A
	call	DWORD PTR __imp_?mem_alloc@xrMemory@@QAEPAXI@Z
; File C:\Program Files\Microsoft Visual Studio\2022\Community\VC\Tools\MSVC\14.29.30133\include\vector

; 1536 :         return static_cast<size_type>(_My_data._Mylast - _My_data._Myfirst);

	mov	edx, DWORD PTR _faceInfos$[esp+36]
; File I:\Vitalya\mine\NSProjectX\layers\xrRender\NvTriStripObjects.cpp

; 68   : 	for(int i = 0; i < faceInfos.size(); i++)

	xor	ecx, ecx
; File I:\Vitalya\mine\NSProjectX\xrCore\xrMemory_subst_msvc.h

; 87   : 	return new (ptr) T(p1,p2,p3);

	mov	DWORD PTR $T1[esp+40], eax
; File I:\Vitalya\mine\NSProjectX\layers\xrRender\NvTriStripObjects.cpp

; 107  : 		NvFaceInfo *faceInfo = xr_new<NvFaceInfo>(v0, v1, v2);

	mov	DWORD PTR _faceInfo$2[esp+40], eax
; File I:\Vitalya\mine\NSProjectX\layers\xrRender\NvTriStripObjects.h

; 32   : 		m_v0 = v0; m_v1 = v1; m_v2 = v2;

	mov	DWORD PTR [eax], edi
	mov	DWORD PTR [eax+4], esi
	mov	DWORD PTR [eax+8], ebx

; 33   : 		m_stripId      = -1;

	mov	DWORD PTR [eax+12], -1

; 34   : 		m_testStripId  = -1;

	mov	DWORD PTR [eax+16], -1

; 35   : 		m_experimentId = -1;

	mov	DWORD PTR [eax+20], -1
; File C:\Program Files\Microsoft Visual Studio\2022\Community\VC\Tools\MSVC\14.29.30133\include\vector

; 1536 :         return static_cast<size_type>(_My_data._Mylast - _My_data._Myfirst);

	mov	eax, DWORD PTR [edx+4]
	mov	ebp, DWORD PTR [edx]
	mov	edx, eax
	sub	edx, ebp
	mov	DWORD PTR tv2466[esp+40], eax
	sar	edx, 2
; File I:\Vitalya\mine\NSProjectX\layers\xrRender\NvTriStripObjects.cpp

; 68   : 	for(int i = 0; i < faceInfos.size(); i++)

	test	edx, edx
	je	SHORT $LN131@BuildStrip
$LL132@BuildStrip:

; 69   : 	{
; 70   : 		if( (faceInfos[i]->m_v0 == faceInfo->m_v0) &&
; 71   : 			(faceInfos[i]->m_v1 == faceInfo->m_v1) &&

	mov	eax, DWORD PTR [ebp+ecx*4]
	cmp	DWORD PTR [eax], edi
	jne	SHORT $LN130@BuildStrip
	cmp	DWORD PTR [eax+4], esi
	jne	SHORT $LN130@BuildStrip
	cmp	DWORD PTR [eax+8], ebx
	je	$LN5@BuildStrip
$LN130@BuildStrip:

; 68   : 	for(int i = 0; i < faceInfos.size(); i++)

	inc	ecx
	cmp	ecx, edx
	jb	SHORT $LL132@BuildStrip
	mov	eax, DWORD PTR tv2466[esp+40]
$LN131@BuildStrip:
; File C:\Program Files\Microsoft Visual Studio\2022\Community\VC\Tools\MSVC\14.29.30133\include\vector

; 730  :         if (_Mylast != _My_data._Myend) {

	mov	ecx, DWORD PTR _faceInfos$[esp+36]
	cmp	eax, DWORD PTR [ecx+8]
	je	SHORT $LN193@BuildStrip

; 713  :         _Alty_traits::construct(_Getal(), _Unfancy(_Mylast), _STD forward<_Valty>(_Val)...);

	mov	edx, DWORD PTR $T1[esp+40]
	mov	DWORD PTR [eax], edx

; 714  :         _Orphan_range(_Mylast, _Mylast);
; 715  :         _Ty& _Result = *_Mylast;
; 716  :         ++_Mylast;

	add	DWORD PTR [ecx+4], 4

; 731  :             return _Emplace_back_with_unused_capacity(_STD forward<_Valty>(_Val)...);

	jmp	SHORT $LN192@BuildStrip
$LN193@BuildStrip:

; 732  :         }
; 733  : 
; 734  :         _Ty& _Result = *_Emplace_reallocate(_Mylast, _STD forward<_Valty>(_Val)...);

	lea	edx, DWORD PTR _faceInfo$2[esp+40]
	push	edx
	push	eax
	call	??$_Emplace_reallocate@ABQAVNvFaceInfo@@@?$vector@PAVNvFaceInfo@@V?$xalloc@PAVNvFaceInfo@@@@@std@@QAEPAPAVNvFaceInfo@@QAPAV2@ABQAV2@@Z ; std::vector<NvFaceInfo *,xalloc<NvFaceInfo *> >::_Emplace_reallocate<NvFaceInfo * const &>
	mov	edx, DWORD PTR $T1[esp+40]
$LN192@BuildStrip:
; File I:\Vitalya\mine\NSProjectX\layers\xrRender\NvTriStripObjects.cpp

; 33   : 	NvEdgeInfo *infoIter = edgeInfos[v0];

	mov	ebp, DWORD PTR _edgeInfos$[esp+36]
	mov	eax, DWORD PTR [ebp]
	mov	eax, DWORD PTR [eax+edi*4]

; 34   : 	while (infoIter != NULL){

	test	eax, eax
	je	SHORT $LN523@BuildStrip
$LL198@BuildStrip:

; 35   : 		if (infoIter->m_v0 == v0){

	mov	ecx, DWORD PTR [eax+12]
	cmp	ecx, edi
	jne	SHORT $LN200@BuildStrip

; 36   : 			if (infoIter->m_v1 == v1)

	cmp	DWORD PTR [eax+16], esi
	je	$LN9@BuildStrip

; 37   : 				return infoIter;
; 38   : 			else
; 39   : 				infoIter = infoIter->m_nextV0;

	mov	eax, DWORD PTR [eax+20]

; 40   : 		}

	jmp	SHORT $LN205@BuildStrip
$LN200@BuildStrip:

; 41   : 		else {
; 42   : 			assert(infoIter->m_v1 == v0);
; 43   : 			if (infoIter->m_v0 == v1)

	cmp	ecx, esi
	je	$LN9@BuildStrip

; 44   : 				return infoIter;
; 45   : 			else
; 46   : 				infoIter = infoIter->m_nextV1;

	mov	eax, DWORD PTR [eax+24]
$LN205@BuildStrip:

; 34   : 	while (infoIter != NULL){

	test	eax, eax
	jne	SHORT $LL198@BuildStrip
$LN523@BuildStrip:
; File I:\Vitalya\mine\NSProjectX\xrCore\xrMemory_subst_msvc.h

; 80   : 	T* ptr	= (T*)Memory.mem_alloc(sizeof(T));

	mov	ecx, DWORD PTR __imp_?Memory@@3VxrMemory@@A
	push	28					; 0000001cH
	call	DWORD PTR __imp_?mem_alloc@xrMemory@@QAEPAXI@Z

; 81   : 	return new (ptr) T(p1,p2);

	mov	ecx, eax
; File I:\Vitalya\mine\NSProjectX\layers\xrRender\NvTriStripObjects.cpp

; 126  : 				edgeInfo01->m_face0 = faceInfo;

	mov	edx, DWORD PTR $T1[esp+40]
; File I:\Vitalya\mine\NSProjectX\layers\xrRender\NvTriStripObjects.h

; 55   : 		m_face0    = NULL;

	mov	DWORD PTR [ecx+4], 0

; 56   : 		m_face1    = NULL;
; 57   : 		m_nextV0   = NULL;

	mov	DWORD PTR [ecx+20], 0

; 58   : 		m_nextV1   = NULL;

	mov	DWORD PTR [ecx+24], 0
	mov	DWORD PTR [ecx+12], edi
	mov	DWORD PTR [ecx+16], esi
	mov	DWORD PTR [ecx+8], 0

; 59   : 		
; 60   : 		// we will appear in 2 lists.  this is a good
; 61   : 		// way to make sure we _delete it the second time
; 62   : 		// we hit it in the edge infos
; 63   : 		m_refCount = 2;    

	mov	DWORD PTR [ecx], 2
; File I:\Vitalya\mine\NSProjectX\layers\xrRender\NvTriStripObjects.cpp

; 120  : 				edgeInfo01->m_nextV0 = edgeInfos[v0];

	mov	eax, DWORD PTR [ebp]
	mov	eax, DWORD PTR [eax+edi*4]
	mov	DWORD PTR [ecx+20], eax

; 121  : 				edgeInfo01->m_nextV1 = edgeInfos[v1];

	mov	eax, DWORD PTR [ebp]
	mov	eax, DWORD PTR [eax+esi*4]
	mov	DWORD PTR [ecx+24], eax

; 122  : 				edgeInfos[v0] = edgeInfo01;

	mov	eax, DWORD PTR [ebp]
	mov	DWORD PTR [eax+edi*4], ecx

; 123  : 				edgeInfos[v1] = edgeInfo01;

	mov	eax, DWORD PTR [ebp]
	mov	DWORD PTR [eax+esi*4], ecx

; 126  : 				edgeInfo01->m_face0 = faceInfo;

	mov	DWORD PTR [ecx+4], edx
$LN12@BuildStrip:

; 33   : 	NvEdgeInfo *infoIter = edgeInfos[v0];

	mov	eax, DWORD PTR [ebp]
	mov	eax, DWORD PTR [eax+esi*4]

; 34   : 	while (infoIter != NULL){

	test	eax, eax
	je	SHORT $LN524@BuildStrip
$LL297@BuildStrip:

; 35   : 		if (infoIter->m_v0 == v0){

	mov	ecx, DWORD PTR [eax+12]
	cmp	ecx, esi
	jne	SHORT $LN299@BuildStrip

; 36   : 			if (infoIter->m_v1 == v1)

	cmp	DWORD PTR [eax+16], ebx
	je	$LN13@BuildStrip

; 37   : 				return infoIter;
; 38   : 			else
; 39   : 				infoIter = infoIter->m_nextV0;

	mov	eax, DWORD PTR [eax+20]

; 40   : 		}

	jmp	SHORT $LN304@BuildStrip
$LN9@BuildStrip:

; 127  : 			}
; 128  : 			else {
; 129  : 				if (edgeInfo01->m_face1 != NULL)	;

	cmp	DWORD PTR [eax+8], 0
	jne	SHORT $LN12@BuildStrip

; 130  : 					//Msg("! WARNING: BuildStripifyInfo: > 2 triangles on an edge... uncertain consequences");
; 131  : 				else
; 132  : 					edgeInfo01->m_face1 = faceInfo;

	mov	DWORD PTR [eax+8], edx
	jmp	SHORT $LN12@BuildStrip
$LN299@BuildStrip:

; 43   : 			if (infoIter->m_v0 == v1)

	cmp	ecx, ebx
	je	$LN13@BuildStrip

; 44   : 				return infoIter;
; 45   : 			else
; 46   : 				infoIter = infoIter->m_nextV1;

	mov	eax, DWORD PTR [eax+24]
$LN304@BuildStrip:

; 34   : 	while (infoIter != NULL){

	test	eax, eax
	jne	SHORT $LL297@BuildStrip
$LN524@BuildStrip:
; File I:\Vitalya\mine\NSProjectX\xrCore\xrMemory_subst_msvc.h

; 80   : 	T* ptr	= (T*)Memory.mem_alloc(sizeof(T));

	mov	ecx, DWORD PTR __imp_?Memory@@3VxrMemory@@A
	push	28					; 0000001cH
	call	DWORD PTR __imp_?mem_alloc@xrMemory@@QAEPAXI@Z

; 81   : 	return new (ptr) T(p1,p2);

	mov	ecx, eax
; File I:\Vitalya\mine\NSProjectX\layers\xrRender\NvTriStripObjects.cpp

; 149  : 				edgeInfo12->m_face0 = faceInfo;

	mov	edx, DWORD PTR $T1[esp+40]
; File I:\Vitalya\mine\NSProjectX\layers\xrRender\NvTriStripObjects.h

; 55   : 		m_face0    = NULL;

	mov	DWORD PTR [ecx+4], 0

; 56   : 		m_face1    = NULL;
; 57   : 		m_nextV0   = NULL;

	mov	DWORD PTR [ecx+20], 0

; 58   : 		m_nextV1   = NULL;

	mov	DWORD PTR [ecx+24], 0
	mov	DWORD PTR [ecx+12], esi
	mov	DWORD PTR [ecx+16], ebx
	mov	DWORD PTR [ecx+8], 0

; 59   : 		
; 60   : 		// we will appear in 2 lists.  this is a good
; 61   : 		// way to make sure we _delete it the second time
; 62   : 		// we hit it in the edge infos
; 63   : 		m_refCount = 2;    

	mov	DWORD PTR [ecx], 2
; File I:\Vitalya\mine\NSProjectX\layers\xrRender\NvTriStripObjects.cpp

; 143  : 				edgeInfo12->m_nextV0 = edgeInfos[v1];

	mov	eax, DWORD PTR [ebp]
	mov	eax, DWORD PTR [eax+esi*4]
	mov	DWORD PTR [ecx+20], eax

; 144  : 				edgeInfo12->m_nextV1 = edgeInfos[v2];

	mov	eax, DWORD PTR [ebp]
	mov	eax, DWORD PTR [eax+ebx*4]
	mov	DWORD PTR [ecx+24], eax

; 145  : 				edgeInfos[v1] = edgeInfo12;

	mov	eax, DWORD PTR [ebp]
	mov	DWORD PTR [eax+esi*4], ecx

; 146  : 				edgeInfos[v2] = edgeInfo12;

	mov	eax, DWORD PTR [ebp]
	mov	DWORD PTR [eax+ebx*4], ecx

; 149  : 				edgeInfo12->m_face0 = faceInfo;

	mov	DWORD PTR [ecx+4], edx
$LN16@BuildStrip:

; 33   : 	NvEdgeInfo *infoIter = edgeInfos[v0];

	mov	eax, DWORD PTR [ebp]
	mov	eax, DWORD PTR [eax+ebx*4]

; 34   : 	while (infoIter != NULL){

	test	eax, eax
	je	SHORT $LN525@BuildStrip
$LL396@BuildStrip:

; 35   : 		if (infoIter->m_v0 == v0){

	mov	ecx, DWORD PTR [eax+12]
	cmp	ecx, ebx
	jne	SHORT $LN398@BuildStrip

; 36   : 			if (infoIter->m_v1 == v1)

	cmp	DWORD PTR [eax+16], edi
	je	$LN17@BuildStrip

; 37   : 				return infoIter;
; 38   : 			else
; 39   : 				infoIter = infoIter->m_nextV0;

	mov	eax, DWORD PTR [eax+20]

; 40   : 		}

	jmp	SHORT $LN403@BuildStrip
$LN13@BuildStrip:

; 150  : 			}
; 151  : 			else {
; 152  : 				if (edgeInfo12->m_face1 != NULL)	;

	cmp	DWORD PTR [eax+8], 0
	jne	SHORT $LN16@BuildStrip

; 153  : 					//Msg("! WARNING: BuildStripifyInfo: > 2 triangles on an edge... uncertain consequences");
; 154  : 				else
; 155  : 					edgeInfo12->m_face1 = faceInfo;

	mov	DWORD PTR [eax+8], edx
	jmp	SHORT $LN16@BuildStrip
$LN398@BuildStrip:

; 43   : 			if (infoIter->m_v0 == v1)

	cmp	ecx, edi
	je	$LN17@BuildStrip

; 44   : 				return infoIter;
; 45   : 			else
; 46   : 				infoIter = infoIter->m_nextV1;

	mov	eax, DWORD PTR [eax+24]
$LN403@BuildStrip:

; 34   : 	while (infoIter != NULL){

	test	eax, eax
	jne	SHORT $LL396@BuildStrip
$LN525@BuildStrip:
; File I:\Vitalya\mine\NSProjectX\xrCore\xrMemory_subst_msvc.h

; 80   : 	T* ptr	= (T*)Memory.mem_alloc(sizeof(T));

	mov	ecx, DWORD PTR __imp_?Memory@@3VxrMemory@@A
	push	28					; 0000001cH
	call	DWORD PTR __imp_?mem_alloc@xrMemory@@QAEPAXI@Z

; 81   : 	return new (ptr) T(p1,p2);

	mov	ecx, eax
; File I:\Vitalya\mine\NSProjectX\layers\xrRender\NvTriStripObjects.h

; 55   : 		m_face0    = NULL;

	mov	DWORD PTR [ecx+4], 0

; 56   : 		m_face1    = NULL;
; 57   : 		m_nextV0   = NULL;

	mov	DWORD PTR [ecx+20], 0

; 58   : 		m_nextV1   = NULL;

	mov	DWORD PTR [ecx+24], 0
	mov	DWORD PTR [ecx+12], ebx
	mov	DWORD PTR [ecx+16], edi
	mov	DWORD PTR [ecx+8], 0

; 59   : 		
; 60   : 		// we will appear in 2 lists.  this is a good
; 61   : 		// way to make sure we _delete it the second time
; 62   : 		// we hit it in the edge infos
; 63   : 		m_refCount = 2;    

	mov	DWORD PTR [ecx], 2
; File I:\Vitalya\mine\NSProjectX\layers\xrRender\NvTriStripObjects.cpp

; 166  : 				edgeInfo20->m_nextV0 = edgeInfos[v2];

	mov	eax, DWORD PTR [ebp]
	mov	eax, DWORD PTR [eax+ebx*4]
	mov	DWORD PTR [ecx+20], eax

; 167  : 				edgeInfo20->m_nextV1 = edgeInfos[v0];

	mov	eax, DWORD PTR [ebp]
	mov	eax, DWORD PTR [eax+edi*4]
	mov	DWORD PTR [ecx+24], eax

; 168  : 				edgeInfos[v2] = edgeInfo20;

	mov	eax, DWORD PTR [ebp]
	mov	DWORD PTR [eax+ebx*4], ecx

; 169  : 				edgeInfos[v0] = edgeInfo20;

	mov	eax, DWORD PTR [ebp]
	mov	DWORD PTR [eax+edi*4], ecx

; 170  : 				
; 171  : 				// set face 0
; 172  : 				edgeInfo20->m_face0 = faceInfo;

	mov	eax, DWORD PTR $T1[esp+40]
	mov	DWORD PTR [ecx+4], eax
$LN5@BuildStrip:

; 98   : 	for (u32 i = 0; i < numTriangles; i++)

	sub	DWORD PTR _numTriangles$1$[esp+40], 1
	mov	ecx, DWORD PTR _index$1$[esp+40]
	mov	esi, DWORD PTR _this$1$[esp+40]
	jne	$LL7@BuildStrip
$LN526@BuildStrip:
	pop	ebp
	pop	ebx
	pop	edi

; 183  : }

	pop	esi
	add	esp, 24					; 00000018H
	ret	8
$LN17@BuildStrip:

; 173  : 			}
; 174  : 			else {
; 175  : 				if (edgeInfo20->m_face1 != NULL)	;

	cmp	DWORD PTR [eax+8], 0
	jne	SHORT $LN5@BuildStrip

; 176  : 					//Msg("! WARNING: BuildStripifyInfo: > 2 triangles on an edge... uncertain consequences");
; 177  : 				else
; 178  : 					edgeInfo20->m_face1 = faceInfo;

	mov	DWORD PTR [eax+8], edx
	jmp	SHORT $LN5@BuildStrip
$LN531@BuildStrip:
; File C:\Program Files\Microsoft Visual Studio\2022\Community\VC\Tools\MSVC\14.29.30133\include\vector

; 1360 :                 _Xlength();

	call	?_Xlength@?$vector@PAVNvFaceInfo@@V?$xalloc@PAVNvFaceInfo@@@@@std@@CAXXZ ; std::vector<NvFaceInfo *,xalloc<NvFaceInfo *> >::_Xlength
$LN528@BuildStrip:
	int	3
?BuildStripifyInfo@NvStripifier@@IAEXAAV?$xr_vector@PAVNvFaceInfo@@V?$xalloc@PAVNvFaceInfo@@@@@@AAV?$xr_vector@PAVNvEdgeInfo@@V?$xalloc@PAVNvEdgeInfo@@@@@@@Z ENDP ; NvStripifier::BuildStripifyInfo
_TEXT	ENDS
; Function compile flags: /Ogtpy
; File I:\Vitalya\mine\NSProjectX\layers\xrRender\NvTriStripObjects.cpp
; File C:\Program Files\Microsoft Visual Studio\2022\Community\VC\Tools\MSVC\14.29.30133\include\vector
; File I:\Vitalya\mine\NSProjectX\layers\xrRender\NvTriStripObjects.cpp
; File C:\Program Files\Microsoft Visual Studio\2022\Community\VC\Tools\MSVC\14.29.30133\include\vector
; File I:\Vitalya\mine\NSProjectX\layers\xrRender\NvTriStripObjects.cpp
; File C:\Program Files\Microsoft Visual Studio\2022\Community\VC\Tools\MSVC\14.29.30133\include\vector
; File I:\Vitalya\mine\NSProjectX\layers\xrRender\NvTriStripObjects.cpp
; File C:\Program Files\Microsoft Visual Studio\2022\Community\VC\Tools\MSVC\14.29.30133\include\vector
; File I:\Vitalya\mine\NSProjectX\layers\xrRender\NvTriStripObjects.cpp
_TEXT	SEGMENT
_i$1$ = -12						; size = 4
tv1210 = -8						; size = 4
$T1 = -4						; size = 4
$T2 = 8							; size = 4
_faceInfos$ = 8						; size = 4
_edgeInfos$ = 12					; size = 4
?FindStartPoint@NvStripifier@@IAEHAAV?$xr_vector@PAVNvFaceInfo@@V?$xalloc@PAVNvFaceInfo@@@@@@AAV?$xr_vector@PAVNvEdgeInfo@@V?$xalloc@PAVNvEdgeInfo@@@@@@@Z PROC ; NvStripifier::FindStartPoint
; _this$dead$ = ecx

; 191  : {

	sub	esp, 12					; 0000000cH
; File C:\Program Files\Microsoft Visual Studio\2022\Community\VC\Tools\MSVC\14.29.30133\include\vector

; 1536 :         return static_cast<size_type>(_My_data._Mylast - _My_data._Myfirst);

	mov	eax, DWORD PTR _faceInfos$[esp+8]
; File I:\Vitalya\mine\NSProjectX\layers\xrRender\NvTriStripObjects.cpp

; 192  : 	for(int i = 0; i < faceInfos.size(); i++)

	xor	ecx, ecx
	push	ebx
	push	ebp
	push	esi
; File C:\Program Files\Microsoft Visual Studio\2022\Community\VC\Tools\MSVC\14.29.30133\include\vector

; 1536 :         return static_cast<size_type>(_My_data._Mylast - _My_data._Myfirst);

	mov	edx, DWORD PTR [eax]
	mov	eax, DWORD PTR [eax+4]
	sub	eax, edx
; File I:\Vitalya\mine\NSProjectX\layers\xrRender\NvTriStripObjects.cpp

; 192  : 	for(int i = 0; i < faceInfos.size(); i++)

	mov	DWORD PTR _i$1$[esp+24], ecx
; File C:\Program Files\Microsoft Visual Studio\2022\Community\VC\Tools\MSVC\14.29.30133\include\vector

; 1536 :         return static_cast<size_type>(_My_data._Mylast - _My_data._Myfirst);

	sar	eax, 2
	mov	DWORD PTR $T1[esp+24], edx
	mov	DWORD PTR tv1210[esp+24], eax
; File I:\Vitalya\mine\NSProjectX\layers\xrRender\NvTriStripObjects.cpp

; 191  : {

	push	edi

; 192  : 	for(int i = 0; i < faceInfos.size(); i++)

	test	eax, eax
	je	$LN3@FindStartP
; File C:\Program Files\Microsoft Visual Studio\2022\Community\VC\Tools\MSVC\14.29.30133\include\vector

; 1463 :         return iterator(_My_data._Myfirst, _STD addressof(_My_data));

	mov	eax, DWORD PTR _edgeInfos$[esp+24]
	mov	eax, DWORD PTR [eax]
	mov	DWORD PTR $T2[esp+24], eax
$LL4@FindStartP:
; File I:\Vitalya\mine\NSProjectX\layers\xrRender\NvTriStripObjects.cpp

; 196  : 		if(FindOtherFace(edgeInfos, faceInfos[i]->m_v0, faceInfos[i]->m_v1, faceInfos[i]) == NULL)

	mov	ebp, DWORD PTR [edx+ecx*4]
	mov	edi, DWORD PTR [ebp]
	mov	edx, DWORD PTR [ebp+4]

; 33   : 	NvEdgeInfo *infoIter = edgeInfos[v0];

	mov	eax, DWORD PTR [eax+edi*4]

; 34   : 	while (infoIter != NULL){

	test	eax, eax
	je	SHORT $LN71@FindStartP
$LL70@FindStartP:

; 35   : 		if (infoIter->m_v0 == v0){

	mov	ecx, DWORD PTR [eax+12]
	cmp	ecx, edi
	jne	SHORT $LN72@FindStartP

; 36   : 			if (infoIter->m_v1 == v1)

	cmp	DWORD PTR [eax+16], edx
	je	SHORT $LN69@FindStartP

; 37   : 				return infoIter;
; 38   : 			else
; 39   : 				infoIter = infoIter->m_nextV0;

	mov	eax, DWORD PTR [eax+20]

; 40   : 		}

	jmp	SHORT $LN77@FindStartP
$LN72@FindStartP:

; 41   : 		else {
; 42   : 			assert(infoIter->m_v1 == v0);
; 43   : 			if (infoIter->m_v0 == v1)

	cmp	ecx, edx
	je	SHORT $LN69@FindStartP

; 44   : 				return infoIter;
; 45   : 			else
; 46   : 				infoIter = infoIter->m_nextV1;

	mov	eax, DWORD PTR [eax+24]
$LN77@FindStartP:

; 34   : 	while (infoIter != NULL){

	test	eax, eax
	jne	SHORT $LL70@FindStartP
$LN71@FindStartP:

; 47   : 		}
; 48   : 	}
; 49   : 	return NULL;

	xor	eax, eax
$LN69@FindStartP:

; 62   : 	return (edgeInfo->m_face0 == faceInfo ? edgeInfo->m_face1 : edgeInfo->m_face0);

	mov	ecx, DWORD PTR [eax+4]
	cmp	ecx, ebp
	jne	SHORT $LN67@FindStartP
	mov	ecx, DWORD PTR [eax+8]
$LN67@FindStartP:

; 33   : 	NvEdgeInfo *infoIter = edgeInfos[v0];

	mov	eax, DWORD PTR $T2[esp+24]

; 197  : 			ctr++;
; 198  : 		if(FindOtherFace(edgeInfos, faceInfos[i]->m_v1, faceInfos[i]->m_v2, faceInfos[i]) == NULL)

	xor	ebx, ebx
	mov	esi, DWORD PTR [ebp+8]
	test	ecx, ecx
	sete	bl

; 33   : 	NvEdgeInfo *infoIter = edgeInfos[v0];

	mov	eax, DWORD PTR [eax+edx*4]

; 34   : 	while (infoIter != NULL){

	test	eax, eax
	je	SHORT $LN153@FindStartP
$LL152@FindStartP:

; 35   : 		if (infoIter->m_v0 == v0){

	mov	ecx, DWORD PTR [eax+12]
	cmp	ecx, edx
	jne	SHORT $LN154@FindStartP

; 36   : 			if (infoIter->m_v1 == v1)

	cmp	DWORD PTR [eax+16], esi
	je	SHORT $LN151@FindStartP

; 37   : 				return infoIter;
; 38   : 			else
; 39   : 				infoIter = infoIter->m_nextV0;

	mov	eax, DWORD PTR [eax+20]

; 40   : 		}

	jmp	SHORT $LN159@FindStartP
$LN154@FindStartP:

; 41   : 		else {
; 42   : 			assert(infoIter->m_v1 == v0);
; 43   : 			if (infoIter->m_v0 == v1)

	cmp	ecx, esi
	je	SHORT $LN151@FindStartP

; 44   : 				return infoIter;
; 45   : 			else
; 46   : 				infoIter = infoIter->m_nextV1;

	mov	eax, DWORD PTR [eax+24]
$LN159@FindStartP:

; 34   : 	while (infoIter != NULL){

	test	eax, eax
	jne	SHORT $LL152@FindStartP
$LN153@FindStartP:

; 47   : 		}
; 48   : 	}
; 49   : 	return NULL;

	xor	eax, eax
$LN151@FindStartP:

; 62   : 	return (edgeInfo->m_face0 == faceInfo ? edgeInfo->m_face1 : edgeInfo->m_face0);

	mov	ecx, DWORD PTR [eax+4]
	cmp	ecx, ebp
	jne	SHORT $LN149@FindStartP
	mov	ecx, DWORD PTR [eax+8]
$LN149@FindStartP:

; 33   : 	NvEdgeInfo *infoIter = edgeInfos[v0];

	mov	eax, DWORD PTR $T2[esp+24]

; 199  : 			ctr++;
; 200  : 		if(FindOtherFace(edgeInfos, faceInfos[i]->m_v2, faceInfos[i]->m_v0, faceInfos[i]) == NULL)

	lea	edx, DWORD PTR [ebx+1]
	test	ecx, ecx
	cmovne	edx, ebx

; 33   : 	NvEdgeInfo *infoIter = edgeInfos[v0];

	mov	eax, DWORD PTR [eax+esi*4]

; 34   : 	while (infoIter != NULL){

	test	eax, eax
	je	SHORT $LN235@FindStartP
	npad	3
$LL234@FindStartP:

; 35   : 		if (infoIter->m_v0 == v0){

	mov	ecx, DWORD PTR [eax+12]
	cmp	ecx, esi
	jne	SHORT $LN236@FindStartP

; 36   : 			if (infoIter->m_v1 == v1)

	cmp	DWORD PTR [eax+16], edi
	je	SHORT $LN233@FindStartP

; 37   : 				return infoIter;
; 38   : 			else
; 39   : 				infoIter = infoIter->m_nextV0;

	mov	eax, DWORD PTR [eax+20]

; 40   : 		}

	jmp	SHORT $LN241@FindStartP
$LN236@FindStartP:

; 41   : 		else {
; 42   : 			assert(infoIter->m_v1 == v0);
; 43   : 			if (infoIter->m_v0 == v1)

	cmp	ecx, edi
	je	SHORT $LN233@FindStartP

; 44   : 				return infoIter;
; 45   : 			else
; 46   : 				infoIter = infoIter->m_nextV1;

	mov	eax, DWORD PTR [eax+24]
$LN241@FindStartP:

; 34   : 	while (infoIter != NULL){

	test	eax, eax
	jne	SHORT $LL234@FindStartP
$LN235@FindStartP:

; 47   : 		}
; 48   : 	}
; 49   : 	return NULL;

	xor	eax, eax
$LN233@FindStartP:

; 62   : 	return (edgeInfo->m_face0 == faceInfo ? edgeInfo->m_face1 : edgeInfo->m_face0);

	mov	ecx, DWORD PTR [eax+4]
	cmp	ecx, ebp
	jne	SHORT $LN231@FindStartP
	mov	ecx, DWORD PTR [eax+8]
$LN231@FindStartP:

; 201  : 			ctr++;
; 202  : 		if(ctr > 1)

	test	ecx, ecx
	lea	eax, DWORD PTR [edx+1]
	cmovne	eax, edx
	cmp	eax, 1
	ja	SHORT $LN270@FindStartP

; 192  : 	for(int i = 0; i < faceInfos.size(); i++)

	mov	ecx, DWORD PTR _i$1$[esp+28]
	mov	eax, DWORD PTR $T2[esp+24]
	inc	ecx
	mov	edx, DWORD PTR $T1[esp+28]
	mov	DWORD PTR _i$1$[esp+28], ecx
	cmp	ecx, DWORD PTR tv1210[esp+28]
	jb	$LL4@FindStartP
$LN3@FindStartP:
	pop	edi

; 204  : 	}
; 205  : 	return -1;
; 206  : }

	pop	esi
	pop	ebp
	or	eax, -1
	pop	ebx
	add	esp, 12					; 0000000cH
	ret	8
$LN270@FindStartP:

; 203  : 			return i;

	mov	eax, DWORD PTR _i$1$[esp+28]
	pop	edi

; 204  : 	}
; 205  : 	return -1;
; 206  : }

	pop	esi
	pop	ebp
	pop	ebx
	add	esp, 12					; 0000000cH
	ret	8
?FindStartPoint@NvStripifier@@IAEHAAV?$xr_vector@PAVNvFaceInfo@@V?$xalloc@PAVNvFaceInfo@@@@@@AAV?$xr_vector@PAVNvEdgeInfo@@V?$xalloc@PAVNvEdgeInfo@@@@@@@Z ENDP ; NvStripifier::FindStartPoint
_TEXT	ENDS
; Function compile flags: /Ogtpy
; File I:\Vitalya\mine\NSProjectX\layers\xrRender\NvTriStripObjects.cpp
; File C:\Program Files\Microsoft Visual Studio\2022\Community\VC\Tools\MSVC\14.29.30133\include\vector
; File I:\Vitalya\mine\NSProjectX\layers\xrRender\NvTriStripObjects.cpp
; File C:\Program Files\Microsoft Visual Studio\2022\Community\VC\Tools\MSVC\14.29.30133\include\vector
; File I:\Vitalya\mine\NSProjectX\layers\xrRender\NvTriStripObjects.cpp
; File C:\Program Files\Microsoft Visual Studio\2022\Community\VC\Tools\MSVC\14.29.30133\include\vector
; File I:\Vitalya\mine\NSProjectX\layers\xrRender\NvTriStripObjects.cpp
; File C:\Program Files\Microsoft Visual Studio\2022\Community\VC\Tools\MSVC\14.29.30133\include\vector
; File I:\Vitalya\mine\NSProjectX\layers\xrRender\NvTriStripObjects.cpp
_TEXT	SEGMENT
_faceInfos$ = 8						; size = 4
_edgeInfos$ = 12					; size = 4
?FindGoodResetPoint@NvStripifier@@IAEPAVNvFaceInfo@@AAV?$xr_vector@PAVNvFaceInfo@@V?$xalloc@PAVNvFaceInfo@@@@@@AAV?$xr_vector@PAVNvEdgeInfo@@V?$xalloc@PAVNvEdgeInfo@@@@@@@Z PROC ; NvStripifier::FindGoodResetPoint
; _this$ = ecx
; File C:\Program Files\Microsoft Visual Studio\2022\Community\VC\Tools\MSVC\14.29.30133\include\vector

; 1536 :         return static_cast<size_type>(_My_data._Mylast - _My_data._Myfirst);

	mov	eax, DWORD PTR _faceInfos$[esp-4]
; File I:\Vitalya\mine\NSProjectX\layers\xrRender\NvTriStripObjects.cpp

; 226  : 		if(bFirstTimeResetPoint)

	movss	xmm3, DWORD PTR __real@3f800000
	push	ebx
	push	ebp
	push	esi
; File C:\Program Files\Microsoft Visual Studio\2022\Community\VC\Tools\MSVC\14.29.30133\include\vector

; 1536 :         return static_cast<size_type>(_My_data._Mylast - _My_data._Myfirst);

	mov	esi, DWORD PTR [eax]
; File I:\Vitalya\mine\NSProjectX\layers\xrRender\NvTriStripObjects.cpp

; 216  : NvFaceInfo* NvStripifier::FindGoodResetPoint(NvFaceInfoVec &faceInfos, NvEdgeInfoVec &edgeInfos){

	mov	ebx, ecx
	push	edi
; File C:\Program Files\Microsoft Visual Studio\2022\Community\VC\Tools\MSVC\14.29.30133\include\vector

; 1536 :         return static_cast<size_type>(_My_data._Mylast - _My_data._Myfirst);

	mov	edi, DWORD PTR [eax+4]
; File I:\Vitalya\mine\NSProjectX\layers\xrRender\NvTriStripObjects.cpp

; 220  : 	NvFaceInfo *result = NULL;

	xor	ebp, ebp
; File C:\Program Files\Microsoft Visual Studio\2022\Community\VC\Tools\MSVC\14.29.30133\include\vector

; 1536 :         return static_cast<size_type>(_My_data._Mylast - _My_data._Myfirst);

	sub	edi, esi
	sar	edi, 2
; File I:\Vitalya\mine\NSProjectX\layers\xrRender\NvTriStripObjects.cpp

; 226  : 		if(bFirstTimeResetPoint)

	cmp	BYTE PTR [ebx+24], 0
	cvtsi2ss xmm2, edi
	je	SHORT $LN6@FindGoodRe

; 227  : 		{
; 228  : 			//first time, find a face with few neighbors (look for an edge of the mesh)
; 229  : 			startPoint = FindStartPoint(faceInfos, edgeInfos);

	push	DWORD PTR _edgeInfos$[esp+12]
	push	eax
	call	?FindStartPoint@NvStripifier@@IAEHAAV?$xr_vector@PAVNvFaceInfo@@V?$xalloc@PAVNvFaceInfo@@@@@@AAV?$xr_vector@PAVNvEdgeInfo@@V?$xalloc@PAVNvEdgeInfo@@@@@@@Z ; NvStripifier::FindStartPoint

; 230  : 			bFirstTimeResetPoint = false;

	mov	esi, DWORD PTR _faceInfos$[esp+12]
	mov	edx, eax
	movss	xmm1, DWORD PTR [ebx+20]
	mov	BYTE PTR [ebx+24], 0
	mov	esi, DWORD PTR [esi]

; 231  : 		}

	jmp	SHORT $LN57@FindGoodRe
$LN6@FindGoodRe:

; 232  : 		else
; 233  : 			startPoint = (int)(((float) numFaces - 1) * meshJump);

	movss	xmm1, DWORD PTR [ebx+20]
	movaps	xmm0, xmm2
	subss	xmm0, xmm3
	mulss	xmm0, xmm1
	cvttss2si edx, xmm0
$LN57@FindGoodRe:

; 234  : 		
; 235  : 		if(startPoint == -1)

	movaps	xmm0, xmm1
	cmp	edx, -1
	jne	SHORT $LN8@FindGoodRe

; 236  : 			startPoint = (int)(((float) numFaces - 1) * meshJump);

	subss	xmm2, xmm3
	mulss	xmm2, xmm0
	cvttss2si edx, xmm2
$LN8@FindGoodRe:

; 237  : 		
; 238  : 		int i = startPoint;
; 239  : 		do {
; 240  : 			
; 241  : 			// if this guy isn't visited, try him
; 242  : 			if (faceInfos[i]->m_stripId < 0){

	mov	eax, DWORD PTR [esi+edx*4]
	mov	ecx, edx
	cmp	DWORD PTR [eax+12], ebp
	jl	SHORT $LN52@FindGoodRe
$LL4@FindGoodRe:

; 244  : 				break;
; 245  : 			}
; 246  : 			
; 247  : 			// update the index and clamp to 0-(numFaces-1)
; 248  : 			if (++i >= numFaces)

	lea	eax, DWORD PTR [ecx+1]

; 249  : 				i = 0;
; 250  : 			
; 251  : 		} while (i != startPoint);

	xor	ecx, ecx
	cmp	eax, edi
	cmovl	ecx, eax
	cmp	ecx, edx
	je	SHORT $LN3@FindGoodRe

; 237  : 		
; 238  : 		int i = startPoint;
; 239  : 		do {
; 240  : 			
; 241  : 			// if this guy isn't visited, try him
; 242  : 			if (faceInfos[i]->m_stripId < 0){

	mov	eax, DWORD PTR [esi+ecx*4]
	cmp	DWORD PTR [eax+12], ebp
	jge	SHORT $LL4@FindGoodRe
$LN52@FindGoodRe:

; 243  : 				result = faceInfos[i];

	mov	ebp, DWORD PTR [esi+ecx*4]
$LN3@FindGoodRe:

; 252  : 		
; 253  : 		// update the meshJump
; 254  : 		meshJump += 0.1f;

	addss	xmm1, DWORD PTR __real@3dcccccd

; 255  : 		if (meshJump > 1.0f)

	mov	eax, ebp
	comiss	xmm1, xmm3
	movss	DWORD PTR [ebx+20], xmm1
	jbe	SHORT $LN11@FindGoodRe

; 256  : 			meshJump = .05f;

	mov	DWORD PTR [ebx+20], 1028443341		; 3d4ccccdH
$LN11@FindGoodRe:
	pop	edi

; 257  : 	}
; 258  : 	
; 259  : 	// return the best face we found
; 260  : 	return result;
; 261  : }

	pop	esi
	pop	ebp
	pop	ebx
	ret	8
?FindGoodResetPoint@NvStripifier@@IAEPAVNvFaceInfo@@AAV?$xr_vector@PAVNvFaceInfo@@V?$xalloc@PAVNvFaceInfo@@@@@@AAV?$xr_vector@PAVNvEdgeInfo@@V?$xalloc@PAVNvEdgeInfo@@@@@@@Z ENDP ; NvStripifier::FindGoodResetPoint
_TEXT	ENDS
; Function compile flags: /Ogtpy
; File I:\Vitalya\mine\NSProjectX\layers\xrRender\NvTriStripObjects.cpp
_TEXT	SEGMENT
?GetUniqueVertexInB@NvStripifier@@SAHPAVNvFaceInfo@@0@Z PROC ; NvStripifier::GetUniqueVertexInB
; _faceA$ = ecx
; _faceB$ = edx

; 270  : 	
; 271  : 	int facev0 = faceB->m_v0;

	mov	eax, DWORD PTR [edx]
	push	esi

; 272  : 	if (facev0 != faceA->m_v0 &&
; 273  : 		facev0 != faceA->m_v1 &&

	mov	esi, DWORD PTR [ecx]
	cmp	eax, esi
	je	SHORT $LN2@GetUniqueV
	cmp	eax, DWORD PTR [ecx+4]
	je	SHORT $LN2@GetUniqueV
	cmp	eax, DWORD PTR [ecx+8]
	jne	SHORT $LN1@GetUniqueV
$LN2@GetUniqueV:

; 274  : 		facev0 != faceA->m_v2)
; 275  : 		return facev0;
; 276  : 	
; 277  : 	int facev1 = faceB->m_v1;

	mov	eax, DWORD PTR [edx+4]

; 278  : 	if (facev1 != faceA->m_v0 &&
; 279  : 		facev1 != faceA->m_v1 &&

	cmp	eax, esi
	je	SHORT $LN3@GetUniqueV
	cmp	eax, DWORD PTR [ecx+4]
	je	SHORT $LN3@GetUniqueV
	cmp	eax, DWORD PTR [ecx+8]
	jne	SHORT $LN1@GetUniqueV
$LN3@GetUniqueV:

; 280  : 		facev1 != faceA->m_v2)
; 281  : 		return facev1;
; 282  : 	
; 283  : 	int facev2 = faceB->m_v2;

	mov	eax, DWORD PTR [edx+8]

; 284  : 	if (facev2 != faceA->m_v0 &&
; 285  : 		facev2 != faceA->m_v1 &&

	cmp	eax, esi
	je	SHORT $LN4@GetUniqueV
	cmp	eax, DWORD PTR [ecx+4]
	je	SHORT $LN4@GetUniqueV
	cmp	eax, DWORD PTR [ecx+8]
	jne	SHORT $LN1@GetUniqueV
$LN4@GetUniqueV:

; 286  : 		facev2 != faceA->m_v2)
; 287  : 		return facev2;
; 288  : 	
; 289  : 	// nothing is different
; 290  : 	return -1;

	or	eax, -1
$LN1@GetUniqueV:
	pop	esi

; 291  : }

	ret	0
?GetUniqueVertexInB@NvStripifier@@SAHPAVNvFaceInfo@@0@Z ENDP ; NvStripifier::GetUniqueVertexInB
_TEXT	ENDS
; Function compile flags: /Ogtpy
; File I:\Vitalya\mine\NSProjectX\layers\xrRender\NvTriStripObjects.cpp
_TEXT	SEGMENT
?GetSharedVertex@NvStripifier@@SAHPAVNvFaceInfo@@0@Z PROC ; NvStripifier::GetSharedVertex
; _faceA$ = ecx
; _faceB$ = edx

; 300  : 	
; 301  : 	int facev0 = faceB->m_v0;

	mov	eax, DWORD PTR [edx]
	push	esi
	push	edi

; 302  : 	if (facev0 == faceA->m_v0 ||
; 303  : 		facev0 == faceA->m_v1 ||

	mov	edi, DWORD PTR [ecx]
	cmp	eax, edi
	je	SHORT $LN1@GetSharedV
	mov	esi, DWORD PTR [ecx+4]
	cmp	eax, esi
	je	SHORT $LN1@GetSharedV
	mov	ecx, DWORD PTR [ecx+8]
	cmp	eax, ecx
	je	SHORT $LN1@GetSharedV

; 304  : 		facev0 == faceA->m_v2)
; 305  : 		return facev0;
; 306  : 	
; 307  : 	int facev1 = faceB->m_v1;

	mov	eax, DWORD PTR [edx+4]

; 308  : 	if (facev1 == faceA->m_v0 ||
; 309  : 		facev1 == faceA->m_v1 ||

	cmp	eax, edi
	je	SHORT $LN1@GetSharedV
	cmp	eax, esi
	je	SHORT $LN1@GetSharedV
	cmp	eax, ecx
	je	SHORT $LN1@GetSharedV

; 310  : 		facev1 == faceA->m_v2)
; 311  : 		return facev1;
; 312  : 	
; 313  : 	int facev2 = faceB->m_v2;

	mov	eax, DWORD PTR [edx+8]

; 314  : 	if (facev2 == faceA->m_v0 ||
; 315  : 		facev2 == faceA->m_v1 ||

	cmp	eax, edi
	je	SHORT $LN1@GetSharedV
	cmp	eax, esi
	je	SHORT $LN1@GetSharedV
	cmp	eax, ecx
	je	SHORT $LN1@GetSharedV

; 316  : 		facev2 == faceA->m_v2)
; 317  : 		return facev2;
; 318  : 	
; 319  : 	// nothing is shared
; 320  : 	return -1;

	or	eax, -1
$LN1@GetSharedV:
	pop	edi

; 321  : }

	pop	esi
	ret	0
?GetSharedVertex@NvStripifier@@SAHPAVNvFaceInfo@@0@Z ENDP ; NvStripifier::GetSharedVertex
_TEXT	ENDS
; Function compile flags: /Ogtpy
; File I:\Vitalya\mine\NSProjectX\layers\xrRender\NvTriStripObjects.cpp
; File C:\Program Files\Microsoft Visual Studio\2022\Community\VC\Tools\MSVC\14.29.30133\include\vector
; File I:\Vitalya\mine\NSProjectX\layers\xrRender\NvTriStripObjects.cpp
; File C:\Program Files\Microsoft Visual Studio\2022\Community\VC\Tools\MSVC\14.29.30133\include\vector
; File I:\Vitalya\mine\NSProjectX\layers\xrRender\NvTriStripObjects.cpp
;	COMDAT ?GetNextIndex@NvStripifier@@KAHABV?$xr_vector@GV?$xalloc@G@@@@PAVNvFaceInfo@@@Z
_TEXT	SEGMENT
?GetNextIndex@NvStripifier@@KAHABV?$xr_vector@GV?$xalloc@G@@@@PAVNvFaceInfo@@@Z PROC ; NvStripifier::GetNextIndex, COMDAT
; _indices$dead$ = ecx
; _face$ = edx
; File C:\Program Files\Microsoft Visual Studio\2022\Community\VC\Tools\MSVC\14.29.30133\include\vector

; 1536 :         return static_cast<size_type>(_My_data._Mylast - _My_data._Myfirst);

	mov	eax, DWORD PTR ?scratchIndices@?1??Build@NvStripInfo@@QAEXAAV?$xr_vector@PAVNvEdgeInfo@@V?$xalloc@PAVNvEdgeInfo@@@@@@AAV?$xr_vector@PAVNvFaceInfo@@V?$xalloc@PAVNvFaceInfo@@@@@@@Z@4V?$xr_vector@GV?$xalloc@G@@@@A
	mov	ecx, DWORD PTR ?scratchIndices@?1??Build@NvStripInfo@@QAEXAAV?$xr_vector@PAVNvEdgeInfo@@V?$xalloc@PAVNvEdgeInfo@@@@@@AAV?$xr_vector@PAVNvFaceInfo@@V?$xalloc@PAVNvFaceInfo@@@@@@@Z@4V?$xr_vector@GV?$xalloc@G@@@@A+4
	sub	ecx, eax
; File I:\Vitalya\mine\NSProjectX\layers\xrRender\NvTriStripObjects.cpp

; 329  : IC int NvStripifier::GetNextIndex(const WordVec &indices, NvFaceInfo *face){

	push	ebx

; 338  : 	int fv1 = face->m_v1;

	mov	ebx, DWORD PTR [edx+4]
; File C:\Program Files\Microsoft Visual Studio\2022\Community\VC\Tools\MSVC\14.29.30133\include\vector

; 1536 :         return static_cast<size_type>(_My_data._Mylast - _My_data._Myfirst);

	sar	ecx, 1
; File I:\Vitalya\mine\NSProjectX\layers\xrRender\NvTriStripObjects.cpp

; 329  : IC int NvStripifier::GetNextIndex(const WordVec &indices, NvFaceInfo *face){

	push	ebp

; 330  : 	
; 331  : 	int numIndices = indices.size();
; 332  : 	assert(numIndices >= 2);
; 333  : 	
; 334  : 	int v0  = indices[numIndices-2];
; 335  : 	int v1  = indices[numIndices-1];
; 336  : 	
; 337  : 	int fv0 = face->m_v0;

	mov	ebp, DWORD PTR [edx]
	push	esi
	movzx	esi, WORD PTR [eax+ecx*2-4]
	movzx	eax, WORD PTR [eax+ecx*2-2]
	push	edi

; 339  : 	int fv2 = face->m_v2;

	mov	edi, DWORD PTR [edx+8]

; 340  : 	
; 341  : 	if (fv0 != v0 && fv0 != v1){

	cmp	ebp, esi
	je	SHORT $LN2@GetNextInd
	cmp	ebp, eax
	je	SHORT $LN2@GetNextInd

; 342  : 		if ((fv1 != v0 && fv1 != v1) || (fv2 != v0 && fv2 != v1)){

	cmp	ebx, esi
	je	SHORT $LN5@GetNextInd
	cmp	ebx, eax
	jne	SHORT $LN4@GetNextInd
$LN5@GetNextInd:
	cmp	edi, esi
	je	SHORT $LN3@GetNextInd
	cmp	edi, eax
	je	SHORT $LN3@GetNextInd
$LN4@GetNextInd:

; 343  : 			Msg("! WARNING: GetNextIndex: Triangle doesn't have all of its vertices");

	mov	esi, DWORD PTR __imp_?Msg@@YAXPBDZZ
	push	OFFSET ??_C@_0ED@PGPLFOBO@?$CB?5WARNING?3?5GetNextIndex?3?5Triang@
	call	esi

; 344  : 			Msg("! WARNING: GetNextIndex: Duplicate triangle probably got us derailed");

	push	OFFSET ??_C@_0EF@NPIJGPAE@?$CB?5WARNING?3?5GetNextIndex?3?5Duplic@
	call	esi
	add	esp, 8
$LN3@GetNextInd:

; 366  : }

	pop	edi
	pop	esi
	mov	eax, ebp
	pop	ebp
	pop	ebx
	ret	0
$LN2@GetNextInd:

; 345  : 		}
; 346  : 		return fv0;
; 347  : 	}
; 348  : 	if (fv1 != v0 && fv1 != v1){

	cmp	ebx, esi
	je	SHORT $LN6@GetNextInd
	cmp	ebx, eax
	je	SHORT $LN6@GetNextInd

; 349  : 		if ((fv0 != v0 && fv0 != v1) || (fv2 != v0 && fv2 != v1)){

	cmp	ebp, esi
	je	SHORT $LN9@GetNextInd
	cmp	ebp, eax
	jne	SHORT $LN8@GetNextInd
$LN9@GetNextInd:
	cmp	edi, esi
	je	SHORT $LN7@GetNextInd
	cmp	edi, eax
	je	SHORT $LN7@GetNextInd
$LN8@GetNextInd:

; 350  : 			Msg("! WARNING: GetNextIndex: Triangle doesn't have all of its vertices");

	mov	esi, DWORD PTR __imp_?Msg@@YAXPBDZZ
	push	OFFSET ??_C@_0ED@PGPLFOBO@?$CB?5WARNING?3?5GetNextIndex?3?5Triang@
	call	esi

; 351  : 			Msg("! WARNING: GetNextIndex: Duplicate triangle probably got us derailed");

	push	OFFSET ??_C@_0EF@NPIJGPAE@?$CB?5WARNING?3?5GetNextIndex?3?5Duplic@
	call	esi
	add	esp, 8
$LN7@GetNextInd:

; 366  : }

	pop	edi
	pop	esi
	pop	ebp
	mov	eax, ebx
	pop	ebx
	ret	0
$LN6@GetNextInd:

; 352  : 		}
; 353  : 		return fv1;
; 354  : 	}
; 355  : 	if (fv2 != v0 && fv2 != v1){

	cmp	edi, esi
	je	SHORT $LN10@GetNextInd
	cmp	edi, eax
	je	SHORT $LN10@GetNextInd

; 356  : 		if ((fv0 != v0 && fv0 != v1) || (fv1 != v0 && fv1 != v1)){

	cmp	ebp, esi
	je	SHORT $LN13@GetNextInd
	cmp	ebp, eax
	jne	SHORT $LN12@GetNextInd
$LN13@GetNextInd:
	cmp	ebx, esi
	je	SHORT $LN11@GetNextInd
	cmp	ebx, eax
	je	SHORT $LN11@GetNextInd
$LN12@GetNextInd:

; 357  : 			Msg("! WARNING: GetNextIndex: Triangle doesn't have all of its vertices");

	mov	esi, DWORD PTR __imp_?Msg@@YAXPBDZZ
	push	OFFSET ??_C@_0ED@PGPLFOBO@?$CB?5WARNING?3?5GetNextIndex?3?5Triang@
	call	esi

; 358  : 			Msg("! WARNING: GetNextIndex: Duplicate triangle probably got us derailed");

	push	OFFSET ??_C@_0EF@NPIJGPAE@?$CB?5WARNING?3?5GetNextIndex?3?5Duplic@
	call	esi
	add	esp, 8
$LN11@GetNextInd:

; 359  : 		}
; 360  : 		return fv2;

	mov	eax, edi
	pop	edi

; 366  : }

	pop	esi
	pop	ebp
	pop	ebx
	ret	0
$LN10@GetNextInd:

; 361  : 	}
; 362  : 	
; 363  : 	// shouldn't get here
; 364  : 	Msg("! WARNING: GetNextIndex: Duplicate triangle sent");

	push	OFFSET ??_C@_0DB@JOONJBKI@?$CB?5WARNING?3?5GetNextIndex?3?5Duplic@
	call	DWORD PTR __imp_?Msg@@YAXPBDZZ
	add	esp, 4

; 365  : 	return -1;

	or	eax, -1
	pop	edi

; 366  : }

	pop	esi
	pop	ebp
	pop	ebx
	ret	0
?GetNextIndex@NvStripifier@@KAHABV?$xr_vector@GV?$xalloc@G@@@@PAVNvFaceInfo@@@Z ENDP ; NvStripifier::GetNextIndex
_TEXT	ENDS
; Function compile flags: /Ogtpy
; File I:\Vitalya\mine\NSProjectX\layers\xrRender\NvTriStripObjects.cpp
; File I:\Vitalya\mine\NSProjectX\layers\xrRender\NvTriStripObjects.h
; File I:\Vitalya\mine\NSProjectX\layers\xrRender\NvTriStripObjects.cpp
;	COMDAT ?IsMarked@NvStripInfo@@QAE_NPAVNvFaceInfo@@@Z
_TEXT	SEGMENT
_faceInfo$ = 8						; size = 4
?IsMarked@NvStripInfo@@QAE_NPAVNvFaceInfo@@@Z PROC	; NvStripInfo::IsMarked, COMDAT
; _this$ = ecx

; 377  : 	return (faceInfo->m_stripId >= 0) || (IsExperiment() && faceInfo->m_experimentId == m_experimentId);

	mov	edx, DWORD PTR _faceInfo$[esp-4]
	cmp	DWORD PTR [edx+12], 0
	jge	SHORT $LN4@IsMarked
; File I:\Vitalya\mine\NSProjectX\layers\xrRender\NvTriStripObjects.h

; 131  : 	inline bool IsExperiment () const { return m_experimentId >= 0; }

	mov	eax, DWORD PTR [ecx+28]
	test	eax, eax
; File I:\Vitalya\mine\NSProjectX\layers\xrRender\NvTriStripObjects.cpp

; 377  : 	return (faceInfo->m_stripId >= 0) || (IsExperiment() && faceInfo->m_experimentId == m_experimentId);

	js	SHORT $LN3@IsMarked
	cmp	DWORD PTR [edx+20], eax
	je	SHORT $LN4@IsMarked
$LN3@IsMarked:
	xor	al, al

; 378  : }

	ret	4
$LN4@IsMarked:

; 377  : 	return (faceInfo->m_stripId >= 0) || (IsExperiment() && faceInfo->m_experimentId == m_experimentId);

	mov	al, 1

; 378  : }

	ret	4
?IsMarked@NvStripInfo@@QAE_NPAVNvFaceInfo@@@Z ENDP	; NvStripInfo::IsMarked
_TEXT	ENDS
; Function compile flags: /Ogtpy
; File I:\Vitalya\mine\NSProjectX\layers\xrRender\NvTriStripObjects.cpp
; File I:\Vitalya\mine\NSProjectX\layers\xrRender\NvTriStripObjects.h
; File I:\Vitalya\mine\NSProjectX\layers\xrRender\NvTriStripObjects.cpp
;	COMDAT ?MarkTriangle@NvStripInfo@@QAEXPAVNvFaceInfo@@@Z
_TEXT	SEGMENT
_faceInfo$ = 8						; size = 4
?MarkTriangle@NvStripInfo@@QAEXPAVNvFaceInfo@@@Z PROC	; NvStripInfo::MarkTriangle, COMDAT
; _this$ = ecx
; File I:\Vitalya\mine\NSProjectX\layers\xrRender\NvTriStripObjects.h

; 131  : 	inline bool IsExperiment () const { return m_experimentId >= 0; }

	mov	eax, DWORD PTR [ecx+28]
	mov	edx, DWORD PTR _faceInfo$[esp-4]
	test	eax, eax
; File I:\Vitalya\mine\NSProjectX\layers\xrRender\NvTriStripObjects.cpp

; 388  : 	if (IsExperiment()){

	js	SHORT $LN2@MarkTriang

; 389  : 		faceInfo->m_experimentId = m_experimentId;

	mov	DWORD PTR [edx+20], eax

; 390  : 		faceInfo->m_testStripId  = m_stripId;

	mov	eax, DWORD PTR [ecx+24]
	mov	DWORD PTR [edx+16], eax

; 396  : 	}
; 397  : }

	ret	4
$LN2@MarkTriang:

; 391  :     }
; 392  : 	else{
; 393  : 		assert(faceInfo->m_stripId == -1);
; 394  : 		faceInfo->m_experimentId = -1;

	mov	DWORD PTR [edx+20], -1

; 395  : 		faceInfo->m_stripId      = m_stripId;

	mov	eax, DWORD PTR [ecx+24]
	mov	DWORD PTR [edx+12], eax

; 396  : 	}
; 397  : }

	ret	4
?MarkTriangle@NvStripInfo@@QAEXPAVNvFaceInfo@@@Z ENDP	; NvStripInfo::MarkTriangle
_TEXT	ENDS
; Function compile flags: /Ogtpy
; File I:\Vitalya\mine\NSProjectX\layers\xrRender\NvTriStripObjects.cpp
; File C:\Program Files\Microsoft Visual Studio\2022\Community\VC\Tools\MSVC\14.29.30133\include\vector
; File I:\Vitalya\mine\NSProjectX\layers\xrRender\NvTriStripObjects.cpp
; File C:\Program Files\Microsoft Visual Studio\2022\Community\VC\Tools\MSVC\14.29.30133\include\vector
; File I:\Vitalya\mine\NSProjectX\layers\xrRender\NvTriStripObjects.cpp
; File C:\Program Files\Microsoft Visual Studio\2022\Community\VC\Tools\MSVC\14.29.30133\include\vector
; File I:\Vitalya\mine\NSProjectX\layers\xrRender\NvTriStripObjects.cpp
; File C:\Program Files\Microsoft Visual Studio\2022\Community\VC\Tools\MSVC\14.29.30133\include\vector
; File I:\Vitalya\mine\NSProjectX\layers\xrRender\NvTriStripObjects.cpp
; File C:\Program Files\Microsoft Visual Studio\2022\Community\VC\Tools\MSVC\14.29.30133\include\vector
; File I:\Vitalya\mine\NSProjectX\layers\xrRender\NvTriStripObjects.cpp
_TEXT	SEGMENT
_bv0$1$ = -1						; size = 1
_faceVec$ = 8						; size = 4
_face$ = 12						; size = 4
?Unique@NvStripInfo@@QAE_NAAV?$xr_vector@PAVNvFaceInfo@@V?$xalloc@PAVNvFaceInfo@@@@@@PAVNvFaceInfo@@@Z PROC ; NvStripInfo::Unique
; _this$dead$ = ecx

; 401  : {

	push	ecx
; File C:\Program Files\Microsoft Visual Studio\2022\Community\VC\Tools\MSVC\14.29.30133\include\vector

; 1536 :         return static_cast<size_type>(_My_data._Mylast - _My_data._Myfirst);

	mov	eax, DWORD PTR _faceVec$[esp]
; File I:\Vitalya\mine\NSProjectX\layers\xrRender\NvTriStripObjects.cpp

; 403  : 	bv0 = bv1 = bv2 = false;

	xor	cl, cl
	push	ebx
	push	ebp
	push	esi
; File C:\Program Files\Microsoft Visual Studio\2022\Community\VC\Tools\MSVC\14.29.30133\include\vector

; 1536 :         return static_cast<size_type>(_My_data._Mylast - _My_data._Myfirst);

	mov	ebp, DWORD PTR [eax+4]
; File I:\Vitalya\mine\NSProjectX\layers\xrRender\NvTriStripObjects.cpp

; 403  : 	bv0 = bv1 = bv2 = false;

	xor	bl, bl
; File C:\Program Files\Microsoft Visual Studio\2022\Community\VC\Tools\MSVC\14.29.30133\include\vector

; 1536 :         return static_cast<size_type>(_My_data._Mylast - _My_data._Myfirst);

	mov	edx, DWORD PTR [eax]
; File I:\Vitalya\mine\NSProjectX\layers\xrRender\NvTriStripObjects.cpp

; 403  : 	bv0 = bv1 = bv2 = false;

	xor	bh, bh
; File C:\Program Files\Microsoft Visual Studio\2022\Community\VC\Tools\MSVC\14.29.30133\include\vector

; 1536 :         return static_cast<size_type>(_My_data._Mylast - _My_data._Myfirst);

	sub	ebp, edx
; File I:\Vitalya\mine\NSProjectX\layers\xrRender\NvTriStripObjects.cpp

; 403  : 	bv0 = bv1 = bv2 = false;

	mov	BYTE PTR _bv0$1$[esp+16], cl
; File C:\Program Files\Microsoft Visual Studio\2022\Community\VC\Tools\MSVC\14.29.30133\include\vector

; 1536 :         return static_cast<size_type>(_My_data._Mylast - _My_data._Myfirst);

	sar	ebp, 2
; File I:\Vitalya\mine\NSProjectX\layers\xrRender\NvTriStripObjects.cpp

; 405  : 	for(int i = 0; i < faceVec.size(); i++)

	xor	esi, esi
	push	edi
	test	ebp, ebp
	je	SHORT $LN178@Unique

; 416  : 		{
; 417  : 			if( (faceVec[i]->m_v0 == face->m_v1) || 
; 418  : 				(faceVec[i]->m_v1 == face->m_v1) ||

	mov	edi, DWORD PTR _face$[esp+16]
$LL4@Unique:

; 406  : 	{
; 407  : 		if(!bv0)

	test	cl, cl
	jne	SHORT $LN6@Unique

; 408  : 		{
; 409  : 			if( (faceVec[i]->m_v0 == face->m_v0) || 
; 410  : 				(faceVec[i]->m_v1 == face->m_v0) ||

	mov	eax, DWORD PTR [edx]
	mov	ecx, DWORD PTR [edi]
	cmp	DWORD PTR [eax], ecx
	je	SHORT $LN7@Unique
	cmp	DWORD PTR [eax+4], ecx
	je	SHORT $LN7@Unique
	cmp	DWORD PTR [eax+8], ecx
	jne	SHORT $LN6@Unique
$LN7@Unique:

; 411  : 				(faceVec[i]->m_v2 == face->m_v0) )
; 412  : 				bv0 = true;

	mov	BYTE PTR _bv0$1$[esp+20], 1
$LN6@Unique:

; 413  : 		}
; 414  : 
; 415  : 		if(!bv1)

	test	bh, bh
	jne	SHORT $LN9@Unique

; 416  : 		{
; 417  : 			if( (faceVec[i]->m_v0 == face->m_v1) || 
; 418  : 				(faceVec[i]->m_v1 == face->m_v1) ||

	mov	eax, DWORD PTR [edx]
	mov	ecx, DWORD PTR [edi+4]
	cmp	DWORD PTR [eax], ecx
	je	SHORT $LN10@Unique
	cmp	DWORD PTR [eax+4], ecx
	je	SHORT $LN10@Unique
	cmp	DWORD PTR [eax+8], ecx
	jne	SHORT $LN9@Unique
$LN10@Unique:

; 419  : 				(faceVec[i]->m_v2 == face->m_v1) )
; 420  : 				bv1 = true;

	mov	bh, 1
$LN9@Unique:

; 421  : 		}
; 422  : 
; 423  : 		if(!bv2)

	test	bl, bl
	jne	SHORT $LN12@Unique

; 424  : 		{
; 425  : 			if( (faceVec[i]->m_v0 == face->m_v2) || 
; 426  : 				(faceVec[i]->m_v1 == face->m_v2) ||

	mov	eax, DWORD PTR [edx]
	mov	ecx, DWORD PTR [edi+8]
	cmp	DWORD PTR [eax], ecx
	je	SHORT $LN13@Unique
	cmp	DWORD PTR [eax+4], ecx
	je	SHORT $LN13@Unique
	cmp	DWORD PTR [eax+8], ecx
	jne	SHORT $LN12@Unique
$LN13@Unique:

; 427  : 				(faceVec[i]->m_v2 == face->m_v2) )
; 428  : 				bv2 = true;

	mov	bl, 1
$LN12@Unique:

; 429  : 		}
; 430  : 
; 431  : 		//the face is not unique, all it's vertices exist in the face vector3
; 432  : 		if(bv0 && bv1 && bv2)

	mov	cl, BYTE PTR _bv0$1$[esp+20]
	test	cl, cl
	je	SHORT $LN2@Unique
	test	bh, bh
	je	SHORT $LN2@Unique
	test	bl, bl
	jne	SHORT $LN174@Unique
$LN2@Unique:

; 405  : 	for(int i = 0; i < faceVec.size(); i++)

	inc	esi
	add	edx, 4
	cmp	esi, ebp
	jb	SHORT $LL4@Unique
$LN178@Unique:
	pop	edi

; 433  : 			return false;
; 434  : 	}
; 435  : 	
; 436  : 	//if we get out here, it's unique
; 437  : 	return true;
; 438  : }

	pop	esi
	pop	ebp
	mov	al, 1
	pop	ebx
	pop	ecx
	ret	8
$LN174@Unique:
	pop	edi
	pop	esi
	pop	ebp
	xor	al, al
	pop	ebx
	pop	ecx
	ret	8
?Unique@NvStripInfo@@QAE_NAAV?$xr_vector@PAVNvFaceInfo@@V?$xalloc@PAVNvFaceInfo@@@@@@PAVNvFaceInfo@@@Z ENDP ; NvStripInfo::Unique
_TEXT	ENDS
; Function compile flags: /Ogtpy
; File I:\Vitalya\mine\NSProjectX\layers\xrRender\NvTriStripObjects.cpp
; File C:\Program Files\Microsoft Visual Studio\2022\Community\VC\Tools\MSVC\14.29.30133\include\vector
; File I:\Vitalya\mine\NSProjectX\layers\xrRender\NvTriStripObjects.h
; File I:\Vitalya\mine\NSProjectX\layers\xrRender\NvTriStripObjects.cpp
; File I:\Vitalya\mine\NSProjectX\layers\xrRender\NvTriStripObjects.h
; File I:\Vitalya\mine\NSProjectX\layers\xrRender\NvTriStripObjects.cpp
; File C:\Program Files\Microsoft Visual Studio\2022\Community\VC\Tools\MSVC\14.29.30133\include\vector
; File I:\Vitalya\mine\NSProjectX\layers\xrRender\NvTriStripObjects.cpp
; File C:\Program Files\Microsoft Visual Studio\2022\Community\VC\Tools\MSVC\14.29.30133\include\vector
; File I:\Vitalya\mine\NSProjectX\layers\xrRender\NvTriStripObjects.cpp
; File C:\Program Files\Microsoft Visual Studio\2022\Community\VC\Tools\MSVC\14.29.30133\include\vector
; File I:\Vitalya\mine\NSProjectX\layers\xrRender\NvTriStripObjects.cpp
; File C:\Program Files\Microsoft Visual Studio\2022\Community\VC\Tools\MSVC\14.29.30133\include\vector
; File I:\Vitalya\mine\NSProjectX\layers\xrRender\NvTriStripObjects.cpp
; File C:\Program Files\Microsoft Visual Studio\2022\Community\VC\Tools\MSVC\14.29.30133\include\vector
; File I:\Vitalya\mine\NSProjectX\layers\xrRender\NvTriStripObjects.cpp
; File C:\Program Files\Microsoft Visual Studio\2022\Community\VC\Tools\MSVC\14.29.30133\include\vector
; File I:\Vitalya\mine\NSProjectX\layers\xrRender\NvTriStripObjects.cpp
; File I:\Vitalya\mine\NSProjectX\layers\xrRender\NvTriStripObjects.h
; File I:\Vitalya\mine\NSProjectX\layers\xrRender\NvTriStripObjects.cpp
; File C:\Program Files\Microsoft Visual Studio\2022\Community\VC\Tools\MSVC\14.29.30133\include\vector
; File I:\Vitalya\mine\NSProjectX\layers\xrRender\NvTriStripObjects.h
; File I:\Vitalya\mine\NSProjectX\layers\xrRender\NvTriStripObjects.cpp
; File C:\Program Files\Microsoft Visual Studio\2022\Community\VC\Tools\MSVC\14.29.30133\include\vector
; File I:\Vitalya\mine\NSProjectX\layers\xrRender\NvTriStripObjects.cpp
; File C:\Program Files\Microsoft Visual Studio\2022\Community\VC\Tools\MSVC\14.29.30133\include\vector
; File I:\Vitalya\mine\NSProjectX\layers\xrRender\NvTriStripObjects.cpp
; File C:\Program Files\Microsoft Visual Studio\2022\Community\VC\Tools\MSVC\14.29.30133\include\vector
; File I:\Vitalya\mine\NSProjectX\layers\xrRender\NvTriStripObjects.cpp
; File C:\Program Files\Microsoft Visual Studio\2022\Community\VC\Tools\MSVC\14.29.30133\include\vector
; File I:\Vitalya\mine\NSProjectX\layers\xrRender\NvTriStripObjects.cpp
; File C:\Program Files\Microsoft Visual Studio\2022\Community\VC\Tools\MSVC\14.29.30133\include\vector
; File I:\Vitalya\mine\NSProjectX\layers\xrRender\NvTriStripObjects.cpp
; File C:\Program Files\Microsoft Visual Studio\2022\Community\VC\Tools\MSVC\14.29.30133\include\vector
; File I:\Vitalya\mine\NSProjectX\layers\xrRender\NvTriStripObjects.cpp
; File C:\Program Files\Microsoft Visual Studio\2022\Community\VC\Tools\MSVC\14.29.30133\include\vector
; File I:\Vitalya\mine\NSProjectX\layers\xrRender\NvTriStripObjects.cpp
; File C:\Program Files\Microsoft Visual Studio\2022\Community\VC\Tools\MSVC\14.29.30133\include\vector
; File I:\Vitalya\mine\NSProjectX\layers\xrRender\NvTriStripObjects.cpp
; File C:\Program Files\Microsoft Visual Studio\2022\Community\VC\Tools\MSVC\14.29.30133\include\vector
; File I:\Vitalya\mine\NSProjectX\layers\xrRender\NvTriStripObjects.cpp
; File C:\Program Files\Microsoft Visual Studio\2022\Community\VC\Tools\MSVC\14.29.30133\include\vector
; File I:\Vitalya\mine\NSProjectX\layers\xrRender\NvTriStripObjects.cpp
; File C:\Program Files\Microsoft Visual Studio\2022\Community\VC\Tools\MSVC\14.29.30133\include\vector
; File I:\Vitalya\mine\NSProjectX\layers\xrRender\NvTriStripObjects.cpp
; File C:\Program Files\Microsoft Visual Studio\2022\Community\VC\Tools\MSVC\14.29.30133\include\vector
; File I:\Vitalya\mine\NSProjectX\layers\xrRender\NvTriStripObjects.cpp
; File I:\Vitalya\mine\NSProjectX\layers\xrRender\NvTriStripObjects.h
; File I:\Vitalya\mine\NSProjectX\layers\xrRender\NvTriStripObjects.cpp
; File C:\Program Files\Microsoft Visual Studio\2022\Community\VC\Tools\MSVC\14.29.30133\include\vector
; File I:\Vitalya\mine\NSProjectX\layers\xrRender\NvTriStripObjects.h
; File I:\Vitalya\mine\NSProjectX\layers\xrRender\NvTriStripObjects.cpp
; File C:\Program Files\Microsoft Visual Studio\2022\Community\VC\Tools\MSVC\14.29.30133\include\vector
; File I:\Vitalya\mine\NSProjectX\layers\xrRender\NvTriStripObjects.cpp
; File C:\Program Files\Microsoft Visual Studio\2022\Community\VC\Tools\MSVC\14.29.30133\include\vector
; File I:\Vitalya\mine\NSProjectX\layers\xrRender\NvTriStripObjects.cpp
; File C:\Program Files\Microsoft Visual Studio\2022\Community\VC\Tools\MSVC\14.29.30133\include\vector
; File I:\Vitalya\mine\NSProjectX\layers\xrRender\NvTriStripObjects.cpp
; File C:\Program Files\Microsoft Visual Studio\2022\Community\VC\Tools\MSVC\14.29.30133\include\vector
; File I:\Vitalya\mine\NSProjectX\layers\xrRender\NvTriStripObjects.cpp
; File C:\Program Files\Microsoft Visual Studio\2022\Community\VC\Tools\MSVC\14.29.30133\include\vector
; File I:\Vitalya\mine\NSProjectX\layers\xrRender\NvTriStripObjects.cpp
; File C:\Program Files\Microsoft Visual Studio\2022\Community\VC\Tools\MSVC\14.29.30133\include\vector
; File I:\Vitalya\mine\NSProjectX\layers\xrRender\NvTriStripObjects.cpp
; File C:\Program Files\Microsoft Visual Studio\2022\Community\VC\Tools\MSVC\14.29.30133\include\vector
; File I:\Vitalya\mine\NSProjectX\xrCore\xrMemory.h
; File C:\Program Files\Microsoft Visual Studio\2022\Community\VC\Tools\MSVC\14.29.30133\include\vector
; File I:\Vitalya\mine\NSProjectX\xrCore\xrMemory.h
; File C:\Program Files\Microsoft Visual Studio\2022\Community\VC\Tools\MSVC\14.29.30133\include\vector
; File I:\Vitalya\mine\NSProjectX\xrCore\xrMemory.h
; File I:\Vitalya\mine\NSProjectX\layers\xrRender\NvTriStripObjects.cpp
_TEXT	SEGMENT
_numFaces$1$ = -80					; size = 4
_nv1$2$ = -76						; size = 4
$T1 = -72						; size = 2
$T2 = -72						; size = 2
$T3 = -72						; size = 2
$T4 = -72						; size = 2
_nextFace$ = -72					; size = 4
_this$1$ = -68						; size = 4
_i$1$ = -64						; size = 4
_v1$1$ = -60						; size = 4
_nv0$1$ = -56						; size = 4
tv3192 = -52						; size = 4
$T5 = -52						; size = 2
$T6 = -48						; size = 2
tv3191 = -48						; size = 4
_nv0$2$ = -44						; size = 4
$T7 = -44						; size = 2
tv3190 = -44						; size = 4
$T8 = -40						; size = 2
tv3204 = -40						; size = 4
_tempAllFaces$ = -36					; size = 12
_forwardFaces$ = -24					; size = 12
_backwardFaces$ = -12					; size = 12
_edgeInfos$ = 8						; size = 4
_faceInfos$dead$ = 12					; size = 4
?Build@NvStripInfo@@QAEXAAV?$xr_vector@PAVNvEdgeInfo@@V?$xalloc@PAVNvEdgeInfo@@@@@@AAV?$xr_vector@PAVNvFaceInfo@@V?$xalloc@PAVNvFaceInfo@@@@@@@Z PROC ; NvStripInfo::Build
; _this$ = ecx

; 446  : void NvStripInfo::Build(NvEdgeInfoVec &edgeInfos, NvFaceInfoVec &faceInfos){

	sub	esp, 80					; 00000050H

; 447  : 	
; 448  : 	// used in building the strips forward and backward
; 449  : 	static WordVec scratchIndices;

	mov	eax, DWORD PTR fs:__tls_array
	mov	edx, DWORD PTR __tls_index
	push	ebx
	push	ebp
	push	esi
	mov	edx, DWORD PTR [eax+edx*4]
	mov	esi, ecx
	mov	eax, DWORD PTR ?$TSS0@?1??Build@NvStripInfo@@QAEXAAV?$xr_vector@PAVNvEdgeInfo@@V?$xalloc@PAVNvEdgeInfo@@@@@@AAV?$xr_vector@PAVNvFaceInfo@@V?$xalloc@PAVNvFaceInfo@@@@@@@Z@4HA
	mov	DWORD PTR _this$1$[esp+92], esi
	cmp	eax, DWORD PTR __Init_thread_epoch[edx]
	jg	$LN604@Build
$LN2@Build:
; File C:\Program Files\Microsoft Visual Studio\2022\Community\VC\Tools\MSVC\14.29.30133\include\vector

; 1250 :         const auto _Oldsize = static_cast<size_type>(_Mylast - _Myfirst);

	mov	edx, DWORD PTR ?scratchIndices@?1??Build@NvStripInfo@@QAEXAAV?$xr_vector@PAVNvEdgeInfo@@V?$xalloc@PAVNvEdgeInfo@@@@@@AAV?$xr_vector@PAVNvFaceInfo@@V?$xalloc@PAVNvFaceInfo@@@@@@@Z@4V?$xr_vector@GV?$xalloc@G@@@@A+4
	mov	ecx, edx
	sub	ecx, DWORD PTR ?scratchIndices@?1??Build@NvStripInfo@@QAEXAAV?$xr_vector@PAVNvEdgeInfo@@V?$xalloc@PAVNvEdgeInfo@@@@@@AAV?$xr_vector@PAVNvFaceInfo@@V?$xalloc@PAVNvFaceInfo@@@@@@@Z@4V?$xr_vector@GV?$xalloc@G@@@@A
	sar	ecx, 1

; 734  :         _Ty& _Result = *_Emplace_reallocate(_Mylast, _STD forward<_Valty>(_Val)...);

	push	esi

; 1251 :         if (_Newsize < _Oldsize) { // trim

	cmovne	edx, DWORD PTR ?scratchIndices@?1??Build@NvStripInfo@@QAEXAAV?$xr_vector@PAVNvEdgeInfo@@V?$xalloc@PAVNvEdgeInfo@@@@@@AAV?$xr_vector@PAVNvFaceInfo@@V?$xalloc@PAVNvFaceInfo@@@@@@@Z@4V?$xr_vector@GV?$xalloc@G@@@@A

; 734  :         _Ty& _Result = *_Emplace_reallocate(_Mylast, _STD forward<_Valty>(_Val)...);

	lea	ecx, DWORD PTR _forwardFaces$[esp+96]

; 390  :     _CONSTEXPR20_CONTAINER _Vector_val() noexcept : _Myfirst(), _Mylast(), _Myend() {}

	xor	eax, eax

; 1251 :         if (_Newsize < _Oldsize) { // trim

	mov	DWORD PTR ?scratchIndices@?1??Build@NvStripInfo@@QAEXAAV?$xr_vector@PAVNvEdgeInfo@@V?$xalloc@PAVNvEdgeInfo@@@@@@AAV?$xr_vector@PAVNvFaceInfo@@V?$xalloc@PAVNvFaceInfo@@@@@@@Z@4V?$xr_vector@GV?$xalloc@G@@@@A+4, edx

; 734  :         _Ty& _Result = *_Emplace_reallocate(_Mylast, _STD forward<_Valty>(_Val)...);

	push	eax

; 390  :     _CONSTEXPR20_CONTAINER _Vector_val() noexcept : _Myfirst(), _Mylast(), _Myend() {}

	mov	DWORD PTR _forwardFaces$[esp+100], 0
	mov	DWORD PTR _forwardFaces$[esp+104], 0
	mov	DWORD PTR _forwardFaces$[esp+108], 0
	mov	DWORD PTR _backwardFaces$[esp+100], 0
	mov	DWORD PTR _i$1$[esp+100], eax
	mov	DWORD PTR _backwardFaces$[esp+104], eax
	mov	DWORD PTR _backwardFaces$[esp+108], eax

; 734  :         _Ty& _Result = *_Emplace_reallocate(_Mylast, _STD forward<_Valty>(_Val)...);

	call	??$_Emplace_reallocate@ABQAVNvFaceInfo@@@?$vector@PAVNvFaceInfo@@V?$xalloc@PAVNvFaceInfo@@@@@std@@QAEPAPAVNvFaceInfo@@QAPAV2@ABQAV2@@Z ; std::vector<NvFaceInfo *,xalloc<NvFaceInfo *> >::_Emplace_reallocate<NvFaceInfo * const &>
; File I:\Vitalya\mine\NSProjectX\layers\xrRender\NvTriStripObjects.h

; 131  : 	inline bool IsExperiment () const { return m_experimentId >= 0; }

	mov	eax, DWORD PTR [esi+28]
; File I:\Vitalya\mine\NSProjectX\layers\xrRender\NvTriStripObjects.cpp

; 456  : 	MarkTriangle(m_startInfo.m_startFace);

	mov	ecx, DWORD PTR [esi]
; File I:\Vitalya\mine\NSProjectX\layers\xrRender\NvTriStripObjects.h

; 131  : 	inline bool IsExperiment () const { return m_experimentId >= 0; }

	test	eax, eax
; File I:\Vitalya\mine\NSProjectX\layers\xrRender\NvTriStripObjects.cpp

; 388  : 	if (IsExperiment()){

	js	SHORT $LN73@Build

; 389  : 		faceInfo->m_experimentId = m_experimentId;

	mov	DWORD PTR [ecx+20], eax

; 390  : 		faceInfo->m_testStripId  = m_stripId;

	mov	eax, DWORD PTR [esi+24]
	mov	DWORD PTR [ecx+16], eax

; 391  :     }

	jmp	SHORT $LN74@Build
$LN73@Build:

; 392  : 	else{
; 393  : 		assert(faceInfo->m_stripId == -1);
; 394  : 		faceInfo->m_experimentId = -1;

	mov	DWORD PTR [ecx+20], -1

; 395  : 		faceInfo->m_stripId      = m_stripId;

	mov	eax, DWORD PTR [esi+24]
	mov	DWORD PTR [ecx+12], eax
$LN74@Build:

; 457  : 	
; 458  : 	int v0 = (m_startInfo.m_toV1 ? m_startInfo.m_startEdge->m_v0 : m_startInfo.m_startEdge->m_v1);

	cmp	BYTE PTR [esi+8], 0
	mov	eax, DWORD PTR [esi+4]
	je	SHORT $LN13@Build
	mov	ecx, DWORD PTR [eax+12]

; 459  : 	int v1 = (m_startInfo.m_toV1 ? m_startInfo.m_startEdge->m_v1 : m_startInfo.m_startEdge->m_v0);

	mov	ebx, DWORD PTR [eax+16]
	jmp	SHORT $LN601@Build
$LN13@Build:

; 457  : 	
; 458  : 	int v0 = (m_startInfo.m_toV1 ? m_startInfo.m_startEdge->m_v0 : m_startInfo.m_startEdge->m_v1);

	mov	ecx, DWORD PTR [eax+16]

; 459  : 	int v1 = (m_startInfo.m_toV1 ? m_startInfo.m_startEdge->m_v1 : m_startInfo.m_startEdge->m_v0);

	mov	ebx, DWORD PTR [eax+12]
$LN601@Build:

; 463  : 	scratchIndices.push_back(u16(v0));

	mov	DWORD PTR _nv1$2$[esp+92], ecx
	movzx	ecx, cx
	movzx	eax, cx
	mov	DWORD PTR $T4[esp+92], eax
; File C:\Program Files\Microsoft Visual Studio\2022\Community\VC\Tools\MSVC\14.29.30133\include\vector

; 730  :         if (_Mylast != _My_data._Myend) {

	mov	eax, DWORD PTR ?scratchIndices@?1??Build@NvStripInfo@@QAEXAAV?$xr_vector@PAVNvEdgeInfo@@V?$xalloc@PAVNvEdgeInfo@@@@@@AAV?$xr_vector@PAVNvFaceInfo@@V?$xalloc@PAVNvFaceInfo@@@@@@@Z@4V?$xr_vector@GV?$xalloc@G@@@@A+4
; File I:\Vitalya\mine\NSProjectX\layers\xrRender\NvTriStripObjects.cpp

; 463  : 	scratchIndices.push_back(u16(v0));

	mov	DWORD PTR _v1$1$[esp+92], ebx
	mov	DWORD PTR tv3190[esp+92], ecx
; File C:\Program Files\Microsoft Visual Studio\2022\Community\VC\Tools\MSVC\14.29.30133\include\vector

; 730  :         if (_Mylast != _My_data._Myend) {

	cmp	eax, DWORD PTR ?scratchIndices@?1??Build@NvStripInfo@@QAEXAAV?$xr_vector@PAVNvEdgeInfo@@V?$xalloc@PAVNvEdgeInfo@@@@@@AAV?$xr_vector@PAVNvFaceInfo@@V?$xalloc@PAVNvFaceInfo@@@@@@@Z@4V?$xr_vector@GV?$xalloc@G@@@@A+8
	je	SHORT $LN81@Build

; 713  :         _Alty_traits::construct(_Getal(), _Unfancy(_Mylast), _STD forward<_Valty>(_Val)...);

	mov	WORD PTR [eax], cx

; 714  :         _Orphan_range(_Mylast, _Mylast);
; 715  :         _Ty& _Result = *_Mylast;
; 716  :         ++_Mylast;

	mov	ecx, DWORD PTR ?scratchIndices@?1??Build@NvStripInfo@@QAEXAAV?$xr_vector@PAVNvEdgeInfo@@V?$xalloc@PAVNvEdgeInfo@@@@@@AAV?$xr_vector@PAVNvFaceInfo@@V?$xalloc@PAVNvFaceInfo@@@@@@@Z@4V?$xr_vector@GV?$xalloc@G@@@@A+4
	add	ecx, 2
	mov	DWORD PTR ?scratchIndices@?1??Build@NvStripInfo@@QAEXAAV?$xr_vector@PAVNvEdgeInfo@@V?$xalloc@PAVNvEdgeInfo@@@@@@AAV?$xr_vector@PAVNvFaceInfo@@V?$xalloc@PAVNvFaceInfo@@@@@@@Z@4V?$xr_vector@GV?$xalloc@G@@@@A+4, ecx

; 731  :             return _Emplace_back_with_unused_capacity(_STD forward<_Valty>(_Val)...);

	jmp	SHORT $LN80@Build
$LN81@Build:

; 732  :         }
; 733  : 
; 734  :         _Ty& _Result = *_Emplace_reallocate(_Mylast, _STD forward<_Valty>(_Val)...);

	lea	ecx, DWORD PTR $T4[esp+92]
	push	ecx
	push	eax
	call	??$_Emplace_reallocate@G@?$vector@GV?$xalloc@G@@@std@@QAEPAGQAG$$QAG@Z ; std::vector<unsigned short,xalloc<unsigned short> >::_Emplace_reallocate<unsigned short>
	mov	ecx, DWORD PTR ?scratchIndices@?1??Build@NvStripInfo@@QAEXAAV?$xr_vector@PAVNvEdgeInfo@@V?$xalloc@PAVNvEdgeInfo@@@@@@AAV?$xr_vector@PAVNvFaceInfo@@V?$xalloc@PAVNvFaceInfo@@@@@@@Z@4V?$xr_vector@GV?$xalloc@G@@@@A+4
$LN80@Build:
; File I:\Vitalya\mine\NSProjectX\layers\xrRender\NvTriStripObjects.cpp

; 464  : 	scratchIndices.push_back(u16(v1));

	movzx	edx, bx
	movzx	eax, dx
	mov	DWORD PTR tv3191[esp+92], edx
	mov	DWORD PTR $T3[esp+92], eax
; File C:\Program Files\Microsoft Visual Studio\2022\Community\VC\Tools\MSVC\14.29.30133\include\vector

; 730  :         if (_Mylast != _My_data._Myend) {

	cmp	ecx, DWORD PTR ?scratchIndices@?1??Build@NvStripInfo@@QAEXAAV?$xr_vector@PAVNvEdgeInfo@@V?$xalloc@PAVNvEdgeInfo@@@@@@AAV?$xr_vector@PAVNvFaceInfo@@V?$xalloc@PAVNvFaceInfo@@@@@@@Z@4V?$xr_vector@GV?$xalloc@G@@@@A+8
	je	SHORT $LN88@Build

; 713  :         _Alty_traits::construct(_Getal(), _Unfancy(_Mylast), _STD forward<_Valty>(_Val)...);

	mov	WORD PTR [ecx], dx

; 714  :         _Orphan_range(_Mylast, _Mylast);
; 715  :         _Ty& _Result = *_Mylast;
; 716  :         ++_Mylast;

	add	DWORD PTR ?scratchIndices@?1??Build@NvStripInfo@@QAEXAAV?$xr_vector@PAVNvEdgeInfo@@V?$xalloc@PAVNvEdgeInfo@@@@@@AAV?$xr_vector@PAVNvFaceInfo@@V?$xalloc@PAVNvFaceInfo@@@@@@@Z@4V?$xr_vector@GV?$xalloc@G@@@@A+4, 2

; 731  :             return _Emplace_back_with_unused_capacity(_STD forward<_Valty>(_Val)...);

	jmp	SHORT $LN87@Build
$LN88@Build:

; 732  :         }
; 733  : 
; 734  :         _Ty& _Result = *_Emplace_reallocate(_Mylast, _STD forward<_Valty>(_Val)...);

	lea	eax, DWORD PTR $T3[esp+92]
	push	eax
	push	ecx
	call	??$_Emplace_reallocate@G@?$vector@GV?$xalloc@G@@@std@@QAEPAGQAG$$QAG@Z ; std::vector<unsigned short,xalloc<unsigned short> >::_Emplace_reallocate<unsigned short>
$LN87@Build:
; File I:\Vitalya\mine\NSProjectX\layers\xrRender\NvTriStripObjects.cpp

; 465  : 	int v2 = NvStripifier::GetNextIndex(scratchIndices, m_startInfo.m_startFace);

	mov	edx, DWORD PTR [esi]
	call	?GetNextIndex@NvStripifier@@KAHABV?$xr_vector@GV?$xalloc@G@@@@PAVNvFaceInfo@@@Z ; NvStripifier::GetNextIndex
	mov	esi, eax
; File C:\Program Files\Microsoft Visual Studio\2022\Community\VC\Tools\MSVC\14.29.30133\include\vector

; 730  :         if (_Mylast != _My_data._Myend) {

	mov	eax, DWORD PTR ?scratchIndices@?1??Build@NvStripInfo@@QAEXAAV?$xr_vector@PAVNvEdgeInfo@@V?$xalloc@PAVNvEdgeInfo@@@@@@AAV?$xr_vector@PAVNvFaceInfo@@V?$xalloc@PAVNvFaceInfo@@@@@@@Z@4V?$xr_vector@GV?$xalloc@G@@@@A+4
; File I:\Vitalya\mine\NSProjectX\layers\xrRender\NvTriStripObjects.cpp

; 466  : 	scratchIndices.push_back(u16(v2));

	movzx	edx, si
	movzx	ecx, dx
	mov	DWORD PTR tv3192[esp+92], edx
	mov	DWORD PTR $T2[esp+92], ecx
; File C:\Program Files\Microsoft Visual Studio\2022\Community\VC\Tools\MSVC\14.29.30133\include\vector

; 730  :         if (_Mylast != _My_data._Myend) {

	cmp	eax, DWORD PTR ?scratchIndices@?1??Build@NvStripInfo@@QAEXAAV?$xr_vector@PAVNvEdgeInfo@@V?$xalloc@PAVNvEdgeInfo@@@@@@AAV?$xr_vector@PAVNvFaceInfo@@V?$xalloc@PAVNvFaceInfo@@@@@@@Z@4V?$xr_vector@GV?$xalloc@G@@@@A+8
	je	SHORT $LN95@Build

; 713  :         _Alty_traits::construct(_Getal(), _Unfancy(_Mylast), _STD forward<_Valty>(_Val)...);

	mov	WORD PTR [eax], dx

; 714  :         _Orphan_range(_Mylast, _Mylast);
; 715  :         _Ty& _Result = *_Mylast;
; 716  :         ++_Mylast;

	add	DWORD PTR ?scratchIndices@?1??Build@NvStripInfo@@QAEXAAV?$xr_vector@PAVNvEdgeInfo@@V?$xalloc@PAVNvEdgeInfo@@@@@@AAV?$xr_vector@PAVNvFaceInfo@@V?$xalloc@PAVNvFaceInfo@@@@@@@Z@4V?$xr_vector@GV?$xalloc@G@@@@A+4, 2

; 731  :             return _Emplace_back_with_unused_capacity(_STD forward<_Valty>(_Val)...);

	jmp	SHORT $LN94@Build
$LN95@Build:

; 732  :         }
; 733  : 
; 734  :         _Ty& _Result = *_Emplace_reallocate(_Mylast, _STD forward<_Valty>(_Val)...);

	lea	ecx, DWORD PTR $T2[esp+92]
	push	ecx
	push	eax
	call	??$_Emplace_reallocate@G@?$vector@GV?$xalloc@G@@@std@@QAEPAGQAG$$QAG@Z ; std::vector<unsigned short,xalloc<unsigned short> >::_Emplace_reallocate<unsigned short>
$LN94@Build:
; File I:\Vitalya\mine\NSProjectX\layers\xrRender\NvTriStripObjects.cpp

; 33   : 	NvEdgeInfo *infoIter = edgeInfos[v0];

	mov	eax, DWORD PTR _edgeInfos$[esp+88]
; File C:\Program Files\Microsoft Visual Studio\2022\Community\VC\Tools\MSVC\14.29.30133\include\vector

; 119  :         _Ptr += _Off;

	lea	ecx, DWORD PTR [ebx*4]
	mov	DWORD PTR tv3204[esp+92], ecx
; File I:\Vitalya\mine\NSProjectX\layers\xrRender\NvTriStripObjects.cpp

; 33   : 	NvEdgeInfo *infoIter = edgeInfos[v0];

	mov	eax, DWORD PTR [eax]
	mov	eax, DWORD PTR [ecx+eax]

; 34   : 	while (infoIter != NULL){

	test	eax, eax
	je	SHORT $LN105@Build
$LL104@Build:

; 35   : 		if (infoIter->m_v0 == v0){

	mov	ecx, DWORD PTR [eax+12]
	cmp	ecx, ebx
	jne	SHORT $LN106@Build

; 36   : 			if (infoIter->m_v1 == v1)

	cmp	DWORD PTR [eax+16], esi
	je	SHORT $LN103@Build

; 37   : 				return infoIter;
; 38   : 			else
; 39   : 				infoIter = infoIter->m_nextV0;

	mov	eax, DWORD PTR [eax+20]

; 40   : 		}

	jmp	SHORT $LN111@Build
$LN106@Build:

; 41   : 		else {
; 42   : 			assert(infoIter->m_v1 == v0);
; 43   : 			if (infoIter->m_v0 == v1)

	cmp	ecx, esi
	je	SHORT $LN103@Build

; 44   : 				return infoIter;
; 45   : 			else
; 46   : 				infoIter = infoIter->m_nextV1;

	mov	eax, DWORD PTR [eax+24]
$LN111@Build:

; 34   : 	while (infoIter != NULL){

	test	eax, eax
	jne	SHORT $LL104@Build
$LN105@Build:

; 47   : 		}
; 48   : 	}
; 49   : 	return NULL;

	xor	eax, eax
$LN103@Build:

; 62   : 	return (edgeInfo->m_face0 == faceInfo ? edgeInfo->m_face1 : edgeInfo->m_face0);

	mov	ebx, DWORD PTR _this$1$[esp+92]
	mov	ebp, DWORD PTR [eax+4]
	cmp	ebp, DWORD PTR [ebx]
	jne	SHORT $LN101@Build
	mov	ebp, DWORD PTR [eax+8]
$LN101@Build:

; 467  : 	
; 468  : 	//
; 469  : 	// build the forward list
; 470  : 	//
; 471  : 	int nv0 = v1;
; 472  : 	int nv1 = v2;
; 473  : 	
; 474  : 	NvFaceInfo *nextFace = NvStripifier::FindOtherFace(edgeInfos, nv0, nv1, m_startInfo.m_startFace);
; 475  : 	while (nextFace != NULL && !IsMarked(nextFace))

	mov	DWORD PTR _nextFace$[esp+92], ebp
	push	edi
	mov	edi, DWORD PTR _forwardFaces$[esp+100]
	test	ebp, ebp
	je	$LN578@Build
	mov	ecx, ebp
$LL3@Build:

; 377  : 	return (faceInfo->m_stripId >= 0) || (IsExperiment() && faceInfo->m_experimentId == m_experimentId);

	cmp	DWORD PTR [ebp+12], 0
	jge	$LN578@Build
; File I:\Vitalya\mine\NSProjectX\layers\xrRender\NvTriStripObjects.h

; 131  : 	inline bool IsExperiment () const { return m_experimentId >= 0; }

	mov	eax, DWORD PTR [ebx+28]
	test	eax, eax
; File I:\Vitalya\mine\NSProjectX\layers\xrRender\NvTriStripObjects.cpp

; 377  : 	return (faceInfo->m_stripId >= 0) || (IsExperiment() && faceInfo->m_experimentId == m_experimentId);

	js	SHORT $LN132@Build
	cmp	DWORD PTR [ebp+20], eax
	je	$LN578@Build
$LN132@Build:

; 476  : 	{
; 477  : 		//this tests to see if a face is "unique", meaning that its vertices aren't already in the list
; 478  : 		// so, strips which "wrap-around" are not allowed
; 479  : 		if(!Unique(forwardFaces, nextFace))

	push	ecx
	lea	eax, DWORD PTR _forwardFaces$[esp+100]
	push	eax
	call	?Unique@NvStripInfo@@QAE_NAAV?$xr_vector@PAVNvFaceInfo@@V?$xalloc@PAVNvFaceInfo@@@@@@PAVNvFaceInfo@@@Z ; NvStripInfo::Unique
	test	al, al
	je	$LN578@Build
; File C:\Program Files\Microsoft Visual Studio\2022\Community\VC\Tools\MSVC\14.29.30133\include\vector

; 730  :         if (_Mylast != _My_data._Myend) {

	cmp	edi, DWORD PTR _forwardFaces$[esp+104]
	je	SHORT $LN140@Build

; 713  :         _Alty_traits::construct(_Getal(), _Unfancy(_Mylast), _STD forward<_Valty>(_Val)...);

	mov	DWORD PTR [edi], ebp

; 714  :         _Orphan_range(_Mylast, _Mylast);
; 715  :         _Ty& _Result = *_Mylast;
; 716  :         ++_Mylast;

	add	edi, 4
	mov	DWORD PTR _numFaces$1$[esp+96], edi
	mov	DWORD PTR _forwardFaces$[esp+100], edi

; 731  :             return _Emplace_back_with_unused_capacity(_STD forward<_Valty>(_Val)...);

	jmp	SHORT $LN139@Build
$LN140@Build:

; 732  :         }
; 733  : 
; 734  :         _Ty& _Result = *_Emplace_reallocate(_Mylast, _STD forward<_Valty>(_Val)...);

	lea	eax, DWORD PTR _nextFace$[esp+96]
	push	eax
	push	edi
	lea	ecx, DWORD PTR _forwardFaces$[esp+104]
	call	??$_Emplace_reallocate@ABQAVNvFaceInfo@@@?$vector@PAVNvFaceInfo@@V?$xalloc@PAVNvFaceInfo@@@@@std@@QAEPAPAVNvFaceInfo@@QAPAV2@ABQAV2@@Z ; std::vector<NvFaceInfo *,xalloc<NvFaceInfo *> >::_Emplace_reallocate<NvFaceInfo * const &>
	mov	eax, DWORD PTR _forwardFaces$[esp+100]
	mov	DWORD PTR _numFaces$1$[esp+96], eax
$LN139@Build:
; File I:\Vitalya\mine\NSProjectX\layers\xrRender\NvTriStripObjects.h

; 131  : 	inline bool IsExperiment () const { return m_experimentId >= 0; }

	mov	eax, DWORD PTR [ebx+28]
	test	eax, eax
; File I:\Vitalya\mine\NSProjectX\layers\xrRender\NvTriStripObjects.cpp

; 388  : 	if (IsExperiment()){

	js	SHORT $LN145@Build

; 389  : 		faceInfo->m_experimentId = m_experimentId;

	mov	DWORD PTR [ebp+20], eax

; 390  : 		faceInfo->m_testStripId  = m_stripId;

	mov	eax, DWORD PTR [ebx+24]
	mov	DWORD PTR [ebp+16], eax

; 391  :     }

	jmp	SHORT $LN146@Build
$LN145@Build:

; 392  : 	else{
; 393  : 		assert(faceInfo->m_stripId == -1);
; 394  : 		faceInfo->m_experimentId = -1;

	mov	DWORD PTR [ebp+20], -1

; 395  : 		faceInfo->m_stripId      = m_stripId;

	mov	eax, DWORD PTR [ebx+24]
	mov	DWORD PTR [ebp+12], eax
$LN146@Build:
; File C:\Program Files\Microsoft Visual Studio\2022\Community\VC\Tools\MSVC\14.29.30133\include\vector

; 1536 :         return static_cast<size_type>(_My_data._Mylast - _My_data._Myfirst);

	mov	eax, DWORD PTR ?scratchIndices@?1??Build@NvStripInfo@@QAEXAAV?$xr_vector@PAVNvEdgeInfo@@V?$xalloc@PAVNvEdgeInfo@@@@@@AAV?$xr_vector@PAVNvFaceInfo@@V?$xalloc@PAVNvFaceInfo@@@@@@@Z@4V?$xr_vector@GV?$xalloc@G@@@@A
	mov	ecx, DWORD PTR ?scratchIndices@?1??Build@NvStripInfo@@QAEXAAV?$xr_vector@PAVNvEdgeInfo@@V?$xalloc@PAVNvEdgeInfo@@@@@@AAV?$xr_vector@PAVNvFaceInfo@@V?$xalloc@PAVNvFaceInfo@@@@@@@Z@4V?$xr_vector@GV?$xalloc@G@@@@A+4
; File I:\Vitalya\mine\NSProjectX\layers\xrRender\NvTriStripObjects.cpp

; 338  : 	int fv1 = face->m_v1;

	mov	edi, DWORD PTR [ebp+4]
; File C:\Program Files\Microsoft Visual Studio\2022\Community\VC\Tools\MSVC\14.29.30133\include\vector

; 1536 :         return static_cast<size_type>(_My_data._Mylast - _My_data._Myfirst);

	sub	ecx, eax
; File I:\Vitalya\mine\NSProjectX\layers\xrRender\NvTriStripObjects.cpp

; 339  : 	int fv2 = face->m_v2;

	mov	ebx, DWORD PTR [ebp+8]
; File C:\Program Files\Microsoft Visual Studio\2022\Community\VC\Tools\MSVC\14.29.30133\include\vector

; 1536 :         return static_cast<size_type>(_My_data._Mylast - _My_data._Myfirst);

	sar	ecx, 1
; File I:\Vitalya\mine\NSProjectX\layers\xrRender\NvTriStripObjects.cpp

; 488  : 		nv0 = nv1;

	mov	DWORD PTR _nv0$1$[esp+96], esi

; 337  : 	int fv0 = face->m_v0;

	mov	esi, DWORD PTR [ebp]
	movzx	edx, WORD PTR [eax+ecx*2-4]
	movzx	eax, WORD PTR [eax+ecx*2-2]

; 340  : 	
; 341  : 	if (fv0 != v0 && fv0 != v1){

	cmp	esi, edx
	je	SHORT $LN151@Build
	cmp	esi, eax
	je	SHORT $LN151@Build

; 342  : 		if ((fv1 != v0 && fv1 != v1) || (fv2 != v0 && fv2 != v1)){

	cmp	edi, edx
	je	SHORT $LN154@Build
	cmp	edi, eax
	jne	SHORT $LN153@Build
$LN154@Build:
	cmp	ebx, edx
	je	$LN150@Build
	cmp	ebx, eax
	je	$LN150@Build
$LN153@Build:

; 343  : 			Msg("! WARNING: GetNextIndex: Triangle doesn't have all of its vertices");

	mov	ebx, DWORD PTR __imp_?Msg@@YAXPBDZZ
	push	OFFSET ??_C@_0ED@PGPLFOBO@?$CB?5WARNING?3?5GetNextIndex?3?5Triang@
	call	ebx

; 344  : 			Msg("! WARNING: GetNextIndex: Duplicate triangle probably got us derailed");

	push	OFFSET ??_C@_0EF@NPIJGPAE@?$CB?5WARNING?3?5GetNextIndex?3?5Duplic@
	call	ebx
	add	esp, 8

; 345  : 		}
; 346  : 		return fv0;

	jmp	SHORT $LN150@Build
$LN151@Build:

; 347  : 	}
; 348  : 	if (fv1 != v0 && fv1 != v1){

	cmp	edi, edx
	je	SHORT $LN155@Build
	cmp	edi, eax
	je	SHORT $LN155@Build

; 349  : 		if ((fv0 != v0 && fv0 != v1) || (fv2 != v0 && fv2 != v1)){

	cmp	esi, edx
	je	SHORT $LN158@Build
	cmp	esi, eax
	jne	SHORT $LN157@Build
$LN158@Build:
	cmp	ebx, edx
	je	SHORT $LN156@Build
	cmp	ebx, eax
	je	SHORT $LN156@Build
$LN157@Build:

; 350  : 			Msg("! WARNING: GetNextIndex: Triangle doesn't have all of its vertices");

	mov	ebx, DWORD PTR __imp_?Msg@@YAXPBDZZ
	push	OFFSET ??_C@_0ED@PGPLFOBO@?$CB?5WARNING?3?5GetNextIndex?3?5Triang@
	call	ebx

; 351  : 			Msg("! WARNING: GetNextIndex: Duplicate triangle probably got us derailed");

	push	OFFSET ??_C@_0EF@NPIJGPAE@?$CB?5WARNING?3?5GetNextIndex?3?5Duplic@
	call	ebx
	add	esp, 8
$LN156@Build:

; 352  : 		}
; 353  : 		return fv1;

	mov	esi, edi
	jmp	SHORT $LN150@Build
$LN155@Build:

; 354  : 	}
; 355  : 	if (fv2 != v0 && fv2 != v1){

	cmp	ebx, edx
	je	SHORT $LN159@Build
	cmp	ebx, eax
	je	SHORT $LN159@Build

; 356  : 		if ((fv0 != v0 && fv0 != v1) || (fv1 != v0 && fv1 != v1)){

	cmp	esi, edx
	je	SHORT $LN162@Build
	cmp	esi, eax
	jne	SHORT $LN161@Build
$LN162@Build:
	cmp	edi, edx
	je	SHORT $LN160@Build
	cmp	edi, eax
	je	SHORT $LN160@Build
$LN161@Build:

; 357  : 			Msg("! WARNING: GetNextIndex: Triangle doesn't have all of its vertices");

	mov	esi, DWORD PTR __imp_?Msg@@YAXPBDZZ
	push	OFFSET ??_C@_0ED@PGPLFOBO@?$CB?5WARNING?3?5GetNextIndex?3?5Triang@
	call	esi

; 358  : 			Msg("! WARNING: GetNextIndex: Duplicate triangle probably got us derailed");

	push	OFFSET ??_C@_0EF@NPIJGPAE@?$CB?5WARNING?3?5GetNextIndex?3?5Duplic@
	call	esi
	add	esp, 8
$LN160@Build:

; 359  : 		}
; 360  : 		return fv2;

	mov	esi, ebx
	jmp	SHORT $LN150@Build
$LN159@Build:

; 361  : 	}
; 362  : 	
; 363  : 	// shouldn't get here
; 364  : 	Msg("! WARNING: GetNextIndex: Duplicate triangle sent");

	push	OFFSET ??_C@_0DB@JOONJBKI@?$CB?5WARNING?3?5GetNextIndex?3?5Duplic@
	call	DWORD PTR __imp_?Msg@@YAXPBDZZ
	add	esp, 4

; 365  : 	return -1;

	or	esi, -1
$LN150@Build:

; 489  : 		nv1 = NvStripifier::GetNextIndex(scratchIndices, nextFace);
; 490  : 		scratchIndices.push_back(u16(nv1));

	movzx	ecx, si
	mov	eax, ecx
	mov	DWORD PTR $T1[esp+96], eax
; File C:\Program Files\Microsoft Visual Studio\2022\Community\VC\Tools\MSVC\14.29.30133\include\vector

; 730  :         if (_Mylast != _My_data._Myend) {

	mov	eax, DWORD PTR ?scratchIndices@?1??Build@NvStripInfo@@QAEXAAV?$xr_vector@PAVNvEdgeInfo@@V?$xalloc@PAVNvEdgeInfo@@@@@@AAV?$xr_vector@PAVNvFaceInfo@@V?$xalloc@PAVNvFaceInfo@@@@@@@Z@4V?$xr_vector@GV?$xalloc@G@@@@A+4
	cmp	eax, DWORD PTR ?scratchIndices@?1??Build@NvStripInfo@@QAEXAAV?$xr_vector@PAVNvEdgeInfo@@V?$xalloc@PAVNvEdgeInfo@@@@@@AAV?$xr_vector@PAVNvFaceInfo@@V?$xalloc@PAVNvFaceInfo@@@@@@@Z@4V?$xr_vector@GV?$xalloc@G@@@@A+8
	je	SHORT $LN197@Build

; 713  :         _Alty_traits::construct(_Getal(), _Unfancy(_Mylast), _STD forward<_Valty>(_Val)...);

	mov	WORD PTR [eax], cx

; 714  :         _Orphan_range(_Mylast, _Mylast);
; 715  :         _Ty& _Result = *_Mylast;
; 716  :         ++_Mylast;

	add	DWORD PTR ?scratchIndices@?1??Build@NvStripInfo@@QAEXAAV?$xr_vector@PAVNvEdgeInfo@@V?$xalloc@PAVNvEdgeInfo@@@@@@AAV?$xr_vector@PAVNvFaceInfo@@V?$xalloc@PAVNvFaceInfo@@@@@@@Z@4V?$xr_vector@GV?$xalloc@G@@@@A+4, 2

; 731  :             return _Emplace_back_with_unused_capacity(_STD forward<_Valty>(_Val)...);

	jmp	SHORT $LN196@Build
$LN197@Build:

; 732  :         }
; 733  : 
; 734  :         _Ty& _Result = *_Emplace_reallocate(_Mylast, _STD forward<_Valty>(_Val)...);

	lea	eax, DWORD PTR $T1[esp+96]
	push	eax
	push	DWORD PTR ?scratchIndices@?1??Build@NvStripInfo@@QAEXAAV?$xr_vector@PAVNvEdgeInfo@@V?$xalloc@PAVNvEdgeInfo@@@@@@AAV?$xr_vector@PAVNvFaceInfo@@V?$xalloc@PAVNvFaceInfo@@@@@@@Z@4V?$xr_vector@GV?$xalloc@G@@@@A+4
	call	??$_Emplace_reallocate@G@?$vector@GV?$xalloc@G@@@std@@QAEPAGQAG$$QAG@Z ; std::vector<unsigned short,xalloc<unsigned short> >::_Emplace_reallocate<unsigned short>
$LN196@Build:
; File I:\Vitalya\mine\NSProjectX\layers\xrRender\NvTriStripObjects.cpp

; 33   : 	NvEdgeInfo *infoIter = edgeInfos[v0];

	mov	eax, DWORD PTR _edgeInfos$[esp+92]
	mov	edx, DWORD PTR _nv0$1$[esp+96]
	mov	eax, DWORD PTR [eax]
	mov	eax, DWORD PTR [eax+edx*4]

; 34   : 	while (infoIter != NULL){

	test	eax, eax
	je	SHORT $LN207@Build
$LL206@Build:

; 35   : 		if (infoIter->m_v0 == v0){

	mov	ecx, DWORD PTR [eax+12]
	cmp	ecx, edx
	jne	SHORT $LN208@Build

; 36   : 			if (infoIter->m_v1 == v1)

	cmp	DWORD PTR [eax+16], esi
	je	SHORT $LN205@Build

; 37   : 				return infoIter;
; 38   : 			else
; 39   : 				infoIter = infoIter->m_nextV0;

	mov	eax, DWORD PTR [eax+20]

; 40   : 		}

	jmp	SHORT $LN213@Build
$LN208@Build:

; 41   : 		else {
; 42   : 			assert(infoIter->m_v1 == v0);
; 43   : 			if (infoIter->m_v0 == v1)

	cmp	ecx, esi
	je	SHORT $LN205@Build

; 44   : 				return infoIter;
; 45   : 			else
; 46   : 				infoIter = infoIter->m_nextV1;

	mov	eax, DWORD PTR [eax+24]
$LN213@Build:

; 34   : 	while (infoIter != NULL){

	test	eax, eax
	jne	SHORT $LL206@Build
$LN207@Build:

; 47   : 		}
; 48   : 	}
; 49   : 	return NULL;

	xor	eax, eax
$LN205@Build:

; 62   : 	return (edgeInfo->m_face0 == faceInfo ? edgeInfo->m_face1 : edgeInfo->m_face0);

	mov	ecx, DWORD PTR [eax+4]
	cmp	ecx, ebp
	jne	SHORT $LN203@Build
	mov	ebp, DWORD PTR [eax+8]
	jmp	SHORT $LN204@Build
$LN203@Build:
	mov	ebp, ecx
$LN204@Build:

; 467  : 	
; 468  : 	//
; 469  : 	// build the forward list
; 470  : 	//
; 471  : 	int nv0 = v1;
; 472  : 	int nv1 = v2;
; 473  : 	
; 474  : 	NvFaceInfo *nextFace = NvStripifier::FindOtherFace(edgeInfos, nv0, nv1, m_startInfo.m_startFace);
; 475  : 	while (nextFace != NULL && !IsMarked(nextFace))

	mov	edi, DWORD PTR _numFaces$1$[esp+96]
	mov	ecx, ebp
	mov	DWORD PTR _nextFace$[esp+96], ebp
	test	ebp, ebp
	je	SHORT $LN578@Build
	mov	ebx, DWORD PTR _this$1$[esp+96]
	jmp	$LL3@Build
$LN578@Build:
; File C:\Program Files\Microsoft Visual Studio\2022\Community\VC\Tools\MSVC\14.29.30133\include\vector

; 1536 :         return static_cast<size_type>(_My_data._Mylast - _My_data._Myfirst);

	mov	ecx, DWORD PTR _forwardFaces$[esp+96]

; 390  :     _CONSTEXPR20_CONTAINER _Vector_val() noexcept : _Myfirst(), _Mylast(), _Myend() {}

	xor	ebx, ebx

; 1536 :         return static_cast<size_type>(_My_data._Mylast - _My_data._Myfirst);

	sub	edi, ecx

; 390  :     _CONSTEXPR20_CONTAINER _Vector_val() noexcept : _Myfirst(), _Mylast(), _Myend() {}

	mov	DWORD PTR _tempAllFaces$[esp+96], ebx

; 1536 :         return static_cast<size_type>(_My_data._Mylast - _My_data._Myfirst);

	sar	edi, 2

; 390  :     _CONSTEXPR20_CONTAINER _Vector_val() noexcept : _Myfirst(), _Mylast(), _Myend() {}

	xor	ebp, ebp
	xor	eax, eax
	mov	DWORD PTR _tempAllFaces$[esp+100], ebp
	mov	DWORD PTR _tempAllFaces$[esp+104], eax

; 1536 :         return static_cast<size_type>(_My_data._Mylast - _My_data._Myfirst);

	mov	DWORD PTR _numFaces$1$[esp+96], edi
; File I:\Vitalya\mine\NSProjectX\layers\xrRender\NvTriStripObjects.cpp

; 500  : 	for(int i = 0; i < forwardFaces.size(); i++)

	test	edi, edi
	je	SHORT $LN6@Build
	mov	esi, ecx
	npad	6
$LL7@Build:
; File C:\Program Files\Microsoft Visual Studio\2022\Community\VC\Tools\MSVC\14.29.30133\include\vector

; 730  :         if (_Mylast != _My_data._Myend) {

	cmp	ebp, eax
	je	SHORT $LN264@Build

; 713  :         _Alty_traits::construct(_Getal(), _Unfancy(_Mylast), _STD forward<_Valty>(_Val)...);

	mov	eax, DWORD PTR [esi]
	mov	DWORD PTR [ebp], eax

; 714  :         _Orphan_range(_Mylast, _Mylast);
; 715  :         _Ty& _Result = *_Mylast;
; 716  :         ++_Mylast;

	add	ebp, 4
	mov	DWORD PTR _tempAllFaces$[esp+100], ebp

; 731  :             return _Emplace_back_with_unused_capacity(_STD forward<_Valty>(_Val)...);

	jmp	SHORT $LN5@Build
$LN264@Build:

; 732  :         }
; 733  : 
; 734  :         _Ty& _Result = *_Emplace_reallocate(_Mylast, _STD forward<_Valty>(_Val)...);

	push	esi
	push	ebp
	lea	ecx, DWORD PTR _tempAllFaces$[esp+104]
	call	??$_Emplace_reallocate@ABQAVNvFaceInfo@@@?$vector@PAVNvFaceInfo@@V?$xalloc@PAVNvFaceInfo@@@@@std@@QAEPAPAVNvFaceInfo@@QAPAV2@ABQAV2@@Z ; std::vector<NvFaceInfo *,xalloc<NvFaceInfo *> >::_Emplace_reallocate<NvFaceInfo * const &>
	mov	ebp, DWORD PTR _tempAllFaces$[esp+100]
$LN5@Build:
; File I:\Vitalya\mine\NSProjectX\layers\xrRender\NvTriStripObjects.cpp

; 500  : 	for(int i = 0; i < forwardFaces.size(); i++)

	mov	eax, DWORD PTR _tempAllFaces$[esp+104]
	add	esi, 4
	sub	edi, 1
	jne	SHORT $LL7@Build
	mov	ebx, DWORD PTR _tempAllFaces$[esp+96]
$LN6@Build:
; File C:\Program Files\Microsoft Visual Studio\2022\Community\VC\Tools\MSVC\14.29.30133\include\vector

; 1250 :         const auto _Oldsize = static_cast<size_type>(_Mylast - _Myfirst);

	mov	edx, DWORD PTR ?scratchIndices@?1??Build@NvStripInfo@@QAEXAAV?$xr_vector@PAVNvEdgeInfo@@V?$xalloc@PAVNvEdgeInfo@@@@@@AAV?$xr_vector@PAVNvFaceInfo@@V?$xalloc@PAVNvFaceInfo@@@@@@@Z@4V?$xr_vector@GV?$xalloc@G@@@@A+4
	mov	ecx, edx
	sub	ecx, DWORD PTR ?scratchIndices@?1??Build@NvStripInfo@@QAEXAAV?$xr_vector@PAVNvEdgeInfo@@V?$xalloc@PAVNvEdgeInfo@@@@@@AAV?$xr_vector@PAVNvFaceInfo@@V?$xalloc@PAVNvFaceInfo@@@@@@@Z@4V?$xr_vector@GV?$xalloc@G@@@@A
	sar	ecx, 1
; File I:\Vitalya\mine\NSProjectX\layers\xrRender\NvTriStripObjects.cpp

; 507  : 	scratchIndices.push_back(u16(v2));

	mov	ecx, DWORD PTR tv3192[esp+96]
; File C:\Program Files\Microsoft Visual Studio\2022\Community\VC\Tools\MSVC\14.29.30133\include\vector

; 1251 :         if (_Newsize < _Oldsize) { // trim

	cmovne	edx, DWORD PTR ?scratchIndices@?1??Build@NvStripInfo@@QAEXAAV?$xr_vector@PAVNvEdgeInfo@@V?$xalloc@PAVNvEdgeInfo@@@@@@AAV?$xr_vector@PAVNvFaceInfo@@V?$xalloc@PAVNvFaceInfo@@@@@@@Z@4V?$xr_vector@GV?$xalloc@G@@@@A
; File I:\Vitalya\mine\NSProjectX\layers\xrRender\NvTriStripObjects.cpp

; 507  : 	scratchIndices.push_back(u16(v2));

	movzx	eax, cx
; File C:\Program Files\Microsoft Visual Studio\2022\Community\VC\Tools\MSVC\14.29.30133\include\vector

; 1251 :         if (_Newsize < _Oldsize) { // trim

	mov	DWORD PTR ?scratchIndices@?1??Build@NvStripInfo@@QAEXAAV?$xr_vector@PAVNvEdgeInfo@@V?$xalloc@PAVNvEdgeInfo@@@@@@AAV?$xr_vector@PAVNvFaceInfo@@V?$xalloc@PAVNvFaceInfo@@@@@@@Z@4V?$xr_vector@GV?$xalloc@G@@@@A+4, edx
; File I:\Vitalya\mine\NSProjectX\layers\xrRender\NvTriStripObjects.cpp

; 507  : 	scratchIndices.push_back(u16(v2));

	mov	DWORD PTR $T5[esp+96], eax
; File C:\Program Files\Microsoft Visual Studio\2022\Community\VC\Tools\MSVC\14.29.30133\include\vector

; 730  :         if (_Mylast != _My_data._Myend) {

	cmp	edx, DWORD PTR ?scratchIndices@?1??Build@NvStripInfo@@QAEXAAV?$xr_vector@PAVNvEdgeInfo@@V?$xalloc@PAVNvEdgeInfo@@@@@@AAV?$xr_vector@PAVNvFaceInfo@@V?$xalloc@PAVNvFaceInfo@@@@@@@Z@4V?$xr_vector@GV?$xalloc@G@@@@A+8
	je	SHORT $LN295@Build

; 713  :         _Alty_traits::construct(_Getal(), _Unfancy(_Mylast), _STD forward<_Valty>(_Val)...);

	mov	WORD PTR [edx], cx

; 714  :         _Orphan_range(_Mylast, _Mylast);
