; Listing generated by Microsoft (R) Optimizing Compiler Version 19.29.30146.0 

	TITLE	i:\vitalya\mine\nsprojectx\nspx_build\intermediate\release-win32\xrrender_r1\particlegroup.obj
	.686P
	.XMM
	include listing.inc
	.model	flat

INCLUDELIB OLDNAMES

PUBLIC	??_C@_0BB@EIBCOMD@PS?3?3CPGDef?3?3Load@		; `string'
PUBLIC	??_C@_0DN@BMEFJHKE@I?3?2Vitalya?2mine?2NSProjectX?2laye@ ; `string'
PUBLIC	??_C@_0CA@IGANCBFL@F?4find_chunk?$CIPGD_CHUNK_VERSION?$CJ@ ; `string'
PUBLIC	??_C@_0CG@FMBFHEJN@?$CBUnsupported?5PG?5version?4?5Load?5f@ ; `string'
PUBLIC	??_C@_0BN@CKGJAGHC@F?4find_chunk?$CIPGD_CHUNK_NAME?$CJ@ ; `string'
PUBLIC	??_C@_0CB@LFDJMMJL@F?4find_chunk?$CIPGD_CHUNK_EFFECTS2@ ; `string'
PUBLIC	??_C@_0DM@JNADIGEF@Can?8t?5use?5looped?5effect?5?8?$CFs?8?5as@ ; `string'
PUBLIC	??_C@_0CK@MIIKJOJA@PS?3?3CParticleGroup?3?3SItem?3?3Star@ ; `string'
PUBLIC	??_R2CParticleGroup@PS@@8			; PS::CParticleGroup::`RTTI Base Class Array'
PUBLIC	??_R1A@?0A@EA@CParticleGroup@PS@@8		; PS::CParticleGroup::`RTTI Base Class Descriptor at (0,-1,0,64)'
PUBLIC	??_R3CParticleGroup@PS@@8			; PS::CParticleGroup::`RTTI Class Hierarchy Descriptor'
PUBLIC	??_R0?AVCParticleGroup@PS@@@8			; PS::CParticleGroup `RTTI Type Descriptor'
PUBLIC	??_C@_0BJ@DIJHBDKI@PS?3?3CParticleGroup?3?3Copy@ ; `string'
PUBLIC	??_C@_0DL@JMPOGBPO@I?3?2Vitalya?2mine?2NSProjectX?2laye@ ; `string'
PUBLIC	??_R4CParticleGroup@PS@@6B@			; PS::CParticleGroup::`RTTI Complete Object Locator'
PUBLIC	??_7CParticleGroup@PS@@6B@			; PS::CParticleGroup::`vftable'
;	COMDAT ?ignore_always@?BG@??Load@CPGDef@PS@@QAEHAAVIReader@@@Z@4_NA
_BSS	SEGMENT
?ignore_always@?BG@??Load@CPGDef@PS@@QAEHAAVIReader@@@Z@4_NA DB 01H DUP (?) ; `PS::CPGDef::Load'::`22'::ignore_always
_BSS	ENDS
;	COMDAT ?ignore_always@?L@??Load@CPGDef@PS@@QAEHAAVIReader@@@Z@4_NA
_BSS	SEGMENT
?ignore_always@?L@??Load@CPGDef@PS@@QAEHAAVIReader@@@Z@4_NA DB 01H DUP (?) ; `PS::CPGDef::Load'::`11'::ignore_always
_BSS	ENDS
;	COMDAT ?ignore_always@?3??Load@CPGDef@PS@@QAEHAAVIReader@@@Z@4_NA
_BSS	SEGMENT
?ignore_always@?3??Load@CPGDef@PS@@QAEHAAVIReader@@@Z@4_NA DB 01H DUP (?) ; `PS::CPGDef::Load'::`4'::ignore_always
_BSS	ENDS
;	COMDAT ??_7CParticleGroup@PS@@6B@
CONST	SEGMENT
??_7CParticleGroup@PS@@6B@ DD FLAT:??_R4CParticleGroup@PS@@6B@ ; PS::CParticleGroup::`vftable'
	DD	FLAT:?Render@IRender_Visual@@UAEXM@Z
	DD	FLAT:?Load@IRender_Visual@@UAEXPBDPAVIReader@@I@Z
	DD	FLAT:?Release@IRender_Visual@@UAEXXZ
	DD	FLAT:?Copy@CParticleGroup@PS@@UAEXPAVIRender_Visual@@@Z
	DD	FLAT:?Spawn@IRender_Visual@@UAEXXZ
	DD	FLAT:?Depart@IRender_Visual@@UAEXXZ
	DD	FLAT:?dcast_PKinematics@IRender_Visual@@UAEPAVCKinematics@@XZ
	DD	FLAT:?dcast_PKinematicsAnimated@IRender_Visual@@UAEPAVCKinematicsAnimated@@XZ
	DD	FLAT:?dcast_ParticleCustom@IParticleCustom@@UAEPAV1@XZ
	DD	FLAT:??_ECParticleGroup@PS@@UAEPAXI@Z
	DD	FLAT:?OnDeviceCreate@CParticleGroup@PS@@UAEXXZ
	DD	FLAT:?OnDeviceDestroy@CParticleGroup@PS@@UAEXXZ
	DD	FLAT:?UpdateParent@CParticleGroup@PS@@UAEXABU?$_matrix@M@@ABU?$_vector3@M@@H@Z
	DD	FLAT:?OnFrame@CParticleGroup@PS@@UAEXI@Z
	DD	FLAT:?Play@CParticleGroup@PS@@UAEXXZ
	DD	FLAT:?Stop@CParticleGroup@PS@@UAEXH@Z
	DD	FLAT:?IsPlaying@CParticleGroup@PS@@UAEHXZ
	DD	FLAT:?ParticlesCount@CParticleGroup@PS@@UAEIXZ
	DD	FLAT:?GetTimeLimit@CParticleGroup@PS@@UAEMXZ
	DD	FLAT:?IsLooped@IParticleCustom@@UAEHXZ
	DD	FLAT:?Name@CParticleGroup@PS@@UAE?BVshared_str@@XZ
CONST	ENDS
;	COMDAT ??_R4CParticleGroup@PS@@6B@
rdata$r	SEGMENT
??_R4CParticleGroup@PS@@6B@ DD 00H			; PS::CParticleGroup::`RTTI Complete Object Locator'
	DD	00H
	DD	00H
	DD	FLAT:??_R0?AVCParticleGroup@PS@@@8
	DD	FLAT:??_R3CParticleGroup@PS@@8
rdata$r	ENDS
;	COMDAT ??_C@_0DL@JMPOGBPO@I?3?2Vitalya?2mine?2NSProjectX?2laye@
CONST	SEGMENT
??_C@_0DL@JMPOGBPO@I?3?2Vitalya?2mine?2NSProjectX?2laye@ DB 'I:\Vitalya\m'
	DB	'ine\NSProjectX\layers\xrRender\ParticleGroup.h', 00H ; `string'
CONST	ENDS
;	COMDAT ??_C@_0BJ@DIJHBDKI@PS?3?3CParticleGroup?3?3Copy@
CONST	SEGMENT
??_C@_0BJ@DIJHBDKI@PS?3?3CParticleGroup?3?3Copy@ DB 'PS::CParticleGroup::'
	DB	'Copy', 00H					; `string'
CONST	ENDS
;	COMDAT ??_R0?AVCParticleGroup@PS@@@8
data$rs	SEGMENT
??_R0?AVCParticleGroup@PS@@@8 DD FLAT:??_7type_info@@6B@ ; PS::CParticleGroup `RTTI Type Descriptor'
	DD	00H
	DB	'.?AVCParticleGroup@PS@@', 00H
data$rs	ENDS
;	COMDAT ??_R3CParticleGroup@PS@@8
rdata$r	SEGMENT
??_R3CParticleGroup@PS@@8 DD 00H			; PS::CParticleGroup::`RTTI Class Hierarchy Descriptor'
	DD	00H
	DD	03H
	DD	FLAT:??_R2CParticleGroup@PS@@8
rdata$r	ENDS
;	COMDAT ??_R1A@?0A@EA@CParticleGroup@PS@@8
rdata$r	SEGMENT
??_R1A@?0A@EA@CParticleGroup@PS@@8 DD FLAT:??_R0?AVCParticleGroup@PS@@@8 ; PS::CParticleGroup::`RTTI Base Class Descriptor at (0,-1,0,64)'
	DD	02H
	DD	00H
	DD	0ffffffffH
	DD	00H
	DD	040H
	DD	FLAT:??_R3CParticleGroup@PS@@8
rdata$r	ENDS
;	COMDAT ??_R2CParticleGroup@PS@@8
rdata$r	SEGMENT
??_R2CParticleGroup@PS@@8 DD FLAT:??_R1A@?0A@EA@CParticleGroup@PS@@8 ; PS::CParticleGroup::`RTTI Base Class Array'
	DD	FLAT:??_R1A@?0A@EA@IParticleCustom@@8
	DD	FLAT:??_R1A@?0A@EA@IRender_Visual@@8
rdata$r	ENDS
;	COMDAT ??_C@_0CK@MIIKJOJA@PS?3?3CParticleGroup?3?3SItem?3?3Star@
CONST	SEGMENT
??_C@_0CK@MIIKJOJA@PS?3?3CParticleGroup?3?3SItem?3?3Star@ DB 'PS::CPartic'
	DB	'leGroup::SItem::StartFreeChild', 00H	; `string'
CONST	ENDS
;	COMDAT ??_C@_0DM@JNADIGEF@Can?8t?5use?5looped?5effect?5?8?$CFs?8?5as@
CONST	SEGMENT
??_C@_0DM@JNADIGEF@Can?8t?5use?5looped?5effect?5?8?$CFs?8?5as@ DB 'Can''t'
	DB	' use looped effect ''%s'' as ''On Birth'' child for group.', 00H ; `string'
CONST	ENDS
;	COMDAT ??_C@_0CB@LFDJMMJL@F?4find_chunk?$CIPGD_CHUNK_EFFECTS2@
CONST	SEGMENT
??_C@_0CB@LFDJMMJL@F?4find_chunk?$CIPGD_CHUNK_EFFECTS2@ DB 'F.find_chunk('
	DB	'PGD_CHUNK_EFFECTS2)', 00H			; `string'
CONST	ENDS
;	COMDAT ??_C@_0BN@CKGJAGHC@F?4find_chunk?$CIPGD_CHUNK_NAME?$CJ@
CONST	SEGMENT
??_C@_0BN@CKGJAGHC@F?4find_chunk?$CIPGD_CHUNK_NAME?$CJ@ DB 'F.find_chunk('
	DB	'PGD_CHUNK_NAME)', 00H			; `string'
CONST	ENDS
;	COMDAT ??_C@_0CG@FMBFHEJN@?$CBUnsupported?5PG?5version?4?5Load?5f@
CONST	SEGMENT
??_C@_0CG@FMBFHEJN@?$CBUnsupported?5PG?5version?4?5Load?5f@ DB '!Unsuppor'
	DB	'ted PG version. Load failed.', 00H		; `string'
CONST	ENDS
;	COMDAT ??_C@_0CA@IGANCBFL@F?4find_chunk?$CIPGD_CHUNK_VERSION?$CJ@
CONST	SEGMENT
??_C@_0CA@IGANCBFL@F?4find_chunk?$CIPGD_CHUNK_VERSION?$CJ@ DB 'F.find_chu'
	DB	'nk(PGD_CHUNK_VERSION)', 00H			; `string'
CONST	ENDS
;	COMDAT ??_C@_0DN@BMEFJHKE@I?3?2Vitalya?2mine?2NSProjectX?2laye@
CONST	SEGMENT
??_C@_0DN@BMEFJHKE@I?3?2Vitalya?2mine?2NSProjectX?2laye@ DB 'I:\Vitalya\m'
	DB	'ine\NSProjectX\layers\xrRender\ParticleGroup.cpp', 00H ; `string'
CONST	ENDS
;	COMDAT ??_C@_0BB@EIBCOMD@PS?3?3CPGDef?3?3Load@
CONST	SEGMENT
??_C@_0BB@EIBCOMD@PS?3?3CPGDef?3?3Load@ DB 'PS::CPGDef::Load', 00H ; `string'
?_Fake_alloc@std@@3U_Fake_allocator@1@B	ORG $+1		; std::_Fake_alloc
PUBLIC	?size@shared_str@@QBEIXZ			; shared_str::size
PUBLIC	?GetVisuals@SItem@CParticleGroup@PS@@QAEIAAV?$xr_vector@PAVIRender_Visual@@V?$xalloc@PAVIRender_Visual@@@@@@@Z ; PS::CParticleGroup::SItem::GetVisuals
PUBLIC	?end@?$vector@PAVIRender_Visual@@V?$xalloc@PAVIRender_Visual@@@@@std@@QAE?AV?$_Vector_iterator@V?$_Vector_val@U?$_Simple_types@PAVIRender_Visual@@@std@@@std@@@2@XZ ; std::vector<IRender_Visual *,xalloc<IRender_Visual *> >::end
PUBLIC	??$insert@V?$_Vector_iterator@V?$_Vector_val@U?$_Simple_types@PAVIRender_Visual@@@std@@@std@@@std@@$0A@@?$vector@PAVIRender_Visual@@V?$xalloc@PAVIRender_Visual@@@@@std@@QAE?AV?$_Vector_iterator@V?$_Vector_val@U?$_Simple_types@PAVIRender_Visual@@@std@@@std@@@1@V?$_Vector_const_iterator@V?$_Vector_val@U?$_Simple_types@PAVIRender_Visual@@@std@@@std@@@1@V21@1@Z ; std::vector<IRender_Visual *,xalloc<IRender_Visual *> >::insert<std::_Vector_iterator<std::_Vector_val<std::_Simple_types<IRender_Visual *> > >,0>
PUBLIC	?_Make_iterator_offset@?$vector@PAVIRender_Visual@@V?$xalloc@PAVIRender_Visual@@@@@std@@AAE?AV?$_Vector_iterator@V?$_Vector_val@U?$_Simple_types@PAVIRender_Visual@@@std@@@std@@@2@I@Z ; std::vector<IRender_Visual *,xalloc<IRender_Visual *> >::_Make_iterator_offset
PUBLIC	??$_Get_unwrapped@AAV?$_Vector_iterator@V?$_Vector_val@U?$_Simple_types@PAVIRender_Visual@@@std@@@std@@@std@@@std@@YA?A_TAAV?$_Vector_iterator@V?$_Vector_val@U?$_Simple_types@PAVIRender_Visual@@@std@@@std@@@0@@Z ; std::_Get_unwrapped<std::_Vector_iterator<std::_Vector_val<std::_Simple_types<IRender_Visual *> > > &>
PUBLIC	?_Unwrapped@?$_Vector_iterator@V?$_Vector_val@U?$_Simple_types@PAVIRender_Visual@@@std@@@std@@@std@@QBEPAPAVIRender_Visual@@XZ ; std::_Vector_iterator<std::_Vector_val<std::_Simple_types<IRender_Visual *> > >::_Unwrapped
PUBLIC	??$_Insert_range@PAPAVIRender_Visual@@@?$vector@PAVIRender_Visual@@V?$xalloc@PAVIRender_Visual@@@@@std@@AAEXV?$_Vector_const_iterator@V?$_Vector_val@U?$_Simple_types@PAVIRender_Visual@@@std@@@std@@@1@PAPAVIRender_Visual@@1Uforward_iterator_tag@1@@Z ; std::vector<IRender_Visual *,xalloc<IRender_Visual *> >::_Insert_range<IRender_Visual * *>
PUBLIC	??$_Ucopy@PAPAVIRender_Visual@@@?$vector@PAVIRender_Visual@@V?$xalloc@PAVIRender_Visual@@@@@std@@AAEPAPAVIRender_Visual@@PAPAV2@00@Z ; std::vector<IRender_Visual *,xalloc<IRender_Visual *> >::_Ucopy<IRender_Visual * *>
PUBLIC	??$_Uninitialized_copy@PAPAVIRender_Visual@@V?$xalloc@PAVIRender_Visual@@@@@std@@YAPAPAVIRender_Visual@@QAPAV1@0PAPAV1@AAV?$xalloc@PAVIRender_Visual@@@@@Z ; std::_Uninitialized_copy<IRender_Visual * *,xalloc<IRender_Visual *> >
PUBLIC	??$_Emplace_back@AAPAVIRender_Visual@@@?$_Uninitialized_backout_al@V?$xalloc@PAVIRender_Visual@@@@@std@@QAEXAAPAVIRender_Visual@@@Z ; std::_Uninitialized_backout_al<xalloc<IRender_Visual *> >::_Emplace_back<IRender_Visual * &>
PUBLIC	??$construct@PAVIRender_Visual@@AAPAV1@@?$_Normal_allocator_traits@V?$xalloc@PAVIRender_Visual@@@@@std@@SAXAAV?$xalloc@PAVIRender_Visual@@@@PAPAVIRender_Visual@@AAPAV3@@Z ; std::_Normal_allocator_traits<xalloc<IRender_Visual *> >::construct<IRender_Visual *,IRender_Visual * &>
PUBLIC	??$_Move_unchecked@PAPAVIRender_Visual@@PAPAV1@@std@@YAPAPAVIRender_Visual@@PAPAV1@00@Z ; std::_Move_unchecked<IRender_Visual * *,IRender_Visual * *>
PUBLIC	??$_Copy_memmove@PAPAVIRender_Visual@@PAPAV1@@std@@YAPAPAVIRender_Visual@@PAPAV1@00@Z ; std::_Copy_memmove<IRender_Visual * *,IRender_Visual * *>
PUBLIC	??$_To_address@PAPAVIRender_Visual@@@std@@YA?A_PABQAPAVIRender_Visual@@@Z ; std::_To_address<IRender_Visual * *>
PUBLIC	??$_Move_backward_unchecked@PAPAVIRender_Visual@@PAPAV1@@std@@YAPAPAVIRender_Visual@@PAPAV1@00@Z ; std::_Move_backward_unchecked<IRender_Visual * *,IRender_Visual * *>
PUBLIC	??$_Copy_backward_memmove@PAPAVIRender_Visual@@PAPAV1@@std@@YAPAPAVIRender_Visual@@PAPAV1@00@Z ; std::_Copy_backward_memmove<IRender_Visual * *,IRender_Visual * *>
PUBLIC	??$distance@PAPAVIRender_Visual@@@std@@YAHPAPAVIRender_Visual@@0@Z ; std::distance<IRender_Visual * *>
PUBLIC	??$_Adl_verify_range@V?$_Vector_iterator@V?$_Vector_val@U?$_Simple_types@PAVIRender_Visual@@@std@@@std@@@std@@V12@@std@@YAXABV?$_Vector_iterator@V?$_Vector_val@U?$_Simple_types@PAVIRender_Visual@@@std@@@std@@@0@0@Z ; std::_Adl_verify_range<std::_Vector_iterator<std::_Vector_val<std::_Simple_types<IRender_Visual *> > >,std::_Vector_iterator<std::_Vector_val<std::_Simple_types<IRender_Visual *> > > >
PUBLIC	?reserve@?$vector@PAVIRender_Visual@@V?$xalloc@PAVIRender_Visual@@@@@std@@QAEXI@Z ; std::vector<IRender_Visual *,xalloc<IRender_Visual *> >::reserve
PUBLIC	?_Reallocate_exactly@?$vector@PAVIRender_Visual@@V?$xalloc@PAVIRender_Visual@@@@@std@@AAEXI@Z ; std::vector<IRender_Visual *,xalloc<IRender_Visual *> >::_Reallocate_exactly
PUBLIC	?GetDefinition@CParticleGroup@PS@@QAEPBVCPGDef@2@XZ ; PS::CParticleGroup::GetDefinition
PUBLIC	?GetHandleEffect@CParticleEffect@PS@@QAEHXZ	; PS::CParticleEffect::GetHandleEffect
PUBLIC	?translate@?$_matrix@M@@QAEAAU1@ABU?$_vector3@M@@@Z ; _matrix<float>::translate
PUBLIC	??0SEffect@CPGDef@PS@@QAE@XZ			; PS::CPGDef::SEffect::SEffect
PUBLIC	?Copy@CParticleGroup@PS@@UAEXPAVIRender_Visual@@@Z ; PS::CParticleGroup::Copy
PUBLIC	?IsPlaying@CParticleGroup@PS@@UAEHXZ		; PS::CParticleGroup::IsPlaying
PUBLIC	?GetTimeLimit@CParticleGroup@PS@@UAEMXZ		; PS::CParticleGroup::GetTimeLimit
PUBLIC	?Name@CParticleGroup@PS@@UAE?BVshared_str@@XZ	; PS::CParticleGroup::Name
PUBLIC	??$forward@V?$xalloc@PAVIRender_Visual@@@@@std@@YA$$QAV?$xalloc@PAVIRender_Visual@@@@AAV1@@Z ; std::forward<xalloc<IRender_Visual *> >
PUBLIC	??$?0V?$xalloc@PAVIRender_Visual@@@@$$V@?$_Compressed_pair@V?$xalloc@PAVIRender_Visual@@@@V?$_Vector_val@U?$_Simple_types@PAVIRender_Visual@@@std@@@std@@$00@std@@QAE@U_One_then_variadic_args_t@1@$$QAV?$xalloc@PAVIRender_Visual@@@@@Z ; std::_Compressed_pair<xalloc<IRender_Visual *>,std::_Vector_val<std::_Simple_types<IRender_Visual *> >,1>::_Compressed_pair<xalloc<IRender_Visual *>,std::_Vector_val<std::_Simple_types<IRender_Visual *> >,1><xalloc<IRender_Visual *> >
PUBLIC	??0?$xalloc@PAVIRender_Visual@@@@QAE@ABV0@@Z	; xalloc<IRender_Visual *>::xalloc<IRender_Visual *>
PUBLIC	?select_on_container_copy_construction@?$_Normal_allocator_traits@V?$xalloc@PAVIRender_Visual@@@@@std@@SA?AV?$xalloc@PAVIRender_Visual@@@@ABV3@@Z ; std::_Normal_allocator_traits<xalloc<IRender_Visual *> >::select_on_container_copy_construction
PUBLIC	?_Buy_raw@?$vector@PAVIRender_Visual@@V?$xalloc@PAVIRender_Visual@@@@@std@@AAEXI@Z ; std::vector<IRender_Visual *,xalloc<IRender_Visual *> >::_Buy_raw
PUBLIC	??1?$_Tidy_guard@V?$vector@PAVIRender_Visual@@V?$xalloc@PAVIRender_Visual@@@@@std@@@std@@QAE@XZ ; std::_Tidy_guard<std::vector<IRender_Visual *,xalloc<IRender_Visual *> > >::~_Tidy_guard<std::vector<IRender_Visual *,xalloc<IRender_Visual *> > >
PUBLIC	??0?$vector@PAVIRender_Visual@@V?$xalloc@PAVIRender_Visual@@@@@std@@QAE@ABV01@@Z ; std::vector<IRender_Visual *,xalloc<IRender_Visual *> >::vector<IRender_Visual *,xalloc<IRender_Visual *> >
PUBLIC	??0?$xr_vector@PAVIRender_Visual@@V?$xalloc@PAVIRender_Visual@@@@@@QAE@ABV0@@Z ; xr_vector<IRender_Visual *,xalloc<IRender_Visual *> >::xr_vector<IRender_Visual *,xalloc<IRender_Visual *> >
PUBLIC	??0SItem@CParticleGroup@PS@@QAE@ABU012@@Z	; PS::CParticleGroup::SItem::SItem
PUBLIC	?construct@?$xalloc@PAUSEffect@CPGDef@PS@@@@QAEXPAPAUSEffect@CPGDef@PS@@ABQAU234@@Z ; xalloc<PS::CPGDef::SEffect *>::construct
PUBLIC	?construct@?$xalloc@USItem@CParticleGroup@PS@@@@QAEXPAUSItem@CParticleGroup@PS@@ABU234@@Z ; xalloc<PS::CParticleGroup::SItem>::construct
PUBLIC	??$construct@PAUSEffect@CPGDef@PS@@PAU123@@?$_Normal_allocator_traits@V?$xalloc@PAUSEffect@CPGDef@PS@@@@@std@@SAXAAV?$xalloc@PAUSEffect@CPGDef@PS@@@@PAPAUSEffect@CPGDef@PS@@$$QAPAU345@@Z ; std::_Normal_allocator_traits<xalloc<PS::CPGDef::SEffect *> >::construct<PS::CPGDef::SEffect *,PS::CPGDef::SEffect *>
PUBLIC	??$forward@PAUSEffect@CPGDef@PS@@@std@@YA$$QAPAUSEffect@CPGDef@PS@@AAPAU123@@Z ; std::forward<PS::CPGDef::SEffect *>
PUBLIC	??$construct@USItem@CParticleGroup@PS@@U123@@?$_Normal_allocator_traits@V?$xalloc@USItem@CParticleGroup@PS@@@@@std@@SAXAAV?$xalloc@USItem@CParticleGroup@PS@@@@PAUSItem@CParticleGroup@PS@@$$QAU345@@Z ; std::_Normal_allocator_traits<xalloc<PS::CParticleGroup::SItem> >::construct<PS::CParticleGroup::SItem,PS::CParticleGroup::SItem>
PUBLIC	??$forward@USItem@CParticleGroup@PS@@@std@@YA$$QAUSItem@CParticleGroup@PS@@AAU123@@Z ; std::forward<PS::CParticleGroup::SItem>
PUBLIC	??0SItem@CParticleGroup@PS@@QAE@XZ		; PS::CParticleGroup::SItem::SItem
PUBLIC	??$_Emplace_back@PAUSEffect@CPGDef@PS@@@?$_Uninitialized_backout_al@V?$xalloc@PAUSEffect@CPGDef@PS@@@@@std@@QAEX$$QAPAUSEffect@CPGDef@PS@@@Z ; std::_Uninitialized_backout_al<xalloc<PS::CPGDef::SEffect *> >::_Emplace_back<PS::CPGDef::SEffect *>
PUBLIC	??$move@AAPAUSEffect@CPGDef@PS@@@std@@YA$$QAPAUSEffect@CPGDef@PS@@AAPAU123@@Z ; std::move<PS::CPGDef::SEffect * &>
PUBLIC	??$_Emplace_back@USItem@CParticleGroup@PS@@@?$_Uninitialized_backout_al@V?$xalloc@USItem@CParticleGroup@PS@@@@@std@@QAEX$$QAUSItem@CParticleGroup@PS@@@Z ; std::_Uninitialized_backout_al<xalloc<PS::CParticleGroup::SItem> >::_Emplace_back<PS::CParticleGroup::SItem>
PUBLIC	??$move@AAUSItem@CParticleGroup@PS@@@std@@YA$$QAUSItem@CParticleGroup@PS@@AAU123@@Z ; std::move<PS::CParticleGroup::SItem &>
PUBLIC	??$construct@PAUSEffect@CPGDef@PS@@$$V@?$_Normal_allocator_traits@V?$xalloc@PAUSEffect@CPGDef@PS@@@@@std@@SAXAAV?$xalloc@PAUSEffect@CPGDef@PS@@@@PAPAUSEffect@CPGDef@PS@@@Z ; std::_Normal_allocator_traits<xalloc<PS::CPGDef::SEffect *> >::construct<PS::CPGDef::SEffect *>
PUBLIC	??$construct@USItem@CParticleGroup@PS@@$$V@?$_Normal_allocator_traits@V?$xalloc@USItem@CParticleGroup@PS@@@@@std@@SAXAAV?$xalloc@USItem@CParticleGroup@PS@@@@PAUSItem@CParticleGroup@PS@@@Z ; std::_Normal_allocator_traits<xalloc<PS::CParticleGroup::SItem> >::construct<PS::CParticleGroup::SItem>
PUBLIC	??$_Get_unwrapped@ABQAPAUSEffect@CPGDef@PS@@@std@@YA?A_TABQAPAUSEffect@CPGDef@PS@@@Z ; std::_Get_unwrapped<PS::CPGDef::SEffect * * const &>
PUBLIC	??$_Uninitialized_move@PAPAUSEffect@CPGDef@PS@@V?$xalloc@PAUSEffect@CPGDef@PS@@@@@std@@YAPAPAUSEffect@CPGDef@PS@@QAPAU123@0PAPAU123@AAV?$xalloc@PAUSEffect@CPGDef@PS@@@@@Z ; std::_Uninitialized_move<PS::CPGDef::SEffect * *,xalloc<PS::CPGDef::SEffect *> >
PUBLIC	??$_Get_unwrapped@ABQAUSItem@CParticleGroup@PS@@@std@@YA?A_TABQAUSItem@CParticleGroup@PS@@@Z ; std::_Get_unwrapped<PS::CParticleGroup::SItem * const &>
PUBLIC	??$_Uninitialized_move@PAUSItem@CParticleGroup@PS@@V?$xalloc@USItem@CParticleGroup@PS@@@@@std@@YAPAUSItem@CParticleGroup@PS@@QAU123@0PAU123@AAV?$xalloc@USItem@CParticleGroup@PS@@@@@Z ; std::_Uninitialized_move<PS::CParticleGroup::SItem *,xalloc<PS::CParticleGroup::SItem> >
PUBLIC	??$xr_alloc@PAUSEffect@CPGDef@PS@@@@YAPAPAUSEffect@CPGDef@PS@@I@Z ; xr_alloc<PS::CPGDef::SEffect *>
PUBLIC	??$_Destroy_in_place@PAPAUSEffect@CPGDef@PS@@@std@@YAXAAPAPAUSEffect@CPGDef@PS@@@Z ; std::_Destroy_in_place<PS::CPGDef::SEffect * *>
PUBLIC	??$xr_alloc@USItem@CParticleGroup@PS@@@@YAPAUSItem@CParticleGroup@PS@@I@Z ; xr_alloc<PS::CParticleGroup::SItem>
PUBLIC	??$_Destroy_in_place@PAUSItem@CParticleGroup@PS@@@std@@YAXAAPAUSItem@CParticleGroup@PS@@@Z ; std::_Destroy_in_place<PS::CParticleGroup::SItem *>
PUBLIC	??$_Refancy@PAPAVIRender_Visual@@$0A@@std@@YAPAPAVIRender_Visual@@PAPAV1@@Z ; std::_Refancy<IRender_Visual * *,0>
PUBLIC	??$_Emplace_back@$$V@?$_Uninitialized_backout_al@V?$xalloc@PAUSEffect@CPGDef@PS@@@@@std@@QAEXXZ ; std::_Uninitialized_backout_al<xalloc<PS::CPGDef::SEffect *> >::_Emplace_back<>
PUBLIC	??$_To_address@PAPAUSEffect@CPGDef@PS@@@std@@YA?A_PABQAPAUSEffect@CPGDef@PS@@@Z ; std::_To_address<PS::CPGDef::SEffect * *>
PUBLIC	??$_Zero_range@PAPAUSEffect@CPGDef@PS@@@std@@YAPAPAUSEffect@CPGDef@PS@@QAPAU123@0@Z ; std::_Zero_range<PS::CPGDef::SEffect * *>
PUBLIC	??$_Emplace_back@$$V@?$_Uninitialized_backout_al@V?$xalloc@USItem@CParticleGroup@PS@@@@@std@@QAEXXZ ; std::_Uninitialized_backout_al<xalloc<PS::CParticleGroup::SItem> >::_Emplace_back<>
PUBLIC	??$forward@AAPAPAVIRender_Visual@@@std@@YAAAPAPAVIRender_Visual@@AAPAPAV1@@Z ; std::forward<IRender_Visual * * &>
PUBLIC	??$_Seek_wrapped@PAPAVIRender_Visual@@AAPAPAV1@@std@@YAXAAPAPAVIRender_Visual@@0@Z ; std::_Seek_wrapped<IRender_Visual * *,IRender_Visual * * &>
PUBLIC	??$_Adl_verify_range@PAPAVIRender_Visual@@PAPAV1@@std@@YAXABQAPAVIRender_Visual@@0@Z ; std::_Adl_verify_range<IRender_Visual * *,IRender_Visual * *>
PUBLIC	?max_size@?$xalloc@PAUSEffect@CPGDef@PS@@@@QBEIXZ ; xalloc<PS::CPGDef::SEffect *>::max_size
PUBLIC	?_Get_first@?$_Compressed_pair@V?$xalloc@PAUSEffect@CPGDef@PS@@@@V?$_Vector_val@U?$_Simple_types@PAUSEffect@CPGDef@PS@@@std@@@std@@$00@std@@QBEABV?$xalloc@PAUSEffect@CPGDef@PS@@@@XZ ; std::_Compressed_pair<xalloc<PS::CPGDef::SEffect *>,std::_Vector_val<std::_Simple_types<PS::CPGDef::SEffect *> >,1>::_Get_first
PUBLIC	?max_size@?$xalloc@USItem@CParticleGroup@PS@@@@QBEIXZ ; xalloc<PS::CParticleGroup::SItem>::max_size
PUBLIC	?_Get_first@?$_Compressed_pair@V?$xalloc@USItem@CParticleGroup@PS@@@@V?$_Vector_val@U?$_Simple_types@USItem@CParticleGroup@PS@@@std@@@std@@$00@std@@QBEABV?$xalloc@USItem@CParticleGroup@PS@@@@XZ ; std::_Compressed_pair<xalloc<PS::CParticleGroup::SItem>,std::_Vector_val<std::_Simple_types<PS::CParticleGroup::SItem> >,1>::_Get_first
PUBLIC	?max_size@?$_Normal_allocator_traits@V?$xalloc@PAUSEffect@CPGDef@PS@@@@@std@@SAIABV?$xalloc@PAUSEffect@CPGDef@PS@@@@@Z ; std::_Normal_allocator_traits<xalloc<PS::CPGDef::SEffect *> >::max_size
PUBLIC	?capacity@?$vector@PAUSEffect@CPGDef@PS@@V?$xalloc@PAUSEffect@CPGDef@PS@@@@@std@@QBEIXZ ; std::vector<PS::CPGDef::SEffect *,xalloc<PS::CPGDef::SEffect *> >::capacity
PUBLIC	?_Umove_if_noexcept1@?$vector@PAUSEffect@CPGDef@PS@@V?$xalloc@PAUSEffect@CPGDef@PS@@@@@std@@AAEXPAPAUSEffect@CPGDef@PS@@00U?$integral_constant@_N$00@2@@Z ; std::vector<PS::CPGDef::SEffect *,xalloc<PS::CPGDef::SEffect *> >::_Umove_if_noexcept1
PUBLIC	?_Getal@?$vector@PAUSEffect@CPGDef@PS@@V?$xalloc@PAUSEffect@CPGDef@PS@@@@@std@@ABEABV?$xalloc@PAUSEffect@CPGDef@PS@@@@XZ ; std::vector<PS::CPGDef::SEffect *,xalloc<PS::CPGDef::SEffect *> >::_Getal
PUBLIC	?max_size@?$_Normal_allocator_traits@V?$xalloc@USItem@CParticleGroup@PS@@@@@std@@SAIABV?$xalloc@USItem@CParticleGroup@PS@@@@@Z ; std::_Normal_allocator_traits<xalloc<PS::CParticleGroup::SItem> >::max_size
PUBLIC	?capacity@?$vector@USItem@CParticleGroup@PS@@V?$xalloc@USItem@CParticleGroup@PS@@@@@std@@QBEIXZ ; std::vector<PS::CParticleGroup::SItem,xalloc<PS::CParticleGroup::SItem> >::capacity
PUBLIC	?_Umove_if_noexcept1@?$vector@USItem@CParticleGroup@PS@@V?$xalloc@USItem@CParticleGroup@PS@@@@@std@@AAEXPAUSItem@CParticleGroup@PS@@00U?$integral_constant@_N$00@2@@Z ; std::vector<PS::CParticleGroup::SItem,xalloc<PS::CParticleGroup::SItem> >::_Umove_if_noexcept1
PUBLIC	?_Getal@?$vector@USItem@CParticleGroup@PS@@V?$xalloc@USItem@CParticleGroup@PS@@@@@std@@ABEABV?$xalloc@USItem@CParticleGroup@PS@@@@XZ ; std::vector<PS::CParticleGroup::SItem,xalloc<PS::CParticleGroup::SItem> >::_Getal
PUBLIC	?allocate@?$xalloc@PAUSEffect@CPGDef@PS@@@@QBEPAPAUSEffect@CPGDef@PS@@IPBX@Z ; xalloc<PS::CPGDef::SEffect *>::allocate
PUBLIC	?destroy@?$xalloc@PAUSEffect@CPGDef@PS@@@@QAEXPAPAUSEffect@CPGDef@PS@@@Z ; xalloc<PS::CPGDef::SEffect *>::destroy
PUBLIC	?max_size@?$vector@PAUSEffect@CPGDef@PS@@V?$xalloc@PAUSEffect@CPGDef@PS@@@@@std@@QBEIXZ ; std::vector<PS::CPGDef::SEffect *,xalloc<PS::CPGDef::SEffect *> >::max_size
PUBLIC	?_Umove_if_noexcept@?$vector@PAUSEffect@CPGDef@PS@@V?$xalloc@PAUSEffect@CPGDef@PS@@@@@std@@AAEXPAPAUSEffect@CPGDef@PS@@00@Z ; std::vector<PS::CPGDef::SEffect *,xalloc<PS::CPGDef::SEffect *> >::_Umove_if_noexcept
PUBLIC	?_Calculate_growth@?$vector@PAUSEffect@CPGDef@PS@@V?$xalloc@PAUSEffect@CPGDef@PS@@@@@std@@ABEII@Z ; std::vector<PS::CPGDef::SEffect *,xalloc<PS::CPGDef::SEffect *> >::_Calculate_growth
PUBLIC	?_Change_array@?$vector@PAUSEffect@CPGDef@PS@@V?$xalloc@PAUSEffect@CPGDef@PS@@@@@std@@AAEXQAPAUSEffect@CPGDef@PS@@II@Z ; std::vector<PS::CPGDef::SEffect *,xalloc<PS::CPGDef::SEffect *> >::_Change_array
PUBLIC	?_Xlength@?$vector@PAUSEffect@CPGDef@PS@@V?$xalloc@PAUSEffect@CPGDef@PS@@@@@std@@CAXXZ ; std::vector<PS::CPGDef::SEffect *,xalloc<PS::CPGDef::SEffect *> >::_Xlength
PUBLIC	?allocate@?$xalloc@USItem@CParticleGroup@PS@@@@QBEPAUSItem@CParticleGroup@PS@@IPBX@Z ; xalloc<PS::CParticleGroup::SItem>::allocate
PUBLIC	?destroy@?$xalloc@USItem@CParticleGroup@PS@@@@QAEXPAUSItem@CParticleGroup@PS@@@Z ; xalloc<PS::CParticleGroup::SItem>::destroy
PUBLIC	?max_size@?$vector@USItem@CParticleGroup@PS@@V?$xalloc@USItem@CParticleGroup@PS@@@@@std@@QBEIXZ ; std::vector<PS::CParticleGroup::SItem,xalloc<PS::CParticleGroup::SItem> >::max_size
PUBLIC	?_Umove_if_noexcept@?$vector@USItem@CParticleGroup@PS@@V?$xalloc@USItem@CParticleGroup@PS@@@@@std@@AAEXPAUSItem@CParticleGroup@PS@@00@Z ; std::vector<PS::CParticleGroup::SItem,xalloc<PS::CParticleGroup::SItem> >::_Umove_if_noexcept
PUBLIC	?_Calculate_growth@?$vector@USItem@CParticleGroup@PS@@V?$xalloc@USItem@CParticleGroup@PS@@@@@std@@ABEII@Z ; std::vector<PS::CParticleGroup::SItem,xalloc<PS::CParticleGroup::SItem> >::_Calculate_growth
PUBLIC	?_Change_array@?$vector@USItem@CParticleGroup@PS@@V?$xalloc@USItem@CParticleGroup@PS@@@@@std@@AAEXQAUSItem@CParticleGroup@PS@@II@Z ; std::vector<PS::CParticleGroup::SItem,xalloc<PS::CParticleGroup::SItem> >::_Change_array
PUBLIC	?_Xlength@?$vector@USItem@CParticleGroup@PS@@V?$xalloc@USItem@CParticleGroup@PS@@@@@std@@CAXXZ ; std::vector<PS::CParticleGroup::SItem,xalloc<PS::CParticleGroup::SItem> >::_Xlength
PUBLIC	?_Seek_to@?$_Vector_const_iterator@V?$_Vector_val@U?$_Simple_types@PAVIRender_Visual@@@std@@@std@@@std@@QAEXPBQAVIRender_Visual@@@Z ; std::_Vector_const_iterator<std::_Vector_val<std::_Simple_types<IRender_Visual *> > >::_Seek_to
PUBLIC	??0?$_Uninitialized_backout_al@V?$xalloc@USItem@CParticleGroup@PS@@@@@std@@QAE@PAUSItem@CParticleGroup@PS@@AAV?$xalloc@USItem@CParticleGroup@PS@@@@@Z ; std::_Uninitialized_backout_al<xalloc<PS::CParticleGroup::SItem> >::_Uninitialized_backout_al<xalloc<PS::CParticleGroup::SItem> >
PUBLIC	??1?$_Uninitialized_backout_al@V?$xalloc@USItem@CParticleGroup@PS@@@@@std@@QAE@XZ ; std::_Uninitialized_backout_al<xalloc<PS::CParticleGroup::SItem> >::~_Uninitialized_backout_al<xalloc<PS::CParticleGroup::SItem> >
PUBLIC	?_Release@?$_Uninitialized_backout_al@V?$xalloc@USItem@CParticleGroup@PS@@@@@std@@QAEPAUSItem@CParticleGroup@PS@@XZ ; std::_Uninitialized_backout_al<xalloc<PS::CParticleGroup::SItem> >::_Release
PUBLIC	??0?$_Uninitialized_backout_al@V?$xalloc@PAUSEffect@CPGDef@PS@@@@@std@@QAE@PAPAUSEffect@CPGDef@PS@@AAV?$xalloc@PAUSEffect@CPGDef@PS@@@@@Z ; std::_Uninitialized_backout_al<xalloc<PS::CPGDef::SEffect *> >::_Uninitialized_backout_al<xalloc<PS::CPGDef::SEffect *> >
PUBLIC	??1?$_Uninitialized_backout_al@V?$xalloc@PAUSEffect@CPGDef@PS@@@@@std@@QAE@XZ ; std::_Uninitialized_backout_al<xalloc<PS::CPGDef::SEffect *> >::~_Uninitialized_backout_al<xalloc<PS::CPGDef::SEffect *> >
PUBLIC	?_Release@?$_Uninitialized_backout_al@V?$xalloc@PAUSEffect@CPGDef@PS@@@@@std@@QAEPAPAUSEffect@CPGDef@PS@@XZ ; std::_Uninitialized_backout_al<xalloc<PS::CPGDef::SEffect *> >::_Release
PUBLIC	??$_Uninitialized_value_construct_n@V?$xalloc@PAUSEffect@CPGDef@PS@@@@@std@@YAPAPAUSEffect@CPGDef@PS@@PAPAU123@IAAV?$xalloc@PAUSEffect@CPGDef@PS@@@@@Z ; std::_Uninitialized_value_construct_n<xalloc<PS::CPGDef::SEffect *> >
PUBLIC	??$_Uninitialized_value_construct_n@V?$xalloc@USItem@CParticleGroup@PS@@@@@std@@YAPAUSItem@CParticleGroup@PS@@PAU123@IAAV?$xalloc@USItem@CParticleGroup@PS@@@@@Z ; std::_Uninitialized_value_construct_n<xalloc<PS::CParticleGroup::SItem> >
PUBLIC	??$destroy@PAUSEffect@CPGDef@PS@@@?$_Normal_allocator_traits@V?$xalloc@PAUSEffect@CPGDef@PS@@@@@std@@SAXAAV?$xalloc@PAUSEffect@CPGDef@PS@@@@PAPAUSEffect@CPGDef@PS@@@Z ; std::_Normal_allocator_traits<xalloc<PS::CPGDef::SEffect *> >::destroy<PS::CPGDef::SEffect *>
PUBLIC	??$_Unfancy@PAUSEffect@CPGDef@PS@@@std@@YAPAPAUSEffect@CPGDef@PS@@PAPAU123@@Z ; std::_Unfancy<PS::CPGDef::SEffect *>
PUBLIC	??$destroy@USItem@CParticleGroup@PS@@@?$_Normal_allocator_traits@V?$xalloc@USItem@CParticleGroup@PS@@@@@std@@SAXAAV?$xalloc@USItem@CParticleGroup@PS@@@@PAUSItem@CParticleGroup@PS@@@Z ; std::_Normal_allocator_traits<xalloc<PS::CParticleGroup::SItem> >::destroy<PS::CParticleGroup::SItem>
PUBLIC	??$_Unfancy@USItem@CParticleGroup@PS@@@std@@YAPAUSItem@CParticleGroup@PS@@PAU123@@Z ; std::_Unfancy<PS::CParticleGroup::SItem>
PUBLIC	??$_Resize_reallocate@U_Value_init_tag@std@@@?$vector@PAUSEffect@CPGDef@PS@@V?$xalloc@PAUSEffect@CPGDef@PS@@@@@std@@AAEXIABU_Value_init_tag@1@@Z ; std::vector<PS::CPGDef::SEffect *,xalloc<PS::CPGDef::SEffect *> >::_Resize_reallocate<std::_Value_init_tag>
PUBLIC	??$_Resize_reallocate@U_Value_init_tag@std@@@?$vector@USItem@CParticleGroup@PS@@V?$xalloc@USItem@CParticleGroup@PS@@@@@std@@AAEXIABU_Value_init_tag@1@@Z ; std::vector<PS::CParticleGroup::SItem,xalloc<PS::CParticleGroup::SItem> >::_Resize_reallocate<std::_Value_init_tag>
PUBLIC	??$_Seek_wrapped@V?$_Vector_iterator@V?$_Vector_val@U?$_Simple_types@PAVIRender_Visual@@@std@@@std@@@std@@AAPAPAVIRender_Visual@@@std@@YAXAAV?$_Vector_iterator@V?$_Vector_val@U?$_Simple_types@PAVIRender_Visual@@@std@@@std@@@0@AAPAPAVIRender_Visual@@@Z ; std::_Seek_wrapped<std::_Vector_iterator<std::_Vector_val<std::_Simple_types<IRender_Visual *> > >,IRender_Visual * * &>
PUBLIC	??$_Get_unwrapped@AAPAPAVIRender_Visual@@@std@@YA?A_TAAPAPAVIRender_Visual@@@Z ; std::_Get_unwrapped<IRender_Visual * * &>
PUBLIC	??$find_if@PAPAVIRender_Visual@@Uzero_vis_pred@@@std@@YAPAPAVIRender_Visual@@PAPAV1@QAPAV1@Uzero_vis_pred@@@Z ; std::find_if<IRender_Visual * *,zero_vis_pred>
PUBLIC	??$_Pass_fn@Uzero_vis_pred@@$0A@@std@@YA?AUzero_vis_pred@@U1@@Z ; std::_Pass_fn<zero_vis_pred,0>
PUBLIC	??1SEffect@CPGDef@PS@@QAE@XZ			; PS::CPGDef::SEffect::~SEffect
PUBLIC	??_GSEffect@CPGDef@PS@@QAEPAXI@Z		; PS::CPGDef::SEffect::`scalar deleting destructor'
PUBLIC	??0?$xalloc@PAUSEffect@CPGDef@PS@@@@QAE@XZ	; xalloc<PS::CPGDef::SEffect *>::xalloc<PS::CPGDef::SEffect *>
PUBLIC	?_Ufill@?$vector@PAUSEffect@CPGDef@PS@@V?$xalloc@PAUSEffect@CPGDef@PS@@@@@std@@AAEPAPAUSEffect@CPGDef@PS@@PAPAU345@IU_Value_init_tag@2@@Z ; std::vector<PS::CPGDef::SEffect *,xalloc<PS::CPGDef::SEffect *> >::_Ufill
PUBLIC	?_Orphan_range@?$vector@PAUSEffect@CPGDef@PS@@V?$xalloc@PAUSEffect@CPGDef@PS@@@@@std@@ABEXPAPAUSEffect@CPGDef@PS@@0@Z ; std::vector<PS::CPGDef::SEffect *,xalloc<PS::CPGDef::SEffect *> >::_Orphan_range
PUBLIC	??0?$_Vector_val@U?$_Simple_types@PAUSEffect@CPGDef@PS@@@std@@@std@@QAE@XZ ; std::_Vector_val<std::_Simple_types<PS::CPGDef::SEffect *> >::_Vector_val<std::_Simple_types<PS::CPGDef::SEffect *> >
PUBLIC	??0?$xalloc@USItem@CParticleGroup@PS@@@@QAE@XZ	; xalloc<PS::CParticleGroup::SItem>::xalloc<PS::CParticleGroup::SItem>
PUBLIC	?_Ufill@?$vector@USItem@CParticleGroup@PS@@V?$xalloc@USItem@CParticleGroup@PS@@@@@std@@AAEPAUSItem@CParticleGroup@PS@@PAU345@IU_Value_init_tag@2@@Z ; std::vector<PS::CParticleGroup::SItem,xalloc<PS::CParticleGroup::SItem> >::_Ufill
PUBLIC	?_Orphan_range@?$vector@USItem@CParticleGroup@PS@@V?$xalloc@USItem@CParticleGroup@PS@@@@@std@@ABEXPAUSItem@CParticleGroup@PS@@0@Z ; std::vector<PS::CParticleGroup::SItem,xalloc<PS::CParticleGroup::SItem> >::_Orphan_range
PUBLIC	??0?$_Vector_val@U?$_Simple_types@USItem@CParticleGroup@PS@@@std@@@std@@QAE@XZ ; std::_Vector_val<std::_Simple_types<PS::CParticleGroup::SItem> >::_Vector_val<std::_Simple_types<PS::CParticleGroup::SItem> >
PUBLIC	??R?$xr_special_free@$0A@USEffect@CPGDef@PS@@@@QAEXAAPAUSEffect@CPGDef@PS@@@Z ; xr_special_free<0,PS::CPGDef::SEffect>::operator()
PUBLIC	??$xr_free@PAUSEffect@CPGDef@PS@@@@YAXAAPAPAUSEffect@CPGDef@PS@@@Z ; xr_free<PS::CPGDef::SEffect *>
PUBLIC	??$_Destroy_range@V?$xalloc@PAUSEffect@CPGDef@PS@@@@@std@@YAXPAPAUSEffect@CPGDef@PS@@QAPAU123@AAV?$xalloc@PAUSEffect@CPGDef@PS@@@@@Z ; std::_Destroy_range<xalloc<PS::CPGDef::SEffect *> >
PUBLIC	??$xr_free@USItem@CParticleGroup@PS@@@@YAXAAPAUSItem@CParticleGroup@PS@@@Z ; xr_free<PS::CParticleGroup::SItem>
PUBLIC	??$_Destroy_range@V?$xalloc@USItem@CParticleGroup@PS@@@@@std@@YAXPAUSItem@CParticleGroup@PS@@QAU123@AAV?$xalloc@USItem@CParticleGroup@PS@@@@@Z ; std::_Destroy_range<xalloc<PS::CParticleGroup::SItem> >
PUBLIC	??$?0$$V@?$_Compressed_pair@V?$xalloc@PAUSEffect@CPGDef@PS@@@@V?$_Vector_val@U?$_Simple_types@PAUSEffect@CPGDef@PS@@@std@@@std@@$00@std@@QAE@U_Zero_then_variadic_args_t@1@@Z ; std::_Compressed_pair<xalloc<PS::CPGDef::SEffect *>,std::_Vector_val<std::_Simple_types<PS::CPGDef::SEffect *> >,1>::_Compressed_pair<xalloc<PS::CPGDef::SEffect *>,std::_Vector_val<std::_Simple_types<PS::CPGDef::SEffect *> >,1><>
PUBLIC	??$?0$$V@?$_Compressed_pair@V?$xalloc@USItem@CParticleGroup@PS@@@@V?$_Vector_val@U?$_Simple_types@USItem@CParticleGroup@PS@@@std@@@std@@$00@std@@QAE@U_Zero_then_variadic_args_t@1@@Z ; std::_Compressed_pair<xalloc<PS::CParticleGroup::SItem>,std::_Vector_val<std::_Simple_types<PS::CParticleGroup::SItem> >,1>::_Compressed_pair<xalloc<PS::CParticleGroup::SItem>,std::_Vector_val<std::_Simple_types<PS::CParticleGroup::SItem> >,1><>
PUBLIC	??$_Resize@U_Value_init_tag@std@@@?$vector@PAUSEffect@CPGDef@PS@@V?$xalloc@PAUSEffect@CPGDef@PS@@@@@std@@AAEXIABU_Value_init_tag@1@@Z ; std::vector<PS::CPGDef::SEffect *,xalloc<PS::CPGDef::SEffect *> >::_Resize<std::_Value_init_tag>
PUBLIC	??$addressof@V?$_Vector_val@U?$_Simple_types@PAUSEffect@CPGDef@PS@@@std@@@std@@@std@@YAPAV?$_Vector_val@U?$_Simple_types@PAUSEffect@CPGDef@PS@@@std@@@0@AAV10@@Z ; std::addressof<std::_Vector_val<std::_Simple_types<PS::CPGDef::SEffect *> > >
PUBLIC	??$addressof@$$CBV?$_Vector_val@U?$_Simple_types@PAUSEffect@CPGDef@PS@@@std@@@std@@@std@@YAPBV?$_Vector_val@U?$_Simple_types@PAUSEffect@CPGDef@PS@@@std@@@0@ABV10@@Z ; std::addressof<std::_Vector_val<std::_Simple_types<PS::CPGDef::SEffect *> > const >
PUBLIC	??$_Emplace_reallocate@PAVIRender_Visual@@@?$vector@PAVIRender_Visual@@V?$xalloc@PAVIRender_Visual@@@@@std@@QAEPAPAVIRender_Visual@@QAPAV2@$$QAPAV2@@Z ; std::vector<IRender_Visual *,xalloc<IRender_Visual *> >::_Emplace_reallocate<IRender_Visual *>
PUBLIC	??$_Resize@U_Value_init_tag@std@@@?$vector@USItem@CParticleGroup@PS@@V?$xalloc@USItem@CParticleGroup@PS@@@@@std@@AAEXIABU_Value_init_tag@1@@Z ; std::vector<PS::CParticleGroup::SItem,xalloc<PS::CParticleGroup::SItem> >::_Resize<std::_Value_init_tag>
PUBLIC	??$addressof@V?$_Vector_val@U?$_Simple_types@USItem@CParticleGroup@PS@@@std@@@std@@@std@@YAPAV?$_Vector_val@U?$_Simple_types@USItem@CParticleGroup@PS@@@std@@@0@AAV10@@Z ; std::addressof<std::_Vector_val<std::_Simple_types<PS::CParticleGroup::SItem> > >
PUBLIC	??$_Get_unwrapped@ABV?$_Vector_iterator@V?$_Vector_val@U?$_Simple_types@PAVIRender_Visual@@@std@@@std@@@std@@@std@@YA?A_TABV?$_Vector_iterator@V?$_Vector_val@U?$_Simple_types@PAVIRender_Visual@@@std@@@std@@@0@@Z ; std::_Get_unwrapped<std::_Vector_iterator<std::_Vector_val<std::_Simple_types<IRender_Visual *> > > const &>
PUBLIC	??$remove_if@V?$_Vector_iterator@V?$_Vector_val@U?$_Simple_types@PAVIRender_Visual@@@std@@@std@@@std@@Uzero_vis_pred@@@std@@YA?AV?$_Vector_iterator@V?$_Vector_val@U?$_Simple_types@PAVIRender_Visual@@@std@@@std@@@0@V10@V10@Uzero_vis_pred@@@Z ; std::remove_if<std::_Vector_iterator<std::_Vector_val<std::_Simple_types<IRender_Visual *> > >,zero_vis_pred>
PUBLIC	??$xr_new@USEffect@CPGDef@PS@@@@YAPAUSEffect@CPGDef@PS@@XZ ; xr_new<PS::CPGDef::SEffect>
PUBLIC	??$xr_delete@USEffect@CPGDef@PS@@@@YAXAAPAUSEffect@CPGDef@PS@@@Z ; xr_delete<PS::CPGDef::SEffect>
PUBLIC	?_Verify_offset@?$_Vector_const_iterator@V?$_Vector_val@U?$_Simple_types@USItem@CParticleGroup@PS@@@std@@@std@@@std@@QBEXH@Z ; std::_Vector_const_iterator<std::_Vector_val<std::_Simple_types<PS::CParticleGroup::SItem> > >::_Verify_offset
PUBLIC	?_Get_first@?$_Compressed_pair@V?$xalloc@PAUSEffect@CPGDef@PS@@@@V?$_Vector_val@U?$_Simple_types@PAUSEffect@CPGDef@PS@@@std@@@std@@$00@std@@QAEAAV?$xalloc@PAUSEffect@CPGDef@PS@@@@XZ ; std::_Compressed_pair<xalloc<PS::CPGDef::SEffect *>,std::_Vector_val<std::_Simple_types<PS::CPGDef::SEffect *> >,1>::_Get_first
PUBLIC	?_Get_first@?$_Compressed_pair@V?$xalloc@USItem@CParticleGroup@PS@@@@V?$_Vector_val@U?$_Simple_types@USItem@CParticleGroup@PS@@@std@@@std@@$00@std@@QAEAAV?$xalloc@USItem@CParticleGroup@PS@@@@XZ ; std::_Compressed_pair<xalloc<PS::CParticleGroup::SItem>,std::_Vector_val<std::_Simple_types<PS::CParticleGroup::SItem> >,1>::_Get_first
PUBLIC	?_Verify_offset@?$_Vector_const_iterator@V?$_Vector_val@U?$_Simple_types@PAUSEffect@CPGDef@PS@@@std@@@std@@@std@@QBEXH@Z ; std::_Vector_const_iterator<std::_Vector_val<std::_Simple_types<PS::CPGDef::SEffect *> > >::_Verify_offset
PUBLIC	??Y?$_Vector_const_iterator@V?$_Vector_val@U?$_Simple_types@USItem@CParticleGroup@PS@@@std@@@std@@@std@@QAEAAV01@H@Z ; std::_Vector_const_iterator<std::_Vector_val<std::_Simple_types<PS::CParticleGroup::SItem> > >::operator+=
PUBLIC	?deallocate@?$xalloc@PAUSEffect@CPGDef@PS@@@@QBEXPAPAUSEffect@CPGDef@PS@@I@Z ; xalloc<PS::CPGDef::SEffect *>::deallocate
PUBLIC	?clear@?$vector@PAUSEffect@CPGDef@PS@@V?$xalloc@PAUSEffect@CPGDef@PS@@@@@std@@QAEXXZ ; std::vector<PS::CPGDef::SEffect *,xalloc<PS::CPGDef::SEffect *> >::clear
PUBLIC	?_Destroy@?$vector@PAUSEffect@CPGDef@PS@@V?$xalloc@PAUSEffect@CPGDef@PS@@@@@std@@AAEXPAPAUSEffect@CPGDef@PS@@0@Z ; std::vector<PS::CPGDef::SEffect *,xalloc<PS::CPGDef::SEffect *> >::_Destroy
PUBLIC	?_Getal@?$vector@PAUSEffect@CPGDef@PS@@V?$xalloc@PAUSEffect@CPGDef@PS@@@@@std@@AAEAAV?$xalloc@PAUSEffect@CPGDef@PS@@@@XZ ; std::vector<PS::CPGDef::SEffect *,xalloc<PS::CPGDef::SEffect *> >::_Getal
PUBLIC	?deallocate@?$xalloc@USItem@CParticleGroup@PS@@@@QBEXPAUSItem@CParticleGroup@PS@@I@Z ; xalloc<PS::CParticleGroup::SItem>::deallocate
PUBLIC	?clear@?$vector@USItem@CParticleGroup@PS@@V?$xalloc@USItem@CParticleGroup@PS@@@@@std@@QAEXXZ ; std::vector<PS::CParticleGroup::SItem,xalloc<PS::CParticleGroup::SItem> >::clear
PUBLIC	?_Destroy@?$vector@USItem@CParticleGroup@PS@@V?$xalloc@USItem@CParticleGroup@PS@@@@@std@@AAEXPAUSItem@CParticleGroup@PS@@0@Z ; std::vector<PS::CParticleGroup::SItem,xalloc<PS::CParticleGroup::SItem> >::_Destroy
PUBLIC	?_Getal@?$vector@USItem@CParticleGroup@PS@@V?$xalloc@USItem@CParticleGroup@PS@@@@@std@@AAEAAV?$xalloc@USItem@CParticleGroup@PS@@@@XZ ; std::vector<PS::CParticleGroup::SItem,xalloc<PS::CParticleGroup::SItem> >::_Getal
PUBLIC	?_Compat@?$_Vector_const_iterator@V?$_Vector_val@U?$_Simple_types@PAVIRender_Visual@@@std@@@std@@@std@@QBEXABV12@@Z ; std::_Vector_const_iterator<std::_Vector_val<std::_Simple_types<IRender_Visual *> > >::_Compat
PUBLIC	??Y?$_Vector_const_iterator@V?$_Vector_val@U?$_Simple_types@PAUSEffect@CPGDef@PS@@@std@@@std@@@std@@QAEAAV01@H@Z ; std::_Vector_const_iterator<std::_Vector_val<std::_Simple_types<PS::CPGDef::SEffect *> > >::operator+=
PUBLIC	??D?$_Vector_const_iterator@V?$_Vector_val@U?$_Simple_types@USItem@CParticleGroup@PS@@@std@@@std@@@std@@QBEABUSItem@CParticleGroup@PS@@XZ ; std::_Vector_const_iterator<std::_Vector_val<std::_Simple_types<PS::CParticleGroup::SItem> > >::operator*
PUBLIC	??Y?$_Vector_iterator@V?$_Vector_val@U?$_Simple_types@USItem@CParticleGroup@PS@@@std@@@std@@@std@@QAEAAV01@H@Z ; std::_Vector_iterator<std::_Vector_val<std::_Simple_types<PS::CParticleGroup::SItem> > >::operator+=
PUBLIC	??0?$vector@PAUSEffect@CPGDef@PS@@V?$xalloc@PAUSEffect@CPGDef@PS@@@@@std@@QAE@XZ ; std::vector<PS::CPGDef::SEffect *,xalloc<PS::CPGDef::SEffect *> >::vector<PS::CPGDef::SEffect *,xalloc<PS::CPGDef::SEffect *> >
PUBLIC	?size@?$vector@PAUSEffect@CPGDef@PS@@V?$xalloc@PAUSEffect@CPGDef@PS@@@@@std@@QBEIXZ ; std::vector<PS::CPGDef::SEffect *,xalloc<PS::CPGDef::SEffect *> >::size
PUBLIC	?_Tidy@?$vector@PAUSEffect@CPGDef@PS@@V?$xalloc@PAUSEffect@CPGDef@PS@@@@@std@@AAEXXZ ; std::vector<PS::CPGDef::SEffect *,xalloc<PS::CPGDef::SEffect *> >::_Tidy
PUBLIC	?clear_and_free@?$xr_vector@PAUSEffect@CPGDef@PS@@V?$xalloc@PAUSEffect@CPGDef@PS@@@@@@QAEXXZ ; xr_vector<PS::CPGDef::SEffect *,xalloc<PS::CPGDef::SEffect *> >::clear_and_free
PUBLIC	??0?$vector@USItem@CParticleGroup@PS@@V?$xalloc@USItem@CParticleGroup@PS@@@@@std@@QAE@XZ ; std::vector<PS::CParticleGroup::SItem,xalloc<PS::CParticleGroup::SItem> >::vector<PS::CParticleGroup::SItem,xalloc<PS::CParticleGroup::SItem> >
PUBLIC	?size@?$vector@USItem@CParticleGroup@PS@@V?$xalloc@USItem@CParticleGroup@PS@@@@@std@@QBEIXZ ; std::vector<PS::CParticleGroup::SItem,xalloc<PS::CParticleGroup::SItem> >::size
PUBLIC	?_Tidy@?$vector@USItem@CParticleGroup@PS@@V?$xalloc@USItem@CParticleGroup@PS@@@@@std@@AAEXXZ ; std::vector<PS::CParticleGroup::SItem,xalloc<PS::CParticleGroup::SItem> >::_Tidy
PUBLIC	?clear_and_free@?$xr_vector@USItem@CParticleGroup@PS@@V?$xalloc@USItem@CParticleGroup@PS@@@@@@QAEXXZ ; xr_vector<PS::CParticleGroup::SItem,xalloc<PS::CParticleGroup::SItem> >::clear_and_free
PUBLIC	??E?$_Vector_const_iterator@V?$_Vector_val@U?$_Simple_types@PAVIRender_Visual@@@std@@@std@@@std@@QAEAAV01@XZ ; std::_Vector_const_iterator<std::_Vector_val<std::_Simple_types<IRender_Visual *> > >::operator++
PUBLIC	??8?$_Vector_const_iterator@V?$_Vector_val@U?$_Simple_types@PAVIRender_Visual@@@std@@@std@@@std@@QBE_NABV01@@Z ; std::_Vector_const_iterator<std::_Vector_val<std::_Simple_types<IRender_Visual *> > >::operator==
PUBLIC	??0?$_Vector_const_iterator@V?$_Vector_val@U?$_Simple_types@PAUSEffect@CPGDef@PS@@@std@@@std@@@std@@QAE@PAPAUSEffect@CPGDef@PS@@PBU_Container_base0@1@@Z ; std::_Vector_const_iterator<std::_Vector_val<std::_Simple_types<PS::CPGDef::SEffect *> > >::_Vector_const_iterator<std::_Vector_val<std::_Simple_types<PS::CPGDef::SEffect *> > >
PUBLIC	??E?$_Vector_const_iterator@V?$_Vector_val@U?$_Simple_types@PAUSEffect@CPGDef@PS@@@std@@@std@@@std@@QAEAAV01@XZ ; std::_Vector_const_iterator<std::_Vector_val<std::_Simple_types<PS::CPGDef::SEffect *> > >::operator++
PUBLIC	??H?$_Vector_const_iterator@V?$_Vector_val@U?$_Simple_types@PAUSEffect@CPGDef@PS@@@std@@@std@@@std@@QBE?AV01@H@Z ; std::_Vector_const_iterator<std::_Vector_val<std::_Simple_types<PS::CPGDef::SEffect *> > >::operator+
PUBLIC	??8?$_Vector_const_iterator@V?$_Vector_val@U?$_Simple_types@PAUSEffect@CPGDef@PS@@@std@@@std@@@std@@QBE_NABV01@@Z ; std::_Vector_const_iterator<std::_Vector_val<std::_Simple_types<PS::CPGDef::SEffect *> > >::operator==
PUBLIC	?_Compat@?$_Vector_const_iterator@V?$_Vector_val@U?$_Simple_types@PAUSEffect@CPGDef@PS@@@std@@@std@@@std@@QBEXABV12@@Z ; std::_Vector_const_iterator<std::_Vector_val<std::_Simple_types<PS::CPGDef::SEffect *> > >::_Compat
PUBLIC	??0?$_Vector_const_iterator@V?$_Vector_val@U?$_Simple_types@USItem@CParticleGroup@PS@@@std@@@std@@@std@@QAE@PAUSItem@CParticleGroup@PS@@PBU_Container_base0@1@@Z ; std::_Vector_const_iterator<std::_Vector_val<std::_Simple_types<PS::CParticleGroup::SItem> > >::_Vector_const_iterator<std::_Vector_val<std::_Simple_types<PS::CParticleGroup::SItem> > >
PUBLIC	??E?$_Vector_const_iterator@V?$_Vector_val@U?$_Simple_types@USItem@CParticleGroup@PS@@@std@@@std@@@std@@QAEAAV01@XZ ; std::_Vector_const_iterator<std::_Vector_val<std::_Simple_types<PS::CParticleGroup::SItem> > >::operator++
PUBLIC	??8?$_Vector_const_iterator@V?$_Vector_val@U?$_Simple_types@USItem@CParticleGroup@PS@@@std@@@std@@@std@@QBE_NABV01@@Z ; std::_Vector_const_iterator<std::_Vector_val<std::_Simple_types<PS::CParticleGroup::SItem> > >::operator==
PUBLIC	?_Compat@?$_Vector_const_iterator@V?$_Vector_val@U?$_Simple_types@USItem@CParticleGroup@PS@@@std@@@std@@@std@@QBEXABV12@@Z ; std::_Vector_const_iterator<std::_Vector_val<std::_Simple_types<PS::CParticleGroup::SItem> > >::_Compat
PUBLIC	??D?$_Vector_iterator@V?$_Vector_val@U?$_Simple_types@USItem@CParticleGroup@PS@@@std@@@std@@@std@@QBEAAUSItem@CParticleGroup@PS@@XZ ; std::_Vector_iterator<std::_Vector_val<std::_Simple_types<PS::CParticleGroup::SItem> > >::operator*
PUBLIC	??H?$_Vector_iterator@V?$_Vector_val@U?$_Simple_types@USItem@CParticleGroup@PS@@@std@@@std@@@std@@QBE?AV01@H@Z ; std::_Vector_iterator<std::_Vector_val<std::_Simple_types<PS::CParticleGroup::SItem> > >::operator+
PUBLIC	??0?$_Vector_iterator@V?$_Vector_val@U?$_Simple_types@PAUSEffect@CPGDef@PS@@@std@@@std@@@std@@QAE@PAPAUSEffect@CPGDef@PS@@PBU_Container_base0@1@@Z ; std::_Vector_iterator<std::_Vector_val<std::_Simple_types<PS::CPGDef::SEffect *> > >::_Vector_iterator<std::_Vector_val<std::_Simple_types<PS::CPGDef::SEffect *> > >
PUBLIC	??0?$_Vector_iterator@V?$_Vector_val@U?$_Simple_types@USItem@CParticleGroup@PS@@@std@@@std@@@std@@QAE@PAUSItem@CParticleGroup@PS@@PBU_Container_base0@1@@Z ; std::_Vector_iterator<std::_Vector_val<std::_Simple_types<PS::CParticleGroup::SItem> > >::_Vector_iterator<std::_Vector_val<std::_Simple_types<PS::CParticleGroup::SItem> > >
PUBLIC	?transform_dir@?$_matrix@M@@QBEXAAU?$_vector3@M@@@Z ; _matrix<float>::transform_dir
PUBLIC	?is_valid@?$_box3@M@@QAEHXZ			; _box3<float>::is_valid
PUBLIC	??1?$vector@PAUSEffect@CPGDef@PS@@V?$xalloc@PAUSEffect@CPGDef@PS@@@@@std@@QAE@XZ ; std::vector<PS::CPGDef::SEffect *,xalloc<PS::CPGDef::SEffect *> >::~vector<PS::CPGDef::SEffect *,xalloc<PS::CPGDef::SEffect *> >
PUBLIC	?resize@?$vector@PAUSEffect@CPGDef@PS@@V?$xalloc@PAUSEffect@CPGDef@PS@@@@@std@@QAEXI@Z ; std::vector<PS::CPGDef::SEffect *,xalloc<PS::CPGDef::SEffect *> >::resize
PUBLIC	?begin@?$vector@PAUSEffect@CPGDef@PS@@V?$xalloc@PAUSEffect@CPGDef@PS@@@@@std@@QAE?AV?$_Vector_iterator@V?$_Vector_val@U?$_Simple_types@PAUSEffect@CPGDef@PS@@@std@@@std@@@2@XZ ; std::vector<PS::CPGDef::SEffect *,xalloc<PS::CPGDef::SEffect *> >::begin
PUBLIC	?begin@?$vector@PAUSEffect@CPGDef@PS@@V?$xalloc@PAUSEffect@CPGDef@PS@@@@@std@@QBE?AV?$_Vector_const_iterator@V?$_Vector_val@U?$_Simple_types@PAUSEffect@CPGDef@PS@@@std@@@std@@@2@XZ ; std::vector<PS::CPGDef::SEffect *,xalloc<PS::CPGDef::SEffect *> >::begin
PUBLIC	?end@?$vector@PAUSEffect@CPGDef@PS@@V?$xalloc@PAUSEffect@CPGDef@PS@@@@@std@@QAE?AV?$_Vector_iterator@V?$_Vector_val@U?$_Simple_types@PAUSEffect@CPGDef@PS@@@std@@@std@@@2@XZ ; std::vector<PS::CPGDef::SEffect *,xalloc<PS::CPGDef::SEffect *> >::end
PUBLIC	?end@?$vector@PAUSEffect@CPGDef@PS@@V?$xalloc@PAUSEffect@CPGDef@PS@@@@@std@@QBE?AV?$_Vector_const_iterator@V?$_Vector_val@U?$_Simple_types@PAUSEffect@CPGDef@PS@@@std@@@std@@@2@XZ ; std::vector<PS::CPGDef::SEffect *,xalloc<PS::CPGDef::SEffect *> >::end
PUBLIC	??0?$xr_vector@PAUSEffect@CPGDef@PS@@V?$xalloc@PAUSEffect@CPGDef@PS@@@@@@QAE@XZ ; xr_vector<PS::CPGDef::SEffect *,xalloc<PS::CPGDef::SEffect *> >::xr_vector<PS::CPGDef::SEffect *,xalloc<PS::CPGDef::SEffect *> >
PUBLIC	?size@?$xr_vector@PAUSEffect@CPGDef@PS@@V?$xalloc@PAUSEffect@CPGDef@PS@@@@@@QBEIXZ ; xr_vector<PS::CPGDef::SEffect *,xalloc<PS::CPGDef::SEffect *> >::size
PUBLIC	?clear@?$xr_vector@PAUSEffect@CPGDef@PS@@V?$xalloc@PAUSEffect@CPGDef@PS@@@@@@QAEXXZ ; xr_vector<PS::CPGDef::SEffect *,xalloc<PS::CPGDef::SEffect *> >::clear
PUBLIC	??A?$xr_vector@PAUSEffect@CPGDef@PS@@V?$xalloc@PAUSEffect@CPGDef@PS@@@@@@QBEABQAUSEffect@CPGDef@PS@@I@Z ; xr_vector<PS::CPGDef::SEffect *,xalloc<PS::CPGDef::SEffect *> >::operator[]
PUBLIC	??$_Emplace_back_with_unused_capacity@PAVIRender_Visual@@@?$vector@PAVIRender_Visual@@V?$xalloc@PAVIRender_Visual@@@@@std@@AAE?A_T$$QAPAVIRender_Visual@@@Z ; std::vector<IRender_Visual *,xalloc<IRender_Visual *> >::_Emplace_back_with_unused_capacity<IRender_Visual *>
PUBLIC	??$emplace_back@PAVIRender_Visual@@@?$vector@PAVIRender_Visual@@V?$xalloc@PAVIRender_Visual@@@@@std@@QAE?A_T$$QAPAVIRender_Visual@@@Z ; std::vector<IRender_Visual *,xalloc<IRender_Visual *> >::emplace_back<IRender_Visual *>
PUBLIC	?push_back@?$vector@PAVIRender_Visual@@V?$xalloc@PAVIRender_Visual@@@@@std@@QAEX$$QAPAVIRender_Visual@@@Z ; std::vector<IRender_Visual *,xalloc<IRender_Visual *> >::push_back
PUBLIC	?pop_back@?$vector@PAVIRender_Visual@@V?$xalloc@PAVIRender_Visual@@@@@std@@QAEXXZ ; std::vector<IRender_Visual *,xalloc<IRender_Visual *> >::pop_back
PUBLIC	?erase@?$vector@PAVIRender_Visual@@V?$xalloc@PAVIRender_Visual@@@@@std@@QAE?AV?$_Vector_iterator@V?$_Vector_val@U?$_Simple_types@PAVIRender_Visual@@@std@@@std@@@2@V?$_Vector_const_iterator@V?$_Vector_val@U?$_Simple_types@PAVIRender_Visual@@@std@@@std@@@2@0@Z ; std::vector<IRender_Visual *,xalloc<IRender_Visual *> >::erase
PUBLIC	?empty@?$vector@PAVIRender_Visual@@V?$xalloc@PAVIRender_Visual@@@@@std@@QBE_NXZ ; std::vector<IRender_Visual *,xalloc<IRender_Visual *> >::empty
PUBLIC	?back@?$vector@PAVIRender_Visual@@V?$xalloc@PAVIRender_Visual@@@@@std@@QAEAAPAVIRender_Visual@@XZ ; std::vector<IRender_Visual *,xalloc<IRender_Visual *> >::back
PUBLIC	??1?$vector@USItem@CParticleGroup@PS@@V?$xalloc@USItem@CParticleGroup@PS@@@@@std@@QAE@XZ ; std::vector<PS::CParticleGroup::SItem,xalloc<PS::CParticleGroup::SItem> >::~vector<PS::CParticleGroup::SItem,xalloc<PS::CParticleGroup::SItem> >
PUBLIC	?resize@?$vector@USItem@CParticleGroup@PS@@V?$xalloc@USItem@CParticleGroup@PS@@@@@std@@QAEXI@Z ; std::vector<PS::CParticleGroup::SItem,xalloc<PS::CParticleGroup::SItem> >::resize
PUBLIC	?begin@?$vector@USItem@CParticleGroup@PS@@V?$xalloc@USItem@CParticleGroup@PS@@@@@std@@QAE?AV?$_Vector_iterator@V?$_Vector_val@U?$_Simple_types@USItem@CParticleGroup@PS@@@std@@@std@@@2@XZ ; std::vector<PS::CParticleGroup::SItem,xalloc<PS::CParticleGroup::SItem> >::begin
PUBLIC	?end@?$vector@USItem@CParticleGroup@PS@@V?$xalloc@USItem@CParticleGroup@PS@@@@@std@@QAE?AV?$_Vector_iterator@V?$_Vector_val@U?$_Simple_types@USItem@CParticleGroup@PS@@@std@@@std@@@2@XZ ; std::vector<PS::CParticleGroup::SItem,xalloc<PS::CParticleGroup::SItem> >::end
PUBLIC	??0?$xr_vector@USItem@CParticleGroup@PS@@V?$xalloc@USItem@CParticleGroup@PS@@@@@@QAE@XZ ; xr_vector<PS::CParticleGroup::SItem,xalloc<PS::CParticleGroup::SItem> >::xr_vector<PS::CParticleGroup::SItem,xalloc<PS::CParticleGroup::SItem> >
PUBLIC	?size@?$xr_vector@USItem@CParticleGroup@PS@@V?$xalloc@USItem@CParticleGroup@PS@@@@@@QBEIXZ ; xr_vector<PS::CParticleGroup::SItem,xalloc<PS::CParticleGroup::SItem> >::size
PUBLIC	?clear@?$xr_vector@USItem@CParticleGroup@PS@@V?$xalloc@USItem@CParticleGroup@PS@@@@@@QAEXXZ ; xr_vector<PS::CParticleGroup::SItem,xalloc<PS::CParticleGroup::SItem> >::clear
PUBLIC	??A?$xr_vector@USItem@CParticleGroup@PS@@V?$xalloc@USItem@CParticleGroup@PS@@@@@@QAEAAUSItem@CParticleGroup@PS@@I@Z ; xr_vector<PS::CParticleGroup::SItem,xalloc<PS::CParticleGroup::SItem> >::operator[]
PUBLIC	??0?$_Vector_const_iterator@V?$_Vector_val@U?$_Simple_types@PAVIRender_Visual@@@std@@@std@@@std@@QAE@XZ ; std::_Vector_const_iterator<std::_Vector_val<std::_Simple_types<IRender_Visual *> > >::_Vector_const_iterator<std::_Vector_val<std::_Simple_types<IRender_Visual *> > >
PUBLIC	??9?$_Vector_const_iterator@V?$_Vector_val@U?$_Simple_types@PAVIRender_Visual@@@std@@@std@@@std@@QBE_NABV01@@Z ; std::_Vector_const_iterator<std::_Vector_val<std::_Simple_types<IRender_Visual *> > >::operator!=
PUBLIC	??E?$_Vector_iterator@V?$_Vector_val@U?$_Simple_types@PAVIRender_Visual@@@std@@@std@@@std@@QAE?AV01@H@Z ; std::_Vector_iterator<std::_Vector_val<std::_Simple_types<IRender_Visual *> > >::operator++
PUBLIC	??D?$_Vector_const_iterator@V?$_Vector_val@U?$_Simple_types@PAUSEffect@CPGDef@PS@@@std@@@std@@@std@@QBEABQAUSEffect@CPGDef@PS@@XZ ; std::_Vector_const_iterator<std::_Vector_val<std::_Simple_types<PS::CPGDef::SEffect *> > >::operator*
PUBLIC	??E?$_Vector_const_iterator@V?$_Vector_val@U?$_Simple_types@PAUSEffect@CPGDef@PS@@@std@@@std@@@std@@QAE?AV01@H@Z ; std::_Vector_const_iterator<std::_Vector_val<std::_Simple_types<PS::CPGDef::SEffect *> > >::operator++
PUBLIC	??G?$_Vector_const_iterator@V?$_Vector_val@U?$_Simple_types@PAUSEffect@CPGDef@PS@@@std@@@std@@@std@@QBEHABV01@@Z ; std::_Vector_const_iterator<std::_Vector_val<std::_Simple_types<PS::CPGDef::SEffect *> > >::operator-
PUBLIC	??9?$_Vector_const_iterator@V?$_Vector_val@U?$_Simple_types@PAUSEffect@CPGDef@PS@@@std@@@std@@@std@@QBE_NABV01@@Z ; std::_Vector_const_iterator<std::_Vector_val<std::_Simple_types<PS::CPGDef::SEffect *> > >::operator!=
PUBLIC	??D?$_Vector_iterator@V?$_Vector_val@U?$_Simple_types@PAUSEffect@CPGDef@PS@@@std@@@std@@@std@@QBEAAPAUSEffect@CPGDef@PS@@XZ ; std::_Vector_iterator<std::_Vector_val<std::_Simple_types<PS::CPGDef::SEffect *> > >::operator*
PUBLIC	??E?$_Vector_iterator@V?$_Vector_val@U?$_Simple_types@PAUSEffect@CPGDef@PS@@@std@@@std@@@std@@QAE?AV01@H@Z ; std::_Vector_iterator<std::_Vector_val<std::_Simple_types<PS::CPGDef::SEffect *> > >::operator++
PUBLIC	??G?$_Vector_const_iterator@V?$_Vector_val@U?$_Simple_types@USItem@CParticleGroup@PS@@@std@@@std@@@std@@QBEHABV01@@Z ; std::_Vector_const_iterator<std::_Vector_val<std::_Simple_types<PS::CParticleGroup::SItem> > >::operator-
PUBLIC	??9?$_Vector_const_iterator@V?$_Vector_val@U?$_Simple_types@USItem@CParticleGroup@PS@@@std@@@std@@@std@@QBE_NABV01@@Z ; std::_Vector_const_iterator<std::_Vector_val<std::_Simple_types<PS::CParticleGroup::SItem> > >::operator!=
PUBLIC	??C?$_Vector_iterator@V?$_Vector_val@U?$_Simple_types@USItem@CParticleGroup@PS@@@std@@@std@@@std@@QBEPAUSItem@CParticleGroup@PS@@XZ ; std::_Vector_iterator<std::_Vector_val<std::_Simple_types<PS::CParticleGroup::SItem> > >::operator->
PUBLIC	??E?$_Vector_iterator@V?$_Vector_val@U?$_Simple_types@USItem@CParticleGroup@PS@@@std@@@std@@@std@@QAE?AV01@H@Z ; std::_Vector_iterator<std::_Vector_val<std::_Simple_types<PS::CParticleGroup::SItem> > >::operator++
PUBLIC	?ParticlesCount@CParticleGroup@PS@@UAEIXZ	; PS::CParticleGroup::ParticlesCount
PUBLIC	?OnDeviceDestroy@CParticleGroup@PS@@UAEXXZ	; PS::CParticleGroup::OnDeviceDestroy
PUBLIC	?OnDeviceCreate@CParticleGroup@PS@@UAEXXZ	; PS::CParticleGroup::OnDeviceCreate
PUBLIC	?Stop@CParticleGroup@PS@@UAEXH@Z		; PS::CParticleGroup::Stop
PUBLIC	?Play@CParticleGroup@PS@@UAEXXZ			; PS::CParticleGroup::Play
PUBLIC	?UpdateParent@CParticleGroup@PS@@UAEXABU?$_matrix@M@@ABU?$_vector3@M@@H@Z ; PS::CParticleGroup::UpdateParent
PUBLIC	?OnFrame@CParticleGroup@PS@@UAEXI@Z		; PS::CParticleGroup::OnFrame
PUBLIC	??1CParticleGroup@PS@@UAE@XZ			; PS::CParticleGroup::~CParticleGroup
PUBLIC	??1?$xr_vector@USItem@CParticleGroup@PS@@V?$xalloc@USItem@CParticleGroup@PS@@@@@@QAE@XZ ; xr_vector<PS::CParticleGroup::SItem,xalloc<PS::CParticleGroup::SItem> >::~xr_vector<PS::CParticleGroup::SItem,xalloc<PS::CParticleGroup::SItem> >
PUBLIC	??_GCParticleGroup@PS@@UAEPAXI@Z		; PS::CParticleGroup::`scalar deleting destructor'
PUBLIC	?ParticlesCount@SItem@CParticleGroup@PS@@QAEIXZ	; PS::CParticleGroup::SItem::ParticlesCount
PUBLIC	?OnDeviceDestroy@SItem@CParticleGroup@PS@@QAEXXZ ; PS::CParticleGroup::SItem::OnDeviceDestroy
PUBLIC	?OnDeviceCreate@SItem@CParticleGroup@PS@@QAEXXZ	; PS::CParticleGroup::SItem::OnDeviceCreate
PUBLIC	?OnFrame@SItem@CParticleGroup@PS@@QAEXIABUSEffect@CPGDef@3@AAV?$_box3@M@@AA_N@Z ; PS::CParticleGroup::SItem::OnFrame
PUBLIC	??Rzero_vis_pred@@QAE_NPBVIRender_Visual@@@Z	; zero_vis_pred::operator()
PUBLIC	?OnGroupParticleDead@@YAXPAXIAAUParticle@PAPI@@I@Z ; OnGroupParticleDead
PUBLIC	?OnGroupParticleBirth@@YAXPAXIAAUParticle@PAPI@@I@Z ; OnGroupParticleBirth
PUBLIC	?UpdateParent@SItem@CParticleGroup@PS@@QAEXABU?$_matrix@M@@ABU?$_vector3@M@@H@Z ; PS::CParticleGroup::SItem::UpdateParent
PUBLIC	?IsPlaying@SItem@CParticleGroup@PS@@QAEHXZ	; PS::CParticleGroup::SItem::IsPlaying
PUBLIC	??0?$_Vector_iterator@V?$_Vector_val@U?$_Simple_types@PAVIRender_Visual@@@std@@@std@@@std@@QAE@XZ ; std::_Vector_iterator<std::_Vector_val<std::_Simple_types<IRender_Visual *> > >::_Vector_iterator<std::_Vector_val<std::_Simple_types<IRender_Visual *> > >
PUBLIC	?Stop@SItem@CParticleGroup@PS@@QAEXH@Z		; PS::CParticleGroup::SItem::Stop
PUBLIC	?Play@SItem@CParticleGroup@PS@@QAEXXZ		; PS::CParticleGroup::SItem::Play
PUBLIC	?StartFreeChild@SItem@CParticleGroup@PS@@QAEXPAVCParticleEffect@3@PBDAAUParticle@PAPI@@@Z ; PS::CParticleGroup::SItem::StartFreeChild
PUBLIC	?StopRelatedChild@SItem@CParticleGroup@PS@@QAEXI@Z ; PS::CParticleGroup::SItem::StopRelatedChild
PUBLIC	?StartRelatedChild@SItem@CParticleGroup@PS@@QAEXPAVCParticleEffect@3@PBDAAUParticle@PAPI@@@Z ; PS::CParticleGroup::SItem::StartRelatedChild
PUBLIC	?Clear@SItem@CParticleGroup@PS@@QAEXXZ		; PS::CParticleGroup::SItem::Clear
PUBLIC	?Set@SItem@CParticleGroup@PS@@QAEXPAVIRender_Visual@@@Z ; PS::CParticleGroup::SItem::Set
PUBLIC	?Load@CPGDef@PS@@QAEHAAVIReader@@@Z		; PS::CPGDef::Load
PUBLIC	??1CPGDef@PS@@QAE@XZ				; PS::CPGDef::~CPGDef
PUBLIC	??1?$xr_vector@PAUSEffect@CPGDef@PS@@V?$xalloc@PAUSEffect@CPGDef@PS@@@@@@QAE@XZ ; xr_vector<PS::CPGDef::SEffect *,xalloc<PS::CPGDef::SEffect *> >::~xr_vector<PS::CPGDef::SEffect *,xalloc<PS::CPGDef::SEffect *> >
PUBLIC	??0CPGDef@PS@@QAE@XZ				; PS::CPGDef::CPGDef
PUBLIC	?Compile@CParticleGroup@PS@@QAEHPAVCPGDef@2@@Z	; PS::CParticleGroup::Compile
PUBLIC	??0CParticleGroup@PS@@QAE@XZ			; PS::CParticleGroup::CParticleGroup
EXTRN	??_ECParticleGroup@PS@@UAEPAXI@Z:PROC		; PS::CParticleGroup::`vector deleting destructor'
;	COMDAT xdata$x
xdata$x	SEGMENT
__ehfuncinfo$??$_Emplace_reallocate@PAVIRender_Visual@@@?$vector@PAVIRender_Visual@@V?$xalloc@PAVIRender_Visual@@@@@std@@QAEPAPAVIRender_Visual@@QAPAV2@$$QAPAV2@@Z DD 019930522H
	DD	02H
	DD	FLAT:__unwindtable$??$_Emplace_reallocate@PAVIRender_Visual@@@?$vector@PAVIRender_Visual@@V?$xalloc@PAVIRender_Visual@@@@@std@@QAEPAPAVIRender_Visual@@QAPAV2@$$QAPAV2@@Z
	DD	01H
	DD	FLAT:__tryblocktable$??$_Emplace_reallocate@PAVIRender_Visual@@@?$vector@PAVIRender_Visual@@V?$xalloc@PAVIRender_Visual@@@@@std@@QAEPAPAVIRender_Visual@@QAPAV2@$$QAPAV2@@Z
	DD	2 DUP(00H)
	DD	00H
	DD	00H
__unwindtable$??$_Emplace_reallocate@PAVIRender_Visual@@@?$vector@PAVIRender_Visual@@V?$xalloc@PAVIRender_Visual@@@@@std@@QAEPAPAVIRender_Visual@@QAPAV2@$$QAPAV2@@Z DD 0ffffffffH
	DD	00H
	DD	0ffffffffH
	DD	00H
__tryblocktable$??$_Emplace_reallocate@PAVIRender_Visual@@@?$vector@PAVIRender_Visual@@V?$xalloc@PAVIRender_Visual@@@@@std@@QAEPAPAVIRender_Visual@@QAPAV2@$$QAPAV2@@Z DD 00H
	DD	00H
	DD	01H
	DD	01H
	DD	FLAT:__catchsym$??$_Emplace_reallocate@PAVIRender_Visual@@@?$vector@PAVIRender_Visual@@V?$xalloc@PAVIRender_Visual@@@@@std@@QAEPAPAVIRender_Visual@@QAPAV2@$$QAPAV2@@Z$2
__catchsym$??$_Emplace_reallocate@PAVIRender_Visual@@@?$vector@PAVIRender_Visual@@V?$xalloc@PAVIRender_Visual@@@@@std@@QAEPAPAVIRender_Visual@@QAPAV2@$$QAPAV2@@Z$2 DD 00H
	DD	00H
	DD	00H
	DD	FLAT:__catch$??$_Emplace_reallocate@PAVIRender_Visual@@@?$vector@PAVIRender_Visual@@V?$xalloc@PAVIRender_Visual@@@@@std@@QAEPAPAVIRender_Visual@@QAPAV2@$$QAPAV2@@Z$0
xdata$x	ENDS
;	COMDAT xdata$x
xdata$x	SEGMENT
__ehfuncinfo$??$_Resize_reallocate@U_Value_init_tag@std@@@?$vector@USItem@CParticleGroup@PS@@V?$xalloc@USItem@CParticleGroup@PS@@@@@std@@AAEXIABU_Value_init_tag@1@@Z DD 019930522H
	DD	02H
	DD	FLAT:__unwindtable$??$_Resize_reallocate@U_Value_init_tag@std@@@?$vector@USItem@CParticleGroup@PS@@V?$xalloc@USItem@CParticleGroup@PS@@@@@std@@AAEXIABU_Value_init_tag@1@@Z
	DD	01H
	DD	FLAT:__tryblocktable$??$_Resize_reallocate@U_Value_init_tag@std@@@?$vector@USItem@CParticleGroup@PS@@V?$xalloc@USItem@CParticleGroup@PS@@@@@std@@AAEXIABU_Value_init_tag@1@@Z
	DD	2 DUP(00H)
	DD	00H
	DD	00H
__unwindtable$??$_Resize_reallocate@U_Value_init_tag@std@@@?$vector@USItem@CParticleGroup@PS@@V?$xalloc@USItem@CParticleGroup@PS@@@@@std@@AAEXIABU_Value_init_tag@1@@Z DD 0ffffffffH
	DD	00H
	DD	0ffffffffH
	DD	00H
__tryblocktable$??$_Resize_reallocate@U_Value_init_tag@std@@@?$vector@USItem@CParticleGroup@PS@@V?$xalloc@USItem@CParticleGroup@PS@@@@@std@@AAEXIABU_Value_init_tag@1@@Z DD 00H
	DD	00H
	DD	01H
	DD	01H
	DD	FLAT:__catchsym$??$_Resize_reallocate@U_Value_init_tag@std@@@?$vector@USItem@CParticleGroup@PS@@V?$xalloc@USItem@CParticleGroup@PS@@@@@std@@AAEXIABU_Value_init_tag@1@@Z$2
__catchsym$??$_Resize_reallocate@U_Value_init_tag@std@@@?$vector@USItem@CParticleGroup@PS@@V?$xalloc@USItem@CParticleGroup@PS@@@@@std@@AAEXIABU_Value_init_tag@1@@Z$2 DD 00H
	DD	00H
	DD	00H
	DD	FLAT:__catch$??$_Resize_reallocate@U_Value_init_tag@std@@@?$vector@USItem@CParticleGroup@PS@@V?$xalloc@USItem@CParticleGroup@PS@@@@@std@@AAEXIABU_Value_init_tag@1@@Z$0
xdata$x	ENDS
;	COMDAT xdata$x
xdata$x	SEGMENT
__ehfuncinfo$??$_Resize_reallocate@U_Value_init_tag@std@@@?$vector@PAUSEffect@CPGDef@PS@@V?$xalloc@PAUSEffect@CPGDef@PS@@@@@std@@AAEXIABU_Value_init_tag@1@@Z DD 019930522H
	DD	02H
	DD	FLAT:__unwindtable$??$_Resize_reallocate@U_Value_init_tag@std@@@?$vector@PAUSEffect@CPGDef@PS@@V?$xalloc@PAUSEffect@CPGDef@PS@@@@@std@@AAEXIABU_Value_init_tag@1@@Z
	DD	01H
	DD	FLAT:__tryblocktable$??$_Resize_reallocate@U_Value_init_tag@std@@@?$vector@PAUSEffect@CPGDef@PS@@V?$xalloc@PAUSEffect@CPGDef@PS@@@@@std@@AAEXIABU_Value_init_tag@1@@Z
	DD	2 DUP(00H)
	DD	00H
	DD	00H
__unwindtable$??$_Resize_reallocate@U_Value_init_tag@std@@@?$vector@PAUSEffect@CPGDef@PS@@V?$xalloc@PAUSEffect@CPGDef@PS@@@@@std@@AAEXIABU_Value_init_tag@1@@Z DD 0ffffffffH
	DD	00H
	DD	0ffffffffH
	DD	00H
__tryblocktable$??$_Resize_reallocate@U_Value_init_tag@std@@@?$vector@PAUSEffect@CPGDef@PS@@V?$xalloc@PAUSEffect@CPGDef@PS@@@@@std@@AAEXIABU_Value_init_tag@1@@Z DD 00H
	DD	00H
	DD	01H
	DD	01H
	DD	FLAT:__catchsym$??$_Resize_reallocate@U_Value_init_tag@std@@@?$vector@PAUSEffect@CPGDef@PS@@V?$xalloc@PAUSEffect@CPGDef@PS@@@@@std@@AAEXIABU_Value_init_tag@1@@Z$2
__catchsym$??$_Resize_reallocate@U_Value_init_tag@std@@@?$vector@PAUSEffect@CPGDef@PS@@V?$xalloc@PAUSEffect@CPGDef@PS@@@@@std@@AAEXIABU_Value_init_tag@1@@Z$2 DD 00H
	DD	00H
	DD	00H
	DD	FLAT:__catch$??$_Resize_reallocate@U_Value_init_tag@std@@@?$vector@PAUSEffect@CPGDef@PS@@V?$xalloc@PAUSEffect@CPGDef@PS@@@@@std@@AAEXIABU_Value_init_tag@1@@Z$0
xdata$x	ENDS
;	COMDAT xdata$x
xdata$x	SEGMENT
__ehfuncinfo$?_Reallocate_exactly@?$vector@PAVIRender_Visual@@V?$xalloc@PAVIRender_Visual@@@@@std@@AAEXI@Z DD 019930522H
	DD	02H
	DD	FLAT:__unwindtable$?_Reallocate_exactly@?$vector@PAVIRender_Visual@@V?$xalloc@PAVIRender_Visual@@@@@std@@AAEXI@Z
	DD	01H
	DD	FLAT:__tryblocktable$?_Reallocate_exactly@?$vector@PAVIRender_Visual@@V?$xalloc@PAVIRender_Visual@@@@@std@@AAEXI@Z
	DD	2 DUP(00H)
	DD	00H
	DD	00H
__unwindtable$?_Reallocate_exactly@?$vector@PAVIRender_Visual@@V?$xalloc@PAVIRender_Visual@@@@@std@@AAEXI@Z DD 0ffffffffH
	DD	00H
	DD	0ffffffffH
	DD	00H
__tryblocktable$?_Reallocate_exactly@?$vector@PAVIRender_Visual@@V?$xalloc@PAVIRender_Visual@@@@@std@@AAEXI@Z DD 00H
	DD	00H
	DD	01H
	DD	01H
	DD	FLAT:__catchsym$?_Reallocate_exactly@?$vector@PAVIRender_Visual@@V?$xalloc@PAVIRender_Visual@@@@@std@@AAEXI@Z$2
__catchsym$?_Reallocate_exactly@?$vector@PAVIRender_Visual@@V?$xalloc@PAVIRender_Visual@@@@@std@@AAEXI@Z$2 DD 00H
	DD	00H
	DD	00H
	DD	FLAT:__catch$?_Reallocate_exactly@?$vector@PAVIRender_Visual@@V?$xalloc@PAVIRender_Visual@@@@@std@@AAEXI@Z$0
xdata$x	ENDS
;	COMDAT xdata$x
xdata$x	SEGMENT
__ehfuncinfo$??$_Insert_range@PAPAVIRender_Visual@@@?$vector@PAVIRender_Visual@@V?$xalloc@PAVIRender_Visual@@@@@std@@AAEXV?$_Vector_const_iterator@V?$_Vector_val@U?$_Simple_types@PAVIRender_Visual@@@std@@@std@@@1@PAPAVIRender_Visual@@1Uforward_iterator_tag@1@@Z DD 019930522H
	DD	0aH
	DD	FLAT:__unwindtable$??$_Insert_range@PAPAVIRender_Visual@@@?$vector@PAVIRender_Visual@@V?$xalloc@PAVIRender_Visual@@@@@std@@AAEXV?$_Vector_const_iterator@V?$_Vector_val@U?$_Simple_types@PAVIRender_Visual@@@std@@@std@@@1@PAPAVIRender_Visual@@1Uforward_iterator_tag@1@@Z
	DD	05H
	DD	FLAT:__tryblocktable$??$_Insert_range@PAPAVIRender_Visual@@@?$vector@PAVIRender_Visual@@V?$xalloc@PAVIRender_Visual@@@@@std@@AAEXV?$_Vector_const_iterator@V?$_Vector_val@U?$_Simple_types@PAVIRender_Visual@@@std@@@std@@@1@PAPAVIRender_Visual@@1Uforward_iterator_tag@1@@Z
	DD	2 DUP(00H)
	DD	00H
	DD	00H
	ORG $+4
__unwindtable$??$_Insert_range@PAPAVIRender_Visual@@@?$vector@PAVIRender_Visual@@V?$xalloc@PAVIRender_Visual@@@@@std@@AAEXV?$_Vector_const_iterator@V?$_Vector_val@U?$_Simple_types@PAVIRender_Visual@@@std@@@std@@@1@PAPAVIRender_Visual@@1Uforward_iterator_tag@1@@Z DD 0ffffffffH
	DD	00H
	DD	0ffffffffH
	DD	00H
	DD	0ffffffffH
	DD	00H
	DD	0ffffffffH
	DD	00H
	DD	03H
	DD	00H
	DD	03H
	DD	00H
	DD	0ffffffffH
	DD	00H
	DD	0ffffffffH
	DD	00H
	DD	07H
	DD	00H
	DD	07H
	DD	00H
__tryblocktable$??$_Insert_range@PAPAVIRender_Visual@@@?$vector@PAVIRender_Visual@@V?$xalloc@PAVIRender_Visual@@@@@std@@AAEXV?$_Vector_const_iterator@V?$_Vector_val@U?$_Simple_types@PAVIRender_Visual@@@std@@@std@@@1@PAPAVIRender_Visual@@1Uforward_iterator_tag@1@@Z DD 00H
	DD	00H
	DD	01H
	DD	01H
	DD	FLAT:__catchsym$??$_Insert_range@PAPAVIRender_Visual@@@?$vector@PAVIRender_Visual@@V?$xalloc@PAVIRender_Visual@@@@@std@@AAEXV?$_Vector_const_iterator@V?$_Vector_val@U?$_Simple_types@PAVIRender_Visual@@@std@@@std@@@1@PAPAVIRender_Visual@@1Uforward_iterator_tag@1@@Z$10
	DD	04H
	DD	04H
	DD	05H
	DD	01H
	DD	FLAT:__catchsym$??$_Insert_range@PAPAVIRender_Visual@@@?$vector@PAVIRender_Visual@@V?$xalloc@PAVIRender_Visual@@@@@std@@AAEXV?$_Vector_const_iterator@V?$_Vector_val@U?$_Simple_types@PAVIRender_Visual@@@std@@@std@@@1@PAPAVIRender_Visual@@1Uforward_iterator_tag@1@@Z$11
	DD	02H
	DD	02H
	DD	05H
	DD	01H
	DD	FLAT:__catchsym$??$_Insert_range@PAPAVIRender_Visual@@@?$vector@PAVIRender_Visual@@V?$xalloc@PAVIRender_Visual@@@@@std@@AAEXV?$_Vector_const_iterator@V?$_Vector_val@U?$_Simple_types@PAVIRender_Visual@@@std@@@std@@@1@PAPAVIRender_Visual@@1Uforward_iterator_tag@1@@Z$12
	DD	08H
	DD	08H
	DD	09H
	DD	01H
	DD	FLAT:__catchsym$??$_Insert_range@PAPAVIRender_Visual@@@?$vector@PAVIRender_Visual@@V?$xalloc@PAVIRender_Visual@@@@@std@@AAEXV?$_Vector_const_iterator@V?$_Vector_val@U?$_Simple_types@PAVIRender_Visual@@@std@@@std@@@1@PAPAVIRender_Visual@@1Uforward_iterator_tag@1@@Z$13
	DD	06H
	DD	06H
	DD	09H
	DD	01H
	DD	FLAT:__catchsym$??$_Insert_range@PAPAVIRender_Visual@@@?$vector@PAVIRender_Visual@@V?$xalloc@PAVIRender_Visual@@@@@std@@AAEXV?$_Vector_const_iterator@V?$_Vector_val@U?$_Simple_types@PAVIRender_Visual@@@std@@@std@@@1@PAPAVIRender_Visual@@1Uforward_iterator_tag@1@@Z$14
__catchsym$??$_Insert_range@PAPAVIRender_Visual@@@?$vector@PAVIRender_Visual@@V?$xalloc@PAVIRender_Visual@@@@@std@@AAEXV?$_Vector_const_iterator@V?$_Vector_val@U?$_Simple_types@PAVIRender_Visual@@@std@@@std@@@1@PAPAVIRender_Visual@@1Uforward_iterator_tag@1@@Z$10 DD 00H
	DD	00H
	DD	00H
	DD	FLAT:__catch$??$_Insert_range@PAPAVIRender_Visual@@@?$vector@PAVIRender_Visual@@V?$xalloc@PAVIRender_Visual@@@@@std@@AAEXV?$_Vector_const_iterator@V?$_Vector_val@U?$_Simple_types@PAVIRender_Visual@@@std@@@std@@@1@PAPAVIRender_Visual@@1Uforward_iterator_tag@1@@Z$0
__catchsym$??$_Insert_range@PAPAVIRender_Visual@@@?$vector@PAVIRender_Visual@@V?$xalloc@PAVIRender_Visual@@@@@std@@AAEXV?$_Vector_const_iterator@V?$_Vector_val@U?$_Simple_types@PAVIRender_Visual@@@std@@@std@@@1@PAPAVIRender_Visual@@1Uforward_iterator_tag@1@@Z$11 DD 00H
	DD	00H
	DD	00H
	DD	FLAT:__catch$??$_Insert_range@PAPAVIRender_Visual@@@?$vector@PAVIRender_Visual@@V?$xalloc@PAVIRender_Visual@@@@@std@@AAEXV?$_Vector_const_iterator@V?$_Vector_val@U?$_Simple_types@PAVIRender_Visual@@@std@@@std@@@1@PAPAVIRender_Visual@@1Uforward_iterator_tag@1@@Z$3
__catchsym$??$_Insert_range@PAPAVIRender_Visual@@@?$vector@PAVIRender_Visual@@V?$xalloc@PAVIRender_Visual@@@@@std@@AAEXV?$_Vector_const_iterator@V?$_Vector_val@U?$_Simple_types@PAVIRender_Visual@@@std@@@std@@@1@PAPAVIRender_Visual@@1Uforward_iterator_tag@1@@Z$12 DD 00H
	DD	00H
	DD	00H
	DD	FLAT:__catch$??$_Insert_range@PAPAVIRender_Visual@@@?$vector@PAVIRender_Visual@@V?$xalloc@PAVIRender_Visual@@@@@std@@AAEXV?$_Vector_const_iterator@V?$_Vector_val@U?$_Simple_types@PAVIRender_Visual@@@std@@@std@@@1@PAPAVIRender_Visual@@1Uforward_iterator_tag@1@@Z$2
__catchsym$??$_Insert_range@PAPAVIRender_Visual@@@?$vector@PAVIRender_Visual@@V?$xalloc@PAVIRender_Visual@@@@@std@@AAEXV?$_Vector_const_iterator@V?$_Vector_val@U?$_Simple_types@PAVIRender_Visual@@@std@@@std@@@1@PAPAVIRender_Visual@@1Uforward_iterator_tag@1@@Z$13 DD 00H
	DD	00H
	DD	00H
	DD	FLAT:__catch$??$_Insert_range@PAPAVIRender_Visual@@@?$vector@PAVIRender_Visual@@V?$xalloc@PAVIRender_Visual@@@@@std@@AAEXV?$_Vector_const_iterator@V?$_Vector_val@U?$_Simple_types@PAVIRender_Visual@@@std@@@std@@@1@PAPAVIRender_Visual@@1Uforward_iterator_tag@1@@Z$7
__catchsym$??$_Insert_range@PAPAVIRender_Visual@@@?$vector@PAVIRender_Visual@@V?$xalloc@PAVIRender_Visual@@@@@std@@AAEXV?$_Vector_const_iterator@V?$_Vector_val@U?$_Simple_types@PAVIRender_Visual@@@std@@@std@@@1@PAPAVIRender_Visual@@1Uforward_iterator_tag@1@@Z$14 DD 00H
	DD	00H
	DD	00H
	DD	FLAT:__catch$??$_Insert_range@PAPAVIRender_Visual@@@?$vector@PAVIRender_Visual@@V?$xalloc@PAVIRender_Visual@@@@@std@@AAEXV?$_Vector_const_iterator@V?$_Vector_val@U?$_Simple_types@PAVIRender_Visual@@@std@@@std@@@1@PAPAVIRender_Visual@@1Uforward_iterator_tag@1@@Z$6
; Function compile flags: /Ogtpy
; File I:\Vitalya\mine\NSProjectX\layers\xrRender\ParticleGroup.cpp
; File C:\Program Files\Microsoft Visual Studio\2022\Community\VC\Tools\MSVC\14.29.30133\include\vector
; File I:\Vitalya\mine\NSProjectX\xrCore\_flags.h
; File I:\Vitalya\mine\NSProjectX\xrCore\_vector3d.h
; File I:\Vitalya\mine\NSProjectX\layers\xrRender\ParticleGroup.cpp
_TEXT	SEGMENT
??0CParticleGroup@PS@@QAE@XZ PROC			; PS::CParticleGroup::CParticleGroup
; _this$ = ecx

; 367  : {

	push	esi
	mov	esi, ecx
	call	DWORD PTR __imp_??0IParticleCustom@@QAE@XZ
	mov	DWORD PTR [esi], OFFSET ??_7CParticleGroup@PS@@6B@

; 370  : }

	mov	eax, esi
; File C:\Program Files\Microsoft Visual Studio\2022\Community\VC\Tools\MSVC\14.29.30133\include\vector

; 390  :     _CONSTEXPR20_CONTAINER _Vector_val() noexcept : _Myfirst(), _Mylast(), _Myend() {}

	mov	DWORD PTR [esi+92], 0
	mov	DWORD PTR [esi+96], 0
	mov	DWORD PTR [esi+100], 0
; File I:\Vitalya\mine\NSProjectX\xrCore\_flags.h

; 15   :     IC	SelfRef	zero	()											{ flags=T(0);	return *this;	}

	mov	BYTE PTR [esi+104], 0
; File I:\Vitalya\mine\NSProjectX\xrCore\_vector3d.h

; 23   : 	ICF	SelfRef	set(T _x, T _y, T _z)					{ x = _x;		y = _y;		z = _z;		return *this;	};

	mov	DWORD PTR [esi+80], 0
	mov	DWORD PTR [esi+84], 0
	mov	DWORD PTR [esi+88], 0
; File I:\Vitalya\mine\NSProjectX\layers\xrRender\ParticleGroup.cpp

; 370  : }

	pop	esi
	ret	0
??0CParticleGroup@PS@@QAE@XZ ENDP			; PS::CParticleGroup::CParticleGroup
_TEXT	ENDS
; Function compile flags: /Ogtpy
; File I:\Vitalya\mine\NSProjectX\layers\xrRender\ParticleGroup.cpp
; File C:\Program Files\Microsoft Visual Studio\2022\Community\VC\Tools\MSVC\14.29.30133\include\vector
; File I:\Vitalya\mine\NSProjectX\layers\xrRender\ParticleGroup.cpp
; File C:\Program Files\Microsoft Visual Studio\2022\Community\VC\Tools\MSVC\14.29.30133\include\vector
; File I:\Vitalya\mine\NSProjectX\layers\xrRender\ParticleGroup.cpp
; File C:\Program Files\Microsoft Visual Studio\2022\Community\VC\Tools\MSVC\14.29.30133\include\vector
; File I:\Vitalya\mine\NSProjectX\layers\xrRender\ParticleGroup.cpp
; File I:\Vitalya\mine\NSProjectX\xrCore\xrstring.h
; File I:\Vitalya\mine\NSProjectX\layers\xrRender\PSLibrary.cpp
; File I:\Vitalya\mine\NSProjectX\xrCore\xrstring.h
; File I:\Vitalya\mine\NSProjectX\layers\xrRender\PSLibrary.cpp
; File C:\Program Files\Microsoft Visual Studio\2022\Community\VC\Tools\MSVC\14.29.30133\include\vector
; File I:\Vitalya\mine\NSProjectX\layers\xrRender\PSLibrary.cpp
; File I:\Vitalya\mine\NSProjectX\layers\xrRenderPC_R1\FStaticRender.cpp
; File C:\Program Files\Microsoft Visual Studio\2022\Community\VC\Tools\MSVC\14.29.30133\include\vector
; File I:\Vitalya\mine\NSProjectX\layers\xrRender\ParticleGroup.cpp
; File C:\Program Files\Microsoft Visual Studio\2022\Community\VC\Tools\MSVC\14.29.30133\include\vector
; File I:\Vitalya\mine\NSProjectX\layers\xrRender\ParticleEffect.cpp
; File C:\Program Files\Microsoft Visual Studio\2022\Community\VC\Tools\MSVC\14.29.30133\include\vector
; File I:\Vitalya\mine\NSProjectX\layers\xrRender\ParticleGroup.cpp
; File C:\Program Files\Microsoft Visual Studio\2022\Community\VC\Tools\MSVC\14.29.30133\include\vector
; File I:\Vitalya\mine\NSProjectX\layers\xrRender\ParticleGroup.cpp
_TEXT	SEGMENT
$T1 = -4						; size = 1
_it$2 = -4						; size = 4
_def$ = 8						; size = 4
?Compile@CParticleGroup@PS@@QAEHPAVCPGDef@2@@Z PROC	; PS::CParticleGroup::Compile
; _this$ = ecx

; 429  : {

	push	ecx

; 430  : 	m_Def 						= def;

	mov	eax, DWORD PTR _def$[esp]
	push	ebx
	push	ebp
	mov	ebp, ecx
	push	esi
	mov	DWORD PTR [ebp+72], eax
; File C:\Program Files\Microsoft Visual Studio\2022\Community\VC\Tools\MSVC\14.29.30133\include\vector

; 41   :     _CONSTEXPR20_CONTAINER _Vector_const_iterator(_Tptr _Parg, const _Container_base* _Pvector) noexcept : _Ptr(_Parg) {

	mov	esi, DWORD PTR [ebp+92]

; 150  :         return _Ptr == _Right._Ptr;

	cmp	esi, DWORD PTR [ebp+96]
; File I:\Vitalya\mine\NSProjectX\layers\xrRender\ParticleGroup.cpp

; 432  :     for (SItemVecIt i_it=items.begin(); i_it!=items.end(); i_it++) 

	je	SHORT $LN3@Compile
$LL4@Compile:

; 433  :     	i_it->Clear();

	mov	ecx, esi
	call	?Clear@SItem@CParticleGroup@PS@@QAEXXZ	; PS::CParticleGroup::SItem::Clear
; File C:\Program Files\Microsoft Visual Studio\2022\Community\VC\Tools\MSVC\14.29.30133\include\vector

; 74   :         ++_Ptr;

	add	esi, 28					; 0000001cH

; 150  :         return _Ptr == _Right._Ptr;

	cmp	esi, DWORD PTR [ebp+96]
; File I:\Vitalya\mine\NSProjectX\layers\xrRender\ParticleGroup.cpp

; 432  :     for (SItemVecIt i_it=items.begin(); i_it!=items.end(); i_it++) 

	jne	SHORT $LL4@Compile
	mov	esi, DWORD PTR [ebp+92]
$LN3@Compile:

; 434  :     items.clear();

	mov	DWORD PTR [ebp+96], esi

; 435  :     // create new
; 436  :     if (m_Def){

	mov	eax, DWORD PTR [ebp+72]
	test	eax, eax
	je	$LN121@Compile
; File C:\Program Files\Microsoft Visual Studio\2022\Community\VC\Tools\MSVC\14.29.30133\include\vector

; 1536 :         return static_cast<size_type>(_My_data._Mylast - _My_data._Myfirst);

	mov	ecx, DWORD PTR [eax+16]
	sub	ecx, DWORD PTR [eax+12]
	sar	ecx, 2

; 1259 :         if (_Newsize > _Oldsize) { // append

	test	ecx, ecx
	je	SHORT $LN38@Compile

; 1260 :             const auto _Oldcapacity = static_cast<size_type>(_My_data._Myend - _Myfirst);

	mov	eax, DWORD PTR [ebp+100]
	sub	eax, esi
	sar	eax, 2
	imul	eax, eax, -1227133513

; 1261 :             if (_Newsize > _Oldcapacity) { // reallocate

	cmp	ecx, eax
	jbe	SHORT $LN39@Compile

; 1262 :                 _Resize_reallocate(_Newsize, _Val);

	lea	eax, DWORD PTR $T1[esp+16]
	push	eax
	push	ecx
	lea	ecx, DWORD PTR [ebp+92]
	call	??$_Resize_reallocate@U_Value_init_tag@std@@@?$vector@USItem@CParticleGroup@PS@@V?$xalloc@USItem@CParticleGroup@PS@@@@@std@@AAEXIABU_Value_init_tag@1@@Z ; std::vector<PS::CParticleGroup::SItem,xalloc<PS::CParticleGroup::SItem> >::_Resize_reallocate<std::_Value_init_tag>

; 1263 :                 return;

	jmp	SHORT $LN38@Compile
$LN39@Compile:

; 1264 :             }
; 1265 : 
; 1266 :             const pointer _Oldlast = _Mylast;
; 1267 :             _Mylast                = _Ufill(_Oldlast, _Newsize - _Oldsize, _Val);

	push	DWORD PTR $T1[esp+16]
	push	ecx
	push	esi
	call	?_Ufill@?$vector@USItem@CParticleGroup@PS@@V?$xalloc@USItem@CParticleGroup@PS@@@@@std@@AAEPAUSItem@CParticleGroup@PS@@PAU345@IU_Value_init_tag@2@@Z ; std::vector<PS::CParticleGroup::SItem,xalloc<PS::CParticleGroup::SItem> >::_Ufill
	mov	DWORD PTR [ebp+96], eax
$LN38@Compile:

; 1468 :         return const_iterator(_My_data._Myfirst, _STD addressof(_My_data));

	mov	eax, DWORD PTR [ebp+72]

; 41   :     _CONSTEXPR20_CONTAINER _Vector_const_iterator(_Tptr _Parg, const _Container_base* _Pvector) noexcept : _Ptr(_Parg) {

	mov	esi, DWORD PTR [eax+12]

; 150  :         return _Ptr == _Right._Ptr;

	cmp	esi, DWORD PTR [eax+16]
; File I:\Vitalya\mine\NSProjectX\layers\xrRender\ParticleGroup.cpp

; 438  :         for (CPGDef::EffectVec::const_iterator e_it=m_Def->m_Effects.begin(); e_it!=m_Def->m_Effects.end(); e_it++){

	je	$LN121@Compile
	push	edi
$LL7@Compile:
; File I:\Vitalya\mine\NSProjectX\xrCore\xrstring.h

; 65   : 	str_c				operator*	() const						{	return p_?p_->value:0;							}

	mov	edi, DWORD PTR [esi]
; File I:\Vitalya\mine\NSProjectX\layers\xrRender\PSLibrary.cpp

; 61   : 	PS::PEDIt it = FindPEDIt(Name);

	mov	ecx, OFFSET ?RImplementation@@3VCRender@@A+956
; File I:\Vitalya\mine\NSProjectX\xrCore\xrstring.h

; 65   : 	str_c				operator*	() const						{	return p_?p_->value:0;							}

	mov	edi, DWORD PTR [edi+4]
; File I:\Vitalya\mine\NSProjectX\layers\xrRender\PSLibrary.cpp

; 61   : 	PS::PEDIt it = FindPEDIt(Name);

	lea	eax, DWORD PTR [edi+12]
	neg	edi
	sbb	edi, edi
	and	edi, eax
	lea	eax, DWORD PTR _it$2[esp+20]
	push	edi
	push	eax
	call	?FindPEDIt@CPSLibrary@@QAE?AV?$_Vector_iterator@V?$_Vector_val@U?$_Simple_types@PAVCPEDef@PS@@@std@@@std@@@std@@PBD@Z ; CPSLibrary::FindPEDIt
; File C:\Program Files\Microsoft Visual Studio\2022\Community\VC\Tools\MSVC\14.29.30133\include\vector

; 150  :         return _Ptr == _Right._Ptr;

	mov	eax, DWORD PTR _it$2[esp+20]
	cmp	eax, DWORD PTR ?RImplementation@@3VCRender@@A+960
; File I:\Vitalya\mine\NSProjectX\layers\xrRender\PSLibrary.cpp

; 62   :     return (it==m_PEDs.end())?0:*it;

	jne	SHORT $LN69@Compile
	xor	ebx, ebx
	jmp	SHORT $LN70@Compile
$LN69@Compile:
	mov	ebx, DWORD PTR [eax]
$LN70@Compile:
; File I:\Vitalya\mine\NSProjectX\layers\xrRenderPC_R1\FStaticRender.cpp

; 156  : 	PS::CPEDef*	SE		= PSLibrary.FindPED	(name);		R_ASSERT3(SE,"Particle effect doesn't exist",name);

	cmp	BYTE PTR ?ignore_always@?3??model_CreatePE@CRender@@QAEPAVIRender_Visual@@PBD@Z@4_NA, 0
	jne	SHORT $LN62@Compile
	test	ebx, ebx
	jne	SHORT $LN62@Compile
	mov	ecx, DWORD PTR __imp_?Debug@@3VxrDebug@@A
	push	OFFSET ?ignore_always@?3??model_CreatePE@CRender@@QAEPAVIRender_Visual@@PBD@Z@4_NA
	push	OFFSET ??_C@_0BI@HOANMMBE@CRender?3?3model_CreatePE@
	push	156					; 0000009cH
	push	OFFSET ??_C@_0EC@GAKMNDAB@I?3?2Vitalya?2mine?2NSProjectX?2laye@
	push	edi
	push	OFFSET ??_C@_0BO@PKGKJKHO@Particle?5effect?5doesn?8t?5exist@
	push	OFFSET ??_C@_02ODEKANEE@SE@
	call	DWORD PTR __imp_?fail@xrDebug@@QAEXPBD000H0AA_N@Z
$LN62@Compile:

; 157  : 	return				Models->CreatePE	(SE);

	push	ebx
	call	?CreatePE@CModelPool@@QAEPAVIRender_Visual@@PAVCPEDef@PS@@@Z ; CModelPool::CreatePE
; File C:\Program Files\Microsoft Visual Studio\2022\Community\VC\Tools\MSVC\14.29.30133\include\vector

; 141  :         return _Ptr - _Right._Ptr;

	mov	ecx, DWORD PTR [ebp+72]
	mov	edi, esi
; File I:\Vitalya\mine\NSProjectX\layers\xrRender\ParticleGroup.cpp

; 439  :         	CParticleEffect* eff = (CParticleEffect*)RImplementation.model_CreatePE(*(*e_it)->m_EffectName);

	mov	ebx, eax
; File C:\Program Files\Microsoft Visual Studio\2022\Community\VC\Tools\MSVC\14.29.30133\include\vector

; 141  :         return _Ptr - _Right._Ptr;

	sub	edi, DWORD PTR [ecx+12]
	sar	edi, 2
; File I:\Vitalya\mine\NSProjectX\layers\xrRender\ParticleEffect.cpp

; 187  :     ParticleManager()->SetCallback		(m_HandleEffect,bc,dc,owner,p);

	call	DWORD PTR __imp_?ParticleManager@PAPI@@YAPAVIParticleManager@1@XZ
	push	edi
	push	ebp
	push	OFFSET ?OnGroupParticleDead@@YAXPAXIAAUParticle@PAPI@@I@Z ; OnGroupParticleDead
	mov	edx, DWORD PTR [eax]
	mov	ecx, eax
	push	OFFSET ?OnGroupParticleBirth@@YAXPAXIAAUParticle@PAPI@@I@Z ; OnGroupParticleBirth
	push	DWORD PTR [ebx+80]
	call	DWORD PTR [edx+48]
; File C:\Program Files\Microsoft Visual Studio\2022\Community\VC\Tools\MSVC\14.29.30133\include\vector

; 141  :         return _Ptr - _Right._Ptr;

	mov	ecx, DWORD PTR _def$[esp+16]
	mov	eax, esi

; 74   :         ++_Ptr;

	add	esi, 4

; 141  :         return _Ptr - _Right._Ptr;

	sub	eax, DWORD PTR [ecx+12]
	sar	eax, 2

; 119  :         _Ptr += _Off;

	lea	ecx, DWORD PTR [eax*8]
	sub	ecx, eax
; File I:\Vitalya\mine\NSProjectX\layers\xrRender\ParticleGroup.cpp

; 441  : 			items[e_it-def->m_Effects.begin()].Set(eff);

	mov	eax, DWORD PTR [ebp+92]
	mov	DWORD PTR [eax+ecx*4], ebx
; File C:\Program Files\Microsoft Visual Studio\2022\Community\VC\Tools\MSVC\14.29.30133\include\vector

; 150  :         return _Ptr == _Right._Ptr;

	mov	eax, DWORD PTR [ebp+72]
	cmp	esi, DWORD PTR [eax+16]
; File I:\Vitalya\mine\NSProjectX\layers\xrRender\ParticleGroup.cpp

; 438  :         for (CPGDef::EffectVec::const_iterator e_it=m_Def->m_Effects.begin(); e_it!=m_Def->m_Effects.end(); e_it++){

	jne	$LL7@Compile

; 442  :         }
; 443  :     }
; 444  :     return TRUE;

	pop	edi
$LN121@Compile:
	pop	esi

; 445  : }

	pop	ebp
	mov	eax, 1
	pop	ebx
	pop	ecx
	ret	4
?Compile@CParticleGroup@PS@@QAEHPAVCPGDef@2@@Z ENDP	; PS::CParticleGroup::Compile
_TEXT	ENDS
; Function compile flags: /Ogtpy
; File I:\Vitalya\mine\NSProjectX\layers\xrRender\ParticleGroup.cpp
; File I:\Vitalya\mine\NSProjectX\xrCore\xrstring.h
; File I:\Vitalya\mine\NSProjectX\layers\xrRender\ParticleGroup.cpp
; File C:\Program Files\Microsoft Visual Studio\2022\Community\VC\Tools\MSVC\14.29.30133\include\vector
; File I:\Vitalya\mine\NSProjectX\xrCore\_flags.h
; File I:\Vitalya\mine\NSProjectX\layers\xrRender\ParticleGroup.cpp
_TEXT	SEGMENT
??0CPGDef@PS@@QAE@XZ PROC				; PS::CPGDef::CPGDef
; _this$ = ecx
; File I:\Vitalya\mine\NSProjectX\xrCore\xrstring.h

; 57   : 						shared_str	()								{	p_ = 0;											}

	mov	DWORD PTR [ecx], 0
; File I:\Vitalya\mine\NSProjectX\layers\xrRender\ParticleGroup.cpp

; 16   : }

	mov	eax, ecx
; File C:\Program Files\Microsoft Visual Studio\2022\Community\VC\Tools\MSVC\14.29.30133\include\vector

; 390  :     _CONSTEXPR20_CONTAINER _Vector_val() noexcept : _Myfirst(), _Mylast(), _Myend() {}

	mov	DWORD PTR [ecx+12], 0
	mov	DWORD PTR [ecx+16], 0
	mov	DWORD PTR [ecx+20], 0
; File I:\Vitalya\mine\NSProjectX\xrCore\_flags.h

; 15   :     IC	SelfRef	zero	()											{ flags=T(0);	return *this;	}

	mov	DWORD PTR [ecx+4], 0
; File I:\Vitalya\mine\NSProjectX\layers\xrRender\ParticleGroup.cpp

; 15   :     m_fTimeLimit	= 0.f;

	mov	DWORD PTR [ecx+8], 0

; 16   : }

	ret	0
??0CPGDef@PS@@QAE@XZ ENDP				; PS::CPGDef::CPGDef
_TEXT	ENDS
; Function compile flags: /Ogtpy
; File C:\Program Files\Microsoft Visual Studio\2022\Community\VC\Tools\MSVC\14.29.30133\include\vector
; File I:\Vitalya\mine\NSProjectX\xrCore\xrMemory.h
; File C:\Program Files\Microsoft Visual Studio\2022\Community\VC\Tools\MSVC\14.29.30133\include\vector
;	COMDAT ??1?$xr_vector@PAUSEffect@CPGDef@PS@@V?$xalloc@PAUSEffect@CPGDef@PS@@@@@@QAE@XZ
_TEXT	SEGMENT
??1?$xr_vector@PAUSEffect@CPGDef@PS@@V?$xalloc@PAUSEffect@CPGDef@PS@@@@@@QAE@XZ PROC ; xr_vector<PS::CPGDef::SEffect *,xalloc<PS::CPGDef::SEffect *> >::~xr_vector<PS::CPGDef::SEffect *,xalloc<PS::CPGDef::SEffect *> >, COMDAT
; _this$ = ecx

; 1750 :         if (_Myfirst) { // destroy and deallocate old array

	push	esi
	mov	esi, ecx
	mov	eax, DWORD PTR [esi]
	test	eax, eax
	je	SHORT $LN6@xr_vector
; File I:\Vitalya\mine\NSProjectX\xrCore\xrMemory.h

; 109  : 	IC void		xr_free		(T* &P)					{	if (P) { Memory.mem_free((void*)P); P=NULL;	};	}

	mov	ecx, DWORD PTR __imp_?Memory@@3VxrMemory@@A
	push	eax
	call	DWORD PTR __imp_?mem_free@xrMemory@@QAEXPAX@Z
; File C:\Program Files\Microsoft Visual Studio\2022\Community\VC\Tools\MSVC\14.29.30133\include\vector

; 1754 :             _Myfirst = nullptr;

	mov	DWORD PTR [esi], 0

; 1755 :             _Mylast  = nullptr;

	mov	DWORD PTR [esi+4], 0

; 1756 :             _Myend   = nullptr;

	mov	DWORD PTR [esi+8], 0
$LN6@xr_vector:
	pop	esi
	ret	0
??1?$xr_vector@PAUSEffect@CPGDef@PS@@V?$xalloc@PAUSEffect@CPGDef@PS@@@@@@QAE@XZ ENDP ; xr_vector<PS::CPGDef::SEffect *,xalloc<PS::CPGDef::SEffect *> >::~xr_vector<PS::CPGDef::SEffect *,xalloc<PS::CPGDef::SEffect *> >
_TEXT	ENDS
; Function compile flags: /Ogtpy
; File I:\Vitalya\mine\NSProjectX\layers\xrRender\ParticleGroup.cpp
; File C:\Program Files\Microsoft Visual Studio\2022\Community\VC\Tools\MSVC\14.29.30133\include\vector
; File I:\Vitalya\mine\NSProjectX\layers\xrRender\ParticleGroup.cpp
; File I:\Vitalya\mine\NSProjectX\xrCore\xrMemory_subst_msvc.h
; File I:\Vitalya\mine\NSProjectX\xrCore\xrstring.h
; File I:\Vitalya\mine\NSProjectX\xrCore\xrMemory_subst_msvc.h
; File C:\Program Files\Microsoft Visual Studio\2022\Community\VC\Tools\MSVC\14.29.30133\include\vector
; File I:\Vitalya\mine\NSProjectX\layers\xrRender\ParticleGroup.cpp
; File I:\Vitalya\mine\NSProjectX\xrCore\xrMemory_subst_msvc.h
; File I:\Vitalya\mine\NSProjectX\layers\xrRender\ParticleGroup.cpp
; File C:\Program Files\Microsoft Visual Studio\2022\Community\VC\Tools\MSVC\14.29.30133\include\vector
; File I:\Vitalya\mine\NSProjectX\xrCore\xrMemory.h
; File C:\Program Files\Microsoft Visual Studio\2022\Community\VC\Tools\MSVC\14.29.30133\include\vector
; File I:\Vitalya\mine\NSProjectX\xrCore\xrstring.h
; File I:\Vitalya\mine\NSProjectX\layers\xrRender\ParticleGroup.cpp
_TEXT	SEGMENT
??1CPGDef@PS@@QAE@XZ PROC				; PS::CPGDef::~CPGDef
; _this$ = ecx

; 19   : {

	push	ebx

; 20   :     for (EffectIt it=m_Effects.begin(); it!=m_Effects.end(); it++)

	mov	ebx, DWORD PTR __imp_?mem_free@xrMemory@@QAEXPAX@Z
	push	esi
	push	edi
	mov	edi, ecx
; File C:\Program Files\Microsoft Visual Studio\2022\Community\VC\Tools\MSVC\14.29.30133\include\vector

; 41   :     _CONSTEXPR20_CONTAINER _Vector_const_iterator(_Tptr _Parg, const _Container_base* _Pvector) noexcept : _Ptr(_Parg) {

	mov	esi, DWORD PTR [edi+12]

; 150  :         return _Ptr == _Right._Ptr;

	cmp	esi, DWORD PTR [edi+16]
; File I:\Vitalya\mine\NSProjectX\layers\xrRender\ParticleGroup.cpp

; 20   :     for (EffectIt it=m_Effects.begin(); it!=m_Effects.end(); it++)

	je	$LN3@CPGDef
$LL4@CPGDef:
; File I:\Vitalya\mine\NSProjectX\xrCore\xrMemory_subst_msvc.h

; 151  : 	if (ptr) 

	mov	eax, DWORD PTR [esi]
	test	eax, eax
	je	SHORT $LN2@CPGDef
; File I:\Vitalya\mine\NSProjectX\xrCore\xrstring.h

; 50   : 	void				_dec		()								{	if (0==p_) return;	p_->dwReference--; 	if (0==p_->dwReference)	p_=0;						}

	mov	ecx, DWORD PTR [eax+16]
	test	ecx, ecx
	je	SHORT $LN40@CPGDef
	dec	DWORD PTR [ecx]
	mov	ecx, DWORD PTR [eax+16]
	cmp	DWORD PTR [ecx], 0
	jne	SHORT $LN40@CPGDef
	mov	DWORD PTR [eax+16], 0
$LN40@CPGDef:
	mov	ecx, DWORD PTR [eax+12]
	test	ecx, ecx
	je	SHORT $LN46@CPGDef
	dec	DWORD PTR [ecx]
	mov	ecx, DWORD PTR [eax+12]
	cmp	DWORD PTR [ecx], 0
	jne	SHORT $LN46@CPGDef
	mov	DWORD PTR [eax+12], 0
$LN46@CPGDef:
	mov	ecx, DWORD PTR [eax+8]
	test	ecx, ecx
	je	SHORT $LN52@CPGDef
	dec	DWORD PTR [ecx]
	mov	ecx, DWORD PTR [eax+8]
	cmp	DWORD PTR [ecx], 0
	jne	SHORT $LN52@CPGDef
	mov	DWORD PTR [eax+8], 0
$LN52@CPGDef:
	mov	ecx, DWORD PTR [eax+4]
	test	ecx, ecx
	je	SHORT $LN58@CPGDef
	dec	DWORD PTR [ecx]
	mov	ecx, DWORD PTR [eax+4]
	cmp	DWORD PTR [ecx], 0
	jne	SHORT $LN58@CPGDef
	mov	DWORD PTR [eax+4], 0
$LN58@CPGDef:
; File I:\Vitalya\mine\NSProjectX\xrCore\xrMemory_subst_msvc.h

; 144  : 		Memory.mem_free	(ptr);

	push	DWORD PTR [esi]
	mov	ecx, DWORD PTR __imp_?Memory@@3VxrMemory@@A
	call	ebx

; 154  : 		ptr = nullptr;

	mov	DWORD PTR [esi], 0
$LN2@CPGDef:
; File C:\Program Files\Microsoft Visual Studio\2022\Community\VC\Tools\MSVC\14.29.30133\include\vector

; 74   :         ++_Ptr;

	add	esi, 4

; 150  :         return _Ptr == _Right._Ptr;

	cmp	esi, DWORD PTR [edi+16]
; File I:\Vitalya\mine\NSProjectX\layers\xrRender\ParticleGroup.cpp

; 20   :     for (EffectIt it=m_Effects.begin(); it!=m_Effects.end(); it++)

	jne	SHORT $LL4@CPGDef
; File I:\Vitalya\mine\NSProjectX\xrCore\xrMemory_subst_msvc.h

; 154  : 		ptr = nullptr;

	mov	esi, DWORD PTR [edi+12]
$LN3@CPGDef:
; File I:\Vitalya\mine\NSProjectX\layers\xrRender\ParticleGroup.cpp

; 22   :     m_Effects.clear	();

	mov	DWORD PTR [edi+16], esi
; File C:\Program Files\Microsoft Visual Studio\2022\Community\VC\Tools\MSVC\14.29.30133\include\vector

; 1750 :         if (_Myfirst) { // destroy and deallocate old array

	test	esi, esi
	je	SHORT $LN65@CPGDef
; File I:\Vitalya\mine\NSProjectX\xrCore\xrMemory.h

; 109  : 	IC void		xr_free		(T* &P)					{	if (P) { Memory.mem_free((void*)P); P=NULL;	};	}

	mov	ecx, DWORD PTR __imp_?Memory@@3VxrMemory@@A
	push	esi
	call	ebx
; File C:\Program Files\Microsoft Visual Studio\2022\Community\VC\Tools\MSVC\14.29.30133\include\vector

; 1754 :             _Myfirst = nullptr;

	mov	DWORD PTR [edi+12], 0

; 1755 :             _Mylast  = nullptr;

	mov	DWORD PTR [edi+16], 0

; 1756 :             _Myend   = nullptr;

	mov	DWORD PTR [edi+20], 0
$LN65@CPGDef:
; File I:\Vitalya\mine\NSProjectX\xrCore\xrstring.h

; 50   : 	void				_dec		()								{	if (0==p_) return;	p_->dwReference--; 	if (0==p_->dwReference)	p_=0;						}

	mov	eax, DWORD PTR [edi]
	test	eax, eax
	je	SHORT $LN76@CPGDef
	dec	DWORD PTR [eax]
	mov	eax, DWORD PTR [edi]
	cmp	DWORD PTR [eax], 0
	jne	SHORT $LN76@CPGDef
	mov	DWORD PTR [edi], 0
$LN76@CPGDef:
	pop	edi
; File I:\Vitalya\mine\NSProjectX\layers\xrRender\ParticleGroup.cpp

; 23   : }

	pop	esi
	pop	ebx
	ret	0
??1CPGDef@PS@@QAE@XZ ENDP				; PS::CPGDef::~CPGDef
_TEXT	ENDS
; Function compile flags: /Ogtpy
; File I:\Vitalya\mine\NSProjectX\layers\xrRender\ParticleGroup.cpp
; File C:\Program Files\Microsoft Visual Studio\2022\Community\VC\Tools\MSVC\14.29.30133\include\vector
; File I:\Vitalya\mine\NSProjectX\layers\xrRender\ParticleGroup.cpp
; File I:\Vitalya\mine\NSProjectX\xrCore\xrMemory_subst_msvc.h
; File I:\Vitalya\mine\NSProjectX\xrCore\xrstring.h
; File I:\Vitalya\mine\NSProjectX\layers\xrRender\ParticleGroup.cpp
; File I:\Vitalya\mine\NSProjectX\xrCore\xrstring.h
; File I:\Vitalya\mine\NSProjectX\layers\xrRender\ParticleGroup.cpp
; File I:\Vitalya\mine\NSProjectX\xrCore\xrstring.h
; File I:\Vitalya\mine\NSProjectX\xrCore\_flags.h
; File I:\Vitalya\mine\NSProjectX\layers\xrRender\ParticleGroup.h
; File I:\Vitalya\mine\NSProjectX\layers\xrRender\ParticleGroup.cpp
; File I:\Vitalya\mine\NSProjectX\xrCore\_flags.h
; File C:\Program Files\Microsoft Visual Studio\2022\Community\VC\Tools\MSVC\14.29.30133\include\vector
; File I:\Vitalya\mine\NSProjectX\xrCore\_flags.h
; File C:\Program Files\Microsoft Visual Studio\2022\Community\VC\Tools\MSVC\14.29.30133\include\vector
; File I:\Vitalya\mine\NSProjectX\layers\xrRender\ParticleGroup.cpp
; File C:\Program Files\Microsoft Visual Studio\2022\Community\VC\Tools\MSVC\14.29.30133\include\vector
; File I:\Vitalya\mine\NSProjectX\layers\xrRender\ParticleGroup.cpp
; File I:\Vitalya\mine\NSProjectX\xrCore\xrMemory_subst_msvc.h
; File I:\Vitalya\mine\NSProjectX\xrCore\xrstring.h
; File I:\Vitalya\mine\NSProjectX\layers\xrRender\ParticleGroup.cpp
; File I:\Vitalya\mine\NSProjectX\xrCore\xrstring.h
; File I:\Vitalya\mine\NSProjectX\layers\xrRender\ParticleGroup.cpp
; File I:\Vitalya\mine\NSProjectX\xrCore\xrstring.h
; File I:\Vitalya\mine\NSProjectX\xrCore\_flags.h
; File I:\Vitalya\mine\NSProjectX\layers\xrRender\ParticleGroup.h
; File I:\Vitalya\mine\NSProjectX\layers\xrRender\ParticleGroup.cpp
; File I:\Vitalya\mine\NSProjectX\xrCore\_flags.h
; File C:\Program Files\Microsoft Visual Studio\2022\Community\VC\Tools\MSVC\14.29.30133\include\vector
; File I:\Vitalya\mine\NSProjectX\xrCore\_flags.h
; File C:\Program Files\Microsoft Visual Studio\2022\Community\VC\Tools\MSVC\14.29.30133\include\vector
; File I:\Vitalya\mine\NSProjectX\layers\xrRender\ParticleGroup.cpp
_TEXT	SEGMENT
_F$ = 8							; size = 4
?Load@CPGDef@PS@@QAEHAAVIReader@@@Z PROC		; PS::CPGDef::Load
; _this$ = ecx

; 52   : 	R_ASSERT		(F.find_chunk(PGD_CHUNK_VERSION));

	cmp	BYTE PTR ?ignore_always@?3??Load@CPGDef@PS@@QAEHAAVIReader@@@Z@4_NA, 0
	push	ebx
	push	esi
	mov	esi, DWORD PTR __imp_?fail@xrDebug@@QAEXPBD0H0AA_N@Z
	mov	ebx, ecx
	push	edi
	mov	edi, DWORD PTR _F$[esp+8]
	jne	SHORT $LN2@Load
	push	0
	push	1
	mov	ecx, edi
	call	DWORD PTR __imp_?find_chunk@?$IReaderBase@VIReader@@@@QAEIIPAH@Z
	test	eax, eax
	jne	SHORT $LN2@Load
	mov	ecx, DWORD PTR __imp_?Debug@@3VxrDebug@@A
	push	OFFSET ?ignore_always@?3??Load@CPGDef@PS@@QAEHAAVIReader@@@Z@4_NA
	push	OFFSET ??_C@_0BB@EIBCOMD@PS?3?3CPGDef?3?3Load@
	push	52					; 00000034H
	push	OFFSET ??_C@_0DN@BMEFJHKE@I?3?2Vitalya?2mine?2NSProjectX?2laye@
	push	OFFSET ??_C@_0CA@IGANCBFL@F?4find_chunk?$CIPGD_CHUNK_VERSION?$CJ@
	call	esi
$LN2@Load:

; 53   : 	u16 version		= F.r_u16();

	mov	ecx, edi
	call	DWORD PTR __imp_?r_u16@?$IReaderBase@VIReader@@@@QAEGXZ

; 54   : 
; 55   :     if (version!=PGD_VERSION){

	cmp	ax, 3
	je	SHORT $LN7@Load

; 56   : 		Log			("!Unsupported PG version. Load failed.");

	push	OFFSET ??_C@_0CG@FMBFHEJN@?$CBUnsupported?5PG?5version?4?5Load?5f@
	call	DWORD PTR __imp_?Log@@YAXPBD@Z
	add	esp, 4

; 57   :     	return FALSE;

	xor	eax, eax
	pop	edi

; 92   :     }
; 93   : 
; 94   : #ifdef _EDITOR
; 95   :     if (F.find_chunk(PGD_CHUNK_OWNER)){
; 96   : 	    F.r_stringZ	(m_OwnerName);
; 97   : 	    F.r_stringZ	(m_ModifName);
; 98   :         F.r			(&m_CreateTime,sizeof(m_CreateTime));
; 99   :         F.r			(&m_ModifTime,sizeof(m_ModifTime));
; 100  :     }
; 101  : #endif
; 102  :     
; 103  :     return TRUE;
; 104  : }                   

	pop	esi
	pop	ebx
	ret	4
$LN7@Load:

; 58   :     }
; 59   : 
; 60   : 	R_ASSERT		(F.find_chunk(PGD_CHUNK_NAME));

	cmp	BYTE PTR ?ignore_always@?L@??Load@CPGDef@PS@@QAEHAAVIReader@@@Z@4_NA, 0
	jne	SHORT $LN5@Load
	push	0
	push	2
	mov	ecx, edi
	call	DWORD PTR __imp_?find_chunk@?$IReaderBase@VIReader@@@@QAEIIPAH@Z
	test	eax, eax
	jne	SHORT $LN5@Load
	mov	ecx, DWORD PTR __imp_?Debug@@3VxrDebug@@A
	push	OFFSET ?ignore_always@?L@??Load@CPGDef@PS@@QAEHAAVIReader@@@Z@4_NA
	push	OFFSET ??_C@_0BB@EIBCOMD@PS?3?3CPGDef?3?3Load@
	push	60					; 0000003cH
	push	OFFSET ??_C@_0DN@BMEFJHKE@I?3?2Vitalya?2mine?2NSProjectX?2laye@
	push	OFFSET ??_C@_0BN@CKGJAGHC@F?4find_chunk?$CIPGD_CHUNK_NAME?$CJ@
	call	esi
$LN5@Load:

; 61   : 	F.r_stringZ		(m_Name);

	push	ebp
	mov	ebp, DWORD PTR __imp_?r_stringZ@IReader@@QAEXAAVshared_str@@@Z
	mov	ecx, edi
	push	ebx
	call	ebp

; 62   : 
; 63   : 	F.r_chunk		(PGD_CHUNK_FLAGS,&m_Flags);

	lea	eax, DWORD PTR [ebx+4]
	mov	ecx, edi
	push	eax
	push	3
	call	DWORD PTR __imp_?r_chunk@?$IReaderBase@VIReader@@@@QAEHIPAX@Z

; 64   : 
; 65   :     if (F.find_chunk(PGD_CHUNK_EFFECTS)){

	push	0
	push	4
	mov	ecx, edi
	call	DWORD PTR __imp_?find_chunk@?$IReaderBase@VIReader@@@@QAEIIPAH@Z
	test	eax, eax
	je	$LN13@Load

; 66   :         m_Effects.resize(F.r_u32());

	mov	ecx, edi
	call	DWORD PTR __imp_?r_u32@?$IReaderBase@VIReader@@@@QAEIXZ
	push	eax
	lea	ecx, DWORD PTR [ebx+12]
	call	?resize@?$vector@PAUSEffect@CPGDef@PS@@V?$xalloc@PAUSEffect@CPGDef@PS@@@@@std@@QAEXI@Z ; std::vector<PS::CPGDef::SEffect *,xalloc<PS::CPGDef::SEffect *> >::resize
; File C:\Program Files\Microsoft Visual Studio\2022\Community\VC\Tools\MSVC\14.29.30133\include\vector

; 41   :     _CONSTEXPR20_CONTAINER _Vector_const_iterator(_Tptr _Parg, const _Container_base* _Pvector) noexcept : _Ptr(_Parg) {

	mov	esi, DWORD PTR [ebx+12]

; 150  :         return _Ptr == _Right._Ptr;

	cmp	esi, DWORD PTR [ebx+16]
; File I:\Vitalya\mine\NSProjectX\layers\xrRender\ParticleGroup.cpp

; 67   :         for (EffectIt it=m_Effects.begin(); it!=m_Effects.end(); it++){

	je	$LN15@Load
	npad	4
$LL10@Load:
; File I:\Vitalya\mine\NSProjectX\xrCore\xrMemory_subst_msvc.h

; 68   : 	T* ptr	= (T*)Memory.mem_alloc(sizeof(T));

	mov	ecx, DWORD PTR __imp_?Memory@@3VxrMemory@@A
	push	28					; 0000001cH
	call	DWORD PTR __imp_?mem_alloc@xrMemory@@QAEPAXI@Z
; File I:\Vitalya\mine\NSProjectX\xrCore\xrstring.h

; 57   : 						shared_str	()								{	p_ = 0;											}

	mov	DWORD PTR [eax+4], 0
	lea	ecx, DWORD PTR [eax+4]
	mov	DWORD PTR [eax+8], 0
; File I:\Vitalya\mine\NSProjectX\layers\xrRender\ParticleGroup.cpp

; 69   :             F.r_stringZ		((*it)->m_EffectName);

	push	ecx
; File I:\Vitalya\mine\NSProjectX\xrCore\xrstring.h

; 57   : 						shared_str	()								{	p_ = 0;											}

	mov	DWORD PTR [eax+12], 0
; File I:\Vitalya\mine\NSProjectX\layers\xrRender\ParticleGroup.cpp

; 69   :             F.r_stringZ		((*it)->m_EffectName);

	mov	ecx, edi
; File I:\Vitalya\mine\NSProjectX\xrCore\xrstring.h

; 57   : 						shared_str	()								{	p_ = 0;											}

	mov	DWORD PTR [eax+16], 0
; File I:\Vitalya\mine\NSProjectX\xrCore\_flags.h

; 15   :     IC	SelfRef	zero	()											{ flags=T(0);	return *this;	}

	mov	DWORD PTR [eax], 0
; File I:\Vitalya\mine\NSProjectX\layers\xrRender\ParticleGroup.h

; 33   : 							SEffect				(){m_Flags.zero();/*set(flEnabled)*/m_Time0=0;m_Time1=0;}

	mov	DWORD PTR [eax+20], 0
	mov	DWORD PTR [eax+24], 0
; File I:\Vitalya\mine\NSProjectX\layers\xrRender\ParticleGroup.cpp

; 68   :         	*it				= xr_new<SEffect>();

	mov	DWORD PTR [esi], eax

; 69   :             F.r_stringZ		((*it)->m_EffectName);

	call	ebp

; 70   :             F.r_stringZ		((*it)->m_OnPlayChildName);

	mov	eax, DWORD PTR [esi]
	mov	ecx, edi
	add	eax, 8
	push	eax
	call	ebp

; 71   :         	F.r_stringZ		((*it)->m_OnBirthChildName);

	mov	eax, DWORD PTR [esi]
	mov	ecx, edi
	add	eax, 12					; 0000000cH
	push	eax
	call	ebp

; 72   :         	F.r_stringZ		((*it)->m_OnDeadChildName);

	mov	eax, DWORD PTR [esi]
	mov	ecx, edi
	add	eax, 16					; 00000010H
	push	eax
	call	ebp

; 73   :             (*it)->m_Time0 	= F.r_float();

	mov	ecx, edi
	call	DWORD PTR __imp_?r_float@?$IReaderBase@VIReader@@@@QAEMXZ
	mov	eax, DWORD PTR [esi]

; 74   :             (*it)->m_Time1 	= F.r_float();

	mov	ecx, edi
	fstp	DWORD PTR [eax+20]
	call	DWORD PTR __imp_?r_float@?$IReaderBase@VIReader@@@@QAEMXZ
	mov	eax, DWORD PTR [esi]

; 75   :             (*it)->m_Flags.assign	(F.r_u32());

	mov	ecx, edi
	fstp	DWORD PTR [eax+24]
	call	DWORD PTR __imp_?r_u32@?$IReaderBase@VIReader@@@@QAEIXZ
; File I:\Vitalya\mine\NSProjectX\xrCore\_flags.h

; 21   : 	IC	SelfRef	assign	(const T mask)								{ flags	=	mask;		return *this;	}

	mov	ecx, DWORD PTR [esi]
; File C:\Program Files\Microsoft Visual Studio\2022\Community\VC\Tools\MSVC\14.29.30133\include\vector

; 74   :         ++_Ptr;

	add	esi, 4
; File I:\Vitalya\mine\NSProjectX\xrCore\_flags.h

; 21   : 	IC	SelfRef	assign	(const T mask)								{ flags	=	mask;		return *this;	}

	mov	DWORD PTR [ecx], eax
; File C:\Program Files\Microsoft Visual Studio\2022\Community\VC\Tools\MSVC\14.29.30133\include\vector

; 150  :         return _Ptr == _Right._Ptr;

	cmp	esi, DWORD PTR [ebx+16]
; File I:\Vitalya\mine\NSProjectX\layers\xrRender\ParticleGroup.cpp

; 67   :         for (EffectIt it=m_Effects.begin(); it!=m_Effects.end(); it++){

	jne	$LL10@Load

; 76   :         }
; 77   :     }else{  //.???    

	jmp	$LN15@Load
$LN13@Load:

; 78   :         R_ASSERT		(F.find_chunk(PGD_CHUNK_EFFECTS2));

	cmp	BYTE PTR ?ignore_always@?BG@??Load@CPGDef@PS@@QAEHAAVIReader@@@Z@4_NA, 0
	jne	SHORT $LN11@Load
	push	0
	push	7
	mov	ecx, edi
	call	DWORD PTR __imp_?find_chunk@?$IReaderBase@VIReader@@@@QAEIIPAH@Z
	test	eax, eax
	jne	SHORT $LN11@Load
	mov	ecx, DWORD PTR __imp_?Debug@@3VxrDebug@@A
	push	OFFSET ?ignore_always@?BG@??Load@CPGDef@PS@@QAEHAAVIReader@@@Z@4_NA
	push	OFFSET ??_C@_0BB@EIBCOMD@PS?3?3CPGDef?3?3Load@
	push	78					; 0000004eH
	push	OFFSET ??_C@_0DN@BMEFJHKE@I?3?2Vitalya?2mine?2NSProjectX?2laye@
	push	OFFSET ??_C@_0CB@LFDJMMJL@F?4find_chunk?$CIPGD_CHUNK_EFFECTS2@
	call	esi
$LN11@Load:

; 79   :         m_Effects.resize(F.r_u32());

	mov	ecx, edi
	call	DWORD PTR __imp_?r_u32@?$IReaderBase@VIReader@@@@QAEIXZ
	push	eax
	lea	ecx, DWORD PTR [ebx+12]
	call	?resize@?$vector@PAUSEffect@CPGDef@PS@@V?$xalloc@PAUSEffect@CPGDef@PS@@@@@std@@QAEXI@Z ; std::vector<PS::CPGDef::SEffect *,xalloc<PS::CPGDef::SEffect *> >::resize
; File C:\Program Files\Microsoft Visual Studio\2022\Community\VC\Tools\MSVC\14.29.30133\include\vector

; 41   :     _CONSTEXPR20_CONTAINER _Vector_const_iterator(_Tptr _Parg, const _Container_base* _Pvector) noexcept : _Ptr(_Parg) {

	mov	esi, DWORD PTR [ebx+12]

; 150  :         return _Ptr == _Right._Ptr;

	cmp	esi, DWORD PTR [ebx+16]
; File I:\Vitalya\mine\NSProjectX\layers\xrRender\ParticleGroup.cpp

; 80   :         for (EffectIt it=m_Effects.begin(); it!=m_Effects.end(); it++){

	je	$LN15@Load
$LL16@Load:
; File I:\Vitalya\mine\NSProjectX\xrCore\xrMemory_subst_msvc.h

; 68   : 	T* ptr	= (T*)Memory.mem_alloc(sizeof(T));

	mov	ecx, DWORD PTR __imp_?Memory@@3VxrMemory@@A
	push	28					; 0000001cH
	call	DWORD PTR __imp_?mem_alloc@xrMemory@@QAEPAXI@Z
; File I:\Vitalya\mine\NSProjectX\xrCore\xrstring.h

; 57   : 						shared_str	()								{	p_ = 0;											}

	mov	DWORD PTR [eax+4], 0
	lea	ecx, DWORD PTR [eax+4]
	mov	DWORD PTR [eax+8], 0
; File I:\Vitalya\mine\NSProjectX\layers\xrRender\ParticleGroup.cpp

; 82   :             F.r_stringZ		((*it)->m_EffectName);

	push	ecx
; File I:\Vitalya\mine\NSProjectX\xrCore\xrstring.h

; 57   : 						shared_str	()								{	p_ = 0;											}

	mov	DWORD PTR [eax+12], 0
; File I:\Vitalya\mine\NSProjectX\layers\xrRender\ParticleGroup.cpp

; 82   :             F.r_stringZ		((*it)->m_EffectName);

	mov	ecx, edi
; File I:\Vitalya\mine\NSProjectX\xrCore\xrstring.h

; 57   : 						shared_str	()								{	p_ = 0;											}

	mov	DWORD PTR [eax+16], 0
; File I:\Vitalya\mine\NSProjectX\xrCore\_flags.h

; 15   :     IC	SelfRef	zero	()											{ flags=T(0);	return *this;	}

	mov	DWORD PTR [eax], 0
; File I:\Vitalya\mine\NSProjectX\layers\xrRender\ParticleGroup.h

; 33   : 							SEffect				(){m_Flags.zero();/*set(flEnabled)*/m_Time0=0;m_Time1=0;}

	mov	DWORD PTR [eax+20], 0
	mov	DWORD PTR [eax+24], 0
; File I:\Vitalya\mine\NSProjectX\layers\xrRender\ParticleGroup.cpp

; 81   :         	*it				= xr_new<SEffect>();

	mov	DWORD PTR [esi], eax

; 82   :             F.r_stringZ		((*it)->m_EffectName);

	call	ebp

; 83   :             F.r_stringZ		((*it)->m_OnPlayChildName);

	mov	eax, DWORD PTR [esi]
	mov	ecx, edi
	add	eax, 8
	push	eax
	call	ebp

; 84   :             (*it)->m_Time0 	= F.r_float();

	mov	ecx, edi
	call	DWORD PTR __imp_?r_float@?$IReaderBase@VIReader@@@@QAEMXZ
	mov	eax, DWORD PTR [esi]

; 85   :             (*it)->m_Time1 	= F.r_float();

	mov	ecx, edi
	fstp	DWORD PTR [eax+20]
	call	DWORD PTR __imp_?r_float@?$IReaderBase@VIReader@@@@QAEMXZ
	mov	eax, DWORD PTR [esi]

; 86   :             (*it)->m_Flags.assign	(F.r_u32());

	mov	ecx, edi
	fstp	DWORD PTR [eax+24]
	call	DWORD PTR __imp_?r_u32@?$IReaderBase@VIReader@@@@QAEIXZ
; File I:\Vitalya\mine\NSProjectX\xrCore\_flags.h

; 21   : 	IC	SelfRef	assign	(const T mask)								{ flags	=	mask;		return *this;	}

	mov	ecx, DWORD PTR [esi]
; File C:\Program Files\Microsoft Visual Studio\2022\Community\VC\Tools\MSVC\14.29.30133\include\vector

; 74   :         ++_Ptr;

	add	esi, 4
; File I:\Vitalya\mine\NSProjectX\xrCore\_flags.h

; 21   : 	IC	SelfRef	assign	(const T mask)								{ flags	=	mask;		return *this;	}

	mov	DWORD PTR [ecx], eax
; File C:\Program Files\Microsoft Visual Studio\2022\Community\VC\Tools\MSVC\14.29.30133\include\vector

; 150  :         return _Ptr == _Right._Ptr;

	cmp	esi, DWORD PTR [ebx+16]
; File I:\Vitalya\mine\NSProjectX\layers\xrRender\ParticleGroup.cpp

; 80   :         for (EffectIt it=m_Effects.begin(); it!=m_Effects.end(); it++){

	jne	SHORT $LL16@Load
$LN15@Load:

; 87   :         }
; 88   :     }
; 89   :     
; 90   :     if (F.find_chunk(PGD_CHUNK_TIME_LIMIT)){

	push	0
	push	5
	mov	ecx, edi
	call	DWORD PTR __imp_?find_chunk@?$IReaderBase@VIReader@@@@QAEIIPAH@Z
	pop	ebp
	test	eax, eax
	je	SHORT $LN23@Load

; 91   :    		m_fTimeLimit= F.r_float();

	mov	ecx, edi
	call	DWORD PTR __imp_?r_float@?$IReaderBase@VIReader@@@@QAEMXZ
	fstp	DWORD PTR [ebx+8]
$LN23@Load:

; 92   :     }
; 93   : 
; 94   : #ifdef _EDITOR
; 95   :     if (F.find_chunk(PGD_CHUNK_OWNER)){
; 96   : 	    F.r_stringZ	(m_OwnerName);
; 97   : 	    F.r_stringZ	(m_ModifName);
; 98   :         F.r			(&m_CreateTime,sizeof(m_CreateTime));
; 99   :         F.r			(&m_ModifTime,sizeof(m_ModifTime));
; 100  :     }
; 101  : #endif
; 102  :     
; 103  :     return TRUE;
; 104  : }                   

	pop	edi
	pop	esi
	mov	eax, 1
	pop	ebx
	ret	4
?Load@CPGDef@PS@@QAEHAAVIReader@@@Z ENDP		; PS::CPGDef::Load
_TEXT	ENDS
; Function compile flags: /Ogtpy
; File I:\Vitalya\mine\NSProjectX\layers\xrRender\ParticleGroup.cpp
_TEXT	SEGMENT
_e$ = 8							; size = 4
?Set@SItem@CParticleGroup@PS@@QAEXPAVIRender_Visual@@@Z PROC ; PS::CParticleGroup::SItem::Set
; _this$ = ecx

; 150  : 	_effect=e;

	mov	eax, DWORD PTR _e$[esp-4]
	mov	DWORD PTR [ecx], eax

; 151  : }

	ret	4
?Set@SItem@CParticleGroup@PS@@QAEXPAVIRender_Visual@@@Z ENDP ; PS::CParticleGroup::SItem::Set
_TEXT	ENDS
; Function compile flags: /Ogtpy
; File I:\Vitalya\mine\NSProjectX\layers\xrRender\ParticleGroup.cpp
; File C:\Program Files\Microsoft Visual Studio\2022\Community\VC\Tools\MSVC\14.29.30133\include\vector
; File I:\Vitalya\mine\NSProjectX\layers\xrRender\ParticleGroup.cpp
; File C:\Program Files\Microsoft Visual Studio\2022\Community\VC\Tools\MSVC\14.29.30133\include\vector
; File I:\Vitalya\mine\NSProjectX\layers\xrRender\ParticleGroup.cpp
; File C:\Program Files\Microsoft Visual Studio\2022\Community\VC\Tools\MSVC\14.29.30133\include\vector
; File I:\Vitalya\mine\NSProjectX\layers\xrRender\ParticleGroup.cpp
; File C:\Program Files\Microsoft Visual Studio\2022\Community\VC\Tools\MSVC\14.29.30133\include\vector
; File I:\Vitalya\mine\NSProjectX\layers\xrRender\ParticleGroup.cpp
; File C:\Program Files\Microsoft Visual Studio\2022\Community\VC\Tools\MSVC\14.29.30133\include\vector
; File I:\Vitalya\mine\NSProjectX\xrCore\xrMemory.h
; File I:\Vitalya\mine\NSProjectX\layers\xrRender\ParticleGroup.cpp
_TEXT	SEGMENT
_visuals$ = -12						; size = 12
?Clear@SItem@CParticleGroup@PS@@QAEXXZ PROC		; PS::CParticleGroup::SItem::Clear
; _this$ = ecx

; 153  : {

	sub	esp, 12					; 0000000cH
	push	esi

; 155  :     GetVisuals		(visuals);

	lea	eax, DWORD PTR _visuals$[esp+16]
; File C:\Program Files\Microsoft Visual Studio\2022\Community\VC\Tools\MSVC\14.29.30133\include\vector

; 390  :     _CONSTEXPR20_CONTAINER _Vector_val() noexcept : _Myfirst(), _Mylast(), _Myend() {}

	mov	DWORD PTR _visuals$[esp+16], 0
; File I:\Vitalya\mine\NSProjectX\layers\xrRender\ParticleGroup.cpp

; 155  :     GetVisuals		(visuals);

	push	eax
; File C:\Program Files\Microsoft Visual Studio\2022\Community\VC\Tools\MSVC\14.29.30133\include\vector

; 390  :     _CONSTEXPR20_CONTAINER _Vector_val() noexcept : _Myfirst(), _Mylast(), _Myend() {}

	mov	DWORD PTR _visuals$[esp+24], 0
	mov	DWORD PTR _visuals$[esp+28], 0
; File I:\Vitalya\mine\NSProjectX\layers\xrRender\ParticleGroup.cpp

; 155  :     GetVisuals		(visuals);

	call	?GetVisuals@SItem@CParticleGroup@PS@@QAEIAAV?$xr_vector@PAVIRender_Visual@@V?$xalloc@PAVIRender_Visual@@@@@@@Z ; PS::CParticleGroup::SItem::GetVisuals
; File C:\Program Files\Microsoft Visual Studio\2022\Community\VC\Tools\MSVC\14.29.30133\include\vector

; 41   :     _CONSTEXPR20_CONTAINER _Vector_const_iterator(_Tptr _Parg, const _Container_base* _Pvector) noexcept : _Ptr(_Parg) {

	mov	esi, DWORD PTR _visuals$[esp+16]
	cmp	esi, DWORD PTR _visuals$[esp+20]
; File I:\Vitalya\mine\NSProjectX\layers\xrRender\ParticleGroup.cpp

; 156  :     for (VisualVecIt it=visuals.begin(); it!=visuals.end(); it++)

	je	SHORT $LN3@Clear
$LL4@Clear:

; 157  : 	    ::Render->model_Delete(*it);

	mov	eax, DWORD PTR __imp_?Render@@3PAVIRender_interface@@A
	push	0
	push	esi
	mov	ecx, DWORD PTR [eax]
	mov	eax, DWORD PTR [ecx]
	call	DWORD PTR [eax+172]
; File C:\Program Files\Microsoft Visual Studio\2022\Community\VC\Tools\MSVC\14.29.30133\include\vector

; 74   :         ++_Ptr;

	add	esi, 4

; 150  :         return _Ptr == _Right._Ptr;

	cmp	esi, DWORD PTR _visuals$[esp+20]
; File I:\Vitalya\mine\NSProjectX\layers\xrRender\ParticleGroup.cpp

; 156  :     for (VisualVecIt it=visuals.begin(); it!=visuals.end(); it++)

	jne	SHORT $LL4@Clear
	mov	esi, DWORD PTR _visuals$[esp+16]
$LN3@Clear:
; File C:\Program Files\Microsoft Visual Studio\2022\Community\VC\Tools\MSVC\14.29.30133\include\vector

; 1750 :         if (_Myfirst) { // destroy and deallocate old array

	test	esi, esi
	je	SHORT $LN44@Clear
; File I:\Vitalya\mine\NSProjectX\xrCore\xrMemory.h

; 109  : 	IC void		xr_free		(T* &P)					{	if (P) { Memory.mem_free((void*)P); P=NULL;	};	}

	mov	ecx, DWORD PTR __imp_?Memory@@3VxrMemory@@A
	push	esi
	call	DWORD PTR __imp_?mem_free@xrMemory@@QAEXPAX@Z
$LN44@Clear:
	pop	esi
; File I:\Vitalya\mine\NSProjectX\layers\xrRender\ParticleGroup.cpp

; 158  : }

	add	esp, 12					; 0000000cH
	ret	0
?Clear@SItem@CParticleGroup@PS@@QAEXXZ ENDP		; PS::CParticleGroup::SItem::Clear
_TEXT	ENDS
; Function compile flags: /Ogtpy
; File I:\Vitalya\mine\NSProjectX\layers\xrRender\ParticleGroup.cpp
; File I:\Vitalya\mine\NSProjectX\xrCore\_vector3d.h
; File I:\Vitalya\mine\NSProjectX\layers\xrRender\ParticleGroup.cpp
; File I:\Vitalya\mine\NSProjectX\xrCore\_matrix.h
; File I:\Vitalya\mine\NSProjectX\xrCore\_vector3d.h
; File I:\Vitalya\mine\NSProjectX\xrCore\_matrix.h
; File I:\Vitalya\mine\NSProjectX\xrCore\_vector3d.h
; File I:\Vitalya\mine\NSProjectX\xrCore\_matrix.h
; File I:\Vitalya\mine\NSProjectX\xrCore\_vector3d.h
; File I:\Vitalya\mine\NSProjectX\xrCore\_matrix.h
; File I:\Vitalya\mine\NSProjectX\xrCore\_vector3d.h
; File I:\Vitalya\mine\NSProjectX\layers\xrRender\ParticleGroup.cpp
; File I:\Vitalya\mine\NSProjectX\xrCore\_matrix.h
; File I:\Vitalya\mine\NSProjectX\layers\xrRender\ParticleGroup.cpp
; File I:\Vitalya\mine\NSProjectX\xrCore\_vector3d.h
; File I:\Vitalya\mine\NSProjectX\xrCore\_matrix.h
; File I:\Vitalya\mine\NSProjectX\xrCore\_vector3d.h
; File I:\Vitalya\mine\NSProjectX\xrCore\_flags.h
; File I:\Vitalya\mine\NSProjectX\layers\xrRender\ParticleGroup.cpp
; File I:\Vitalya\mine\NSProjectX\xrCore\_vector3d.h
; File I:\Vitalya\mine\NSProjectX\xrCore\_matrix.h
; File I:\Vitalya\mine\NSProjectX\xrCore\_vector3d.h
; File I:\Vitalya\mine\NSProjectX\xrCore\_matrix.h
; File I:\Vitalya\mine\NSProjectX\xrCore\_vector3d.h
; File I:\Vitalya\mine\NSProjectX\xrCore\_matrix.h
; File I:\Vitalya\mine\NSProjectX\xrCore\_vector3d.h
; File I:\Vitalya\mine\NSProjectX\xrCore\_matrix.h
; File I:\Vitalya\mine\NSProjectX\xrCore\_vector3d.h
; File I:\Vitalya\mine\NSProjectX\xrCore\_matrix.h
; File I:\Vitalya\mine\NSProjectX\xrCore\_vector3d.h
; File I:\Vitalya\mine\NSProjectX\xrCore\_matrix.h
; File I:\Vitalya\mine\NSProjectX\xrCore\_vector3d.h
; File I:\Vitalya\mine\NSProjectX\xrCore\_matrix.h
; File I:\Vitalya\mine\NSProjectX\xrCore\_vector3d.h
; File I:\Vitalya\mine\NSProjectX\xrCore\_matrix.h
; File I:\Vitalya\mine\NSProjectX\layers\xrRender\ParticleGroup.cpp
; File I:\Vitalya\mine\NSProjectX\xrCore\_matrix.h
; File I:\Vitalya\mine\NSProjectX\xrCore\_vector3d.h
; File I:\Vitalya\mine\NSProjectX\xrCore\_matrix.h
; File I:\Vitalya\mine\NSProjectX\xrCore\_vector3d.h
; File I:\Vitalya\mine\NSProjectX\layers\xrRender\ParticleGroup.cpp
; File C:\Program Files\Microsoft Visual Studio\2022\Community\VC\Tools\MSVC\14.29.30133\include\vector
; File I:\Vitalya\mine\NSProjectX\layers\xrRender\ParticleGroup.cpp
; File C:\Program Files\Microsoft Visual Studio\2022\Community\VC\Tools\MSVC\14.29.30133\include\vector
; File I:\Vitalya\mine\NSProjectX\layers\xrRender\ParticleGroup.cpp
; File C:\Program Files\Microsoft Visual Studio\2022\Community\VC\Tools\MSVC\14.29.30133\include\vector
; File I:\Vitalya\mine\NSProjectX\layers\xrRender\ParticleGroup.cpp
_TEXT	SEGMENT
tv903 = -128						; size = 4
$T2 = -124						; size = 4
$T3 = -120						; size = 4
$T4 = -116						; size = 4
$T5 = -112						; size = 4
$T6 = -108						; size = 4
$T7 = -104						; size = 4
$T8 = -100						; size = 4
$T9 = -96						; size = 4
tv955 = -92						; size = 4
$T10 = -88						; size = 4
$T11 = -84						; size = 4
$T12 = -80						; size = 4
$T13 = -80						; size = 4
_vel$ = -76						; size = 12
_M$ = -64						; size = 64
_emitter$ = 8						; size = 4
_eff_name$ = 12						; size = 4
_m$ = 16						; size = 4
?StartRelatedChild@SItem@CParticleGroup@PS@@QAEXPAVCParticleEffect@3@PBDAAUParticle@PAPI@@@Z PROC ; PS::CParticleGroup::SItem::StartRelatedChild
; _this$ = ecx

; 160  : {

	sub	esp, 128				; 00000080H
	push	esi
	push	edi

; 161  :     CParticleEffect*C		= static_cast<CParticleEffect*>(RImplementation.model_CreatePE(eff_name));

	push	DWORD PTR _eff_name$[esp+132]
	mov	edi, ecx
	call	?model_CreatePE@CRender@@QAEPAVIRender_Visual@@PBD@Z ; CRender::model_CreatePE
; File I:\Vitalya\mine\NSProjectX\xrCore\_vector3d.h

; 36   : 	ICF	SelfRef	sub(const Self &a, const Self &v)		{ x=a.x-v.x;y=a.y-v.y;	z=a.z-v.z;		return *this;	};

	movss	xmm0, DWORD PTR __real@41f26c9b
; File I:\Vitalya\mine\NSProjectX\layers\xrRender\ParticleGroup.cpp

; 161  :     CParticleEffect*C		= static_cast<CParticleEffect*>(RImplementation.model_CreatePE(eff_name));

	mov	esi, eax

; 162  :     Fmatrix M; 				M.identity();
; 163  :     Fvector vel; 			vel.sub(m.pos,m.posB); vel.div(fDT_STEP);

	mov	eax, DWORD PTR _m$[esp+132]
; File I:\Vitalya\mine\NSProjectX\xrCore\_matrix.h

; 72   : 		_11=1; _12=0; _13=0; _14=0;

	xorps	xmm4, xmm4
	movss	xmm2, DWORD PTR __real@3f800000
	movss	DWORD PTR $T2[esp+136], xmm2
	mov	DWORD PTR _M$[esp+136], 1065353216	; 3f800000H
; File I:\Vitalya\mine\NSProjectX\xrCore\_vector3d.h

; 36   : 	ICF	SelfRef	sub(const Self &a, const Self &v)		{ x=a.x-v.x;y=a.y-v.y;	z=a.z-v.z;		return *this;	};

	movss	xmm5, DWORD PTR [eax]
	movss	xmm3, DWORD PTR [eax+4]
	movaps	xmm1, xmm5
	subss	xmm1, DWORD PTR [eax+12]
	movss	xmm6, DWORD PTR [eax+8]
	movaps	xmm7, xmm3
	subss	xmm7, DWORD PTR [eax+16]
; File I:\Vitalya\mine\NSProjectX\xrCore\_matrix.h

; 72   : 		_11=1; _12=0; _13=0; _14=0;

	mov	DWORD PTR _M$[esp+140], 0
	mov	DWORD PTR _M$[esp+144], 0
; File I:\Vitalya\mine\NSProjectX\xrCore\_vector3d.h

; 36   : 	ICF	SelfRef	sub(const Self &a, const Self &v)		{ x=a.x-v.x;y=a.y-v.y;	z=a.z-v.z;		return *this;	};

	mulss	xmm1, xmm0
; File I:\Vitalya\mine\NSProjectX\xrCore\_matrix.h

; 72   : 		_11=1; _12=0; _13=0; _14=0;

	mov	DWORD PTR _M$[esp+148], 0
; File I:\Vitalya\mine\NSProjectX\xrCore\_vector3d.h

; 45   : 	ICF SelfRef	div(T s)								{ x/=s;		y/=s;    z/=s;				return *this;	};

	mulss	xmm7, xmm0
; File I:\Vitalya\mine\NSProjectX\xrCore\_matrix.h

; 73   : 		_21=0; _22=1; _23=0; _24=0;

	mov	DWORD PTR _M$[esp+152], 0
; File I:\Vitalya\mine\NSProjectX\xrCore\_vector3d.h

; 36   : 	ICF	SelfRef	sub(const Self &a, const Self &v)		{ x=a.x-v.x;y=a.y-v.y;	z=a.z-v.z;		return *this;	};

	movss	DWORD PTR tv903[esp+136], xmm1

; 45   : 	ICF SelfRef	div(T s)								{ x/=s;		y/=s;    z/=s;				return *this;	};

	movss	DWORD PTR _vel$[esp+136], xmm1

; 36   : 	ICF	SelfRef	sub(const Self &a, const Self &v)		{ x=a.x-v.x;y=a.y-v.y;	z=a.z-v.z;		return *this;	};

	movaps	xmm1, xmm6
	subss	xmm1, DWORD PTR [eax+20]
; File I:\Vitalya\mine\NSProjectX\layers\xrRender\ParticleGroup.cpp

; 164  :     if (emitter->m_RT_Flags.is(CParticleEffect::flRT_XFORM)){

	mov	eax, DWORD PTR _emitter$[esp+132]
; File I:\Vitalya\mine\NSProjectX\xrCore\_matrix.h

; 73   : 		_21=0; _22=1; _23=0; _24=0;

	mov	DWORD PTR _M$[esp+156], 1065353216	; 3f800000H
	mov	DWORD PTR _M$[esp+160], 0
	mov	DWORD PTR _M$[esp+164], 0
; File I:\Vitalya\mine\NSProjectX\layers\xrRender\ParticleGroup.cpp

; 164  :     if (emitter->m_RT_Flags.is(CParticleEffect::flRT_XFORM)){

	test	BYTE PTR [eax+176], 4
; File I:\Vitalya\mine\NSProjectX\xrCore\_vector3d.h

; 45   : 	ICF SelfRef	div(T s)								{ x/=s;		y/=s;    z/=s;				return *this;	};

	mulss	xmm1, xmm0
; File I:\Vitalya\mine\NSProjectX\xrCore\_matrix.h

; 74   : 		_31=0; _32=0; _33=1; _34=0;

	mov	DWORD PTR _M$[esp+168], 0
	mov	DWORD PTR _M$[esp+172], 0
	mov	DWORD PTR _M$[esp+176], 1065353216	; 3f800000H
	mov	DWORD PTR _M$[esp+180], 0

; 75   : 		_41=0; _42=0; _43=0; _44=1;

	mov	DWORD PTR _M$[esp+196], 1065353216	; 3f800000H
; File I:\Vitalya\mine\NSProjectX\xrCore\_vector3d.h

; 45   : 	ICF SelfRef	div(T s)								{ x/=s;		y/=s;    z/=s;				return *this;	};

	movss	DWORD PTR _vel$[esp+140], xmm7
	movss	DWORD PTR tv955[esp+136], xmm1
	movss	DWORD PTR _vel$[esp+144], xmm1
; File I:\Vitalya\mine\NSProjectX\xrCore\_flags.h

; 23   : 	IC 	BOOL	is		(const T mask)						const	{ return mask==(flags&mask);			}

	movss	DWORD PTR $T3[esp+136], xmm4
	movss	DWORD PTR $T10[esp+136], xmm4
	movss	DWORD PTR $T4[esp+136], xmm2
	movss	DWORD PTR $T5[esp+136], xmm4
	movss	DWORD PTR $T6[esp+136], xmm4
	movss	DWORD PTR $T11[esp+136], xmm4
	movss	DWORD PTR $T7[esp+136], xmm4
	movss	DWORD PTR $T8[esp+136], xmm4
	movss	DWORD PTR $T9[esp+136], xmm2
	movss	DWORD PTR $T12[esp+136], xmm4
; File I:\Vitalya\mine\NSProjectX\layers\xrRender\ParticleGroup.cpp

; 164  :     if (emitter->m_RT_Flags.is(CParticleEffect::flRT_XFORM)){

	je	$LN2@StartRelat
; File I:\Vitalya\mine\NSProjectX\xrCore\_vector3d.h

; 24   : 	ICF SelfRef	set(const _vector3<float> &v)			{ x = T(v.x);	y = T(v.y);	z = T(v.z);	return *this;	};

	movss	xmm0, DWORD PTR [eax+104]
; File I:\Vitalya\mine\NSProjectX\xrCore\_matrix.h

; 59   : 		c.set(a.c); _44_=a._44;

	movaps	xmm2, xmm7
; File I:\Vitalya\mine\NSProjectX\xrCore\_vector3d.h

; 24   : 	ICF SelfRef	set(const _vector3<float> &v)			{ x = T(v.x);	y = T(v.y);	z = T(v.z);	return *this;	};

	movss	DWORD PTR $T2[esp+136], xmm0
	movss	DWORD PTR _M$[esp+136], xmm0
	movss	xmm0, DWORD PTR [eax+108]
	movss	DWORD PTR $T5[esp+136], xmm0
	movss	DWORD PTR _M$[esp+140], xmm0
	movss	xmm0, DWORD PTR [eax+112]
	movss	DWORD PTR $T8[esp+136], xmm0
	movss	DWORD PTR _M$[esp+144], xmm0
; File I:\Vitalya\mine\NSProjectX\xrCore\_matrix.h

; 56   : 		i.set(a.i); _14_=a._14;

	movss	xmm0, DWORD PTR [eax+116]
	movss	DWORD PTR _M$[esp+148], xmm0
; File I:\Vitalya\mine\NSProjectX\xrCore\_vector3d.h

; 24   : 	ICF SelfRef	set(const _vector3<float> &v)			{ x = T(v.x);	y = T(v.y);	z = T(v.z);	return *this;	};

	movss	xmm0, DWORD PTR [eax+124]
	movss	DWORD PTR $T4[esp+136], xmm0
	movss	DWORD PTR _M$[esp+156], xmm0
	movss	xmm0, DWORD PTR [eax+128]
	movss	DWORD PTR $T7[esp+136], xmm0
	movss	DWORD PTR _M$[esp+160], xmm0
; File I:\Vitalya\mine\NSProjectX\xrCore\_matrix.h

; 57   : 		j.set(a.j); _24_=a._24;

	movss	xmm0, DWORD PTR [eax+132]
	movss	DWORD PTR _M$[esp+164], xmm0
; File I:\Vitalya\mine\NSProjectX\xrCore\_vector3d.h

; 24   : 	ICF SelfRef	set(const _vector3<float> &v)			{ x = T(v.x);	y = T(v.y);	z = T(v.z);	return *this;	};

	movss	xmm0, DWORD PTR [eax+136]
	movss	xmm4, DWORD PTR [eax+120]
	movss	DWORD PTR $T3[esp+136], xmm0
	movss	DWORD PTR _M$[esp+168], xmm0
	movss	xmm0, DWORD PTR [eax+140]
	movss	DWORD PTR $T6[esp+136], xmm0
	movss	DWORD PTR _M$[esp+172], xmm0
	movss	xmm0, DWORD PTR [eax+144]
	movss	DWORD PTR $T9[esp+136], xmm0
	movss	DWORD PTR _M$[esp+176], xmm0
; File I:\Vitalya\mine\NSProjectX\xrCore\_matrix.h

; 58   : 		k.set(a.k); _34_=a._34;

	movss	xmm0, DWORD PTR [eax+148]
	movss	DWORD PTR _M$[esp+180], xmm0

; 59   : 		c.set(a.c); _44_=a._44;

	movss	xmm0, DWORD PTR [eax+164]
	movss	DWORD PTR _M$[esp+196], xmm0

; 516  : 		dest.x = v.x*_11 + v.y*_21 + v.z*_31;

	movss	xmm0, DWORD PTR $T2[esp+136]
	mulss	xmm0, DWORD PTR tv903[esp+136]

; 59   : 		c.set(a.c); _44_=a._44;

	mulss	xmm2, xmm4
; File I:\Vitalya\mine\NSProjectX\xrCore\_vector3d.h

; 24   : 	ICF SelfRef	set(const _vector3<float> &v)			{ x = T(v.x);	y = T(v.y);	z = T(v.z);	return *this;	};

	movss	DWORD PTR _M$[esp+152], xmm4
; File I:\Vitalya\mine\NSProjectX\xrCore\_matrix.h

; 516  : 		dest.x = v.x*_11 + v.y*_21 + v.z*_31;

	addss	xmm2, xmm0
	movaps	xmm0, xmm1
	mulss	xmm0, DWORD PTR $T3[esp+136]
	movaps	xmm1, xmm7
	mulss	xmm1, DWORD PTR $T4[esp+136]

; 517  : 		dest.y = v.x*_12 + v.y*_22 + v.z*_32;

	mulss	xmm7, DWORD PTR $T7[esp+136]
	addss	xmm2, xmm0
	movss	xmm0, DWORD PTR $T5[esp+136]
	mulss	xmm0, DWORD PTR tv903[esp+136]
; File I:\Vitalya\mine\NSProjectX\xrCore\_vector3d.h

; 24   : 	ICF SelfRef	set(const _vector3<float> &v)			{ x = T(v.x);	y = T(v.y);	z = T(v.z);	return *this;	};

	movss	DWORD PTR _vel$[esp+136], xmm2
; File I:\Vitalya\mine\NSProjectX\xrCore\_matrix.h

; 517  : 		dest.y = v.x*_12 + v.y*_22 + v.z*_32;

	addss	xmm1, xmm0
	movss	xmm0, DWORD PTR tv955[esp+136]
	mulss	xmm0, DWORD PTR $T6[esp+136]
	addss	xmm1, xmm0

; 518  : 		dest.z = v.x*_13 + v.y*_23 + v.z*_33;

	movss	xmm0, DWORD PTR $T8[esp+136]
	mulss	xmm0, DWORD PTR tv903[esp+136]
	addss	xmm7, xmm0
; File I:\Vitalya\mine\NSProjectX\xrCore\_vector3d.h

; 24   : 	ICF SelfRef	set(const _vector3<float> &v)			{ x = T(v.x);	y = T(v.y);	z = T(v.z);	return *this;	};

	movss	DWORD PTR _vel$[esp+140], xmm1
; File I:\Vitalya\mine\NSProjectX\xrCore\_matrix.h

; 518  : 		dest.z = v.x*_13 + v.y*_23 + v.z*_33;

	movss	xmm0, DWORD PTR tv955[esp+136]
	mulss	xmm0, DWORD PTR $T9[esp+136]
	addss	xmm7, xmm0
; File I:\Vitalya\mine\NSProjectX\xrCore\_vector3d.h

; 24   : 	ICF SelfRef	set(const _vector3<float> &v)			{ x = T(v.x);	y = T(v.y);	z = T(v.z);	return *this;	};

	movss	xmm0, DWORD PTR [eax+152]
	movss	DWORD PTR $T10[esp+136], xmm0
	movss	xmm0, DWORD PTR [eax+156]
	movss	DWORD PTR $T11[esp+136], xmm0
	movss	xmm0, DWORD PTR [eax+160]
	movss	DWORD PTR _vel$[esp+144], xmm7
	movss	DWORD PTR $T12[esp+136], xmm0
$LN2@StartRelat:
; File I:\Vitalya\mine\NSProjectX\xrCore\_matrix.h

; 499  : 		dest.x = v.x*_11 + v.y*_21 + v.z*_31 + _41;

	movaps	xmm0, xmm3
	movaps	xmm2, xmm5
	mulss	xmm2, DWORD PTR $T2[esp+136]

; 500  : 		dest.y = v.x*_12 + v.y*_22 + v.z*_32 + _42;

	movaps	xmm1, xmm3
; File I:\Vitalya\mine\NSProjectX\layers\xrRender\ParticleGroup.cpp

; 171  :     C->Play					();

	mov	ecx, esi
; File I:\Vitalya\mine\NSProjectX\xrCore\_matrix.h

; 500  : 		dest.y = v.x*_12 + v.y*_22 + v.z*_32 + _42;

	mulss	xmm1, DWORD PTR $T4[esp+136]

; 501  : 		dest.z = v.x*_13 + v.y*_23 + v.z*_33 + _43;

	mulss	xmm3, DWORD PTR $T7[esp+136]
	mulss	xmm0, xmm4
	addss	xmm2, xmm0
	movaps	xmm0, xmm6
	mulss	xmm0, DWORD PTR $T3[esp+136]
	addss	xmm2, xmm0
	movaps	xmm0, xmm5
	mulss	xmm0, DWORD PTR $T5[esp+136]
	mulss	xmm5, DWORD PTR $T8[esp+136]
	addss	xmm2, DWORD PTR $T10[esp+136]
	addss	xmm1, xmm0
	movaps	xmm0, xmm6
	mulss	xmm0, DWORD PTR $T6[esp+136]
	addss	xmm3, xmm5
	mulss	xmm6, DWORD PTR $T9[esp+136]
	addss	xmm1, xmm0
; File I:\Vitalya\mine\NSProjectX\xrCore\_vector3d.h

; 24   : 	ICF SelfRef	set(const _vector3<float> &v)			{ x = T(v.x);	y = T(v.y);	z = T(v.z);	return *this;	};

	movss	DWORD PTR _M$[esp+184], xmm2
; File I:\Vitalya\mine\NSProjectX\xrCore\_matrix.h

; 501  : 		dest.z = v.x*_13 + v.y*_23 + v.z*_33 + _43;

	addss	xmm3, xmm6
	addss	xmm1, DWORD PTR $T11[esp+136]
	addss	xmm3, DWORD PTR $T12[esp+136]
; File I:\Vitalya\mine\NSProjectX\xrCore\_vector3d.h

; 24   : 	ICF SelfRef	set(const _vector3<float> &v)			{ x = T(v.x);	y = T(v.y);	z = T(v.z);	return *this;	};

	movss	DWORD PTR _M$[esp+188], xmm1
	movss	DWORD PTR _M$[esp+192], xmm3
; File I:\Vitalya\mine\NSProjectX\layers\xrRender\ParticleGroup.cpp

; 171  :     C->Play					();

	mov	eax, DWORD PTR [esi]
	call	DWORD PTR [eax+56]

; 172  :     C->UpdateParent			(M,vel,FALSE);

	mov	eax, DWORD PTR [esi]
	lea	ecx, DWORD PTR _vel$[esp+136]
	push	0
	push	ecx
	lea	ecx, DWORD PTR _M$[esp+144]
	push	ecx
	mov	ecx, esi
	call	DWORD PTR [eax+48]
; File C:\Program Files\Microsoft Visual Studio\2022\Community\VC\Tools\MSVC\14.29.30133\include\vector

; 730  :         if (_Mylast != _My_data._Myend) {

	mov	eax, DWORD PTR [edi+8]
; File I:\Vitalya\mine\NSProjectX\layers\xrRender\ParticleGroup.cpp

; 173  :     _children_related.push_back(C);

	lea	ecx, DWORD PTR [edi+4]
	mov	DWORD PTR $T13[esp+136], esi
; File C:\Program Files\Microsoft Visual Studio\2022\Community\VC\Tools\MSVC\14.29.30133\include\vector

; 730  :         if (_Mylast != _My_data._Myend) {

	cmp	eax, DWORD PTR [ecx+8]
	je	SHORT $LN35@StartRelat

; 713  :         _Alty_traits::construct(_Getal(), _Unfancy(_Mylast), _STD forward<_Valty>(_Val)...);

	mov	DWORD PTR [eax], esi

; 714  :         _Orphan_range(_Mylast, _Mylast);
; 715  :         _Ty& _Result = *_Mylast;
; 716  :         ++_Mylast;

	add	DWORD PTR [ecx+4], 4
; File I:\Vitalya\mine\NSProjectX\layers\xrRender\ParticleGroup.cpp

; 174  : }

	pop	edi
	pop	esi
	add	esp, 128				; 00000080H
	ret	12					; 0000000cH
$LN35@StartRelat:
; File C:\Program Files\Microsoft Visual Studio\2022\Community\VC\Tools\MSVC\14.29.30133\include\vector

; 734  :         _Ty& _Result = *_Emplace_reallocate(_Mylast, _STD forward<_Valty>(_Val)...);

	lea	edx, DWORD PTR $T13[esp+136]
	push	edx
	push	eax
	call	??$_Emplace_reallocate@PAVIRender_Visual@@@?$vector@PAVIRender_Visual@@V?$xalloc@PAVIRender_Visual@@@@@std@@QAEPAPAVIRender_Visual@@QAPAV2@$$QAPAV2@@Z ; std::vector<IRender_Visual *,xalloc<IRender_Visual *> >::_Emplace_reallocate<IRender_Visual *>
; File I:\Vitalya\mine\NSProjectX\layers\xrRender\ParticleGroup.cpp

; 174  : }

	pop	edi
	pop	esi
	add	esp, 128				; 00000080H
	ret	12					; 0000000cH
?StartRelatedChild@SItem@CParticleGroup@PS@@QAEXPAVCParticleEffect@3@PBDAAUParticle@PAPI@@@Z ENDP ; PS::CParticleGroup::SItem::StartRelatedChild
_TEXT	ENDS
; Function compile flags: /Ogtpy
; File I:\Vitalya\mine\NSProjectX\layers\xrRender\ParticleGroup.cpp
; File C:\Program Files\Microsoft Visual Studio\2022\Community\VC\Tools\MSVC\14.29.30133\include\vector
; File I:\Vitalya\mine\NSProjectX\layers\xrRender\ParticleGroup.cpp
; File C:\Program Files\Microsoft Visual Studio\2022\Community\VC\Tools\MSVC\14.29.30133\include\vector
; File I:\Vitalya\mine\NSProjectX\layers\xrRender\ParticleGroup.cpp
; File C:\Program Files\Microsoft Visual Studio\2022\Community\VC\Tools\MSVC\14.29.30133\include\vector
; File I:\Vitalya\mine\NSProjectX\layers\xrRender\ParticleGroup.cpp
; File C:\Program Files\Microsoft Visual Studio\2022\Community\VC\Tools\MSVC\14.29.30133\include\vector
; File I:\Vitalya\mine\NSProjectX\layers\xrRender\ParticleGroup.cpp
; File C:\Program Files\Microsoft Visual Studio\2022\Community\VC\Tools\MSVC\14.29.30133\include\vector
; File I:\Vitalya\mine\NSProjectX\layers\xrRender\ParticleGroup.cpp
; File C:\Program Files\Microsoft Visual Studio\2022\Community\VC\Tools\MSVC\14.29.30133\include\vector
; File I:\Vitalya\mine\NSProjectX\layers\xrRender\ParticleGroup.cpp
; File C:\Program Files\Microsoft Visual Studio\2022\Community\VC\Tools\MSVC\14.29.30133\include\vector
; File I:\Vitalya\mine\NSProjectX\layers\xrRender\ParticleGroup.cpp
_TEXT	SEGMENT
_idx$ = 8						; size = 4
?StopRelatedChild@SItem@CParticleGroup@PS@@QAEXI@Z PROC	; PS::CParticleGroup::SItem::StopRelatedChild
; _this$ = ecx
; File C:\Program Files\Microsoft Visual Studio\2022\Community\VC\Tools\MSVC\14.29.30133\include\vector

; 119  :         _Ptr += _Off;

	mov	eax, DWORD PTR _idx$[esp-4]
; File I:\Vitalya\mine\NSProjectX\layers\xrRender\ParticleGroup.cpp

; 176  : {

	push	ebx
	push	esi
	mov	esi, ecx
	push	edi
; File C:\Program Files\Microsoft Visual Studio\2022\Community\VC\Tools\MSVC\14.29.30133\include\vector

; 119  :         _Ptr += _Off;

	lea	ebx, DWORD PTR [eax*4]
; File I:\Vitalya\mine\NSProjectX\layers\xrRender\ParticleGroup.cpp

; 179  :     ((CParticleEffect*)V)->Stop	(TRUE);

	push	1
; File C:\Program Files\Microsoft Visual Studio\2022\Community\VC\Tools\MSVC\14.29.30133\include\vector

; 119  :         _Ptr += _Off;

	mov	edi, DWORD PTR [esi+4]
	add	edi, ebx
; File I:\Vitalya\mine\NSProjectX\layers\xrRender\ParticleGroup.cpp

; 179  :     ((CParticleEffect*)V)->Stop	(TRUE);

	mov	ecx, DWORD PTR [edi]
	mov	eax, DWORD PTR [ecx]
	call	DWORD PTR [eax+60]
; File C:\Program Files\Microsoft Visual Studio\2022\Community\VC\Tools\MSVC\14.29.30133\include\vector

; 730  :         if (_Mylast != _My_data._Myend) {

	mov	edx, DWORD PTR [esi+20]
; File I:\Vitalya\mine\NSProjectX\layers\xrRender\ParticleGroup.cpp

; 180  :     _children_free.push_back	(V);

	lea	ecx, DWORD PTR [esi+16]
; File C:\Program Files\Microsoft Visual Studio\2022\Community\VC\Tools\MSVC\14.29.30133\include\vector

; 730  :         if (_Mylast != _My_data._Myend) {

	cmp	edx, DWORD PTR [ecx+8]
	je	SHORT $LN26@StopRelate

; 713  :         _Alty_traits::construct(_Getal(), _Unfancy(_Mylast), _STD forward<_Valty>(_Val)...);

	mov	eax, DWORD PTR [edi]
	mov	DWORD PTR [edx], eax

; 714  :         _Orphan_range(_Mylast, _Mylast);
; 715  :         _Ty& _Result = *_Mylast;
; 716  :         ++_Mylast;

	add	DWORD PTR [ecx+4], 4

; 731  :             return _Emplace_back_with_unused_capacity(_STD forward<_Valty>(_Val)...);

	jmp	SHORT $LN25@StopRelate
$LN26@StopRelate:

; 732  :         }
; 733  : 
; 734  :         _Ty& _Result = *_Emplace_reallocate(_Mylast, _STD forward<_Valty>(_Val)...);

	push	edi
	push	edx
	call	??$_Emplace_reallocate@ABQAVIRender_Visual@@@?$vector@PAVIRender_Visual@@V?$xalloc@PAVIRender_Visual@@@@@std@@QAEPAPAVIRender_Visual@@QAPAV2@ABQAV2@@Z ; std::vector<IRender_Visual *,xalloc<IRender_Visual *> >::_Emplace_reallocate<IRender_Visual * const &>
$LN25@StopRelate:
; File I:\Vitalya\mine\NSProjectX\layers\xrRender\ParticleGroup.cpp

; 181  :     _children_related[idx]		= _children_related.back();

	mov	eax, DWORD PTR [esi+8]
	mov	ecx, DWORD PTR [esi+4]
; File C:\Program Files\Microsoft Visual Studio\2022\Community\VC\Tools\MSVC\14.29.30133\include\vector

; 1390 :         --_Mylast;

	pop	edi
; File I:\Vitalya\mine\NSProjectX\layers\xrRender\ParticleGroup.cpp

; 181  :     _children_related[idx]		= _children_related.back();

	mov	eax, DWORD PTR [eax-4]
	mov	DWORD PTR [ebx+ecx], eax
; File C:\Program Files\Microsoft Visual Studio\2022\Community\VC\Tools\MSVC\14.29.30133\include\vector

; 1390 :         --_Mylast;

	add	DWORD PTR [esi+8], -4			; fffffffcH
	pop	esi
	pop	ebx
; File I:\Vitalya\mine\NSProjectX\layers\xrRender\ParticleGroup.cpp

; 183  : }

	ret	4
?StopRelatedChild@SItem@CParticleGroup@PS@@QAEXI@Z ENDP	; PS::CParticleGroup::SItem::StopRelatedChild
_TEXT	ENDS
; Function compile flags: /Ogtpy
; File I:\Vitalya\mine\NSProjectX\layers\xrRender\ParticleGroup.cpp
; File I:\Vitalya\mine\NSProjectX\xrCore\_vector3d.h
; File I:\Vitalya\mine\NSProjectX\xrCore\_matrix.h
; File I:\Vitalya\mine\NSProjectX\layers\xrRender\ParticleGroup.cpp
; File I:\Vitalya\mine\NSProjectX\xrCore\_matrix.h
; File I:\Vitalya\mine\NSProjectX\xrCore\_vector3d.h
; File I:\Vitalya\mine\NSProjectX\xrCore\_matrix.h
; File I:\Vitalya\mine\NSProjectX\xrCore\_vector3d.h
; File I:\Vitalya\mine\NSProjectX\layers\xrRender\ParticleGroup.cpp
; File I:\Vitalya\mine\NSProjectX\xrCore\_vector3d.h
; File I:\Vitalya\mine\NSProjectX\xrCore\_flags.h
; File I:\Vitalya\mine\NSProjectX\layers\xrRender\ParticleGroup.cpp
; File I:\Vitalya\mine\NSProjectX\xrCore\_vector3d.h
; File I:\Vitalya\mine\NSProjectX\xrCore\_flags.h
; File I:\Vitalya\mine\NSProjectX\xrCore\_vector3d.h
; File I:\Vitalya\mine\NSProjectX\xrCore\_flags.h
; File I:\Vitalya\mine\NSProjectX\layers\xrRender\ParticleGroup.cpp
; File I:\Vitalya\mine\NSProjectX\xrCore\_vector3d.h
; File I:\Vitalya\mine\NSProjectX\xrCore\_matrix.h
; File I:\Vitalya\mine\NSProjectX\xrCore\_vector3d.h
; File I:\Vitalya\mine\NSProjectX\xrCore\_matrix.h
; File I:\Vitalya\mine\NSProjectX\xrCore\_vector3d.h
; File I:\Vitalya\mine\NSProjectX\xrCore\_matrix.h
; File I:\Vitalya\mine\NSProjectX\xrCore\_vector3d.h
; File I:\Vitalya\mine\NSProjectX\xrCore\_matrix.h
; File I:\Vitalya\mine\NSProjectX\xrCore\_vector3d.h
; File I:\Vitalya\mine\NSProjectX\xrCore\_matrix.h
; File I:\Vitalya\mine\NSProjectX\xrCore\_vector3d.h
; File I:\Vitalya\mine\NSProjectX\xrCore\_matrix.h
; File I:\Vitalya\mine\NSProjectX\xrCore\_vector3d.h
; File I:\Vitalya\mine\NSProjectX\xrCore\_matrix.h
; File I:\Vitalya\mine\NSProjectX\xrCore\_vector3d.h
; File I:\Vitalya\mine\NSProjectX\xrCore\_matrix.h
; File I:\Vitalya\mine\NSProjectX\layers\xrRender\ParticleGroup.cpp
; File I:\Vitalya\mine\NSProjectX\xrCore\_matrix.h
; File I:\Vitalya\mine\NSProjectX\layers\xrRender\ParticleGroup.cpp
; File I:\Vitalya\mine\NSProjectX\xrCore\_matrix.h
; File I:\Vitalya\mine\NSProjectX\xrCore\_vector3d.h
; File I:\Vitalya\mine\NSProjectX\xrCore\_matrix.h
; File I:\Vitalya\mine\NSProjectX\xrCore\_vector3d.h
; File I:\Vitalya\mine\NSProjectX\layers\xrRender\ParticleGroup.cpp
; File C:\Program Files\Microsoft Visual Studio\2022\Community\VC\Tools\MSVC\14.29.30133\include\vector
; File I:\Vitalya\mine\NSProjectX\layers\xrRender\ParticleGroup.cpp
; File C:\Program Files\Microsoft Visual Studio\2022\Community\VC\Tools\MSVC\14.29.30133\include\vector
; File I:\Vitalya\mine\NSProjectX\layers\xrRender\ParticleGroup.cpp
; File C:\Program Files\Microsoft Visual Studio\2022\Community\VC\Tools\MSVC\14.29.30133\include\vector
; File I:\Vitalya\mine\NSProjectX\layers\xrRender\ParticleGroup.cpp
_TEXT	SEGMENT
tv903 = -128						; size = 4
$T3 = -124						; size = 4
$T4 = -120						; size = 4
$T5 = -116						; size = 4
$T6 = -112						; size = 4
$T7 = -108						; size = 4
$T8 = -104						; size = 4
$T9 = -100						; size = 4
$T10 = -96						; size = 4
tv955 = -92						; size = 4
$T11 = -88						; size = 4
$T12 = -84						; size = 4
$T13 = -80						; size = 4
$T14 = -80						; size = 4
_vel$15 = -76						; size = 12
_M$16 = -64						; size = 64
_emitter$ = 8						; size = 4
_nm$ = 12						; size = 4
_m$ = 16						; size = 4
?StartFreeChild@SItem@CParticleGroup@PS@@QAEXPAVCParticleEffect@3@PBDAAUParticle@PAPI@@@Z PROC ; PS::CParticleGroup::SItem::StartFreeChild
; _this$ = ecx

; 185  : {

	push	ebp
	mov	ebp, esp
	and	esp, -8					; fffffff8H
	sub	esp, 128				; 00000080H
	push	ebx
	push	esi

; 186  :     CParticleEffect*C			= static_cast<CParticleEffect*>(RImplementation.model_CreatePE(nm));

	push	DWORD PTR _nm$[ebp]
	mov	ebx, ecx
	call	?model_CreatePE@CRender@@QAEPAVIRender_Visual@@PBD@Z ; CRender::model_CreatePE
	mov	esi, eax

; 187  :     if(!C->IsLooped()){

	mov	ecx, esi
	mov	edx, DWORD PTR [esi]
	call	DWORD PTR [edx+76]
	test	eax, eax
	jne	$LN2@StartFreeC
; File I:\Vitalya\mine\NSProjectX\xrCore\_vector3d.h

; 36   : 	ICF	SelfRef	sub(const Self &a, const Self &v)		{ x=a.x-v.x;y=a.y-v.y;	z=a.z-v.z;		return *this;	};

	movss	xmm0, DWORD PTR __real@41f26c9b
; File I:\Vitalya\mine\NSProjectX\xrCore\_matrix.h

; 72   : 		_11=1; _12=0; _13=0; _14=0;

	xorps	xmm4, xmm4
	movss	xmm2, DWORD PTR __real@3f800000
	mov	DWORD PTR _M$16[esp+140], eax
	mov	DWORD PTR _M$16[esp+144], eax
	mov	DWORD PTR _M$16[esp+148], eax

; 73   : 		_21=0; _22=1; _23=0; _24=0;

	mov	DWORD PTR _M$16[esp+152], eax
	mov	DWORD PTR _M$16[esp+160], eax
	mov	DWORD PTR _M$16[esp+164], eax

; 74   : 		_31=0; _32=0; _33=1; _34=0;

	mov	DWORD PTR _M$16[esp+168], eax
	mov	DWORD PTR _M$16[esp+172], eax
	mov	DWORD PTR _M$16[esp+180], eax
; File I:\Vitalya\mine\NSProjectX\layers\xrRender\ParticleGroup.cpp

; 189  :         Fvector vel; 			vel.sub(m.pos,m.posB); vel.div(fDT_STEP);

	mov	eax, DWORD PTR _m$[ebp]
; File I:\Vitalya\mine\NSProjectX\xrCore\_matrix.h

; 72   : 		_11=1; _12=0; _13=0; _14=0;

	movss	DWORD PTR $T3[esp+136], xmm2
	mov	DWORD PTR _M$16[esp+136], 1065353216	; 3f800000H

; 73   : 		_21=0; _22=1; _23=0; _24=0;

	mov	DWORD PTR _M$16[esp+156], 1065353216	; 3f800000H
; File I:\Vitalya\mine\NSProjectX\xrCore\_vector3d.h

; 36   : 	ICF	SelfRef	sub(const Self &a, const Self &v)		{ x=a.x-v.x;y=a.y-v.y;	z=a.z-v.z;		return *this;	};

	movss	xmm5, DWORD PTR [eax]
	movss	xmm3, DWORD PTR [eax+4]
	movaps	xmm1, xmm5
	subss	xmm1, DWORD PTR [eax+12]
	movss	xmm6, DWORD PTR [eax+8]
	movaps	xmm7, xmm3
	subss	xmm7, DWORD PTR [eax+16]
; File I:\Vitalya\mine\NSProjectX\xrCore\_matrix.h

; 74   : 		_31=0; _32=0; _33=1; _34=0;

	mov	DWORD PTR _M$16[esp+176], 1065353216	; 3f800000H

; 75   : 		_41=0; _42=0; _43=0; _44=1;

	mov	DWORD PTR _M$16[esp+196], 1065353216	; 3f800000H
; File I:\Vitalya\mine\NSProjectX\xrCore\_vector3d.h

; 36   : 	ICF	SelfRef	sub(const Self &a, const Self &v)		{ x=a.x-v.x;y=a.y-v.y;	z=a.z-v.z;		return *this;	};

	mulss	xmm1, xmm0

; 45   : 	ICF SelfRef	div(T s)								{ x/=s;		y/=s;    z/=s;				return *this;	};

	mulss	xmm7, xmm0

; 36   : 	ICF	SelfRef	sub(const Self &a, const Self &v)		{ x=a.x-v.x;y=a.y-v.y;	z=a.z-v.z;		return *this;	};

	movss	DWORD PTR tv903[esp+136], xmm1

; 45   : 	ICF SelfRef	div(T s)								{ x/=s;		y/=s;    z/=s;				return *this;	};

	movss	DWORD PTR _vel$15[esp+136], xmm1

; 36   : 	ICF	SelfRef	sub(const Self &a, const Self &v)		{ x=a.x-v.x;y=a.y-v.y;	z=a.z-v.z;		return *this;	};

	movaps	xmm1, xmm6
	subss	xmm1, DWORD PTR [eax+20]
; File I:\Vitalya\mine\NSProjectX\layers\xrRender\ParticleGroup.cpp

; 190  :         if (emitter->m_RT_Flags.is(CParticleEffect::flRT_XFORM)){

	mov	eax, DWORD PTR _emitter$[ebp]
; File I:\Vitalya\mine\NSProjectX\xrCore\_vector3d.h

; 45   : 	ICF SelfRef	div(T s)								{ x/=s;		y/=s;    z/=s;				return *this;	};

	movss	DWORD PTR _vel$15[esp+140], xmm7
; File I:\Vitalya\mine\NSProjectX\xrCore\_flags.h

; 23   : 	IC 	BOOL	is		(const T mask)						const	{ return mask==(flags&mask);			}

	movss	DWORD PTR $T4[esp+136], xmm4
	movss	DWORD PTR $T11[esp+136], xmm4
; File I:\Vitalya\mine\NSProjectX\layers\xrRender\ParticleGroup.cpp

; 190  :         if (emitter->m_RT_Flags.is(CParticleEffect::flRT_XFORM)){

	test	BYTE PTR [eax+176], 4
; File I:\Vitalya\mine\NSProjectX\xrCore\_vector3d.h

; 45   : 	ICF SelfRef	div(T s)								{ x/=s;		y/=s;    z/=s;				return *this;	};

	mulss	xmm1, xmm0
; File I:\Vitalya\mine\NSProjectX\xrCore\_flags.h

; 23   : 	IC 	BOOL	is		(const T mask)						const	{ return mask==(flags&mask);			}

	movss	DWORD PTR $T5[esp+136], xmm2
	movss	DWORD PTR $T6[esp+136], xmm4
; File I:\Vitalya\mine\NSProjectX\xrCore\_vector3d.h

; 45   : 	ICF SelfRef	div(T s)								{ x/=s;		y/=s;    z/=s;				return *this;	};

	movss	DWORD PTR tv955[esp+136], xmm1
	movss	DWORD PTR _vel$15[esp+144], xmm1
; File I:\Vitalya\mine\NSProjectX\xrCore\_flags.h

; 23   : 	IC 	BOOL	is		(const T mask)						const	{ return mask==(flags&mask);			}

	movss	DWORD PTR $T7[esp+136], xmm4
	movss	DWORD PTR $T12[esp+136], xmm4
	movss	DWORD PTR $T8[esp+136], xmm4
	movss	DWORD PTR $T9[esp+136], xmm4
	movss	DWORD PTR $T10[esp+136], xmm2
	movss	DWORD PTR $T13[esp+136], xmm4
; File I:\Vitalya\mine\NSProjectX\layers\xrRender\ParticleGroup.cpp

; 190  :         if (emitter->m_RT_Flags.is(CParticleEffect::flRT_XFORM)){

	je	$LN4@StartFreeC
; File I:\Vitalya\mine\NSProjectX\xrCore\_vector3d.h

; 24   : 	ICF SelfRef	set(const _vector3<float> &v)			{ x = T(v.x);	y = T(v.y);	z = T(v.z);	return *this;	};

	movss	xmm0, DWORD PTR [eax+104]
; File I:\Vitalya\mine\NSProjectX\xrCore\_matrix.h

; 59   : 		c.set(a.c); _44_=a._44;

	movaps	xmm2, xmm7
; File I:\Vitalya\mine\NSProjectX\xrCore\_vector3d.h

; 24   : 	ICF SelfRef	set(const _vector3<float> &v)			{ x = T(v.x);	y = T(v.y);	z = T(v.z);	return *this;	};

	movss	DWORD PTR $T3[esp+136], xmm0
	movss	DWORD PTR _M$16[esp+136], xmm0
	movss	xmm0, DWORD PTR [eax+108]
	movss	DWORD PTR $T6[esp+136], xmm0
	movss	DWORD PTR _M$16[esp+140], xmm0
	movss	xmm0, DWORD PTR [eax+112]
	movss	DWORD PTR $T9[esp+136], xmm0
	movss	DWORD PTR _M$16[esp+144], xmm0
; File I:\Vitalya\mine\NSProjectX\xrCore\_matrix.h

; 56   : 		i.set(a.i); _14_=a._14;

	movss	xmm0, DWORD PTR [eax+116]
	movss	DWORD PTR _M$16[esp+148], xmm0
; File I:\Vitalya\mine\NSProjectX\xrCore\_vector3d.h

; 24   : 	ICF SelfRef	set(const _vector3<float> &v)			{ x = T(v.x);	y = T(v.y);	z = T(v.z);	return *this;	};

	movss	xmm0, DWORD PTR [eax+124]
	movss	DWORD PTR $T5[esp+136], xmm0
	movss	DWORD PTR _M$16[esp+156], xmm0
	movss	xmm0, DWORD PTR [eax+128]
	movss	DWORD PTR $T8[esp+136], xmm0
	movss	DWORD PTR _M$16[esp+160], xmm0
; File I:\Vitalya\mine\NSProjectX\xrCore\_matrix.h

; 57   : 		j.set(a.j); _24_=a._24;

	movss	xmm0, DWORD PTR [eax+132]
	movss	DWORD PTR _M$16[esp+164], xmm0
; File I:\Vitalya\mine\NSProjectX\xrCore\_vector3d.h

; 24   : 	ICF SelfRef	set(const _vector3<float> &v)			{ x = T(v.x);	y = T(v.y);	z = T(v.z);	return *this;	};

	movss	xmm0, DWORD PTR [eax+136]
	movss	xmm4, DWORD PTR [eax+120]
	movss	DWORD PTR $T4[esp+136], xmm0
	movss	DWORD PTR _M$16[esp+168], xmm0
	movss	xmm0, DWORD PTR [eax+140]
	movss	DWORD PTR $T7[esp+136], xmm0
	movss	DWORD PTR _M$16[esp+172], xmm0
	movss	xmm0, DWORD PTR [eax+144]
	movss	DWORD PTR $T10[esp+136], xmm0
	movss	DWORD PTR _M$16[esp+176], xmm0
; File I:\Vitalya\mine\NSProjectX\xrCore\_matrix.h

; 58   : 		k.set(a.k); _34_=a._34;

	movss	xmm0, DWORD PTR [eax+148]
	movss	DWORD PTR _M$16[esp+180], xmm0

; 59   : 		c.set(a.c); _44_=a._44;

	movss	xmm0, DWORD PTR [eax+164]
	movss	DWORD PTR _M$16[esp+196], xmm0

; 516  : 		dest.x = v.x*_11 + v.y*_21 + v.z*_31;

	movss	xmm0, DWORD PTR $T3[esp+136]
	mulss	xmm0, DWORD PTR tv903[esp+136]

; 59   : 		c.set(a.c); _44_=a._44;

	mulss	xmm2, xmm4
; File I:\Vitalya\mine\NSProjectX\xrCore\_vector3d.h

; 24   : 	ICF SelfRef	set(const _vector3<float> &v)			{ x = T(v.x);	y = T(v.y);	z = T(v.z);	return *this;	};

	movss	DWORD PTR _M$16[esp+152], xmm4
; File I:\Vitalya\mine\NSProjectX\xrCore\_matrix.h

; 516  : 		dest.x = v.x*_11 + v.y*_21 + v.z*_31;

	addss	xmm2, xmm0
	movaps	xmm0, xmm1
	mulss	xmm0, DWORD PTR $T4[esp+136]
	movaps	xmm1, xmm7
	mulss	xmm1, DWORD PTR $T5[esp+136]

; 517  : 		dest.y = v.x*_12 + v.y*_22 + v.z*_32;

	mulss	xmm7, DWORD PTR $T8[esp+136]
	addss	xmm2, xmm0
	movss	xmm0, DWORD PTR $T6[esp+136]
	mulss	xmm0, DWORD PTR tv903[esp+136]
; File I:\Vitalya\mine\NSProjectX\xrCore\_vector3d.h

; 24   : 	ICF SelfRef	set(const _vector3<float> &v)			{ x = T(v.x);	y = T(v.y);	z = T(v.z);	return *this;	};

	movss	DWORD PTR _vel$15[esp+136], xmm2
; File I:\Vitalya\mine\NSProjectX\xrCore\_matrix.h

; 517  : 		dest.y = v.x*_12 + v.y*_22 + v.z*_32;

	addss	xmm1, xmm0
	movss	xmm0, DWORD PTR tv955[esp+136]
	mulss	xmm0, DWORD PTR $T7[esp+136]
	addss	xmm1, xmm0

; 518  : 		dest.z = v.x*_13 + v.y*_23 + v.z*_33;

	movss	xmm0, DWORD PTR $T9[esp+136]
	mulss	xmm0, DWORD PTR tv903[esp+136]
	addss	xmm7, xmm0
; File I:\Vitalya\mine\NSProjectX\xrCore\_vector3d.h

; 24   : 	ICF SelfRef	set(const _vector3<float> &v)			{ x = T(v.x);	y = T(v.y);	z = T(v.z);	return *this;	};

	movss	DWORD PTR _vel$15[esp+140], xmm1
; File I:\Vitalya\mine\NSProjectX\xrCore\_matrix.h

; 518  : 		dest.z = v.x*_13 + v.y*_23 + v.z*_33;

	movss	xmm0, DWORD PTR tv955[esp+136]
	mulss	xmm0, DWORD PTR $T10[esp+136]
	addss	xmm7, xmm0
; File I:\Vitalya\mine\NSProjectX\xrCore\_vector3d.h

; 24   : 	ICF SelfRef	set(const _vector3<float> &v)			{ x = T(v.x);	y = T(v.y);	z = T(v.z);	return *this;	};

	movss	xmm0, DWORD PTR [eax+152]
	movss	DWORD PTR $T11[esp+136], xmm0
	movss	xmm0, DWORD PTR [eax+156]
	movss	DWORD PTR $T12[esp+136], xmm0
	movss	xmm0, DWORD PTR [eax+160]
	movss	DWORD PTR _vel$15[esp+144], xmm7
	movss	DWORD PTR $T13[esp+136], xmm0
$LN4@StartFreeC:
; File I:\Vitalya\mine\NSProjectX\xrCore\_matrix.h

; 499  : 		dest.x = v.x*_11 + v.y*_21 + v.z*_31 + _41;

	movaps	xmm2, xmm3
; File I:\Vitalya\mine\NSProjectX\layers\xrRender\ParticleGroup.cpp

; 197  :         C->Play					();

	mov	eax, DWORD PTR [esi]
; File I:\Vitalya\mine\NSProjectX\xrCore\_matrix.h

; 499  : 		dest.x = v.x*_11 + v.y*_21 + v.z*_31 + _41;

	movaps	xmm0, xmm5
	mulss	xmm2, xmm4
; File I:\Vitalya\mine\NSProjectX\layers\xrRender\ParticleGroup.cpp

; 197  :         C->Play					();

	mov	ecx, esi
; File I:\Vitalya\mine\NSProjectX\xrCore\_matrix.h

; 499  : 		dest.x = v.x*_11 + v.y*_21 + v.z*_31 + _41;

	mulss	xmm0, DWORD PTR $T3[esp+136]

; 500  : 		dest.y = v.x*_12 + v.y*_22 + v.z*_32 + _42;

	movaps	xmm1, xmm3
	mulss	xmm1, DWORD PTR $T5[esp+136]

; 501  : 		dest.z = v.x*_13 + v.y*_23 + v.z*_33 + _43;

	mulss	xmm3, DWORD PTR $T8[esp+136]
	addss	xmm2, xmm0
	movaps	xmm0, xmm6
	mulss	xmm0, DWORD PTR $T4[esp+136]
	addss	xmm2, xmm0
	movaps	xmm0, xmm5
	mulss	xmm0, DWORD PTR $T6[esp+136]
	mulss	xmm5, DWORD PTR $T9[esp+136]
	addss	xmm2, DWORD PTR $T11[esp+136]
	addss	xmm1, xmm0
	movaps	xmm0, xmm6
	mulss	xmm0, DWORD PTR $T7[esp+136]
	addss	xmm3, xmm5
	mulss	xmm6, DWORD PTR $T10[esp+136]
	addss	xmm1, xmm0
; File I:\Vitalya\mine\NSProjectX\xrCore\_vector3d.h

; 24   : 	ICF SelfRef	set(const _vector3<float> &v)			{ x = T(v.x);	y = T(v.y);	z = T(v.z);	return *this;	};

	movss	DWORD PTR _M$16[esp+184], xmm2
; File I:\Vitalya\mine\NSProjectX\xrCore\_matrix.h

; 501  : 		dest.z = v.x*_13 + v.y*_23 + v.z*_33 + _43;

	addss	xmm3, xmm6
	addss	xmm1, DWORD PTR $T12[esp+136]
	addss	xmm3, DWORD PTR $T13[esp+136]
; File I:\Vitalya\mine\NSProjectX\xrCore\_vector3d.h

; 24   : 	ICF SelfRef	set(const _vector3<float> &v)			{ x = T(v.x);	y = T(v.y);	z = T(v.z);	return *this;	};

	movss	DWORD PTR _M$16[esp+188], xmm1
	movss	DWORD PTR _M$16[esp+192], xmm3
; File I:\Vitalya\mine\NSProjectX\layers\xrRender\ParticleGroup.cpp

; 197  :         C->Play					();

	call	DWORD PTR [eax+56]

; 198  :         C->UpdateParent			(M,vel,FALSE);

	mov	eax, DWORD PTR [esi]
	lea	ecx, DWORD PTR _vel$15[esp+136]
	push	0
	push	ecx
	lea	ecx, DWORD PTR _M$16[esp+144]
	push	ecx
	mov	ecx, esi
	call	DWORD PTR [eax+48]
; File C:\Program Files\Microsoft Visual Studio\2022\Community\VC\Tools\MSVC\14.29.30133\include\vector

; 730  :         if (_Mylast != _My_data._Myend) {

	mov	eax, DWORD PTR [ebx+20]
; File I:\Vitalya\mine\NSProjectX\layers\xrRender\ParticleGroup.cpp

; 199  :         _children_free.push_back(C);

	lea	ecx, DWORD PTR [ebx+16]
	mov	DWORD PTR $T14[esp+136], esi
; File C:\Program Files\Microsoft Visual Studio\2022\Community\VC\Tools\MSVC\14.29.30133\include\vector

; 730  :         if (_Mylast != _My_data._Myend) {

	cmp	eax, DWORD PTR [ecx+8]
	je	SHORT $LN37@StartFreeC

; 713  :         _Alty_traits::construct(_Getal(), _Unfancy(_Mylast), _STD forward<_Valty>(_Val)...);

	mov	DWORD PTR [eax], esi

; 714  :         _Orphan_range(_Mylast, _Mylast);
; 715  :         _Ty& _Result = *_Mylast;
; 716  :         ++_Mylast;

	add	DWORD PTR [ecx+4], 4
; File I:\Vitalya\mine\NSProjectX\layers\xrRender\ParticleGroup.cpp

; 207  : }

	pop	esi
	pop	ebx
	mov	esp, ebp
	pop	ebp
	ret	12					; 0000000cH
$LN37@StartFreeC:
; File C:\Program Files\Microsoft Visual Studio\2022\Community\VC\Tools\MSVC\14.29.30133\include\vector

; 734  :         _Ty& _Result = *_Emplace_reallocate(_Mylast, _STD forward<_Valty>(_Val)...);

	lea	edx, DWORD PTR $T14[esp+136]
	push	edx
	push	eax
	call	??$_Emplace_reallocate@PAVIRender_Visual@@@?$vector@PAVIRender_Visual@@V?$xalloc@PAVIRender_Visual@@@@@std@@QAEPAPAVIRender_Visual@@QAPAV2@$$QAPAV2@@Z ; std::vector<IRender_Visual *,xalloc<IRender_Visual *> >::_Emplace_reallocate<IRender_Visual *>
; File I:\Vitalya\mine\NSProjectX\layers\xrRender\ParticleGroup.cpp

; 207  : }

	pop	esi
	pop	ebx
	mov	esp, ebp
	pop	ebp
	ret	12					; 0000000cH
$LN2@StartFreeC:

; 200  :     }else{
; 201  : #ifdef _EDITOR        
; 202  :         Msg			("!Can't use looped effect '%s' as 'On Birth' child for group.",nm);
; 203  : #else
; 204  :         Debug.fatal	(DEBUG_INFO,"Can't use looped effect '%s' as 'On Birth' child for group.",nm);

	push	DWORD PTR _nm$[ebp]
	push	OFFSET ??_C@_0DM@JNADIGEF@Can?8t?5use?5looped?5effect?5?8?$CFs?8?5as@
	push	OFFSET ??_C@_0CK@MIIKJOJA@PS?3?3CParticleGroup?3?3SItem?3?3Star@
	push	204					; 000000ccH
	push	OFFSET ??_C@_0DN@BMEFJHKE@I?3?2Vitalya?2mine?2NSProjectX?2laye@
	push	DWORD PTR __imp_?Debug@@3VxrDebug@@A
	call	DWORD PTR __imp_?fatal@xrDebug@@QAAXPBDH00ZZ
	add	esp, 24					; 00000018H

; 207  : }

	pop	esi
	pop	ebx
	mov	esp, ebp
	pop	ebp
	ret	12					; 0000000cH
?StartFreeChild@SItem@CParticleGroup@PS@@QAEXPAVCParticleEffect@3@PBDAAUParticle@PAPI@@@Z ENDP ; PS::CParticleGroup::SItem::StartFreeChild
_TEXT	ENDS
; Function compile flags: /Ogtpy
; File I:\Vitalya\mine\NSProjectX\layers\xrRender\ParticleGroup.cpp
_TEXT	SEGMENT
?Play@SItem@CParticleGroup@PS@@QAEXXZ PROC		; PS::CParticleGroup::SItem::Play
; _this$ = ecx

; 210  :     CParticleEffect* E	= static_cast<CParticleEffect*>(_effect);

	mov	ecx, DWORD PTR [ecx]

; 211  :     if (E) E->Play();

	test	ecx, ecx
	je	SHORT $LN2@Play
	mov	eax, DWORD PTR [ecx]
	jmp	DWORD PTR [eax+56]
$LN2@Play:

; 212  : }

	ret	0
?Play@SItem@CParticleGroup@PS@@QAEXXZ ENDP		; PS::CParticleGroup::SItem::Play
_TEXT	ENDS
; Function compile flags: /Ogtpy
; File I:\Vitalya\mine\NSProjectX\layers\xrRender\ParticleGroup.cpp
; File C:\Program Files\Microsoft Visual Studio\2022\Community\VC\Tools\MSVC\14.29.30133\include\vector
; File I:\Vitalya\mine\NSProjectX\layers\xrRender\ParticleGroup.cpp
; File C:\Program Files\Microsoft Visual Studio\2022\Community\VC\Tools\MSVC\14.29.30133\include\vector
; File I:\Vitalya\mine\NSProjectX\layers\xrRender\ParticleGroup.cpp
; File C:\Program Files\Microsoft Visual Studio\2022\Community\VC\Tools\MSVC\14.29.30133\include\vector
; File I:\Vitalya\mine\NSProjectX\layers\xrRender\ParticleGroup.cpp
; File C:\Program Files\Microsoft Visual Studio\2022\Community\VC\Tools\MSVC\14.29.30133\include\vector
; File I:\Vitalya\mine\NSProjectX\layers\xrRender\ParticleGroup.cpp
; File C:\Program Files\Microsoft Visual Studio\2022\Community\VC\Tools\MSVC\14.29.30133\include\vector
; File I:\Vitalya\mine\NSProjectX\layers\xrRender\ParticleGroup.cpp
; File C:\Program Files\Microsoft Visual Studio\2022\Community\VC\Tools\MSVC\14.29.30133\include\vector
; File I:\Vitalya\mine\NSProjectX\layers\xrRender\ParticleGroup.cpp
; File C:\Program Files\Microsoft Visual Studio\2022\Community\VC\Tools\MSVC\14.29.30133\include\vector
; File I:\Vitalya\mine\NSProjectX\layers\xrRender\ParticleGroup.cpp
; File C:\Program Files\Microsoft Visual Studio\2022\Community\VC\Tools\MSVC\14.29.30133\include\vector
; File I:\Vitalya\mine\NSProjectX\layers\xrRender\ParticleGroup.cpp
_TEXT	SEGMENT
_def_stop$ = 8						; size = 4
?Stop@SItem@CParticleGroup@PS@@QAEXH@Z PROC		; PS::CParticleGroup::SItem::Stop
; _this$ = ecx

; 214  : {

	push	ebx

; 215  : 	// stop all effects
; 216  :     CParticleEffect* E	= static_cast<CParticleEffect*>(_effect);
; 217  :     if (E) E->Stop(def_stop);

	mov	ebx, DWORD PTR _def_stop$[esp]
	push	esi
	push	edi
	mov	edi, ecx
	mov	ecx, DWORD PTR [edi]
	test	ecx, ecx
	je	SHORT $LN14@Stop
	mov	eax, DWORD PTR [ecx]
	push	ebx
	call	DWORD PTR [eax+60]
$LN14@Stop:

; 219  :     for (it=_children_related.begin(); it!=_children_related.end(); it++)

	mov	esi, DWORD PTR [edi+4]
; File C:\Program Files\Microsoft Visual Studio\2022\Community\VC\Tools\MSVC\14.29.30133\include\vector

; 150  :         return _Ptr == _Right._Ptr;

	cmp	esi, DWORD PTR [edi+8]
; File I:\Vitalya\mine\NSProjectX\layers\xrRender\ParticleGroup.cpp

; 219  :     for (it=_children_related.begin(); it!=_children_related.end(); it++)

	je	SHORT $LN3@Stop
	npad	3
$LL4@Stop:

; 220  :         static_cast<CParticleEffect*>(*it)->Stop(def_stop);

	mov	ecx, DWORD PTR [esi]
	push	ebx
	mov	eax, DWORD PTR [ecx]
	call	DWORD PTR [eax+60]
; File C:\Program Files\Microsoft Visual Studio\2022\Community\VC\Tools\MSVC\14.29.30133\include\vector

; 74   :         ++_Ptr;

	add	esi, 4

; 150  :         return _Ptr == _Right._Ptr;

	cmp	esi, DWORD PTR [edi+8]
; File I:\Vitalya\mine\NSProjectX\layers\xrRender\ParticleGroup.cpp

; 219  :     for (it=_children_related.begin(); it!=_children_related.end(); it++)

	jne	SHORT $LL4@Stop
$LN3@Stop:

; 221  :     for (it=_children_free.begin(); it!=_children_free.end(); it++)

	mov	esi, DWORD PTR [edi+16]
; File C:\Program Files\Microsoft Visual Studio\2022\Community\VC\Tools\MSVC\14.29.30133\include\vector

; 150  :         return _Ptr == _Right._Ptr;

	mov	eax, DWORD PTR [edi+20]
	cmp	esi, eax
; File I:\Vitalya\mine\NSProjectX\layers\xrRender\ParticleGroup.cpp

; 221  :     for (it=_children_free.begin(); it!=_children_free.end(); it++)

	je	SHORT $LN6@Stop
	npad	6
$LL7@Stop:

; 222  :         static_cast<CParticleEffect*>(*it)->Stop(def_stop);

	mov	ecx, DWORD PTR [esi]
	push	ebx
	mov	eax, DWORD PTR [ecx]
	call	DWORD PTR [eax+60]
; File C:\Program Files\Microsoft Visual Studio\2022\Community\VC\Tools\MSVC\14.29.30133\include\vector

; 150  :         return _Ptr == _Right._Ptr;

	mov	eax, DWORD PTR [edi+20]

; 74   :         ++_Ptr;

	add	esi, 4

; 150  :         return _Ptr == _Right._Ptr;

	cmp	esi, eax
; File I:\Vitalya\mine\NSProjectX\layers\xrRender\ParticleGroup.cpp

; 221  :     for (it=_children_free.begin(); it!=_children_free.end(); it++)

	jne	SHORT $LL7@Stop
$LN6@Stop:

; 223  :     // and delete if !deffered
; 224  :     if (!def_stop){

	test	ebx, ebx
	jne	SHORT $LN15@Stop

; 225  :         for (it=_children_related.begin(); it!=_children_related.end(); it++)	::Render->model_Delete(*it);

	mov	esi, DWORD PTR [edi+4]
; File C:\Program Files\Microsoft Visual Studio\2022\Community\VC\Tools\MSVC\14.29.30133\include\vector

; 150  :         return _Ptr == _Right._Ptr;

	cmp	esi, DWORD PTR [edi+8]
; File I:\Vitalya\mine\NSProjectX\layers\xrRender\ParticleGroup.cpp

; 225  :         for (it=_children_related.begin(); it!=_children_related.end(); it++)	::Render->model_Delete(*it);

	je	SHORT $LN9@Stop
	npad	2
$LL10@Stop:
	mov	eax, DWORD PTR __imp_?Render@@3PAVIRender_interface@@A
	push	0
	push	esi
	mov	ecx, DWORD PTR [eax]
	mov	eax, DWORD PTR [ecx]
	call	DWORD PTR [eax+172]
; File C:\Program Files\Microsoft Visual Studio\2022\Community\VC\Tools\MSVC\14.29.30133\include\vector

; 74   :         ++_Ptr;

	add	esi, 4

; 150  :         return _Ptr == _Right._Ptr;

	cmp	esi, DWORD PTR [edi+8]
; File I:\Vitalya\mine\NSProjectX\layers\xrRender\ParticleGroup.cpp

; 225  :         for (it=_children_related.begin(); it!=_children_related.end(); it++)	::Render->model_Delete(*it);

	jne	SHORT $LL10@Stop
	mov	eax, DWORD PTR [edi+20]
$LN9@Stop:

; 226  :         for (it=_children_free.begin(); it!=_children_free.end(); it++)			::Render->model_Delete(*it);

	mov	esi, DWORD PTR [edi+16]
; File C:\Program Files\Microsoft Visual Studio\2022\Community\VC\Tools\MSVC\14.29.30133\include\vector

; 150  :         return _Ptr == _Right._Ptr;

	cmp	esi, eax
; File I:\Vitalya\mine\NSProjectX\layers\xrRender\ParticleGroup.cpp

; 226  :         for (it=_children_free.begin(); it!=_children_free.end(); it++)			::Render->model_Delete(*it);

	je	SHORT $LN12@Stop
$LL13@Stop:
	mov	eax, DWORD PTR __imp_?Render@@3PAVIRender_interface@@A
	push	0
	push	esi
	mov	ecx, DWORD PTR [eax]
	mov	eax, DWORD PTR [ecx]
	call	DWORD PTR [eax+172]
; File C:\Program Files\Microsoft Visual Studio\2022\Community\VC\Tools\MSVC\14.29.30133\include\vector

; 74   :         ++_Ptr;

	add	esi, 4

; 150  :         return _Ptr == _Right._Ptr;

	cmp	esi, DWORD PTR [edi+20]
; File I:\Vitalya\mine\NSProjectX\layers\xrRender\ParticleGroup.cpp

; 226  :         for (it=_children_free.begin(); it!=_children_free.end(); it++)			::Render->model_Delete(*it);

	jne	SHORT $LL13@Stop
$LN12@Stop:

; 227  :         _children_related.clear();

	mov	eax, DWORD PTR [edi+4]
	mov	DWORD PTR [edi+8], eax

; 228  :         _children_free.clear	();

	mov	eax, DWORD PTR [edi+16]
	mov	DWORD PTR [edi+20], eax
$LN15@Stop:

; 229  :     }
; 230  : }

	pop	edi
	pop	esi
	pop	ebx
	ret	4
?Stop@SItem@CParticleGroup@PS@@QAEXH@Z ENDP		; PS::CParticleGroup::SItem::Stop
_TEXT	ENDS
; Function compile flags: /Ogtpy
; File C:\Program Files\Microsoft Visual Studio\2022\Community\VC\Tools\MSVC\14.29.30133\include\vector
;	COMDAT ??0?$_Vector_iterator@V?$_Vector_val@U?$_Simple_types@PAVIRender_Visual@@@std@@@std@@@std@@QAE@XZ
_TEXT	SEGMENT
??0?$_Vector_iterator@V?$_Vector_val@U?$_Simple_types@PAVIRender_Visual@@@std@@@std@@@std@@QAE@XZ PROC ; std::_Vector_iterator<std::_Vector_val<std::_Simple_types<IRender_Visual *> > >::_Vector_iterator<std::_Vector_val<std::_Simple_types<IRender_Visual *> > >, COMDAT
; _this$ = ecx

; 39   :     _CONSTEXPR20_CONTAINER _Vector_const_iterator() noexcept : _Ptr() {}

	mov	DWORD PTR [ecx], 0
	mov	eax, ecx
	ret	0
??0?$_Vector_iterator@V?$_Vector_val@U?$_Simple_types@PAVIRender_Visual@@@std@@@std@@@std@@QAE@XZ ENDP ; std::_Vector_iterator<std::_Vector_val<std::_Simple_types<IRender_Visual *> > >::_Vector_iterator<std::_Vector_val<std::_Simple_types<IRender_Visual *> > >
_TEXT	ENDS
; Function compile flags: /Ogtpy
; File I:\Vitalya\mine\NSProjectX\layers\xrRender\ParticleGroup.cpp
_TEXT	SEGMENT
?IsPlaying@SItem@CParticleGroup@PS@@QAEHXZ PROC		; PS::CParticleGroup::SItem::IsPlaying
; _this$ = ecx

; 233  :     CParticleEffect* E	= static_cast<CParticleEffect*>(_effect);

	mov	ecx, DWORD PTR [ecx]

; 234  :     return E?E->IsPlaying():FALSE;

	test	ecx, ecx
	je	SHORT $LN3@IsPlaying
	mov	eax, DWORD PTR [ecx]
	jmp	DWORD PTR [eax+64]
$LN3@IsPlaying:
	xor	eax, eax

; 235  : }

	ret	0
?IsPlaying@SItem@CParticleGroup@PS@@QAEHXZ ENDP		; PS::CParticleGroup::SItem::IsPlaying
_TEXT	ENDS
; Function compile flags: /Ogtpy
; File I:\Vitalya\mine\NSProjectX\layers\xrRender\ParticleGroup.cpp
_TEXT	SEGMENT
_m$ = 8							; size = 4
_velocity$ = 12						; size = 4
_bXFORM$ = 16						; size = 4
?UpdateParent@SItem@CParticleGroup@PS@@QAEXABU?$_matrix@M@@ABU?$_vector3@M@@H@Z PROC ; PS::CParticleGroup::SItem::UpdateParent
; _this$ = ecx

; 238  :     CParticleEffect* E	= static_cast<CParticleEffect*>(_effect);

	mov	ecx, DWORD PTR [ecx]

; 239  :     if (E) E->UpdateParent(m,velocity,bXFORM);

	test	ecx, ecx
	je	SHORT $LN2@UpdatePare
	mov	eax, DWORD PTR [ecx]
	jmp	DWORD PTR [eax+48]
$LN2@UpdatePare:

; 240  : }

	ret	12					; 0000000cH
?UpdateParent@SItem@CParticleGroup@PS@@QAEXABU?$_matrix@M@@ABU?$_vector3@M@@H@Z ENDP ; PS::CParticleGroup::SItem::UpdateParent
_TEXT	ENDS
; Function compile flags: /Ogtpy
; File I:\Vitalya\mine\NSProjectX\layers\xrRender\ParticleGroup.cpp
; File C:\Program Files\Microsoft Visual Studio\2022\Community\VC\Tools\MSVC\14.29.30133\include\vector
; File I:\Vitalya\mine\NSProjectX\layers\xrRender\ParticleGroup.cpp
; File C:\Program Files\Microsoft Visual Studio\2022\Community\VC\Tools\MSVC\14.29.30133\include\vector
; File I:\Vitalya\mine\NSProjectX\layers\xrRender\ParticleGroup.cpp
; File C:\Program Files\Microsoft Visual Studio\2022\Community\VC\Tools\MSVC\14.29.30133\include\vector
; File I:\Vitalya\mine\NSProjectX\layers\xrRender\ParticleGroup.cpp
; File I:\Vitalya\mine\NSProjectX\xrCore\_flags.h
; File I:\Vitalya\mine\NSProjectX\layers\xrRender\ParticleGroup.cpp
; File I:\Vitalya\mine\NSProjectX\xrCore\xrstring.h
; File I:\Vitalya\mine\NSProjectX\layers\xrRender\ParticleGroup.cpp
; File C:\Program Files\Microsoft Visual Studio\2022\Community\VC\Tools\MSVC\14.29.30133\include\vector
; File I:\Vitalya\mine\NSProjectX\layers\xrRender\ParticleGroup.cpp
; File C:\Program Files\Microsoft Visual Studio\2022\Community\VC\Tools\MSVC\14.29.30133\include\vector
; File I:\Vitalya\mine\NSProjectX\layers\xrRender\ParticleGroup.cpp
; File I:\Vitalya\mine\NSProjectX\xrCore\xrstring.h
; File I:\Vitalya\mine\NSProjectX\layers\xrRender\ParticleGroup.cpp
; File C:\Program Files\Microsoft Visual Studio\2022\Community\VC\Tools\MSVC\14.29.30133\include\vector
; File I:\Vitalya\mine\NSProjectX\layers\xrRender\ParticleGroup.cpp
; File C:\Program Files\Microsoft Visual Studio\2022\Community\VC\Tools\MSVC\14.29.30133\include\vector
; File I:\Vitalya\mine\NSProjectX\layers\xrRender\ParticleGroup.cpp
_TEXT	SEGMENT
_PE$1$ = -4						; size = 4
_owner$ = 8						; size = 4
_param$ = 12						; size = 4
_m$ = 16						; size = 4
_idx$ = 20						; size = 4
?OnGroupParticleBirth@@YAXPAXIAAUParticle@PAPI@@I@Z PROC ; OnGroupParticleBirth

; 243  : {

	push	ebp
	mov	ebp, esp
	and	esp, -8					; fffffff8H
	push	ecx
	push	ebx
; File C:\Program Files\Microsoft Visual Studio\2022\Community\VC\Tools\MSVC\14.29.30133\include\vector

; 1463 :         return iterator(_My_data._Myfirst, _STD addressof(_My_data));

	mov	ebx, DWORD PTR _owner$[ebp]
; File I:\Vitalya\mine\NSProjectX\layers\xrRender\ParticleGroup.cpp

; 243  : {

	push	esi
; File C:\Program Files\Microsoft Visual Studio\2022\Community\VC\Tools\MSVC\14.29.30133\include\vector

; 119  :         _Ptr += _Off;

	mov	esi, DWORD PTR _param$[ebp]
; File I:\Vitalya\mine\NSProjectX\layers\xrRender\ParticleGroup.cpp

; 243  : {

	push	edi

; 246  : 	PS::OnEffectParticleBirth(PE, param, m, idx);

	push	DWORD PTR _idx$[ebp]
	mov	eax, DWORD PTR [ebx+92]
	push	DWORD PTR _m$[ebp]
; File C:\Program Files\Microsoft Visual Studio\2022\Community\VC\Tools\MSVC\14.29.30133\include\vector

; 119  :         _Ptr += _Off;

	lea	edi, DWORD PTR [esi*8]
	sub	edi, esi
	shl	edi, 2
; File I:\Vitalya\mine\NSProjectX\layers\xrRender\ParticleGroup.cpp

; 246  : 	PS::OnEffectParticleBirth(PE, param, m, idx);

	push	esi
	mov	eax, DWORD PTR [edi+eax]
	push	eax
	mov	DWORD PTR _PE$1$[esp+32], eax
	call	?OnEffectParticleBirth@PS@@YAXPAXIAAUParticle@PAPI@@I@Z ; PS::OnEffectParticleBirth

; 247  :     // if have child
; 248  :     const CPGDef* PGD			= PG->GetDefinition();					VERIFY(PGD);
; 249  :     const CPGDef::SEffect* eff	= PGD->m_Effects[param];

	mov	eax, DWORD PTR [ebx+72]
	add	esp, 16					; 00000010H
	mov	eax, DWORD PTR [eax+12]
	mov	esi, DWORD PTR [eax+esi*4]
; File I:\Vitalya\mine\NSProjectX\xrCore\_flags.h

; 23   : 	IC 	BOOL	is		(const T mask)						const	{ return mask==(flags&mask);			}

	mov	eax, DWORD PTR [esi]
; File I:\Vitalya\mine\NSProjectX\layers\xrRender\ParticleGroup.cpp

; 250  :     if (eff->m_Flags.is(CPGDef::SEffect::flOnBirthChild))

	test	al, 32					; 00000020H
	je	SHORT $LN8@OnGroupPar
; File I:\Vitalya\mine\NSProjectX\xrCore\xrstring.h

; 65   : 	str_c				operator*	() const						{	return p_?p_->value:0;							}

	mov	ecx, DWORD PTR [esi+12]
; File I:\Vitalya\mine\NSProjectX\layers\xrRender\ParticleGroup.cpp

; 251  :     	PG->items[param].StartFreeChild			(PE,*eff->m_OnBirthChildName,m);

	push	DWORD PTR _m$[ebp]
	lea	eax, DWORD PTR [ecx+12]
	neg	ecx
	sbb	ecx, ecx
	and	ecx, eax
	push	ecx
; File C:\Program Files\Microsoft Visual Studio\2022\Community\VC\Tools\MSVC\14.29.30133\include\vector

; 119  :         _Ptr += _Off;

	mov	ecx, DWORD PTR [ebx+92]
; File I:\Vitalya\mine\NSProjectX\layers\xrRender\ParticleGroup.cpp

; 251  :     	PG->items[param].StartFreeChild			(PE,*eff->m_OnBirthChildName,m);

	push	DWORD PTR _PE$1$[esp+24]
; File C:\Program Files\Microsoft Visual Studio\2022\Community\VC\Tools\MSVC\14.29.30133\include\vector

; 119  :         _Ptr += _Off;

	add	ecx, edi
; File I:\Vitalya\mine\NSProjectX\layers\xrRender\ParticleGroup.cpp

; 251  :     	PG->items[param].StartFreeChild			(PE,*eff->m_OnBirthChildName,m);

	call	?StartFreeChild@SItem@CParticleGroup@PS@@QAEXPAVCParticleEffect@3@PBDAAUParticle@PAPI@@@Z ; PS::CParticleGroup::SItem::StartFreeChild
	mov	eax, DWORD PTR [esi]
$LN8@OnGroupPar:

; 252  :     if (eff->m_Flags.is(CPGDef::SEffect::flOnPlayChild))

	test	al, 2
	je	SHORT $LN9@OnGroupPar
; File I:\Vitalya\mine\NSProjectX\xrCore\xrstring.h

; 65   : 	str_c				operator*	() const						{	return p_?p_->value:0;							}

	mov	ecx, DWORD PTR [esi+8]
; File I:\Vitalya\mine\NSProjectX\layers\xrRender\ParticleGroup.cpp

; 253  :     	PG->items[param].StartRelatedChild		(PE,*eff->m_OnPlayChildName,m);

	push	DWORD PTR _m$[ebp]
	lea	eax, DWORD PTR [ecx+12]
	neg	ecx
	sbb	ecx, ecx
	and	ecx, eax
	push	ecx
; File C:\Program Files\Microsoft Visual Studio\2022\Community\VC\Tools\MSVC\14.29.30133\include\vector

; 119  :         _Ptr += _Off;

	mov	ecx, DWORD PTR [ebx+92]
; File I:\Vitalya\mine\NSProjectX\layers\xrRender\ParticleGroup.cpp

; 253  :     	PG->items[param].StartRelatedChild		(PE,*eff->m_OnPlayChildName,m);

	push	DWORD PTR _PE$1$[esp+24]
; File C:\Program Files\Microsoft Visual Studio\2022\Community\VC\Tools\MSVC\14.29.30133\include\vector

; 119  :         _Ptr += _Off;

	add	ecx, edi
; File I:\Vitalya\mine\NSProjectX\layers\xrRender\ParticleGroup.cpp

; 253  :     	PG->items[param].StartRelatedChild		(PE,*eff->m_OnPlayChildName,m);

	call	?StartRelatedChild@SItem@CParticleGroup@PS@@QAEXPAVCParticleEffect@3@PBDAAUParticle@PAPI@@@Z ; PS::CParticleGroup::SItem::StartRelatedChild
$LN9@OnGroupPar:

; 254  : }

	pop	edi
	pop	esi
	pop	ebx
	mov	esp, ebp
	pop	ebp
	ret	0
?OnGroupParticleBirth@@YAXPAXIAAUParticle@PAPI@@I@Z ENDP ; OnGroupParticleBirth
_TEXT	ENDS
; Function compile flags: /Ogtpy
; File I:\Vitalya\mine\NSProjectX\layers\xrRender\ParticleGroup.cpp
; File C:\Program Files\Microsoft Visual Studio\2022\Community\VC\Tools\MSVC\14.29.30133\include\vector
; File I:\Vitalya\mine\NSProjectX\layers\xrRender\ParticleGroup.cpp
; File C:\Program Files\Microsoft Visual Studio\2022\Community\VC\Tools\MSVC\14.29.30133\include\vector
; File I:\Vitalya\mine\NSProjectX\layers\xrRender\ParticleGroup.cpp
; File I:\Vitalya\mine\NSProjectX\xrCore\_flags.h
; File I:\Vitalya\mine\NSProjectX\layers\xrRender\ParticleGroup.cpp
; File C:\Program Files\Microsoft Visual Studio\2022\Community\VC\Tools\MSVC\14.29.30133\include\vector
; File I:\Vitalya\mine\NSProjectX\layers\xrRender\ParticleGroup.cpp
; File C:\Program Files\Microsoft Visual Studio\2022\Community\VC\Tools\MSVC\14.29.30133\include\vector
; File I:\Vitalya\mine\NSProjectX\layers\xrRender\ParticleGroup.cpp
; File C:\Program Files\Microsoft Visual Studio\2022\Community\VC\Tools\MSVC\14.29.30133\include\vector
; File I:\Vitalya\mine\NSProjectX\layers\xrRender\ParticleGroup.cpp
; File C:\Program Files\Microsoft Visual Studio\2022\Community\VC\Tools\MSVC\14.29.30133\include\vector
; File I:\Vitalya\mine\NSProjectX\layers\xrRender\ParticleGroup.cpp
; File I:\Vitalya\mine\NSProjectX\xrCore\xrstring.h
; File I:\Vitalya\mine\NSProjectX\layers\xrRender\ParticleGroup.cpp
; File C:\Program Files\Microsoft Visual Studio\2022\Community\VC\Tools\MSVC\14.29.30133\include\vector
; File I:\Vitalya\mine\NSProjectX\layers\xrRender\ParticleGroup.cpp
; File C:\Program Files\Microsoft Visual Studio\2022\Community\VC\Tools\MSVC\14.29.30133\include\vector
; File I:\Vitalya\mine\NSProjectX\layers\xrRender\ParticleGroup.cpp
_TEXT	SEGMENT
_PE$1$ = -4						; size = 4
_owner$ = 8						; size = 4
tv702 = 12						; size = 4
_param$ = 12						; size = 4
_m$ = 16						; size = 4
_idx$ = 20						; size = 4
?OnGroupParticleDead@@YAXPAXIAAUParticle@PAPI@@I@Z PROC	; OnGroupParticleDead

; 256  : {

	push	ecx

; 258  :     CParticleEffect*PE	= static_cast<CParticleEffect*>(PG->items[param]._effect);

	mov	edx, DWORD PTR _owner$[esp]
; File C:\Program Files\Microsoft Visual Studio\2022\Community\VC\Tools\MSVC\14.29.30133\include\vector

; 119  :         _Ptr += _Off;

	mov	ecx, DWORD PTR _param$[esp]
; File I:\Vitalya\mine\NSProjectX\layers\xrRender\ParticleGroup.cpp

; 256  : {

	push	ebx
	push	ebp

; 259  : 	PS::OnEffectParticleDead(PE, param, m, idx);
; 260  :     // if have child
; 261  :     const CPGDef* PGD			= PG->GetDefinition();					VERIFY(PGD);
; 262  :     const CPGDef::SEffect* eff	= PGD->m_Effects[param];

	mov	eax, DWORD PTR [edx+72]
	push	esi
	mov	esi, DWORD PTR [edx+92]
	push	edi
	mov	eax, DWORD PTR [eax+12]
; File C:\Program Files\Microsoft Visual Studio\2022\Community\VC\Tools\MSVC\14.29.30133\include\vector

; 119  :         _Ptr += _Off;

	lea	edi, DWORD PTR [ecx*8]
	sub	edi, ecx
	shl	edi, 2
; File I:\Vitalya\mine\NSProjectX\layers\xrRender\ParticleGroup.cpp

; 258  :     CParticleEffect*PE	= static_cast<CParticleEffect*>(PG->items[param]._effect);

	add	esi, edi

; 259  : 	PS::OnEffectParticleDead(PE, param, m, idx);
; 260  :     // if have child
; 261  :     const CPGDef* PGD			= PG->GetDefinition();					VERIFY(PGD);
; 262  :     const CPGDef::SEffect* eff	= PGD->m_Effects[param];

	mov	ebp, DWORD PTR [eax+ecx*4]
	mov	ebx, DWORD PTR [esi]
; File I:\Vitalya\mine\NSProjectX\xrCore\_flags.h

; 23   : 	IC 	BOOL	is		(const T mask)						const	{ return mask==(flags&mask);			}

	mov	eax, DWORD PTR [ebp]
; File I:\Vitalya\mine\NSProjectX\layers\xrRender\ParticleGroup.cpp

; 258  :     CParticleEffect*PE	= static_cast<CParticleEffect*>(PG->items[param]._effect);

	mov	DWORD PTR _PE$1$[esp+20], ebx

; 263  :     if (eff->m_Flags.is(CPGDef::SEffect::flOnPlayChild))

	test	al, 2
	je	SHORT $LN8@OnGroupPar
; File C:\Program Files\Microsoft Visual Studio\2022\Community\VC\Tools\MSVC\14.29.30133\include\vector

; 119  :         _Ptr += _Off;

	mov	eax, DWORD PTR _idx$[esp+16]
	mov	ebx, DWORD PTR [esi+4]
	shl	eax, 2
	add	ebx, eax
	mov	DWORD PTR tv702[esp+16], eax
; File I:\Vitalya\mine\NSProjectX\layers\xrRender\ParticleGroup.cpp

; 179  :     ((CParticleEffect*)V)->Stop	(TRUE);

	push	1
	mov	ecx, DWORD PTR [ebx]
	mov	eax, DWORD PTR [ecx]
	call	DWORD PTR [eax+60]
; File C:\Program Files\Microsoft Visual Studio\2022\Community\VC\Tools\MSVC\14.29.30133\include\vector

; 730  :         if (_Mylast != _My_data._Myend) {

	mov	edx, DWORD PTR [esi+20]
; File I:\Vitalya\mine\NSProjectX\layers\xrRender\ParticleGroup.cpp

; 180  :     _children_free.push_back	(V);

	lea	ecx, DWORD PTR [esi+16]
; File C:\Program Files\Microsoft Visual Studio\2022\Community\VC\Tools\MSVC\14.29.30133\include\vector

; 730  :         if (_Mylast != _My_data._Myend) {

	cmp	edx, DWORD PTR [ecx+8]
	je	SHORT $LN85@OnGroupPar

; 713  :         _Alty_traits::construct(_Getal(), _Unfancy(_Mylast), _STD forward<_Valty>(_Val)...);

	mov	eax, DWORD PTR [ebx]
	mov	DWORD PTR [edx], eax

; 714  :         _Orphan_range(_Mylast, _Mylast);
; 715  :         _Ty& _Result = *_Mylast;
; 716  :         ++_Mylast;

	add	DWORD PTR [ecx+4], 4

; 731  :             return _Emplace_back_with_unused_capacity(_STD forward<_Valty>(_Val)...);

	jmp	SHORT $LN84@OnGroupPar
$LN85@OnGroupPar:

; 732  :         }
; 733  : 
; 734  :         _Ty& _Result = *_Emplace_reallocate(_Mylast, _STD forward<_Valty>(_Val)...);

	push	ebx
	push	edx
	call	??$_Emplace_reallocate@ABQAVIRender_Visual@@@?$vector@PAVIRender_Visual@@V?$xalloc@PAVIRender_Visual@@@@@std@@QAEPAPAVIRender_Visual@@QAPAV2@ABQAV2@@Z ; std::vector<IRender_Visual *,xalloc<IRender_Visual *> >::_Emplace_reallocate<IRender_Visual * const &>
$LN84@OnGroupPar:
; File I:\Vitalya\mine\NSProjectX\layers\xrRender\ParticleGroup.cpp

; 181  :     _children_related[idx]		= _children_related.back();

	mov	eax, DWORD PTR [esi+8]
	mov	ecx, DWORD PTR [esi+4]
	mov	edx, DWORD PTR tv702[esp+16]
	mov	ebx, DWORD PTR _PE$1$[esp+20]
	mov	eax, DWORD PTR [eax-4]
	mov	DWORD PTR [edx+ecx], eax
; File C:\Program Files\Microsoft Visual Studio\2022\Community\VC\Tools\MSVC\14.29.30133\include\vector

; 1390 :         --_Mylast;

	add	DWORD PTR [esi+8], -4			; fffffffcH
	mov	eax, DWORD PTR [ebp]
	mov	edx, DWORD PTR _owner$[esp+16]
$LN8@OnGroupPar:
; File I:\Vitalya\mine\NSProjectX\layers\xrRender\ParticleGroup.cpp

; 265  :     if (eff->m_Flags.is(CPGDef::SEffect::flOnDeadChild))

	test	al, 64					; 00000040H
	je	SHORT $LN9@OnGroupPar
; File I:\Vitalya\mine\NSProjectX\xrCore\xrstring.h

; 65   : 	str_c				operator*	() const						{	return p_?p_->value:0;							}

	mov	ecx, DWORD PTR [ebp+16]
; File I:\Vitalya\mine\NSProjectX\layers\xrRender\ParticleGroup.cpp

; 266  :     	PG->items[param].StartFreeChild			(PE,*eff->m_OnDeadChildName,m);

	push	DWORD PTR _m$[esp+16]
	lea	eax, DWORD PTR [ecx+12]
	neg	ecx
	sbb	ecx, ecx
	and	ecx, eax
	push	ecx
; File C:\Program Files\Microsoft Visual Studio\2022\Community\VC\Tools\MSVC\14.29.30133\include\vector

; 119  :         _Ptr += _Off;

	mov	ecx, DWORD PTR [edx+92]
; File I:\Vitalya\mine\NSProjectX\layers\xrRender\ParticleGroup.cpp

; 266  :     	PG->items[param].StartFreeChild			(PE,*eff->m_OnDeadChildName,m);

	push	ebx
; File C:\Program Files\Microsoft Visual Studio\2022\Community\VC\Tools\MSVC\14.29.30133\include\vector

; 119  :         _Ptr += _Off;

	add	ecx, edi
; File I:\Vitalya\mine\NSProjectX\layers\xrRender\ParticleGroup.cpp

; 266  :     	PG->items[param].StartFreeChild			(PE,*eff->m_OnDeadChildName,m);

	call	?StartFreeChild@SItem@CParticleGroup@PS@@QAEXPAVCParticleEffect@3@PBDAAUParticle@PAPI@@@Z ; PS::CParticleGroup::SItem::StartFreeChild
$LN9@OnGroupPar:

; 267  : }

	pop	edi
	pop	esi
	pop	ebp
	pop	ebx
	pop	ecx
	ret	0
?OnGroupParticleDead@@YAXPAXIAAUParticle@PAPI@@I@Z ENDP	; OnGroupParticleDead
_TEXT	ENDS
; Function compile flags: /Ogtpy
; File I:\Vitalya\mine\NSProjectX\layers\xrRender\ParticleGroup.cpp
;	COMDAT ??Rzero_vis_pred@@QAE_NPBVIRender_Visual@@@Z
_TEXT	SEGMENT
_x$ = 8							; size = 4
??Rzero_vis_pred@@QAE_NPBVIRender_Visual@@@Z PROC	; zero_vis_pred::operator(), COMDAT
; _this$dead$ = ecx

; 271  : 	bool operator()(const IRender_Visual* x){ return x==0; }

	cmp	DWORD PTR _x$[esp-4], 0
	sete	al
	ret	4
??Rzero_vis_pred@@QAE_NPBVIRender_Visual@@@Z ENDP	; zero_vis_pred::operator()
_TEXT	ENDS
; Function compile flags: /Ogtpy
; File I:\Vitalya\mine\NSProjectX\layers\xrRender\ParticleGroup.cpp
; File I:\Vitalya\mine\NSProjectX\xrCore\_fbox.h
; File I:\Vitalya\mine\NSProjectX\layers\xrRender\ParticleGroup.cpp
; File I:\Vitalya\mine\NSProjectX\xrCore\_fbox.h
; File I:\Vitalya\mine\NSProjectX\layers\xrRender\ParticleGroup.cpp
; File I:\Vitalya\mine\NSProjectX\xrCore\xrstring.h
; File I:\Vitalya\mine\NSProjectX\layers\xrRender\ParticleGroup.cpp
; File I:\Vitalya\mine\NSProjectX\xrCore\_matrix.h
; File I:\Vitalya\mine\NSProjectX\xrCore\_vector3d.h
; File I:\Vitalya\mine\NSProjectX\layers\xrRender\ParticleGroup.cpp
; File I:\Vitalya\mine\NSProjectX\xrCore\_vector3d.h
; File I:\Vitalya\mine\NSProjectX\layers\xrRender\ParticleGroup.cpp
; File I:\Vitalya\mine\NSProjectX\xrCore\_vector3d.h
; File I:\Vitalya\mine\NSProjectX\layers\xrRender\ParticleGroup.cpp
; File I:\Vitalya\mine\NSProjectX\xrCore\_vector3d.h
; File I:\Vitalya\mine\NSProjectX\layers\xrRender\ParticleGroup.cpp
; File I:\Vitalya\mine\NSProjectX\xrCore\_vector3d.h
; File I:\Vitalya\mine\NSProjectX\layers\xrRender\ParticleGroup.cpp
; File C:\Program Files\Microsoft Visual Studio\2022\Community\VC\Tools\MSVC\14.29.30133\include\vector
; File I:\Vitalya\mine\NSProjectX\layers\xrRender\ParticleGroup.cpp
; File I:\Vitalya\mine\NSProjectX\xrCore\_fbox.h
; File I:\Vitalya\mine\NSProjectX\layers\xrRender\ParticleGroup.cpp
; File I:\Vitalya\mine\NSProjectX\xrCore\_fbox.h
; File I:\Vitalya\mine\NSProjectX\xrCore\_vector3d.h
; File I:\Vitalya\mine\NSProjectX\xrCore\_std_extensions.h
; File I:\Vitalya\mine\NSProjectX\xrCore\_vector3d.h
; File I:\Vitalya\mine\NSProjectX\xrCore\_std_extensions.h
; File I:\Vitalya\mine\NSProjectX\xrCore\_vector3d.h
; File I:\Vitalya\mine\NSProjectX\xrCore\_std_extensions.h
; File I:\Vitalya\mine\NSProjectX\xrCore\_vector3d.h
; File I:\Vitalya\mine\NSProjectX\xrCore\_std_extensions.h
; File I:\Vitalya\mine\NSProjectX\xrCore\_vector3d.h
; File I:\Vitalya\mine\NSProjectX\xrCore\_std_extensions.h
; File I:\Vitalya\mine\NSProjectX\xrCore\_vector3d.h
; File I:\Vitalya\mine\NSProjectX\xrCore\_std_extensions.h
; File I:\Vitalya\mine\NSProjectX\xrCore\_vector3d.h
; File I:\Vitalya\mine\NSProjectX\xrCore\_std_extensions.h
; File I:\Vitalya\mine\NSProjectX\xrCore\_vector3d.h
; File I:\Vitalya\mine\NSProjectX\xrCore\_std_extensions.h
; File I:\Vitalya\mine\NSProjectX\xrCore\_vector3d.h
; File I:\Vitalya\mine\NSProjectX\xrCore\_std_extensions.h
; File I:\Vitalya\mine\NSProjectX\xrCore\_vector3d.h
; File I:\Vitalya\mine\NSProjectX\xrCore\_std_extensions.h
; File I:\Vitalya\mine\NSProjectX\xrCore\_vector3d.h
; File I:\Vitalya\mine\NSProjectX\xrCore\_std_extensions.h
; File I:\Vitalya\mine\NSProjectX\xrCore\_vector3d.h
; File I:\Vitalya\mine\NSProjectX\xrCore\_std_extensions.h
; File I:\Vitalya\mine\NSProjectX\xrCore\_vector3d.h
; File I:\Vitalya\mine\NSProjectX\layers\xrRender\ParticleGroup.cpp
; File C:\Program Files\Microsoft Visual Studio\2022\Community\VC\Tools\MSVC\14.29.30133\include\vector
; File I:\Vitalya\mine\NSProjectX\layers\xrRender\ParticleGroup.cpp
; File C:\Program Files\Microsoft Visual Studio\2022\Community\VC\Tools\MSVC\14.29.30133\include\vector
; File I:\Vitalya\mine\NSProjectX\layers\xrRender\ParticleGroup.cpp
; File I:\Vitalya\mine\NSProjectX\xrCore\_fbox.h
; File I:\Vitalya\mine\NSProjectX\layers\xrRender\ParticleGroup.cpp
; File I:\Vitalya\mine\NSProjectX\xrCore\_fbox.h
; File I:\Vitalya\mine\NSProjectX\xrCore\_vector3d.h
; File I:\Vitalya\mine\NSProjectX\xrCore\_std_extensions.h
; File I:\Vitalya\mine\NSProjectX\xrCore\_vector3d.h
; File I:\Vitalya\mine\NSProjectX\xrCore\_std_extensions.h
; File I:\Vitalya\mine\NSProjectX\xrCore\_vector3d.h
; File I:\Vitalya\mine\NSProjectX\xrCore\_std_extensions.h
; File I:\Vitalya\mine\NSProjectX\xrCore\_vector3d.h
; File I:\Vitalya\mine\NSProjectX\xrCore\_std_extensions.h
; File I:\Vitalya\mine\NSProjectX\xrCore\_vector3d.h
; File I:\Vitalya\mine\NSProjectX\xrCore\_std_extensions.h
; File I:\Vitalya\mine\NSProjectX\xrCore\_vector3d.h
; File I:\Vitalya\mine\NSProjectX\xrCore\_std_extensions.h
; File I:\Vitalya\mine\NSProjectX\xrCore\_vector3d.h
; File I:\Vitalya\mine\NSProjectX\xrCore\_std_extensions.h
; File I:\Vitalya\mine\NSProjectX\xrCore\_vector3d.h
; File I:\Vitalya\mine\NSProjectX\xrCore\_std_extensions.h
; File I:\Vitalya\mine\NSProjectX\xrCore\_vector3d.h
; File I:\Vitalya\mine\NSProjectX\xrCore\_std_extensions.h
; File I:\Vitalya\mine\NSProjectX\xrCore\_vector3d.h
; File I:\Vitalya\mine\NSProjectX\xrCore\_std_extensions.h
; File I:\Vitalya\mine\NSProjectX\xrCore\_vector3d.h
; File I:\Vitalya\mine\NSProjectX\xrCore\_std_extensions.h
; File I:\Vitalya\mine\NSProjectX\xrCore\_vector3d.h
; File I:\Vitalya\mine\NSProjectX\xrCore\_std_extensions.h
; File I:\Vitalya\mine\NSProjectX\xrCore\_vector3d.h
; File C:\Program Files\Microsoft Visual Studio\2022\Community\VC\Tools\MSVC\14.29.30133\include\vector
; File I:\Vitalya\mine\NSProjectX\layers\xrRender\ParticleGroup.cpp
; File C:\Program Files\Microsoft Visual Studio\2022\Community\VC\Tools\MSVC\14.29.30133\include\xutility
; File I:\Vitalya\mine\NSProjectX\layers\xrRender\ParticleGroup.cpp
; File C:\Program Files\Microsoft Visual Studio\2022\Community\VC\Tools\MSVC\14.29.30133\include\xutility
; File C:\Program Files\Microsoft Visual Studio\2022\Community\VC\Tools\MSVC\14.29.30133\include\xmemory
; File I:\Vitalya\mine\NSProjectX\layers\xrRender\ParticleGroup.cpp
; File C:\Program Files\Microsoft Visual Studio\2022\Community\VC\Tools\MSVC\14.29.30133\include\xmemory
; File C:\Program Files\Microsoft Visual Studio\2022\Community\VC\Tools\MSVC\14.29.30133\include\vector
; File C:\Program Files\Microsoft Visual Studio\2022\Community\VC\Tools\MSVC\14.29.30133\include\xutility
; File C:\Program Files\Microsoft Visual Studio\2022\Community\VC\Tools\MSVC\14.29.30133\include\vector
; File I:\Vitalya\mine\NSProjectX\layers\xrRender\ParticleGroup.cpp
; File I:\Vitalya\mine\NSProjectX\xrCore\_fbox.h
; File I:\Vitalya\mine\NSProjectX\layers\xrRender\ParticleGroup.cpp
_TEXT	SEGMENT
_particles$1 = -84					; size = 4
_vel$2 = -80						; size = 12
_M$3 = -68						; size = 64
_u_dt$ = 8						; size = 4
_rem_cnt$1$ = 12					; size = 4
_def$ = 12						; size = 4
_p_cnt$4 = 16						; size = 4
_box$ = 16						; size = 4
_bPlaying$ = 20						; size = 4
?OnFrame@SItem@CParticleGroup@PS@@QAEXIABUSEffect@CPGDef@3@AAV?$_box3@M@@AA_N@Z PROC ; PS::CParticleGroup::SItem::OnFrame
; _this$ = ecx

; 274  : {

	sub	esp, 84					; 00000054H
	push	ebx
	push	ebp
	mov	ebp, ecx

; 275  :     CParticleEffect* E		= static_cast<CParticleEffect*>(_effect);
; 276  :     if (E){

	mov	ecx, DWORD PTR _u_dt$[esp+88]
	push	esi
	push	edi
	mov	edi, DWORD PTR _box$[esp+96]
	mov	esi, DWORD PTR [ebp]
	test	esi, esi
	je	$LN6@OnFrame

; 277  :         E->OnFrame			(u_dt);

	mov	eax, DWORD PTR [esi]
	push	ecx
	mov	ecx, esi
	call	DWORD PTR [eax+52]

; 278  :         if (E->IsPlaying()){

	mov	eax, DWORD PTR [esi]
	mov	ecx, esi
	call	DWORD PTR [eax+64]
	test	eax, eax
	je	$LN332@OnFrame

; 279  :             bPlaying		= true;

	mov	eax, DWORD PTR _bPlaying$[esp+96]
; File I:\Vitalya\mine\NSProjectX\xrCore\_fbox.h

; 26   : 	IC	BOOL	is_valid	()											{return (x2>=x1)&&(y2>=y1)&&(z2>=z1);}

	movss	xmm0, DWORD PTR [esi+36]
	comiss	xmm0, DWORD PTR [esi+24]
; File I:\Vitalya\mine\NSProjectX\layers\xrRender\ParticleGroup.cpp

; 279  :             bPlaying		= true;

	mov	BYTE PTR [eax], 1

; 280  :             if (E->vis.box.is_valid())     box.merge	(E->vis.box);

	lea	eax, DWORD PTR [esi+24]
; File I:\Vitalya\mine\NSProjectX\xrCore\_fbox.h

; 26   : 	IC	BOOL	is_valid	()											{return (x2>=x1)&&(y2>=y1)&&(z2>=z1);}

	jb	SHORT $LN16@OnFrame
	movss	xmm0, DWORD PTR [eax+16]
	comiss	xmm0, DWORD PTR [eax+4]
	jb	SHORT $LN16@OnFrame
	movss	xmm0, DWORD PTR [eax+20]
	comiss	xmm0, DWORD PTR [eax+8]
	jb	SHORT $LN16@OnFrame
; File I:\Vitalya\mine\NSProjectX\layers\xrRender\ParticleGroup.cpp

; 280  :             if (E->vis.box.is_valid())     box.merge	(E->vis.box);

	push	eax
	mov	ecx, edi
	call	?merge@?$_box3@M@@QAEAAV1@ABV1@@Z	; _box3<float>::merge
$LN16@OnFrame:

; 281  :             if (def.m_Flags.is(CPGDef::SEffect::flOnPlayChild)&&def.m_OnPlayChildName.size()){

	mov	eax, DWORD PTR _def$[esp+96]
	test	BYTE PTR [eax], 2
	je	$LN332@OnFrame
; File I:\Vitalya\mine\NSProjectX\xrCore\xrstring.h

; 71   : 	u32					size		()						const	{	if (0==p_) return 0; else return p_->dwLength;	}

	mov	eax, DWORD PTR [eax+8]
	test	eax, eax
	je	$LN332@OnFrame
; File I:\Vitalya\mine\NSProjectX\layers\xrRender\ParticleGroup.cpp

; 281  :             if (def.m_Flags.is(CPGDef::SEffect::flOnPlayChild)&&def.m_OnPlayChildName.size()){

	cmp	DWORD PTR [eax+4], 0
	je	$LN332@OnFrame

; 282  :                 PAPI::Particle* particles;
; 283  :                 u32 p_cnt;
; 284  :                 PAPI::ParticleManager()->GetParticles(E->GetHandleEffect(),particles,p_cnt);

	call	DWORD PTR __imp_?ParticleManager@PAPI@@YAPAVIParticleManager@1@XZ
	lea	ecx, DWORD PTR _p_cnt$4[esp+96]
	push	ecx
	lea	ecx, DWORD PTR _particles$1[esp+104]
	mov	edx, DWORD PTR [eax]
	push	ecx
	push	DWORD PTR [esi+80]
	mov	ecx, eax
	call	DWORD PTR [edx+52]

; 285  :                 VERIFY(p_cnt==_children_related.size());
; 286  :                 if (p_cnt){

	mov	eax, DWORD PTR _p_cnt$4[esp+96]
	test	eax, eax
	je	$LN332@OnFrame

; 287  :                     for(u32 i = 0; i < p_cnt; i++){

	xor	ebx, ebx
	test	eax, eax
	je	$LN332@OnFrame
	movss	xmm5, DWORD PTR __real@41f26c9b
	xor	esi, esi
$LL7@OnFrame:

; 288  :                         PAPI::Particle &m	= particles[i]; 

	mov	ecx, DWORD PTR _particles$1[esp+100]

; 289  :                         CParticleEffect* C 	= static_cast<CParticleEffect*>(_children_related[i]);

	mov	eax, DWORD PTR [ebp+4]

; 292  :                         C->UpdateParent		(M,vel,FALSE);

	push	0
	mov	edx, DWORD PTR [eax+ebx*4]
; File I:\Vitalya\mine\NSProjectX\xrCore\_matrix.h

; 72   : 		_11=1; _12=0; _13=0; _14=0;

	mov	DWORD PTR _M$3[esp+104], 1065353216	; 3f800000H
	mov	DWORD PTR _M$3[esp+108], 0
	mov	DWORD PTR _M$3[esp+112], 0
	mov	DWORD PTR _M$3[esp+116], 0

; 73   : 		_21=0; _22=1; _23=0; _24=0;

	mov	DWORD PTR _M$3[esp+120], 0
	mov	DWORD PTR _M$3[esp+124], 1065353216	; 3f800000H
	mov	DWORD PTR _M$3[esp+128], 0
	mov	DWORD PTR _M$3[esp+132], 0

; 74   : 		_31=0; _32=0; _33=1; _34=0;

	mov	DWORD PTR _M$3[esp+136], 0
	mov	DWORD PTR _M$3[esp+140], 0
	mov	DWORD PTR _M$3[esp+144], 1065353216	; 3f800000H
	mov	DWORD PTR _M$3[esp+148], 0

; 75   : 		_41=0; _42=0; _43=0; _44=1;

	mov	DWORD PTR _M$3[esp+164], 1065353216	; 3f800000H

; 235  : 		identity();	c.set	(Loc.x,Loc.y,Loc.z);	

	movss	xmm2, DWORD PTR [esi+ecx+4]
	movss	xmm1, DWORD PTR [esi+ecx+8]
; File I:\Vitalya\mine\NSProjectX\xrCore\_vector3d.h

; 23   : 	ICF	SelfRef	set(T _x, T _y, T _z)					{ x = _x;		y = _y;		z = _z;		return *this;	};

	movss	xmm0, DWORD PTR [esi+ecx]
	movss	DWORD PTR _M$3[esp+152], xmm0
	movss	DWORD PTR _M$3[esp+156], xmm2
	movss	DWORD PTR _M$3[esp+160], xmm1

; 36   : 	ICF	SelfRef	sub(const Self &a, const Self &v)		{ x=a.x-v.x;y=a.y-v.y;	z=a.z-v.z;		return *this;	};

	movss	xmm3, DWORD PTR [esi+ecx+4]
	movss	xmm1, DWORD PTR [esi+ecx+16]
	movss	xmm4, DWORD PTR [esi+ecx+8]
	subss	xmm3, xmm1
	movss	xmm2, DWORD PTR [esi+ecx+20]
	movss	xmm0, DWORD PTR [esi+ecx]
	subss	xmm4, xmm2
	subss	xmm0, DWORD PTR [esi+ecx+12]
; File I:\Vitalya\mine\NSProjectX\layers\xrRender\ParticleGroup.cpp

; 292  :                         C->UpdateParent		(M,vel,FALSE);

	lea	ecx, DWORD PTR _vel$2[esp+104]
; File I:\Vitalya\mine\NSProjectX\xrCore\_vector3d.h

; 45   : 	ICF SelfRef	div(T s)								{ x/=s;		y/=s;    z/=s;				return *this;	};

	mulss	xmm3, xmm5
; File I:\Vitalya\mine\NSProjectX\layers\xrRender\ParticleGroup.cpp

; 292  :                         C->UpdateParent		(M,vel,FALSE);

	push	ecx
; File I:\Vitalya\mine\NSProjectX\xrCore\_vector3d.h

; 45   : 	ICF SelfRef	div(T s)								{ x/=s;		y/=s;    z/=s;				return *this;	};

	mulss	xmm4, xmm5
; File I:\Vitalya\mine\NSProjectX\layers\xrRender\ParticleGroup.cpp

; 292  :                         C->UpdateParent		(M,vel,FALSE);

	lea	ecx, DWORD PTR _M$3[esp+108]
	push	ecx
; File I:\Vitalya\mine\NSProjectX\xrCore\_vector3d.h

; 36   : 	ICF	SelfRef	sub(const Self &a, const Self &v)		{ x=a.x-v.x;y=a.y-v.y;	z=a.z-v.z;		return *this;	};

	mulss	xmm0, xmm5
; File I:\Vitalya\mine\NSProjectX\layers\xrRender\ParticleGroup.cpp

; 292  :                         C->UpdateParent		(M,vel,FALSE);

	mov	ecx, edx
; File I:\Vitalya\mine\NSProjectX\xrCore\_vector3d.h

; 45   : 	ICF SelfRef	div(T s)								{ x/=s;		y/=s;    z/=s;				return *this;	};

	movss	DWORD PTR _vel$2[esp+116], xmm3
	movss	DWORD PTR _vel$2[esp+120], xmm4
	movss	DWORD PTR _vel$2[esp+112], xmm0
; File I:\Vitalya\mine\NSProjectX\layers\xrRender\ParticleGroup.cpp

; 292  :                         C->UpdateParent		(M,vel,FALSE);

	mov	eax, DWORD PTR [edx]
	call	DWORD PTR [eax+48]
	movss	xmm5, DWORD PTR __real@41f26c9b
	inc	ebx
	add	esi, 72					; 00000048H
	cmp	ebx, DWORD PTR _p_cnt$4[esp+96]
	jb	$LL7@OnFrame
$LN332@OnFrame:
; File C:\Program Files\Microsoft Visual Studio\2022\Community\VC\Tools\MSVC\14.29.30133\include\vector

; 1531 :         return _My_data._Myfirst == _My_data._Mylast;

	mov	ecx, DWORD PTR _u_dt$[esp+96]
$LN6@OnFrame:
	mov	esi, DWORD PTR [ebp+4]
	cmp	esi, DWORD PTR [ebp+8]
; File I:\Vitalya\mine\NSProjectX\layers\xrRender\ParticleGroup.cpp

; 299  :     if (!_children_related.empty()){

	je	$LN9@OnFrame
	npad	7
$LL10@OnFrame:

; 301  :             CParticleEffect* E	= static_cast<CParticleEffect*>(*it);

	mov	ebx, DWORD PTR [esi]

; 302  :             if (E){

	test	ebx, ebx
	je	$LN8@OnFrame

; 303  :                 E->OnFrame		(u_dt);

	mov	eax, DWORD PTR [ebx]
	push	ecx
	mov	ecx, ebx
	call	DWORD PTR [eax+52]

; 304  :                 if (E->IsPlaying()){

	mov	eax, DWORD PTR [ebx]
	mov	ecx, ebx
	call	DWORD PTR [eax+64]
	test	eax, eax
	je	$LN21@OnFrame

; 305  :                     bPlaying	= true;

	mov	eax, DWORD PTR _bPlaying$[esp+96]
; File I:\Vitalya\mine\NSProjectX\xrCore\_fbox.h

; 26   : 	IC	BOOL	is_valid	()											{return (x2>=x1)&&(y2>=y1)&&(z2>=z1);}

	movss	xmm1, DWORD PTR [ebx+24]
	movss	xmm0, DWORD PTR [ebx+36]
	comiss	xmm0, xmm1
; File I:\Vitalya\mine\NSProjectX\layers\xrRender\ParticleGroup.cpp

; 305  :                     bPlaying	= true;

	mov	BYTE PTR [eax], 1
; File I:\Vitalya\mine\NSProjectX\xrCore\_fbox.h

; 26   : 	IC	BOOL	is_valid	()											{return (x2>=x1)&&(y2>=y1)&&(z2>=z1);}

	jb	$LN8@OnFrame
	movss	xmm0, DWORD PTR [ebx+40]
	comiss	xmm0, DWORD PTR [ebx+28]
	jb	$LN8@OnFrame
	movss	xmm0, DWORD PTR [ebx+44]
	comiss	xmm0, DWORD PTR [ebx+32]
	jb	$LN8@OnFrame
; File I:\Vitalya\mine\NSProjectX\xrCore\_vector3d.h

; 53   : 	IC	SelfRef	min(const Self &v)						{ x = _min(x,v.x);	y = _min(y,v.y);	z = _min(z,v.z);			return *this;	}

	movss	xmm0, DWORD PTR [edi]
; File I:\Vitalya\mine\NSProjectX\xrCore\_std_extensions.h

; 93   : template <class T>	IC T		_min	(T a, T b)	{ return a<b?a:b;	}

	comiss	xmm1, xmm0
	ja	SHORT $LN108@OnFrame
	movaps	xmm0, xmm1
$LN108@OnFrame:
; File I:\Vitalya\mine\NSProjectX\xrCore\_vector3d.h

; 53   : 	IC	SelfRef	min(const Self &v)						{ x = _min(x,v.x);	y = _min(y,v.y);	z = _min(z,v.z);			return *this;	}

	movss	DWORD PTR [edi], xmm0
	movss	xmm0, DWORD PTR [edi+4]
	movss	xmm1, DWORD PTR [ebx+28]
; File I:\Vitalya\mine\NSProjectX\xrCore\_std_extensions.h

; 93   : template <class T>	IC T		_min	(T a, T b)	{ return a<b?a:b;	}

	comiss	xmm1, xmm0
	ja	SHORT $LN112@OnFrame
	movaps	xmm0, xmm1
$LN112@OnFrame:
; File I:\Vitalya\mine\NSProjectX\xrCore\_vector3d.h

; 53   : 	IC	SelfRef	min(const Self &v)						{ x = _min(x,v.x);	y = _min(y,v.y);	z = _min(z,v.z);			return *this;	}

	movss	DWORD PTR [edi+4], xmm0
	movss	xmm0, DWORD PTR [edi+8]
	movss	xmm1, DWORD PTR [ebx+32]
; File I:\Vitalya\mine\NSProjectX\xrCore\_std_extensions.h

; 93   : template <class T>	IC T		_min	(T a, T b)	{ return a<b?a:b;	}

	comiss	xmm1, xmm0
	ja	SHORT $LN116@OnFrame
	movaps	xmm0, xmm1
$LN116@OnFrame:
; File I:\Vitalya\mine\NSProjectX\xrCore\_vector3d.h

; 53   : 	IC	SelfRef	min(const Self &v)						{ x = _min(x,v.x);	y = _min(y,v.y);	z = _min(z,v.z);			return *this;	}

	movss	DWORD PTR [edi+8], xmm0

; 55   : 	IC	SelfRef	max(const Self &v)						{ x = _max(x,v.x);	y = _max(y,v.y);	z = _max(z,v.z);			return *this;	}

	movss	xmm0, DWORD PTR [edi+12]
	movss	xmm1, DWORD PTR [ebx+24]
; File I:\Vitalya\mine\NSProjectX\xrCore\_std_extensions.h

; 94   : template <class T>	IC T		_max	(T a, T b)	{ return a>b?a:b;	}

	comiss	xmm0, xmm1
	ja	SHORT $LN122@OnFrame
	movaps	xmm0, xmm1
$LN122@OnFrame:
; File I:\Vitalya\mine\NSProjectX\xrCore\_vector3d.h

; 55   : 	IC	SelfRef	max(const Self &v)						{ x = _max(x,v.x);	y = _max(y,v.y);	z = _max(z,v.z);			return *this;	}

	movss	DWORD PTR [edi+12], xmm0
	movss	xmm0, DWORD PTR [edi+16]
	movss	xmm1, DWORD PTR [ebx+28]
; File I:\Vitalya\mine\NSProjectX\xrCore\_std_extensions.h

; 94   : template <class T>	IC T		_max	(T a, T b)	{ return a>b?a:b;	}

	comiss	xmm0, xmm1
	ja	SHORT $LN126@OnFrame
	movaps	xmm0, xmm1
$LN126@OnFrame:
; File I:\Vitalya\mine\NSProjectX\xrCore\_vector3d.h

; 55   : 	IC	SelfRef	max(const Self &v)						{ x = _max(x,v.x);	y = _max(y,v.y);	z = _max(z,v.z);			return *this;	}

	movss	DWORD PTR [edi+16], xmm0
	movss	xmm0, DWORD PTR [edi+20]
	movss	xmm1, DWORD PTR [ebx+32]
; File I:\Vitalya\mine\NSProjectX\xrCore\_std_extensions.h

; 94   : template <class T>	IC T		_max	(T a, T b)	{ return a>b?a:b;	}

	comiss	xmm0, xmm1
	ja	SHORT $LN130@OnFrame
	movaps	xmm0, xmm1
$LN130@OnFrame:
; File I:\Vitalya\mine\NSProjectX\xrCore\_vector3d.h

; 55   : 	IC	SelfRef	max(const Self &v)						{ x = _max(x,v.x);	y = _max(y,v.y);	z = _max(z,v.z);			return *this;	}

	movss	DWORD PTR [edi+20], xmm0

; 53   : 	IC	SelfRef	min(const Self &v)						{ x = _min(x,v.x);	y = _min(y,v.y);	z = _min(z,v.z);			return *this;	}

	movss	xmm0, DWORD PTR [edi]
	movss	xmm1, DWORD PTR [ebx+36]
; File I:\Vitalya\mine\NSProjectX\xrCore\_std_extensions.h

; 93   : template <class T>	IC T		_min	(T a, T b)	{ return a<b?a:b;	}

	comiss	xmm1, xmm0
	ja	SHORT $LN138@OnFrame
	movaps	xmm0, xmm1
$LN138@OnFrame:
; File I:\Vitalya\mine\NSProjectX\xrCore\_vector3d.h

; 53   : 	IC	SelfRef	min(const Self &v)						{ x = _min(x,v.x);	y = _min(y,v.y);	z = _min(z,v.z);			return *this;	}

	movss	DWORD PTR [edi], xmm0
	movss	xmm0, DWORD PTR [edi+4]
	movss	xmm1, DWORD PTR [ebx+40]
; File I:\Vitalya\mine\NSProjectX\xrCore\_std_extensions.h

; 93   : template <class T>	IC T		_min	(T a, T b)	{ return a<b?a:b;	}

	comiss	xmm1, xmm0
	ja	SHORT $LN142@OnFrame
	movaps	xmm0, xmm1
$LN142@OnFrame:
; File I:\Vitalya\mine\NSProjectX\xrCore\_vector3d.h

; 53   : 	IC	SelfRef	min(const Self &v)						{ x = _min(x,v.x);	y = _min(y,v.y);	z = _min(z,v.z);			return *this;	}

	movss	DWORD PTR [edi+4], xmm0
	movss	xmm0, DWORD PTR [edi+8]
	movss	xmm1, DWORD PTR [ebx+44]
; File I:\Vitalya\mine\NSProjectX\xrCore\_std_extensions.h

; 93   : template <class T>	IC T		_min	(T a, T b)	{ return a<b?a:b;	}

	comiss	xmm1, xmm0
	ja	SHORT $LN146@OnFrame
	movaps	xmm0, xmm1
$LN146@OnFrame:
; File I:\Vitalya\mine\NSProjectX\xrCore\_vector3d.h

; 53   : 	IC	SelfRef	min(const Self &v)						{ x = _min(x,v.x);	y = _min(y,v.y);	z = _min(z,v.z);			return *this;	}

	movss	DWORD PTR [edi+8], xmm0

; 55   : 	IC	SelfRef	max(const Self &v)						{ x = _max(x,v.x);	y = _max(y,v.y);	z = _max(z,v.z);			return *this;	}

	movss	xmm0, DWORD PTR [edi+12]
	movss	xmm1, DWORD PTR [ebx+36]
; File I:\Vitalya\mine\NSProjectX\xrCore\_std_extensions.h

; 94   : template <class T>	IC T		_max	(T a, T b)	{ return a>b?a:b;	}

	comiss	xmm0, xmm1
	ja	SHORT $LN152@OnFrame
	movaps	xmm0, xmm1
$LN152@OnFrame:
; File I:\Vitalya\mine\NSProjectX\xrCore\_vector3d.h

; 55   : 	IC	SelfRef	max(const Self &v)						{ x = _max(x,v.x);	y = _max(y,v.y);	z = _max(z,v.z);			return *this;	}

	movss	DWORD PTR [edi+12], xmm0
	movss	xmm0, DWORD PTR [edi+16]
	movss	xmm1, DWORD PTR [ebx+40]
; File I:\Vitalya\mine\NSProjectX\xrCore\_std_extensions.h

; 94   : template <class T>	IC T		_max	(T a, T b)	{ return a>b?a:b;	}

	comiss	xmm0, xmm1
	ja	SHORT $LN156@OnFrame
	movaps	xmm0, xmm1
$LN156@OnFrame:
; File I:\Vitalya\mine\NSProjectX\xrCore\_vector3d.h

; 55   : 	IC	SelfRef	max(const Self &v)						{ x = _max(x,v.x);	y = _max(y,v.y);	z = _max(z,v.z);			return *this;	}

	movss	DWORD PTR [edi+16], xmm0
	movss	xmm0, DWORD PTR [edi+20]
	movss	xmm1, DWORD PTR [ebx+44]
; File I:\Vitalya\mine\NSProjectX\xrCore\_std_extensions.h

; 94   : template <class T>	IC T		_max	(T a, T b)	{ return a>b?a:b;	}

	comiss	xmm0, xmm1
	ja	SHORT $LN160@OnFrame
	movaps	xmm0, xmm1
$LN160@OnFrame:
; File I:\Vitalya\mine\NSProjectX\xrCore\_vector3d.h

; 55   : 	IC	SelfRef	max(const Self &v)						{ x = _max(x,v.x);	y = _max(y,v.y);	z = _max(z,v.z);			return *this;	}

	movss	DWORD PTR [edi+20], xmm0
; File I:\Vitalya\mine\NSProjectX\layers\xrRender\ParticleGroup.cpp

; 307  :                 }else{

	jmp	SHORT $LN8@OnFrame
$LN21@OnFrame:

; 308  :                 	if (def.m_Flags.is(CPGDef::SEffect::flOnPlayChildRewind)){

	mov	eax, DWORD PTR _def$[esp+96]
	test	BYTE PTR [eax], 16			; 00000010H
	je	SHORT $LN8@OnFrame

; 309  :                     	E->Play	();

	mov	eax, DWORD PTR [ebx]
	mov	ecx, ebx
	call	DWORD PTR [eax+56]
$LN8@OnFrame:

; 300  :         for (it=_children_related.begin(); it!=_children_related.end(); it++){

	mov	ecx, DWORD PTR _u_dt$[esp+96]
; File C:\Program Files\Microsoft Visual Studio\2022\Community\VC\Tools\MSVC\14.29.30133\include\vector

; 74   :         ++_Ptr;

	add	esi, 4

; 150  :         return _Ptr == _Right._Ptr;

	cmp	esi, DWORD PTR [ebp+8]
; File I:\Vitalya\mine\NSProjectX\layers\xrRender\ParticleGroup.cpp

; 300  :         for (it=_children_related.begin(); it!=_children_related.end(); it++){

	jne	$LL10@OnFrame
$LN9@OnFrame:
; File C:\Program Files\Microsoft Visual Studio\2022\Community\VC\Tools\MSVC\14.29.30133\include\vector

; 1531 :         return _My_data._Myfirst == _My_data._Mylast;

	mov	esi, DWORD PTR [ebp+16]
	cmp	esi, DWORD PTR [ebp+20]
; File I:\Vitalya\mine\NSProjectX\layers\xrRender\ParticleGroup.cpp

; 315  :     if (!_children_free.empty()){

	je	$LN286@OnFrame

; 316  :     	u32 rem_cnt				= 0;

	mov	DWORD PTR _rem_cnt$1$[esp+96], 0
	npad	6
$LL13@OnFrame:

; 318  :             CParticleEffect* E	= static_cast<CParticleEffect*>(*it);

	mov	ebx, DWORD PTR [esi]

; 319  :             if (E){

	test	ebx, ebx
	je	$LN326@OnFrame

; 320  :                 E->OnFrame		(u_dt);

	mov	eax, DWORD PTR [ebx]
	mov	ecx, ebx
	push	DWORD PTR _u_dt$[esp+96]
	call	DWORD PTR [eax+52]

; 321  :                 if (E->IsPlaying()){ 

	mov	eax, DWORD PTR [ebx]
	mov	ecx, ebx
	call	DWORD PTR [eax+64]
	test	eax, eax
	je	$LN27@OnFrame

; 322  :                     bPlaying	= true;

	mov	eax, DWORD PTR _bPlaying$[esp+96]
; File I:\Vitalya\mine\NSProjectX\xrCore\_fbox.h

; 26   : 	IC	BOOL	is_valid	()											{return (x2>=x1)&&(y2>=y1)&&(z2>=z1);}

	movss	xmm1, DWORD PTR [ebx+24]
	movss	xmm0, DWORD PTR [ebx+36]
	comiss	xmm0, xmm1
; File I:\Vitalya\mine\NSProjectX\layers\xrRender\ParticleGroup.cpp

; 322  :                     bPlaying	= true;

	mov	BYTE PTR [eax], 1
; File I:\Vitalya\mine\NSProjectX\xrCore\_fbox.h

; 26   : 	IC	BOOL	is_valid	()											{return (x2>=x1)&&(y2>=y1)&&(z2>=z1);}

	jb	$LN326@OnFrame
	movss	xmm0, DWORD PTR [ebx+40]
	comiss	xmm0, DWORD PTR [ebx+28]
	jb	$LN326@OnFrame
	movss	xmm0, DWORD PTR [ebx+44]
	comiss	xmm0, DWORD PTR [ebx+32]
	jb	$LN326@OnFrame
; File I:\Vitalya\mine\NSProjectX\xrCore\_vector3d.h

; 53   : 	IC	SelfRef	min(const Self &v)						{ x = _min(x,v.x);	y = _min(y,v.y);	z = _min(z,v.z);			return *this;	}

	movss	xmm0, DWORD PTR [edi]
; File I:\Vitalya\mine\NSProjectX\xrCore\_std_extensions.h

; 93   : template <class T>	IC T		_min	(T a, T b)	{ return a<b?a:b;	}

	comiss	xmm1, xmm0
	ja	SHORT $LN198@OnFrame
	movaps	xmm0, xmm1
$LN198@OnFrame:
; File I:\Vitalya\mine\NSProjectX\xrCore\_vector3d.h

; 53   : 	IC	SelfRef	min(const Self &v)						{ x = _min(x,v.x);	y = _min(y,v.y);	z = _min(z,v.z);			return *this;	}

	movss	DWORD PTR [edi], xmm0
	movss	xmm0, DWORD PTR [edi+4]
	movss	xmm1, DWORD PTR [ebx+28]
; File I:\Vitalya\mine\NSProjectX\xrCore\_std_extensions.h

; 93   : template <class T>	IC T		_min	(T a, T b)	{ return a<b?a:b;	}

	comiss	xmm1, xmm0
	ja	SHORT $LN202@OnFrame
	movaps	xmm0, xmm1
$LN202@OnFrame:
; File I:\Vitalya\mine\NSProjectX\xrCore\_vector3d.h

; 53   : 	IC	SelfRef	min(const Self &v)						{ x = _min(x,v.x);	y = _min(y,v.y);	z = _min(z,v.z);			return *this;	}

	movss	DWORD PTR [edi+4], xmm0
	movss	xmm0, DWORD PTR [edi+8]
	movss	xmm1, DWORD PTR [ebx+32]
; File I:\Vitalya\mine\NSProjectX\xrCore\_std_extensions.h

; 93   : template <class T>	IC T		_min	(T a, T b)	{ return a<b?a:b;	}

	comiss	xmm1, xmm0
	ja	SHORT $LN206@OnFrame
	movaps	xmm0, xmm1
$LN206@OnFrame:
; File I:\Vitalya\mine\NSProjectX\xrCore\_vector3d.h

; 53   : 	IC	SelfRef	min(const Self &v)						{ x = _min(x,v.x);	y = _min(y,v.y);	z = _min(z,v.z);			return *this;	}

	movss	DWORD PTR [edi+8], xmm0

; 55   : 	IC	SelfRef	max(const Self &v)						{ x = _max(x,v.x);	y = _max(y,v.y);	z = _max(z,v.z);			return *this;	}

	movss	xmm0, DWORD PTR [edi+12]
	movss	xmm1, DWORD PTR [ebx+24]
; File I:\Vitalya\mine\NSProjectX\xrCore\_std_extensions.h

; 94   : template <class T>	IC T		_max	(T a, T b)	{ return a>b?a:b;	}

	comiss	xmm0, xmm1
	ja	SHORT $LN212@OnFrame
	movaps	xmm0, xmm1
$LN212@OnFrame:
; File I:\Vitalya\mine\NSProjectX\xrCore\_vector3d.h

; 55   : 	IC	SelfRef	max(const Self &v)						{ x = _max(x,v.x);	y = _max(y,v.y);	z = _max(z,v.z);			return *this;	}

	movss	DWORD PTR [edi+12], xmm0
	movss	xmm0, DWORD PTR [edi+16]
	movss	xmm1, DWORD PTR [ebx+28]
; File I:\Vitalya\mine\NSProjectX\xrCore\_std_extensions.h

; 94   : template <class T>	IC T		_max	(T a, T b)	{ return a>b?a:b;	}

	comiss	xmm0, xmm1
	ja	SHORT $LN216@OnFrame
	movaps	xmm0, xmm1
$LN216@OnFrame:
; File I:\Vitalya\mine\NSProjectX\xrCore\_vector3d.h

; 55   : 	IC	SelfRef	max(const Self &v)						{ x = _max(x,v.x);	y = _max(y,v.y);	z = _max(z,v.z);			return *this;	}

	movss	DWORD PTR [edi+16], xmm0
	movss	xmm0, DWORD PTR [edi+20]
	movss	xmm1, DWORD PTR [ebx+32]
; File I:\Vitalya\mine\NSProjectX\xrCore\_std_extensions.h

; 94   : template <class T>	IC T		_max	(T a, T b)	{ return a>b?a:b;	}

	comiss	xmm0, xmm1
	ja	SHORT $LN220@OnFrame
	movaps	xmm0, xmm1
$LN220@OnFrame:
; File I:\Vitalya\mine\NSProjectX\xrCore\_vector3d.h

; 55   : 	IC	SelfRef	max(const Self &v)						{ x = _max(x,v.x);	y = _max(y,v.y);	z = _max(z,v.z);			return *this;	}

	movss	DWORD PTR [edi+20], xmm0

; 53   : 	IC	SelfRef	min(const Self &v)						{ x = _min(x,v.x);	y = _min(y,v.y);	z = _min(z,v.z);			return *this;	}

	movss	xmm0, DWORD PTR [edi]
	movss	xmm1, DWORD PTR [ebx+36]
; File I:\Vitalya\mine\NSProjectX\xrCore\_std_extensions.h

; 93   : template <class T>	IC T		_min	(T a, T b)	{ return a<b?a:b;	}

	comiss	xmm1, xmm0
	ja	SHORT $LN228@OnFrame
	movaps	xmm0, xmm1
$LN228@OnFrame:
; File I:\Vitalya\mine\NSProjectX\xrCore\_vector3d.h

; 53   : 	IC	SelfRef	min(const Self &v)						{ x = _min(x,v.x);	y = _min(y,v.y);	z = _min(z,v.z);			return *this;	}

	movss	DWORD PTR [edi], xmm0
	movss	xmm0, DWORD PTR [edi+4]
	movss	xmm1, DWORD PTR [ebx+40]
; File I:\Vitalya\mine\NSProjectX\xrCore\_std_extensions.h

; 93   : template <class T>	IC T		_min	(T a, T b)	{ return a<b?a:b;	}

	comiss	xmm1, xmm0
	ja	SHORT $LN232@OnFrame
	movaps	xmm0, xmm1
$LN232@OnFrame:
; File I:\Vitalya\mine\NSProjectX\xrCore\_vector3d.h

; 53   : 	IC	SelfRef	min(const Self &v)						{ x = _min(x,v.x);	y = _min(y,v.y);	z = _min(z,v.z);			return *this;	}

	movss	DWORD PTR [edi+4], xmm0
	movss	xmm0, DWORD PTR [edi+8]
	movss	xmm1, DWORD PTR [ebx+44]
; File I:\Vitalya\mine\NSProjectX\xrCore\_std_extensions.h

; 93   : template <class T>	IC T		_min	(T a, T b)	{ return a<b?a:b;	}

	comiss	xmm1, xmm0
	ja	SHORT $LN236@OnFrame
	movaps	xmm0, xmm1
$LN236@OnFrame:
; File I:\Vitalya\mine\NSProjectX\xrCore\_vector3d.h

; 53   : 	IC	SelfRef	min(const Self &v)						{ x = _min(x,v.x);	y = _min(y,v.y);	z = _min(z,v.z);			return *this;	}

	movss	DWORD PTR [edi+8], xmm0

; 55   : 	IC	SelfRef	max(const Self &v)						{ x = _max(x,v.x);	y = _max(y,v.y);	z = _max(z,v.z);			return *this;	}

	movss	xmm0, DWORD PTR [edi+12]
	movss	xmm1, DWORD PTR [ebx+36]
; File I:\Vitalya\mine\NSProjectX\xrCore\_std_extensions.h

; 94   : template <class T>	IC T		_max	(T a, T b)	{ return a>b?a:b;	}

	comiss	xmm0, xmm1
	ja	SHORT $LN242@OnFrame
	movaps	xmm0, xmm1
$LN242@OnFrame:
; File I:\Vitalya\mine\NSProjectX\xrCore\_vector3d.h

; 55   : 	IC	SelfRef	max(const Self &v)						{ x = _max(x,v.x);	y = _max(y,v.y);	z = _max(z,v.z);			return *this;	}

	movss	DWORD PTR [edi+12], xmm0
	movss	xmm0, DWORD PTR [edi+16]
	movss	xmm1, DWORD PTR [ebx+40]
; File I:\Vitalya\mine\NSProjectX\xrCore\_std_extensions.h

; 94   : template <class T>	IC T		_max	(T a, T b)	{ return a>b?a:b;	}

	comiss	xmm0, xmm1
	ja	SHORT $LN246@OnFrame
	movaps	xmm0, xmm1
$LN246@OnFrame:
; File I:\Vitalya\mine\NSProjectX\xrCore\_vector3d.h

; 55   : 	IC	SelfRef	max(const Self &v)						{ x = _max(x,v.x);	y = _max(y,v.y);	z = _max(z,v.z);			return *this;	}

	movss	DWORD PTR [edi+16], xmm0
	movss	xmm0, DWORD PTR [edi+20]
	movss	xmm1, DWORD PTR [ebx+44]
; File I:\Vitalya\mine\NSProjectX\xrCore\_std_extensions.h

; 94   : template <class T>	IC T		_max	(T a, T b)	{ return a>b?a:b;	}

	comiss	xmm0, xmm1
	ja	SHORT $LN250@OnFrame
	movaps	xmm0, xmm1
$LN250@OnFrame:
; File I:\Vitalya\mine\NSProjectX\xrCore\_vector3d.h

; 55   : 	IC	SelfRef	max(const Self &v)						{ x = _max(x,v.x);	y = _max(y,v.y);	z = _max(z,v.z);			return *this;	}

	movss	DWORD PTR [edi+20], xmm0
$LN326@OnFrame:
; File C:\Program Files\Microsoft Visual Studio\2022\Community\VC\Tools\MSVC\14.29.30133\include\vector

; 74   :         ++_Ptr;

	mov	ebx, DWORD PTR _rem_cnt$1$[esp+96]
$LN11@OnFrame:

; 150  :         return _Ptr == _Right._Ptr;

	mov	eax, DWORD PTR [ebp+20]

; 74   :         ++_Ptr;

	add	esi, 4

; 150  :         return _Ptr == _Right._Ptr;

	cmp	esi, eax
; File I:\Vitalya\mine\NSProjectX\layers\xrRender\ParticleGroup.cpp

; 317  :         for (it=_children_free.begin(); it!=_children_free.end(); it++){

	jne	$LL13@OnFrame

; 327  :                 }
; 328  :             }
; 329  :         }
; 330  :         // remove if stopped
; 331  :         if (rem_cnt){

	test	ebx, ebx
	je	SHORT $LN286@OnFrame
; File C:\Program Files\Microsoft Visual Studio\2022\Community\VC\Tools\MSVC\14.29.30133\include\xutility

; 5529 :     auto _UFirst      = _Get_unwrapped(_First);

	mov	edi, DWORD PTR [ebp+16]

; 5530 :     const auto _ULast = _Get_unwrapped(_Last);
; 5531 :     for (; _UFirst != _ULast; ++_UFirst) {

	cmp	edi, eax
	je	SHORT $LN265@OnFrame
$LL272@OnFrame:
; File I:\Vitalya\mine\NSProjectX\layers\xrRender\ParticleGroup.cpp

; 271  : 	bool operator()(const IRender_Visual* x){ return x==0; }

	cmp	DWORD PTR [edi], 0
; File C:\Program Files\Microsoft Visual Studio\2022\Community\VC\Tools\MSVC\14.29.30133\include\xutility

; 5532 :         if (_Pred(*_UFirst)) {

	je	SHORT $LN322@OnFrame

; 5530 :     const auto _ULast = _Get_unwrapped(_Last);
; 5531 :     for (; _UFirst != _ULast; ++_UFirst) {

	add	edi, 4
	cmp	edi, eax
	jne	SHORT $LL272@OnFrame
$LN322@OnFrame:
; File C:\Program Files\Microsoft Visual Studio\2022\Community\VC\Tools\MSVC\14.29.30133\include\xmemory

; 1983 :     if (_UFirst != _ULast) {

	cmp	edi, eax
	je	SHORT $LN265@OnFrame

; 1984 :         while (++_UFirst != _ULast) {

	lea	ecx, DWORD PTR [edi+4]
	cmp	ecx, eax
	je	SHORT $LN265@OnFrame
	npad	5
$LL264@OnFrame:
; File I:\Vitalya\mine\NSProjectX\layers\xrRender\ParticleGroup.cpp

; 271  : 	bool operator()(const IRender_Visual* x){ return x==0; }

	mov	edx, DWORD PTR [ecx]
	test	edx, edx
; File C:\Program Files\Microsoft Visual Studio\2022\Community\VC\Tools\MSVC\14.29.30133\include\xmemory

; 1985 :             if (!_Pred(*_UFirst)) {

	je	SHORT $LN267@OnFrame

; 1986 :                 *_UNext = _STD move(*_UFirst);

	mov	DWORD PTR [edi], edx

; 1987 :                 ++_UNext;

	add	edi, 4
$LN267@OnFrame:

; 1984 :         while (++_UFirst != _ULast) {

	add	ecx, 4
	cmp	ecx, eax
	jne	SHORT $LL264@OnFrame
$LN265@OnFrame:
; File C:\Program Files\Microsoft Visual Studio\2022\Community\VC\Tools\MSVC\14.29.30133\include\vector

; 1415 :         const pointer _Lastptr  = _Last._Ptr;

	mov	eax, DWORD PTR [ebp+20]

; 1416 :         auto& _My_data          = _Mypair._Myval2;
; 1417 :         pointer& _Mylast        = _My_data._Mylast;
; 1418 : 
; 1419 : #if _ITERATOR_DEBUG_LEVEL == 2
; 1420 :         _STL_VERIFY(_First._Getcont() == _STD addressof(_My_data) && _Last._Getcont() == _STD addressof(_My_data)
; 1421 :                         && _Firstptr >= _My_data._Myfirst && _Lastptr >= _Firstptr && _Mylast >= _Lastptr,
; 1422 :             "vector erase iterator outside range");
; 1423 : #endif // _ITERATOR_DEBUG_LEVEL == 2
; 1424 : 
; 1425 :         if (_Firstptr != _Lastptr) { // something to do, invalidate iterators

	cmp	edi, eax
	je	SHORT $LN286@OnFrame
; File C:\Program Files\Microsoft Visual Studio\2022\Community\VC\Tools\MSVC\14.29.30133\include\xutility

; 4065 :     const auto _Count           = static_cast<size_t>(_Last_ch - _First_ch);

	mov	esi, eax
	sub	esi, eax

; 4066 :     _CSTD memmove(_Dest_ch, _First_ch, _Count);

	push	esi
	push	eax
	push	edi
	call	_memmove

; 4067 :     if constexpr (is_pointer_v<_OutCtgIt>) {
; 4068 :         return reinterpret_cast<_OutCtgIt>(_Dest_ch + _Count);

	lea	eax, DWORD PTR [esi+edi]
	add	esp, 12					; 0000000cH
; File C:\Program Files\Microsoft Visual Studio\2022\Community\VC\Tools\MSVC\14.29.30133\include\vector

; 1430 :             _Mylast = _Newlast;

	mov	DWORD PTR [ebp+20], eax
$LN286@OnFrame:
; File I:\Vitalya\mine\NSProjectX\layers\xrRender\ParticleGroup.cpp

; 337  : }

	pop	edi
	pop	esi
	pop	ebp
	pop	ebx
	add	esp, 84					; 00000054H
	ret	16					; 00000010H
$LN27@OnFrame:

; 323  :                     if (E->vis.box.is_valid()) box.merge	(E->vis.box);
; 324  :                 }else{
; 325  :                 	rem_cnt++	;
; 326  :                     ::Render->model_Delete(*it);

	mov	eax, DWORD PTR __imp_?Render@@3PAVIRender_interface@@A
	mov	ebx, DWORD PTR _rem_cnt$1$[esp+96]
	push	0
	inc	ebx
	mov	ecx, DWORD PTR [eax]
	push	esi
	mov	DWORD PTR _rem_cnt$1$[esp+104], ebx
	mov	eax, DWORD PTR [ecx]
	call	DWORD PTR [eax+172]
; File I:\Vitalya\mine\NSProjectX\xrCore\_fbox.h

; 26   : 	IC	BOOL	is_valid	()											{return (x2>=x1)&&(y2>=y1)&&(z2>=z1);}

	jmp	$LN11@OnFrame
?OnFrame@SItem@CParticleGroup@PS@@QAEXIABUSEffect@CPGDef@3@AAV?$_box3@M@@AA_N@Z ENDP ; PS::CParticleGroup::SItem::OnFrame
_TEXT	ENDS
; Function compile flags: /Ogtpy
; File I:\Vitalya\mine\NSProjectX\layers\xrRender\ParticleGroup.cpp
; File C:\Program Files\Microsoft Visual Studio\2022\Community\VC\Tools\MSVC\14.29.30133\include\vector
; File I:\Vitalya\mine\NSProjectX\layers\xrRender\ParticleGroup.cpp
; File C:\Program Files\Microsoft Visual Studio\2022\Community\VC\Tools\MSVC\14.29.30133\include\vector
; File I:\Vitalya\mine\NSProjectX\layers\xrRender\ParticleGroup.cpp
; File C:\Program Files\Microsoft Visual Studio\2022\Community\VC\Tools\MSVC\14.29.30133\include\vector
; File I:\Vitalya\mine\NSProjectX\layers\xrRender\ParticleGroup.cpp
; File C:\Program Files\Microsoft Visual Studio\2022\Community\VC\Tools\MSVC\14.29.30133\include\vector
; File I:\Vitalya\mine\NSProjectX\layers\xrRender\ParticleGroup.cpp
; File C:\Program Files\Microsoft Visual Studio\2022\Community\VC\Tools\MSVC\14.29.30133\include\vector
; File I:\Vitalya\mine\NSProjectX\xrCore\xrMemory.h
; File I:\Vitalya\mine\NSProjectX\layers\xrRender\ParticleGroup.cpp
_TEXT	SEGMENT
_visuals$ = -12						; size = 12
?OnDeviceCreate@SItem@CParticleGroup@PS@@QAEXXZ PROC	; PS::CParticleGroup::SItem::OnDeviceCreate
; _this$ = ecx

; 339  : {

	sub	esp, 12					; 0000000cH
	push	esi

; 341  :     GetVisuals		(visuals);

	lea	eax, DWORD PTR _visuals$[esp+16]
; File C:\Program Files\Microsoft Visual Studio\2022\Community\VC\Tools\MSVC\14.29.30133\include\vector

; 390  :     _CONSTEXPR20_CONTAINER _Vector_val() noexcept : _Myfirst(), _Mylast(), _Myend() {}

	mov	DWORD PTR _visuals$[esp+16], 0
; File I:\Vitalya\mine\NSProjectX\layers\xrRender\ParticleGroup.cpp

; 341  :     GetVisuals		(visuals);

	push	eax
; File C:\Program Files\Microsoft Visual Studio\2022\Community\VC\Tools\MSVC\14.29.30133\include\vector

; 390  :     _CONSTEXPR20_CONTAINER _Vector_val() noexcept : _Myfirst(), _Mylast(), _Myend() {}

	mov	DWORD PTR _visuals$[esp+24], 0
	mov	DWORD PTR _visuals$[esp+28], 0
; File I:\Vitalya\mine\NSProjectX\layers\xrRender\ParticleGroup.cpp

; 341  :     GetVisuals		(visuals);

	call	?GetVisuals@SItem@CParticleGroup@PS@@QAEIAAV?$xr_vector@PAVIRender_Visual@@V?$xalloc@PAVIRender_Visual@@@@@@@Z ; PS::CParticleGroup::SItem::GetVisuals
; File C:\Program Files\Microsoft Visual Studio\2022\Community\VC\Tools\MSVC\14.29.30133\include\vector

; 41   :     _CONSTEXPR20_CONTAINER _Vector_const_iterator(_Tptr _Parg, const _Container_base* _Pvector) noexcept : _Ptr(_Parg) {

	mov	esi, DWORD PTR _visuals$[esp+16]
	cmp	esi, DWORD PTR _visuals$[esp+20]
; File I:\Vitalya\mine\NSProjectX\layers\xrRender\ParticleGroup.cpp

; 342  :     for (VisualVecIt it=visuals.begin(); it!=visuals.end(); it++)

	je	SHORT $LN3@OnDeviceCr
$LL4@OnDeviceCr:

; 343  : 	    static_cast<CParticleEffect*>(*it)->OnDeviceCreate();

	mov	ecx, DWORD PTR [esi]
	mov	eax, DWORD PTR [ecx]
	call	DWORD PTR [eax+40]
; File C:\Program Files\Microsoft Visual Studio\2022\Community\VC\Tools\MSVC\14.29.30133\include\vector

; 74   :         ++_Ptr;

	add	esi, 4

; 150  :         return _Ptr == _Right._Ptr;

	cmp	esi, DWORD PTR _visuals$[esp+20]
; File I:\Vitalya\mine\NSProjectX\layers\xrRender\ParticleGroup.cpp

; 342  :     for (VisualVecIt it=visuals.begin(); it!=visuals.end(); it++)

	jne	SHORT $LL4@OnDeviceCr
	mov	esi, DWORD PTR _visuals$[esp+16]
$LN3@OnDeviceCr:
; File C:\Program Files\Microsoft Visual Studio\2022\Community\VC\Tools\MSVC\14.29.30133\include\vector

; 1750 :         if (_Myfirst) { // destroy and deallocate old array

	test	esi, esi
	je	SHORT $LN44@OnDeviceCr
; File I:\Vitalya\mine\NSProjectX\xrCore\xrMemory.h

; 109  : 	IC void		xr_free		(T* &P)					{	if (P) { Memory.mem_free((void*)P); P=NULL;	};	}

	mov	ecx, DWORD PTR __imp_?Memory@@3VxrMemory@@A
	push	esi
	call	DWORD PTR __imp_?mem_free@xrMemory@@QAEXPAX@Z
$LN44@OnDeviceCr:
	pop	esi
; File I:\Vitalya\mine\NSProjectX\layers\xrRender\ParticleGroup.cpp

; 344  : }

	add	esp, 12					; 0000000cH
	ret	0
?OnDeviceCreate@SItem@CParticleGroup@PS@@QAEXXZ ENDP	; PS::CParticleGroup::SItem::OnDeviceCreate
_TEXT	ENDS
; Function compile flags: /Ogtpy
; File I:\Vitalya\mine\NSProjectX\layers\xrRender\ParticleGroup.cpp
; File C:\Program Files\Microsoft Visual Studio\2022\Community\VC\Tools\MSVC\14.29.30133\include\vector
; File I:\Vitalya\mine\NSProjectX\layers\xrRender\ParticleGroup.cpp
; File C:\Program Files\Microsoft Visual Studio\2022\Community\VC\Tools\MSVC\14.29.30133\include\vector
; File I:\Vitalya\mine\NSProjectX\layers\xrRender\ParticleGroup.cpp
; File C:\Program Files\Microsoft Visual Studio\2022\Community\VC\Tools\MSVC\14.29.30133\include\vector
; File I:\Vitalya\mine\NSProjectX\layers\xrRender\ParticleGroup.cpp
; File C:\Program Files\Microsoft Visual Studio\2022\Community\VC\Tools\MSVC\14.29.30133\include\vector
; File I:\Vitalya\mine\NSProjectX\layers\xrRender\ParticleGroup.cpp
; File C:\Program Files\Microsoft Visual Studio\2022\Community\VC\Tools\MSVC\14.29.30133\include\vector
; File I:\Vitalya\mine\NSProjectX\xrCore\xrMemory.h
; File I:\Vitalya\mine\NSProjectX\layers\xrRender\ParticleGroup.cpp
_TEXT	SEGMENT
_visuals$ = -12						; size = 12
?OnDeviceDestroy@SItem@CParticleGroup@PS@@QAEXXZ PROC	; PS::CParticleGroup::SItem::OnDeviceDestroy
; _this$ = ecx

; 346  : {

	sub	esp, 12					; 0000000cH
	push	esi

; 348  :     GetVisuals		(visuals);

	lea	eax, DWORD PTR _visuals$[esp+16]
; File C:\Program Files\Microsoft Visual Studio\2022\Community\VC\Tools\MSVC\14.29.30133\include\vector

; 390  :     _CONSTEXPR20_CONTAINER _Vector_val() noexcept : _Myfirst(), _Mylast(), _Myend() {}

	mov	DWORD PTR _visuals$[esp+16], 0
; File I:\Vitalya\mine\NSProjectX\layers\xrRender\ParticleGroup.cpp

; 348  :     GetVisuals		(visuals);

	push	eax
; File C:\Program Files\Microsoft Visual Studio\2022\Community\VC\Tools\MSVC\14.29.30133\include\vector

; 390  :     _CONSTEXPR20_CONTAINER _Vector_val() noexcept : _Myfirst(), _Mylast(), _Myend() {}

	mov	DWORD PTR _visuals$[esp+24], 0
	mov	DWORD PTR _visuals$[esp+28], 0
; File I:\Vitalya\mine\NSProjectX\layers\xrRender\ParticleGroup.cpp

; 348  :     GetVisuals		(visuals);

	call	?GetVisuals@SItem@CParticleGroup@PS@@QAEIAAV?$xr_vector@PAVIRender_Visual@@V?$xalloc@PAVIRender_Visual@@@@@@@Z ; PS::CParticleGroup::SItem::GetVisuals
; File C:\Program Files\Microsoft Visual Studio\2022\Community\VC\Tools\MSVC\14.29.30133\include\vector

; 41   :     _CONSTEXPR20_CONTAINER _Vector_const_iterator(_Tptr _Parg, const _Container_base* _Pvector) noexcept : _Ptr(_Parg) {

	mov	esi, DWORD PTR _visuals$[esp+16]
	cmp	esi, DWORD PTR _visuals$[esp+20]
; File I:\Vitalya\mine\NSProjectX\layers\xrRender\ParticleGroup.cpp

; 349  :     for (VisualVecIt it=visuals.begin(); it!=visuals.end(); it++)

	je	SHORT $LN3@OnDeviceDe
$LL4@OnDeviceDe:

; 350  : 	    static_cast<CParticleEffect*>(*it)->OnDeviceDestroy();

	mov	ecx, DWORD PTR [esi]
	mov	eax, DWORD PTR [ecx]
	call	DWORD PTR [eax+44]
; File C:\Program Files\Microsoft Visual Studio\2022\Community\VC\Tools\MSVC\14.29.30133\include\vector

; 74   :         ++_Ptr;

	add	esi, 4

; 150  :         return _Ptr == _Right._Ptr;

	cmp	esi, DWORD PTR _visuals$[esp+20]
; File I:\Vitalya\mine\NSProjectX\layers\xrRender\ParticleGroup.cpp

; 349  :     for (VisualVecIt it=visuals.begin(); it!=visuals.end(); it++)

	jne	SHORT $LL4@OnDeviceDe
	mov	esi, DWORD PTR _visuals$[esp+16]
$LN3@OnDeviceDe:
; File C:\Program Files\Microsoft Visual Studio\2022\Community\VC\Tools\MSVC\14.29.30133\include\vector

; 1750 :         if (_Myfirst) { // destroy and deallocate old array

	test	esi, esi
	je	SHORT $LN44@OnDeviceDe
; File I:\Vitalya\mine\NSProjectX\xrCore\xrMemory.h

; 109  : 	IC void		xr_free		(T* &P)					{	if (P) { Memory.mem_free((void*)P); P=NULL;	};	}

	mov	ecx, DWORD PTR __imp_?Memory@@3VxrMemory@@A
	push	esi
	call	DWORD PTR __imp_?mem_free@xrMemory@@QAEXPAX@Z
$LN44@OnDeviceDe:
	pop	esi
; File I:\Vitalya\mine\NSProjectX\layers\xrRender\ParticleGroup.cpp

; 351  : }

	add	esp, 12					; 0000000cH
	ret	0
?OnDeviceDestroy@SItem@CParticleGroup@PS@@QAEXXZ ENDP	; PS::CParticleGroup::SItem::OnDeviceDestroy
_TEXT	ENDS
; Function compile flags: /Ogtpy
; File I:\Vitalya\mine\NSProjectX\layers\xrRender\ParticleGroup.cpp
; File C:\Program Files\Microsoft Visual Studio\2022\Community\VC\Tools\MSVC\14.29.30133\include\vector
; File I:\Vitalya\mine\NSProjectX\layers\xrRender\ParticleGroup.cpp
; File C:\Program Files\Microsoft Visual Studio\2022\Community\VC\Tools\MSVC\14.29.30133\include\vector
; File I:\Vitalya\mine\NSProjectX\layers\xrRender\ParticleGroup.cpp
; File C:\Program Files\Microsoft Visual Studio\2022\Community\VC\Tools\MSVC\14.29.30133\include\vector
; File I:\Vitalya\mine\NSProjectX\layers\xrRender\ParticleGroup.cpp
; File C:\Program Files\Microsoft Visual Studio\2022\Community\VC\Tools\MSVC\14.29.30133\include\vector
; File I:\Vitalya\mine\NSProjectX\layers\xrRender\ParticleGroup.cpp
; File C:\Program Files\Microsoft Visual Studio\2022\Community\VC\Tools\MSVC\14.29.30133\include\vector
; File I:\Vitalya\mine\NSProjectX\xrCore\xrMemory.h
; File I:\Vitalya\mine\NSProjectX\layers\xrRender\ParticleGroup.cpp
_TEXT	SEGMENT
_visuals$ = -12						; size = 12
?ParticlesCount@SItem@CParticleGroup@PS@@QAEIXZ PROC	; PS::CParticleGroup::SItem::ParticlesCount
; _this$ = ecx

; 353  : {

	sub	esp, 12					; 0000000cH
	push	esi
	push	edi

; 354  : 	u32 p_count=0;

	xor	edi, edi

; 356  :     GetVisuals		(visuals);

	lea	eax, DWORD PTR _visuals$[esp+20]
	push	eax
; File C:\Program Files\Microsoft Visual Studio\2022\Community\VC\Tools\MSVC\14.29.30133\include\vector

; 390  :     _CONSTEXPR20_CONTAINER _Vector_val() noexcept : _Myfirst(), _Mylast(), _Myend() {}

	mov	DWORD PTR _visuals$[esp+24], edi
	mov	DWORD PTR _visuals$[esp+28], edi
	mov	DWORD PTR _visuals$[esp+32], edi
; File I:\Vitalya\mine\NSProjectX\layers\xrRender\ParticleGroup.cpp

; 356  :     GetVisuals		(visuals);

	call	?GetVisuals@SItem@CParticleGroup@PS@@QAEIAAV?$xr_vector@PAVIRender_Visual@@V?$xalloc@PAVIRender_Visual@@@@@@@Z ; PS::CParticleGroup::SItem::GetVisuals
; File C:\Program Files\Microsoft Visual Studio\2022\Community\VC\Tools\MSVC\14.29.30133\include\vector

; 41   :     _CONSTEXPR20_CONTAINER _Vector_const_iterator(_Tptr _Parg, const _Container_base* _Pvector) noexcept : _Ptr(_Parg) {

	mov	esi, DWORD PTR _visuals$[esp+20]
	cmp	esi, DWORD PTR _visuals$[esp+24]
; File I:\Vitalya\mine\NSProjectX\layers\xrRender\ParticleGroup.cpp

; 357  :     for (VisualVecIt it=visuals.begin(); it!=visuals.end(); it++)

	je	SHORT $LN3@ParticlesC
$LL4@ParticlesC:

; 358  : 	    p_count		+= static_cast<CParticleEffect*>(*it)->ParticlesCount();

	mov	ecx, DWORD PTR [esi]
	mov	eax, DWORD PTR [ecx]
	call	DWORD PTR [eax+68]
; File C:\Program Files\Microsoft Visual Studio\2022\Community\VC\Tools\MSVC\14.29.30133\include\vector

; 74   :         ++_Ptr;

	add	esi, 4
; File I:\Vitalya\mine\NSProjectX\layers\xrRender\ParticleGroup.cpp

; 358  : 	    p_count		+= static_cast<CParticleEffect*>(*it)->ParticlesCount();

	add	edi, eax
; File C:\Program Files\Microsoft Visual Studio\2022\Community\VC\Tools\MSVC\14.29.30133\include\vector

; 150  :         return _Ptr == _Right._Ptr;

	cmp	esi, DWORD PTR _visuals$[esp+24]
; File I:\Vitalya\mine\NSProjectX\layers\xrRender\ParticleGroup.cpp

; 357  :     for (VisualVecIt it=visuals.begin(); it!=visuals.end(); it++)

	jne	SHORT $LL4@ParticlesC
	mov	esi, DWORD PTR _visuals$[esp+20]
$LN3@ParticlesC:
; File C:\Program Files\Microsoft Visual Studio\2022\Community\VC\Tools\MSVC\14.29.30133\include\vector

; 1750 :         if (_Myfirst) { // destroy and deallocate old array

	test	esi, esi
	je	SHORT $LN50@ParticlesC
; File I:\Vitalya\mine\NSProjectX\xrCore\xrMemory.h

; 109  : 	IC void		xr_free		(T* &P)					{	if (P) { Memory.mem_free((void*)P); P=NULL;	};	}

	mov	ecx, DWORD PTR __imp_?Memory@@3VxrMemory@@A
	push	esi
	call	DWORD PTR __imp_?mem_free@xrMemory@@QAEXPAX@Z
$LN50@ParticlesC:
; File I:\Vitalya\mine\NSProjectX\layers\xrRender\ParticleGroup.cpp

; 360  : }

	mov	eax, edi
	pop	edi
	pop	esi
	add	esp, 12					; 0000000cH
	ret	0
?ParticlesCount@SItem@CParticleGroup@PS@@QAEIXZ ENDP	; PS::CParticleGroup::SItem::ParticlesCount
_TEXT	ENDS
; Function compile flags: /Ogtpy
; File I:\Vitalya\mine\NSProjectX\layers\xrRender\ParticleGroup.cpp
; File C:\Program Files\Microsoft Visual Studio\2022\Community\VC\Tools\MSVC\14.29.30133\include\vector
; File I:\Vitalya\mine\NSProjectX\layers\xrRender\ParticleGroup.cpp
; File C:\Program Files\Microsoft Visual Studio\2022\Community\VC\Tools\MSVC\14.29.30133\include\vector
; File I:\Vitalya\mine\NSProjectX\layers\xrRender\ParticleGroup.cpp
; File C:\Program Files\Microsoft Visual Studio\2022\Community\VC\Tools\MSVC\14.29.30133\include\vector
; File I:\Vitalya\mine\NSProjectX\layers\xrRender\ParticleGroup.cpp
; File C:\Program Files\Microsoft Visual Studio\2022\Community\VC\Tools\MSVC\14.29.30133\include\vector
; File I:\Vitalya\mine\NSProjectX\layers\xrRender\ParticleGroup.cpp
; File C:\Program Files\Microsoft Visual Studio\2022\Community\VC\Tools\MSVC\14.29.30133\include\vector
; File I:\Vitalya\mine\NSProjectX\layers\xrRender\ParticleGroup.cpp
; File C:\Program Files\Microsoft Visual Studio\2022\Community\VC\Tools\MSVC\14.29.30133\include\vector
; File I:\Vitalya\mine\NSProjectX\xrCore\xrMemory.h
; File C:\Program Files\Microsoft Visual Studio\2022\Community\VC\Tools\MSVC\14.29.30133\include\vector
; File I:\Vitalya\mine\NSProjectX\layers\xrRender\ParticleGroup.cpp
;	COMDAT ??_GCParticleGroup@PS@@UAEPAXI@Z
_TEXT	SEGMENT
___flags$ = 8						; size = 4
??_GCParticleGroup@PS@@UAEPAXI@Z PROC			; PS::CParticleGroup::`scalar deleting destructor', COMDAT
; _this$ = ecx

; 373  : {

	push	ebx
	push	esi
	mov	esi, ecx

; 375  : 	for (u32 i=0; i<items.size(); i++) items[i].Clear();

	xor	ebx, ebx
	mov	DWORD PTR [esi], OFFSET ??_7CParticleGroup@PS@@6B@
; File C:\Program Files\Microsoft Visual Studio\2022\Community\VC\Tools\MSVC\14.29.30133\include\vector

; 1536 :         return static_cast<size_type>(_My_data._Mylast - _My_data._Myfirst);

	mov	ecx, DWORD PTR [esi+92]
	mov	edx, ecx
	mov	eax, DWORD PTR [esi+96]
	sub	eax, ecx
	sar	eax, 2
	imul	eax, eax, -1227133513
; File I:\Vitalya\mine\NSProjectX\layers\xrRender\ParticleGroup.cpp

; 375  : 	for (u32 i=0; i<items.size(); i++) items[i].Clear();

	test	eax, eax
	je	SHORT $LN6@scalar
	push	edi
	xor	edi, edi
$LL7@scalar:
; File C:\Program Files\Microsoft Visual Studio\2022\Community\VC\Tools\MSVC\14.29.30133\include\vector

; 119  :         _Ptr += _Off;

	mov	ecx, DWORD PTR [esi+92]
	add	ecx, edi
; File I:\Vitalya\mine\NSProjectX\layers\xrRender\ParticleGroup.cpp

; 375  : 	for (u32 i=0; i<items.size(); i++) items[i].Clear();

	call	?Clear@SItem@CParticleGroup@PS@@QAEXXZ	; PS::CParticleGroup::SItem::Clear
; File C:\Program Files\Microsoft Visual Studio\2022\Community\VC\Tools\MSVC\14.29.30133\include\vector

; 1536 :         return static_cast<size_type>(_My_data._Mylast - _My_data._Myfirst);

	mov	ecx, DWORD PTR [esi+92]
; File I:\Vitalya\mine\NSProjectX\layers\xrRender\ParticleGroup.cpp

; 375  : 	for (u32 i=0; i<items.size(); i++) items[i].Clear();

	inc	ebx
; File C:\Program Files\Microsoft Visual Studio\2022\Community\VC\Tools\MSVC\14.29.30133\include\vector

; 1536 :         return static_cast<size_type>(_My_data._Mylast - _My_data._Myfirst);

	mov	eax, DWORD PTR [esi+96]
; File I:\Vitalya\mine\NSProjectX\layers\xrRender\ParticleGroup.cpp

; 375  : 	for (u32 i=0; i<items.size(); i++) items[i].Clear();

	add	edi, 28					; 0000001cH
; File C:\Program Files\Microsoft Visual Studio\2022\Community\VC\Tools\MSVC\14.29.30133\include\vector

; 1536 :         return static_cast<size_type>(_My_data._Mylast - _My_data._Myfirst);

	sub	eax, ecx
	mov	edx, ecx
	sar	eax, 2
	imul	eax, eax, -1227133513
; File I:\Vitalya\mine\NSProjectX\layers\xrRender\ParticleGroup.cpp

; 375  : 	for (u32 i=0; i<items.size(); i++) items[i].Clear();

	cmp	ebx, eax
	jb	SHORT $LL7@scalar
	pop	edi
$LN6@scalar:

; 376  : 	items.clear();

	mov	DWORD PTR [esi+96], ecx
; File C:\Program Files\Microsoft Visual Studio\2022\Community\VC\Tools\MSVC\14.29.30133\include\vector

; 1750 :         if (_Myfirst) { // destroy and deallocate old array

	test	ecx, ecx
	je	SHORT $LN35@scalar
; File I:\Vitalya\mine\NSProjectX\xrCore\xrMemory.h

; 109  : 	IC void		xr_free		(T* &P)					{	if (P) { Memory.mem_free((void*)P); P=NULL;	};	}

	test	edx, edx
	je	SHORT $LN40@scalar
	mov	ecx, DWORD PTR __imp_?Memory@@3VxrMemory@@A
	push	edx
	call	DWORD PTR __imp_?mem_free@xrMemory@@QAEXPAX@Z
$LN40@scalar:
; File C:\Program Files\Microsoft Visual Studio\2022\Community\VC\Tools\MSVC\14.29.30133\include\vector

; 1754 :             _Myfirst = nullptr;

	mov	DWORD PTR [esi+92], 0

; 1755 :             _Mylast  = nullptr;

	mov	DWORD PTR [esi+96], 0

; 1756 :             _Myend   = nullptr;

	mov	DWORD PTR [esi+100], 0
$LN35@scalar:
; File I:\Vitalya\mine\NSProjectX\layers\xrRender\ParticleGroup.cpp

; 377  : }

	mov	ecx, esi
	call	DWORD PTR __imp_??1IParticleCustom@@UAE@XZ
	test	BYTE PTR ___flags$[esp+4], 1
	je	SHORT $LN46@scalar
	push	108					; 0000006cH
	push	esi
	call	??3@YAXPAXI@Z				; operator delete
	add	esp, 8
$LN46@scalar:
	mov	eax, esi
	pop	esi
	pop	ebx
	ret	4
??_GCParticleGroup@PS@@UAEPAXI@Z ENDP			; PS::CParticleGroup::`scalar deleting destructor'
_TEXT	ENDS
; Function compile flags: /Ogtpy
; File C:\Program Files\Microsoft Visual Studio\2022\Community\VC\Tools\MSVC\14.29.30133\include\vector
; File I:\Vitalya\mine\NSProjectX\xrCore\xrMemory.h
; File C:\Program Files\Microsoft Visual Studio\2022\Community\VC\Tools\MSVC\14.29.30133\include\vector
;	COMDAT ??1?$xr_vector@USItem@CParticleGroup@PS@@V?$xalloc@USItem@CParticleGroup@PS@@@@@@QAE@XZ
_TEXT	SEGMENT
??1?$xr_vector@USItem@CParticleGroup@PS@@V?$xalloc@USItem@CParticleGroup@PS@@@@@@QAE@XZ PROC ; xr_vector<PS::CParticleGroup::SItem,xalloc<PS::CParticleGroup::SItem> >::~xr_vector<PS::CParticleGroup::SItem,xalloc<PS::CParticleGroup::SItem> >, COMDAT
; _this$ = ecx

; 1750 :         if (_Myfirst) { // destroy and deallocate old array

	push	esi
	mov	esi, ecx
	mov	eax, DWORD PTR [esi]
	test	eax, eax
	je	SHORT $LN6@xr_vector
; File I:\Vitalya\mine\NSProjectX\xrCore\xrMemory.h

; 109  : 	IC void		xr_free		(T* &P)					{	if (P) { Memory.mem_free((void*)P); P=NULL;	};	}

	mov	ecx, DWORD PTR __imp_?Memory@@3VxrMemory@@A
	push	eax
	call	DWORD PTR __imp_?mem_free@xrMemory@@QAEXPAX@Z
; File C:\Program Files\Microsoft Visual Studio\2022\Community\VC\Tools\MSVC\14.29.30133\include\vector

; 1754 :             _Myfirst = nullptr;

	mov	DWORD PTR [esi], 0

; 1755 :             _Mylast  = nullptr;

	mov	DWORD PTR [esi+4], 0

; 1756 :             _Myend   = nullptr;

	mov	DWORD PTR [esi+8], 0
$LN6@xr_vector:
	pop	esi
	ret	0
??1?$xr_vector@USItem@CParticleGroup@PS@@V?$xalloc@USItem@CParticleGroup@PS@@@@@@QAE@XZ ENDP ; xr_vector<PS::CParticleGroup::SItem,xalloc<PS::CParticleGroup::SItem> >::~xr_vector<PS::CParticleGroup::SItem,xalloc<PS::CParticleGroup::SItem> >
_TEXT	ENDS
; Function compile flags: /Ogtpy
; File I:\Vitalya\mine\NSProjectX\layers\xrRender\ParticleGroup.cpp
; File C:\Program Files\Microsoft Visual Studio\2022\Community\VC\Tools\MSVC\14.29.30133\include\vector
; File I:\Vitalya\mine\NSProjectX\layers\xrRender\ParticleGroup.cpp
; File C:\Program Files\Microsoft Visual Studio\2022\Community\VC\Tools\MSVC\14.29.30133\include\vector
; File I:\Vitalya\mine\NSProjectX\layers\xrRender\ParticleGroup.cpp
; File C:\Program Files\Microsoft Visual Studio\2022\Community\VC\Tools\MSVC\14.29.30133\include\vector
; File I:\Vitalya\mine\NSProjectX\layers\xrRender\ParticleGroup.cpp
; File C:\Program Files\Microsoft Visual Studio\2022\Community\VC\Tools\MSVC\14.29.30133\include\vector
; File I:\Vitalya\mine\NSProjectX\layers\xrRender\ParticleGroup.cpp
; File C:\Program Files\Microsoft Visual Studio\2022\Community\VC\Tools\MSVC\14.29.30133\include\vector
; File I:\Vitalya\mine\NSProjectX\layers\xrRender\ParticleGroup.cpp
; File C:\Program Files\Microsoft Visual Studio\2022\Community\VC\Tools\MSVC\14.29.30133\include\vector
; File I:\Vitalya\mine\NSProjectX\xrCore\xrMemory.h
; File C:\Program Files\Microsoft Visual Studio\2022\Community\VC\Tools\MSVC\14.29.30133\include\vector
; File I:\Vitalya\mine\NSProjectX\layers\xrRender\ParticleGroup.cpp
_TEXT	SEGMENT
??1CParticleGroup@PS@@UAE@XZ PROC			; PS::CParticleGroup::~CParticleGroup
; _this$ = ecx

; 373  : {

	push	ebx
	push	esi
	mov	esi, ecx

; 375  : 	for (u32 i=0; i<items.size(); i++) items[i].Clear();

	xor	ebx, ebx
	mov	DWORD PTR [esi], OFFSET ??_7CParticleGroup@PS@@6B@
; File C:\Program Files\Microsoft Visual Studio\2022\Community\VC\Tools\MSVC\14.29.30133\include\vector

; 1536 :         return static_cast<size_type>(_My_data._Mylast - _My_data._Myfirst);

	mov	ecx, DWORD PTR [esi+92]
	mov	edx, ecx
	mov	eax, DWORD PTR [esi+96]
	sub	eax, ecx
	sar	eax, 2
	imul	eax, eax, -1227133513
; File I:\Vitalya\mine\NSProjectX\layers\xrRender\ParticleGroup.cpp

; 375  : 	for (u32 i=0; i<items.size(); i++) items[i].Clear();

	test	eax, eax
	je	SHORT $LN3@CParticleG
	push	edi
	xor	edi, edi
$LL4@CParticleG:
; File C:\Program Files\Microsoft Visual Studio\2022\Community\VC\Tools\MSVC\14.29.30133\include\vector

; 119  :         _Ptr += _Off;

	mov	ecx, DWORD PTR [esi+92]
	add	ecx, edi
; File I:\Vitalya\mine\NSProjectX\layers\xrRender\ParticleGroup.cpp

; 375  : 	for (u32 i=0; i<items.size(); i++) items[i].Clear();

	call	?Clear@SItem@CParticleGroup@PS@@QAEXXZ	; PS::CParticleGroup::SItem::Clear
; File C:\Program Files\Microsoft Visual Studio\2022\Community\VC\Tools\MSVC\14.29.30133\include\vector

; 1536 :         return static_cast<size_type>(_My_data._Mylast - _My_data._Myfirst);

	mov	ecx, DWORD PTR [esi+92]
; File I:\Vitalya\mine\NSProjectX\layers\xrRender\ParticleGroup.cpp

; 375  : 	for (u32 i=0; i<items.size(); i++) items[i].Clear();

	inc	ebx
; File C:\Program Files\Microsoft Visual Studio\2022\Community\VC\Tools\MSVC\14.29.30133\include\vector

; 1536 :         return static_cast<size_type>(_My_data._Mylast - _My_data._Myfirst);

	mov	eax, DWORD PTR [esi+96]
; File I:\Vitalya\mine\NSProjectX\layers\xrRender\ParticleGroup.cpp

; 375  : 	for (u32 i=0; i<items.size(); i++) items[i].Clear();

	add	edi, 28					; 0000001cH
; File C:\Program Files\Microsoft Visual Studio\2022\Community\VC\Tools\MSVC\14.29.30133\include\vector

; 1536 :         return static_cast<size_type>(_My_data._Mylast - _My_data._Myfirst);

	sub	eax, ecx
	mov	edx, ecx
	sar	eax, 2
	imul	eax, eax, -1227133513
; File I:\Vitalya\mine\NSProjectX\layers\xrRender\ParticleGroup.cpp

; 375  : 	for (u32 i=0; i<items.size(); i++) items[i].Clear();

	cmp	ebx, eax
	jb	SHORT $LL4@CParticleG
	pop	edi
$LN3@CParticleG:

; 376  : 	items.clear();

	mov	DWORD PTR [esi+96], ecx
; File C:\Program Files\Microsoft Visual Studio\2022\Community\VC\Tools\MSVC\14.29.30133\include\vector

; 1750 :         if (_Myfirst) { // destroy and deallocate old array

	test	ecx, ecx
	je	SHORT $LN32@CParticleG
; File I:\Vitalya\mine\NSProjectX\xrCore\xrMemory.h

; 109  : 	IC void		xr_free		(T* &P)					{	if (P) { Memory.mem_free((void*)P); P=NULL;	};	}

	test	edx, edx
	je	SHORT $LN37@CParticleG
	mov	ecx, DWORD PTR __imp_?Memory@@3VxrMemory@@A
	push	edx
	call	DWORD PTR __imp_?mem_free@xrMemory@@QAEXPAX@Z
$LN37@CParticleG:
; File C:\Program Files\Microsoft Visual Studio\2022\Community\VC\Tools\MSVC\14.29.30133\include\vector

; 1754 :             _Myfirst = nullptr;

	mov	DWORD PTR [esi+92], 0

; 1755 :             _Mylast  = nullptr;

	mov	DWORD PTR [esi+96], 0

; 1756 :             _Myend   = nullptr;

	mov	DWORD PTR [esi+100], 0
$LN32@CParticleG:
; File I:\Vitalya\mine\NSProjectX\layers\xrRender\ParticleGroup.cpp

; 377  : }

	mov	ecx, esi
	pop	esi
	pop	ebx
	jmp	DWORD PTR __imp_??1IParticleCustom@@UAE@XZ
??1CParticleGroup@PS@@UAE@XZ ENDP			; PS::CParticleGroup::~CParticleGroup
_TEXT	ENDS
; Function compile flags: /Ogtpy
; File I:\Vitalya\mine\NSProjectX\layers\xrRender\ParticleGroup.cpp
; File I:\Vitalya\mine\NSProjectX\xrCore\_flags.h
; File I:\Vitalya\mine\NSProjectX\layers\xrRender\ParticleGroup.cpp
; File C:\Program Files\Microsoft Visual Studio\2022\Community\VC\Tools\MSVC\14.29.30133\include\vector
; File I:\Vitalya\mine\NSProjectX\layers\xrRender\ParticleGroup.cpp
; File C:\Program Files\Microsoft Visual Studio\2022\Community\VC\Tools\MSVC\14.29.30133\include\vector
; File I:\Vitalya\mine\NSProjectX\layers\xrRender\ParticleGroup.cpp
; File I:\Vitalya\mine\NSProjectX\xrCore\_flags.h
; File I:\Vitalya\mine\NSProjectX\layers\xrRender\ParticleGroup.cpp
; File C:\Program Files\Microsoft Visual Studio\2022\Community\VC\Tools\MSVC\14.29.30133\include\vector
; File I:\Vitalya\mine\NSProjectX\layers\xrRender\ParticleGroup.cpp
; File I:\Vitalya\mine\NSProjectX\xrCore\_flags.h
; File I:\Vitalya\mine\NSProjectX\layers\xrRender\ParticleGroup.cpp
; File I:\Vitalya\mine\NSProjectX\xrCore\_flags.h
; File I:\Vitalya\mine\NSProjectX\layers\xrRender\ParticleGroup.cpp
; File C:\Program Files\Microsoft Visual Studio\2022\Community\VC\Tools\MSVC\14.29.30133\include\vector
; File I:\Vitalya\mine\NSProjectX\layers\xrRender\ParticleGroup.cpp
; File C:\Program Files\Microsoft Visual Studio\2022\Community\VC\Tools\MSVC\14.29.30133\include\vector
; File I:\Vitalya\mine\NSProjectX\layers\xrRender\ParticleGroup.cpp
; File I:\Vitalya\mine\NSProjectX\xrCore\_vector3d.h
; File I:\Vitalya\mine\NSProjectX\layers\xrRender\ParticleGroup.cpp
; File I:\Vitalya\mine\NSProjectX\xrCore\_vector3d.h
; File C:\Program Files\Microsoft Visual Studio\2022\Community\VC\Tools\MSVC\14.29.30133\include\vector
; File I:\Vitalya\mine\NSProjectX\xrCore\_vector3d.h
; File I:\Vitalya\mine\NSProjectX\layers\xrRender\ParticleGroup.cpp
; File I:\Vitalya\mine\NSProjectX\xrCore\_vector3d.h
; File C:\Program Files\Microsoft Visual Studio\2022\Community\VC\Tools\MSVC\14.29.30133\include\vector
; File I:\Vitalya\mine\NSProjectX\layers\xrRender\ParticleGroup.cpp
; File C:\Program Files\Microsoft Visual Studio\2022\Community\VC\Tools\MSVC\14.29.30133\include\vector
; File I:\Vitalya\mine\NSProjectX\layers\xrRender\ParticleGroup.cpp
; File C:\Program Files\Microsoft Visual Studio\2022\Community\VC\Tools\MSVC\14.29.30133\include\vector
; File I:\Vitalya\mine\NSProjectX\layers\xrRender\ParticleGroup.cpp
; File I:\Vitalya\mine\NSProjectX\xrCore\_flags.h
; File I:\Vitalya\mine\NSProjectX\layers\xrRender\ParticleGroup.cpp
; File I:\Vitalya\mine\NSProjectX\xrCore\_flags.h
; File I:\Vitalya\mine\NSProjectX\xrCore\_fbox.h
; File I:\Vitalya\mine\NSProjectX\xrCore\_vector3d.h
; File I:\Vitalya\mine\NSProjectX\xrCore\_fbox.h
; File I:\Vitalya\mine\NSProjectX\xrCore\_vector3d.h
; File I:\Vitalya\mine\NSProjectX\xrCore\_fbox.h
; File I:\Vitalya\mine\NSProjectX\xrCore\_vector3d.h
; File I:\Vitalya\mine\NSProjectX\xrCore\_fbox.h
; File I:\Vitalya\mine\NSProjectX\xrCore\_vector3d.h
; File I:\Vitalya\mine\NSProjectX\xrCore\_fbox.h
; File I:\Vitalya\mine\NSProjectX\xrCore\_vector3d.h
; File I:\Vitalya\mine\NSProjectX\xrCore\_fbox.h
; File I:\Vitalya\mine\NSProjectX\xrCore\_vector3d.h
; File C:\Program Files (x86)\Windows Kits\10\Include\10.0.22000.0\ucrt\corecrt_math.h
; File I:\Vitalya\mine\NSProjectX\layers\xrRender\ParticleGroup.cpp
; File I:\Vitalya\mine\NSProjectX\xrCore\_vector3d.h
; File I:\Vitalya\mine\NSProjectX\xrCore\_fbox.h
; File I:\Vitalya\mine\NSProjectX\xrCore\_vector3d.h
; File I:\Vitalya\mine\NSProjectX\xrCore\_fbox.h
; File I:\Vitalya\mine\NSProjectX\xrCore\_vector3d.h
; File I:\Vitalya\mine\NSProjectX\xrCore\_fbox.h
; File I:\Vitalya\mine\NSProjectX\xrCore\_vector3d.h
; File I:\Vitalya\mine\NSProjectX\xrCore\_fbox.h
; File I:\Vitalya\mine\NSProjectX\xrCore\_vector3d.h
; File I:\Vitalya\mine\NSProjectX\xrCore\_fbox.h
; File I:\Vitalya\mine\NSProjectX\xrCore\_vector3d.h
; File C:\Program Files (x86)\Windows Kits\10\Include\10.0.22000.0\ucrt\corecrt_math.h
; File I:\Vitalya\mine\NSProjectX\layers\xrRender\ParticleGroup.cpp
_TEXT	SEGMENT
_bPlaying$1 = -33					; size = 1
tv1778 = -32						; size = 4
_f_dt$2 = -32						; size = 4
$T3 = -28						; size = 4
_box$4 = -24						; size = 24
_u_dt$ = 8						; size = 4
?OnFrame@CParticleGroup@PS@@UAEXI@Z PROC		; PS::CParticleGroup::OnFrame
; _this$ = ecx

; 380  : {

	push	ebp
	mov	ebp, esp
	and	esp, -8					; fffffff8H
	sub	esp, 36					; 00000024H
	push	ebx
	push	esi
	push	edi
	mov	edi, ecx

; 381  : 	if (m_Def&&m_RT_Flags.is(flRT_Playing)){

	mov	ecx, DWORD PTR [edi+72]
	test	ecx, ecx
	je	$LN11@OnFrame
; File I:\Vitalya\mine\NSProjectX\xrCore\_flags.h

; 23   : 	IC 	BOOL	is		(const T mask)						const	{ return mask==(flags&mask);			}

	mov	al, BYTE PTR [edi+104]
	test	al, 1
; File I:\Vitalya\mine\NSProjectX\layers\xrRender\ParticleGroup.cpp

; 381  : 	if (m_Def&&m_RT_Flags.is(flRT_Playing)){

	je	$LN11@OnFrame

; 382  :         float ct	= m_CurrentTime;

	movss	xmm1, DWORD PTR [edi+76]

; 383  :         float f_dt	= float(u_dt)/1000.f;

	mov	ebx, DWORD PTR _u_dt$[ebp]
	movss	DWORD PTR $T3[esp+48], xmm1
	fild	DWORD PTR _u_dt$[ebp]
	test	ebx, ebx
	jns	SHORT $LN202@OnFrame
	fadd	DWORD PTR __real@4f800000
$LN202@OnFrame:
	fmul	DWORD PTR __real@3a83126f
; File C:\Program Files\Microsoft Visual Studio\2022\Community\VC\Tools\MSVC\14.29.30133\include\vector

; 41   :     _CONSTEXPR20_CONTAINER _Vector_const_iterator(_Tptr _Parg, const _Container_base* _Pvector) noexcept : _Ptr(_Parg) {

	mov	esi, DWORD PTR [ecx+12]
; File I:\Vitalya\mine\NSProjectX\layers\xrRender\ParticleGroup.cpp

; 383  :         float f_dt	= float(u_dt)/1000.f;

	fstp	DWORD PTR _f_dt$2[esp+48]

; 384  :         for (CPGDef::EffectVec::const_iterator e_it=m_Def->m_Effects.begin(); e_it!=m_Def->m_Effects.end(); e_it++){	

	movss	xmm0, DWORD PTR _f_dt$2[esp+48]
; File C:\Program Files\Microsoft Visual Studio\2022\Community\VC\Tools\MSVC\14.29.30133\include\vector

; 150  :         return _Ptr == _Right._Ptr;

	cmp	esi, DWORD PTR [ecx+16]
; File I:\Vitalya\mine\NSProjectX\layers\xrRender\ParticleGroup.cpp

; 384  :         for (CPGDef::EffectVec::const_iterator e_it=m_Def->m_Effects.begin(); e_it!=m_Def->m_Effects.end(); e_it++){	

	je	$LN3@OnFrame
	npad	5
$LL4@OnFrame:
; File I:\Vitalya\mine\NSProjectX\xrCore\_flags.h

; 23   : 	IC 	BOOL	is		(const T mask)						const	{ return mask==(flags&mask);			}

	mov	eax, DWORD PTR [esi]
; File I:\Vitalya\mine\NSProjectX\layers\xrRender\ParticleGroup.cpp

; 385  :             if ((*e_it)->m_Flags.is(CPGDef::SEffect::flEnabled)){

	test	BYTE PTR [eax], 4
	je	$LN2@OnFrame
; File C:\Program Files\Microsoft Visual Studio\2022\Community\VC\Tools\MSVC\14.29.30133\include\vector

; 141  :         return _Ptr - _Right._Ptr;

	mov	eax, esi
	sub	eax, DWORD PTR [ecx+12]
	sar	eax, 2

; 119  :         _Ptr += _Off;

	lea	ecx, DWORD PTR [eax*8]
	sub	ecx, eax
	mov	eax, DWORD PTR [edi+92]
	lea	ebx, DWORD PTR [eax+ecx*4]
; File I:\Vitalya\mine\NSProjectX\layers\xrRender\ParticleGroup.cpp

; 233  :     CParticleEffect* E	= static_cast<CParticleEffect*>(_effect);

	mov	ecx, DWORD PTR [ebx]

; 234  :     return E?E->IsPlaying():FALSE;

	test	ecx, ecx
	je	SHORT $LN200@OnFrame
	mov	eax, DWORD PTR [ecx]
	call	DWORD PTR [eax+64]

; 386  :             	VERIFY				(items.size()==m_Def->m_Effects.size());
; 387  :                 SItem& I			= items[e_it-m_Def->m_Effects.begin()];
; 388  :                 if (I.IsPlaying()){

	movss	xmm1, DWORD PTR $T3[esp+48]
	test	eax, eax
	je	SHORT $LN201@OnFrame

; 389  :                     if ((ct<=(*e_it)->m_Time1)&&(ct+f_dt>=(*e_it)->m_Time1))	

	mov	eax, DWORD PTR [esi]
	movss	xmm2, DWORD PTR [eax+24]
	comiss	xmm2, xmm1
	jb	SHORT $LN2@OnFrame
	movss	xmm0, DWORD PTR _f_dt$2[esp+48]
	addss	xmm0, xmm1
	comiss	xmm0, xmm2
	jb	SHORT $LN2@OnFrame
; File I:\Vitalya\mine\NSProjectX\xrCore\_flags.h

; 23   : 	IC 	BOOL	is		(const T mask)						const	{ return mask==(flags&mask);			}

	mov	eax, DWORD PTR [eax]
; File I:\Vitalya\mine\NSProjectX\layers\xrRender\ParticleGroup.cpp

; 390  :                         I.Stop((*e_it)->m_Flags.is(CPGDef::SEffect::flDefferedStop));

	mov	ecx, ebx
; File I:\Vitalya\mine\NSProjectX\xrCore\_flags.h

; 23   : 	IC 	BOOL	is		(const T mask)						const	{ return mask==(flags&mask);			}

	and	eax, 1
; File I:\Vitalya\mine\NSProjectX\layers\xrRender\ParticleGroup.cpp

; 390  :                         I.Stop((*e_it)->m_Flags.is(CPGDef::SEffect::flDefferedStop));

	push	eax
	call	?Stop@SItem@CParticleGroup@PS@@QAEXH@Z	; PS::CParticleGroup::SItem::Stop

; 391  :                 }else{

	jmp	SHORT $LN203@OnFrame
$LN201@OnFrame:

; 386  :             	VERIFY				(items.size()==m_Def->m_Effects.size());
; 387  :                 SItem& I			= items[e_it-m_Def->m_Effects.begin()];
; 388  :                 if (I.IsPlaying()){

	movss	xmm0, DWORD PTR _f_dt$2[esp+48]
$LN200@OnFrame:

; 392  :                     if (!m_RT_Flags.is(flRT_DefferedStop))

	test	BYTE PTR [edi+104], 2
	jne	SHORT $LN2@OnFrame

; 393  :                         if ((ct<=(*e_it)->m_Time0)&&(ct+f_dt>=(*e_it)->m_Time0))	

	mov	eax, DWORD PTR [esi]
	movss	xmm2, DWORD PTR [eax+20]
	comiss	xmm2, xmm1
	jb	SHORT $LN2@OnFrame
	addss	xmm0, xmm1
	comiss	xmm0, xmm2
	jb	SHORT $LN2@OnFrame

; 210  :     CParticleEffect* E	= static_cast<CParticleEffect*>(_effect);

	mov	ecx, DWORD PTR [ebx]

; 211  :     if (E) E->Play();

	test	ecx, ecx
	je	SHORT $LN2@OnFrame
	mov	eax, DWORD PTR [ecx]
	call	DWORD PTR [eax+56]
$LN203@OnFrame:
; File C:\Program Files\Microsoft Visual Studio\2022\Community\VC\Tools\MSVC\14.29.30133\include\vector

; 74   :         ++_Ptr;

	movss	xmm1, DWORD PTR $T3[esp+48]
$LN2@OnFrame:

; 1478 :         return const_iterator(_My_data._Mylast, _STD addressof(_My_data));

	mov	ecx, DWORD PTR [edi+72]

; 74   :         ++_Ptr;

	add	esi, 4
; File I:\Vitalya\mine\NSProjectX\layers\xrRender\ParticleGroup.cpp

; 384  :         for (CPGDef::EffectVec::const_iterator e_it=m_Def->m_Effects.begin(); e_it!=m_Def->m_Effects.end(); e_it++){	

	movss	xmm0, DWORD PTR _f_dt$2[esp+48]
; File C:\Program Files\Microsoft Visual Studio\2022\Community\VC\Tools\MSVC\14.29.30133\include\vector

; 150  :         return _Ptr == _Right._Ptr;

	cmp	esi, DWORD PTR [ecx+16]
; File I:\Vitalya\mine\NSProjectX\layers\xrRender\ParticleGroup.cpp

; 384  :         for (CPGDef::EffectVec::const_iterator e_it=m_Def->m_Effects.begin(); e_it!=m_Def->m_Effects.end(); e_it++){	

	jne	$LL4@OnFrame
	movss	xmm1, DWORD PTR [edi+76]
	mov	al, BYTE PTR [edi+104]
	mov	ebx, DWORD PTR _u_dt$[ebp]
$LN3@OnFrame:

; 394  :                             I.Play();
; 395  :                 }
; 396  :             }
; 397  :         }
; 398  :         m_CurrentTime 	+= f_dt;

	addss	xmm1, xmm0
	movss	DWORD PTR [edi+76], xmm1

; 399  :         if ((m_CurrentTime>m_Def->m_fTimeLimit)&&(m_Def->m_fTimeLimit>0.f))

	movss	xmm0, DWORD PTR [ecx+8]
	comiss	xmm1, xmm0
	jbe	SHORT $LN20@OnFrame
	comiss	xmm0, DWORD PTR __real@00000000
	jbe	SHORT $LN20@OnFrame

; 400  :             if (!m_RT_Flags.is(flRT_DefferedStop)) Stop(true);

	test	al, 2
	jne	SHORT $LN20@OnFrame
	mov	eax, DWORD PTR [edi]
	mov	ecx, edi
	push	1
	call	DWORD PTR [eax+60]
$LN20@OnFrame:
; File I:\Vitalya\mine\NSProjectX\xrCore\_vector3d.h

; 23   : 	ICF	SelfRef	set(T _x, T _y, T _z)					{ x = _x;		y = _y;		z = _z;		return *this;	};

	movss	xmm1, DWORD PTR __real@7f7fffff
; File I:\Vitalya\mine\NSProjectX\layers\xrRender\ParticleGroup.cpp

; 402  :         bool bPlaying = false;

	xor	cl, cl
; File I:\Vitalya\mine\NSProjectX\xrCore\_vector3d.h

; 23   : 	ICF	SelfRef	set(T _x, T _y, T _z)					{ x = _x;		y = _y;		z = _z;		return *this;	};

	movss	xmm0, DWORD PTR __real@ff7fffff
	movaps	xmm2, xmm1
; File C:\Program Files\Microsoft Visual Studio\2022\Community\VC\Tools\MSVC\14.29.30133\include\vector

; 41   :     _CONSTEXPR20_CONTAINER _Vector_const_iterator(_Tptr _Parg, const _Container_base* _Pvector) noexcept : _Ptr(_Parg) {

	mov	esi, DWORD PTR [edi+92]
; File I:\Vitalya\mine\NSProjectX\xrCore\_vector3d.h

; 23   : 	ICF	SelfRef	set(T _x, T _y, T _z)					{ x = _x;		y = _y;		z = _z;		return *this;	};

	movaps	xmm3, xmm1
	movaps	xmm4, xmm0
	movaps	xmm5, xmm0
; File I:\Vitalya\mine\NSProjectX\layers\xrRender\ParticleGroup.cpp

; 402  :         bool bPlaying = false;

	mov	BYTE PTR _bPlaying$1[esp+48], cl
; File I:\Vitalya\mine\NSProjectX\xrCore\_vector3d.h

; 23   : 	ICF	SelfRef	set(T _x, T _y, T _z)					{ x = _x;		y = _y;		z = _z;		return *this;	};

	movss	DWORD PTR _box$4[esp+48], xmm1
	movss	DWORD PTR _box$4[esp+52], xmm2
	movss	DWORD PTR _box$4[esp+56], xmm3
	movss	DWORD PTR _box$4[esp+60], xmm0
	movss	DWORD PTR _box$4[esp+64], xmm4
	movss	DWORD PTR _box$4[esp+68], xmm5
; File C:\Program Files\Microsoft Visual Studio\2022\Community\VC\Tools\MSVC\14.29.30133\include\vector

; 150  :         return _Ptr == _Right._Ptr;

	cmp	esi, DWORD PTR [edi+96]
; File I:\Vitalya\mine\NSProjectX\layers\xrRender\ParticleGroup.cpp

; 404  :         for (SItemVecIt i_it=items.begin(); i_it!=items.end(); i_it++) 

	je	SHORT $LN9@OnFrame
	npad	6
$LL10@OnFrame:

; 405  :         	i_it->OnFrame(u_dt,*m_Def->m_Effects[i_it-items.begin()],box,bPlaying);

	lea	eax, DWORD PTR _bPlaying$1[esp+48]
	push	eax
	lea	eax, DWORD PTR _box$4[esp+52]
	push	eax
; File C:\Program Files\Microsoft Visual Studio\2022\Community\VC\Tools\MSVC\14.29.30133\include\vector

; 141  :         return _Ptr - _Right._Ptr;

	mov	eax, esi
	sub	eax, DWORD PTR [edi+92]
	sar	eax, 2
	imul	ecx, eax, -1227133513
; File I:\Vitalya\mine\NSProjectX\layers\xrRender\ParticleGroup.cpp

; 405  :         	i_it->OnFrame(u_dt,*m_Def->m_Effects[i_it-items.begin()],box,bPlaying);

	mov	eax, DWORD PTR [edi+72]
	mov	eax, DWORD PTR [eax+12]
	push	DWORD PTR [eax+ecx*4]
	mov	ecx, esi
	push	ebx
	call	?OnFrame@SItem@CParticleGroup@PS@@QAEXIABUSEffect@CPGDef@3@AAV?$_box3@M@@AA_N@Z ; PS::CParticleGroup::SItem::OnFrame
; File C:\Program Files\Microsoft Visual Studio\2022\Community\VC\Tools\MSVC\14.29.30133\include\vector

; 74   :         ++_Ptr;

	add	esi, 28					; 0000001cH

; 150  :         return _Ptr == _Right._Ptr;

	cmp	esi, DWORD PTR [edi+96]
; File I:\Vitalya\mine\NSProjectX\layers\xrRender\ParticleGroup.cpp

; 404  :         for (SItemVecIt i_it=items.begin(); i_it!=items.end(); i_it++) 

	jne	SHORT $LL10@OnFrame
	mov	cl, BYTE PTR _bPlaying$1[esp+48]
	movss	xmm5, DWORD PTR _box$4[esp+68]
	movss	xmm4, DWORD PTR _box$4[esp+64]
	movss	xmm0, DWORD PTR _box$4[esp+60]
	movss	xmm3, DWORD PTR _box$4[esp+56]
	movss	xmm2, DWORD PTR _box$4[esp+52]
	movss	xmm1, DWORD PTR _box$4[esp+48]
$LN9@OnFrame:
; File I:\Vitalya\mine\NSProjectX\xrCore\_flags.h

; 23   : 	IC 	BOOL	is		(const T mask)						const	{ return mask==(flags&mask);			}

	mov	al, BYTE PTR [edi+104]
; File I:\Vitalya\mine\NSProjectX\layers\xrRender\ParticleGroup.cpp

; 407  :         if (m_RT_Flags.is(flRT_DefferedStop)&&!bPlaying){

	test	al, 2
	je	SHORT $LN143@OnFrame
	test	cl, cl
	jne	SHORT $LN143@OnFrame
; File I:\Vitalya\mine\NSProjectX\xrCore\_flags.h

; 22   : 	IC	SelfRef	set		(const T mask,	BOOL value)					{ if (value) flags|=mask; else flags&=~mask; return *this; }

	and	al, 252					; 000000fcH
	mov	BYTE PTR [edi+104], al
$LN143@OnFrame:
; File I:\Vitalya\mine\NSProjectX\xrCore\_fbox.h

; 26   : 	IC	BOOL	is_valid	()											{return (x2>=x1)&&(y2>=y1)&&(z2>=z1);}

	comiss	xmm0, xmm1
	jb	$LN12@OnFrame
	comiss	xmm4, xmm2
	jb	$LN12@OnFrame
	comiss	xmm5, xmm3
	jb	$LN12@OnFrame
; File I:\Vitalya\mine\NSProjectX\xrCore\_vector3d.h

; 24   : 	ICF SelfRef	set(const _vector3<float> &v)			{ x = T(v.x);	y = T(v.y);	z = T(v.z);	return *this;	};

	movss	DWORD PTR [edi+24], xmm1
; File I:\Vitalya\mine\NSProjectX\xrCore\_fbox.h

; 97   : 		C.x = (min.x + max.x) * 0.5f;

	addss	xmm1, xmm0
; File I:\Vitalya\mine\NSProjectX\xrCore\_vector3d.h

; 24   : 	ICF SelfRef	set(const _vector3<float> &v)			{ x = T(v.x);	y = T(v.y);	z = T(v.z);	return *this;	};

	movss	DWORD PTR [edi+28], xmm2
; File I:\Vitalya\mine\NSProjectX\xrCore\_fbox.h

; 98   : 		C.y = (min.y + max.y) * 0.5f;

	addss	xmm2, xmm4
; File I:\Vitalya\mine\NSProjectX\xrCore\_vector3d.h

; 24   : 	ICF SelfRef	set(const _vector3<float> &v)			{ x = T(v.x);	y = T(v.y);	z = T(v.z);	return *this;	};

	movss	DWORD PTR [edi+32], xmm3
; File I:\Vitalya\mine\NSProjectX\xrCore\_fbox.h

; 99   : 		C.z = (min.z + max.z) * 0.5f;

	addss	xmm3, xmm5
; File I:\Vitalya\mine\NSProjectX\xrCore\_vector3d.h

; 24   : 	ICF SelfRef	set(const _vector3<float> &v)			{ x = T(v.x);	y = T(v.y);	z = T(v.z);	return *this;	};

	movss	DWORD PTR [edi+36], xmm0
; File I:\Vitalya\mine\NSProjectX\xrCore\_fbox.h

; 97   : 		C.x = (min.x + max.x) * 0.5f;

	movss	xmm0, DWORD PTR __real@3f000000
	mulss	xmm1, xmm0

; 98   : 		C.y = (min.y + max.y) * 0.5f;

	mulss	xmm2, xmm0

; 99   : 		C.z = (min.z + max.z) * 0.5f;

	mulss	xmm3, xmm0
	movss	DWORD PTR [edi+8], xmm1
	movss	DWORD PTR [edi+12], xmm2
; File I:\Vitalya\mine\NSProjectX\xrCore\_vector3d.h

; 287  : 	{	return (x-v.x)*(x-v.x) + (y-v.y)*(y-v.y) + (z-v.z)*(z-v.z);	}

	subss	xmm2, xmm4
; File I:\Vitalya\mine\NSProjectX\xrCore\_fbox.h

; 99   : 		C.z = (min.z + max.z) * 0.5f;

	movss	DWORD PTR [edi+16], xmm3
; File I:\Vitalya\mine\NSProjectX\xrCore\_vector3d.h

; 287  : 	{	return (x-v.x)*(x-v.x) + (y-v.y)*(y-v.y) + (z-v.z)*(z-v.z);	}

	subss	xmm3, xmm5

; 24   : 	ICF SelfRef	set(const _vector3<float> &v)			{ x = T(v.x);	y = T(v.y);	z = T(v.z);	return *this;	};

	movss	DWORD PTR [edi+40], xmm4
	movss	DWORD PTR [edi+44], xmm5

; 287  : 	{	return (x-v.x)*(x-v.x) + (y-v.y)*(y-v.y) + (z-v.z)*(z-v.z);	}

	subss	xmm1, DWORD PTR [edi+36]
	mulss	xmm2, xmm2
	mulss	xmm3, xmm3
	mulss	xmm1, xmm1
	addss	xmm1, xmm2
	addss	xmm1, xmm3
; File C:\Program Files (x86)\Windows Kits\10\Include\10.0.22000.0\ucrt\corecrt_math.h

; 764  :             return (float)sqrt(_X);

	sqrtss	xmm0, xmm1
; File I:\Vitalya\mine\NSProjectX\layers\xrRender\ParticleGroup.cpp

; 419  : }

	movss	DWORD PTR [edi+20], xmm0
	pop	edi
	pop	esi
	pop	ebx
	mov	esp, ebp
	pop	ebp
	ret	4
$LN11@OnFrame:
; File I:\Vitalya\mine\NSProjectX\xrCore\_vector3d.h

; 24   : 	ICF SelfRef	set(const _vector3<float> &v)			{ x = T(v.x);	y = T(v.y);	z = T(v.z);	return *this;	};

	movss	xmm1, DWORD PTR [edi+80]

; 35   : 	ICF SelfRef	sub(T s)								{ x-=s;		y-=s;		z-=s;			return *this;	};

	movss	xmm0, DWORD PTR __real@3a83126f

; 24   : 	ICF SelfRef	set(const _vector3<float> &v)			{ x = T(v.x);	y = T(v.y);	z = T(v.z);	return *this;	};

	movss	DWORD PTR [edi+24], xmm1

; 35   : 	ICF SelfRef	sub(T s)								{ x-=s;		y-=s;		z-=s;			return *this;	};

	subss	xmm1, xmm0

; 24   : 	ICF SelfRef	set(const _vector3<float> &v)			{ x = T(v.x);	y = T(v.y);	z = T(v.z);	return *this;	};

	movss	xmm6, DWORD PTR [edi+84]
	movss	DWORD PTR [edi+28], xmm6

; 35   : 	ICF SelfRef	sub(T s)								{ x-=s;		y-=s;		z-=s;			return *this;	};

	subss	xmm6, xmm0

; 24   : 	ICF SelfRef	set(const _vector3<float> &v)			{ x = T(v.x);	y = T(v.y);	z = T(v.z);	return *this;	};

	movss	xmm5, DWORD PTR [edi+88]
	movss	DWORD PTR [edi+32], xmm5

; 35   : 	ICF SelfRef	sub(T s)								{ x-=s;		y-=s;		z-=s;			return *this;	};

	subss	xmm5, xmm0

; 24   : 	ICF SelfRef	set(const _vector3<float> &v)			{ x = T(v.x);	y = T(v.y);	z = T(v.z);	return *this;	};

	movss	xmm4, DWORD PTR [edi+80]
	movss	DWORD PTR [edi+36], xmm4

; 30   : 	ICF SelfRef	add(T s)								{ x+=s;		y+=s;		z+=s;			return *this;	};

	addss	xmm4, xmm0

; 24   : 	ICF SelfRef	set(const _vector3<float> &v)			{ x = T(v.x);	y = T(v.y);	z = T(v.z);	return *this;	};

	movss	xmm2, DWORD PTR [edi+84]
	movss	DWORD PTR [edi+40], xmm2

; 30   : 	ICF SelfRef	add(T s)								{ x+=s;		y+=s;		z+=s;			return *this;	};

	addss	xmm2, xmm0

; 24   : 	ICF SelfRef	set(const _vector3<float> &v)			{ x = T(v.x);	y = T(v.y);	z = T(v.z);	return *this;	};

	movss	xmm3, DWORD PTR [edi+88]

; 30   : 	ICF SelfRef	add(T s)								{ x+=s;		y+=s;		z+=s;			return *this;	};

	addss	xmm3, xmm0

; 35   : 	ICF SelfRef	sub(T s)								{ x-=s;		y-=s;		z-=s;			return *this;	};

	movss	DWORD PTR [edi+28], xmm6
; File I:\Vitalya\mine\NSProjectX\xrCore\_fbox.h

; 97   : 		C.x = (min.x + max.x) * 0.5f;

	movss	xmm0, DWORD PTR __real@3f000000
; File I:\Vitalya\mine\NSProjectX\xrCore\_vector3d.h

; 35   : 	ICF SelfRef	sub(T s)								{ x-=s;		y-=s;		z-=s;			return *this;	};

	movss	DWORD PTR [edi+32], xmm5

; 30   : 	ICF SelfRef	add(T s)								{ x+=s;		y+=s;		z+=s;			return *this;	};

	movss	DWORD PTR [edi+36], xmm4
; File I:\Vitalya\mine\NSProjectX\xrCore\_fbox.h

; 98   : 		C.y = (min.y + max.y) * 0.5f;

	addss	xmm6, xmm2
	addss	xmm4, xmm1
; File I:\Vitalya\mine\NSProjectX\xrCore\_vector3d.h

; 35   : 	ICF SelfRef	sub(T s)								{ x-=s;		y-=s;		z-=s;			return *this;	};

	movss	DWORD PTR [edi+24], xmm1
; File I:\Vitalya\mine\NSProjectX\xrCore\_fbox.h

; 99   : 		C.z = (min.z + max.z) * 0.5f;

	addss	xmm5, xmm3
; File I:\Vitalya\mine\NSProjectX\xrCore\_vector3d.h

; 30   : 	ICF SelfRef	add(T s)								{ x+=s;		y+=s;		z+=s;			return *this;	};

	movss	DWORD PTR [edi+40], xmm2
	movss	DWORD PTR [edi+44], xmm3
; File I:\Vitalya\mine\NSProjectX\xrCore\_fbox.h

; 98   : 		C.y = (min.y + max.y) * 0.5f;

	mulss	xmm6, xmm0
	mulss	xmm4, xmm0

; 99   : 		C.z = (min.z + max.z) * 0.5f;

	mulss	xmm5, xmm0
	movss	DWORD PTR [edi+12], xmm6
; File I:\Vitalya\mine\NSProjectX\xrCore\_vector3d.h

; 287  : 	{	return (x-v.x)*(x-v.x) + (y-v.y)*(y-v.y) + (z-v.z)*(z-v.z);	}

