; Listing generated by Microsoft (R) Optimizing Compiler Version 19.29.30146.0 

	TITLE	i:\vitalya\mine\nsprojectx\nspx_build\intermediate\release-win32\xrrender_r1\pslibrary.obj
	.686P
	.XMM
	include listing.inc
	.model	flat

INCLUDELIB OLDNAMES

PUBLIC	??_C@_0N@KDJLGDBP@particles?4xr@		; `string'
PUBLIC	??_C@_0M@FDPKAAFL@$game_data$@			; `string'
PUBLIC	??_C@_0CB@MNJHEPBF@PS?5Library?3?5Unsupported?5version@ ; `string'
PUBLIC	??_C@_0BG@PFJIIDDI@Can?8t?5find?5file?3?5?8?$CFs?8@ ; `string'
PUBLIC	??_C@_0BG@FKFOLPDI@CPSLibrary?3?3RenamePED@	; `string'
PUBLIC	??_C@_0DJ@NDCAIDJB@I?3?2Vitalya?2mine?2NSProjectX?2laye@ ; `string'
PUBLIC	??_C@_0BL@CHPGCBJE@src?$CG?$CGnew_name?$CG?$CGnew_name?$FL0?$FN@ ; `string'
PUBLIC	??_C@_0BG@FJNKGLFG@CPSLibrary?3?3RenamePGD@	; `string'
PUBLIC	??_C@_0BB@KDCDFEAK@CPSLibrary?3?3Load@		; `string'
PUBLIC	??_C@_0CA@JIEJDHOP@F?9?$DOfind_chunk?$CIPS_CHUNK_VERSION?$CJ@ ; `string'
PUBLIC	??_C@_0CF@EIJAPNAM@PS?5Library?5was?5succesfully?5relo@ ; `string'
;	COMDAT ?ignore_always@?3??Load@CPSLibrary@@QAE_NPBD@Z@4_NA
_BSS	SEGMENT
?ignore_always@?3??Load@CPSLibrary@@QAE_NPBD@Z@4_NA DB 01H DUP (?) ; `CPSLibrary::Load'::`4'::ignore_always
_BSS	ENDS
;	COMDAT ?ignore_always@?3??RenamePGD@CPSLibrary@@QAEXPAVCPGDef@PS@@PBD@Z@4_NA
_BSS	SEGMENT
?ignore_always@?3??RenamePGD@CPSLibrary@@QAEXPAVCPGDef@PS@@PBD@Z@4_NA DB 01H DUP (?) ; `CPSLibrary::RenamePGD'::`4'::ignore_always
_BSS	ENDS
;	COMDAT ?ignore_always@?3??RenamePED@CPSLibrary@@QAEXPAVCPEDef@PS@@PBD@Z@4_NA
_BSS	SEGMENT
?ignore_always@?3??RenamePED@CPSLibrary@@QAEXPAVCPEDef@PS@@PBD@Z@4_NA DB 01H DUP (?) ; `CPSLibrary::RenamePED'::`4'::ignore_always
_BSS	ENDS
;	COMDAT ??_C@_0CF@EIJAPNAM@PS?5Library?5was?5succesfully?5relo@
CONST	SEGMENT
??_C@_0CF@EIJAPNAM@PS?5Library?5was?5succesfully?5relo@ DB 'PS Library wa'
	DB	's succesfully reloaded.', 00H		; `string'
CONST	ENDS
;	COMDAT ??_C@_0CA@JIEJDHOP@F?9?$DOfind_chunk?$CIPS_CHUNK_VERSION?$CJ@
CONST	SEGMENT
??_C@_0CA@JIEJDHOP@F?9?$DOfind_chunk?$CIPS_CHUNK_VERSION?$CJ@ DB 'F->find'
	DB	'_chunk(PS_CHUNK_VERSION)', 00H		; `string'
CONST	ENDS
;	COMDAT ??_C@_0BB@KDCDFEAK@CPSLibrary?3?3Load@
CONST	SEGMENT
??_C@_0BB@KDCDFEAK@CPSLibrary?3?3Load@ DB 'CPSLibrary::Load', 00H ; `string'
CONST	ENDS
;	COMDAT ??_C@_0BG@FJNKGLFG@CPSLibrary?3?3RenamePGD@
CONST	SEGMENT
??_C@_0BG@FJNKGLFG@CPSLibrary?3?3RenamePGD@ DB 'CPSLibrary::RenamePGD', 00H ; `string'
CONST	ENDS
;	COMDAT ??_C@_0BL@CHPGCBJE@src?$CG?$CGnew_name?$CG?$CGnew_name?$FL0?$FN@
CONST	SEGMENT
??_C@_0BL@CHPGCBJE@src?$CG?$CGnew_name?$CG?$CGnew_name?$FL0?$FN@ DB 'src&'
	DB	'&new_name&&new_name[0]', 00H		; `string'
CONST	ENDS
;	COMDAT ??_C@_0DJ@NDCAIDJB@I?3?2Vitalya?2mine?2NSProjectX?2laye@
CONST	SEGMENT
??_C@_0DJ@NDCAIDJB@I?3?2Vitalya?2mine?2NSProjectX?2laye@ DB 'I:\Vitalya\m'
	DB	'ine\NSProjectX\layers\xrRender\PSLibrary.cpp', 00H ; `string'
CONST	ENDS
;	COMDAT ??_C@_0BG@FKFOLPDI@CPSLibrary?3?3RenamePED@
CONST	SEGMENT
??_C@_0BG@FKFOLPDI@CPSLibrary?3?3RenamePED@ DB 'CPSLibrary::RenamePED', 00H ; `string'
CONST	ENDS
;	COMDAT ??_C@_0BG@PFJIIDDI@Can?8t?5find?5file?3?5?8?$CFs?8@
CONST	SEGMENT
??_C@_0BG@PFJIIDDI@Can?8t?5find?5file?3?5?8?$CFs?8@ DB 'Can''t find file:'
	DB	' ''%s''', 00H				; `string'
CONST	ENDS
;	COMDAT ??_C@_0CB@MNJHEPBF@PS?5Library?3?5Unsupported?5version@
CONST	SEGMENT
??_C@_0CB@MNJHEPBF@PS?5Library?3?5Unsupported?5version@ DB 'PS Library: U'
	DB	'nsupported version.', 00H			; `string'
CONST	ENDS
;	COMDAT ??_C@_0M@FDPKAAFL@$game_data$@
CONST	SEGMENT
??_C@_0M@FDPKAAFL@$game_data$@ DB '$game_data$', 00H	; `string'
CONST	ENDS
;	COMDAT ??_C@_0N@KDJLGDBP@particles?4xr@
CONST	SEGMENT
??_C@_0N@KDJLGDBP@particles?4xr@ DB 'particles.xr', 00H	; `string'
PUBLIC	?Name@CPEDef@PS@@QBEPBDXZ			; PS::CPEDef::Name
PUBLIC	?xr_strcmp@@YAHABVshared_str@@PBD@Z		; xr_strcmp
PUBLIC	?begin@?$vector@PAVCPEDef@PS@@V?$xalloc@PAVCPEDef@PS@@@@@std@@QAE?AV?$_Vector_iterator@V?$_Vector_val@U?$_Simple_types@PAVCPEDef@PS@@@std@@@std@@@2@XZ ; std::vector<PS::CPEDef *,xalloc<PS::CPEDef *> >::begin
PUBLIC	??$addressof@V?$_Vector_val@U?$_Simple_types@PAVCPEDef@PS@@@std@@@std@@@std@@YAPAV?$_Vector_val@U?$_Simple_types@PAVCPEDef@PS@@@std@@@0@AAV10@@Z ; std::addressof<std::_Vector_val<std::_Simple_types<PS::CPEDef *> > >
PUBLIC	??0?$_Vector_iterator@V?$_Vector_val@U?$_Simple_types@PAVCPEDef@PS@@@std@@@std@@@std@@QAE@PAPAVCPEDef@PS@@PBU_Container_base0@1@@Z ; std::_Vector_iterator<std::_Vector_val<std::_Simple_types<PS::CPEDef *> > >::_Vector_iterator<std::_Vector_val<std::_Simple_types<PS::CPEDef *> > >
PUBLIC	??0?$_Vector_const_iterator@V?$_Vector_val@U?$_Simple_types@PAVCPEDef@PS@@@std@@@std@@@std@@QAE@PAPAVCPEDef@PS@@PBU_Container_base0@1@@Z ; std::_Vector_const_iterator<std::_Vector_val<std::_Simple_types<PS::CPEDef *> > >::_Vector_const_iterator<std::_Vector_val<std::_Simple_types<PS::CPEDef *> > >
PUBLIC	?end@?$vector@PAVCPEDef@PS@@V?$xalloc@PAVCPEDef@PS@@@@@std@@QAE?AV?$_Vector_iterator@V?$_Vector_val@U?$_Simple_types@PAVCPEDef@PS@@@std@@@std@@@2@XZ ; std::vector<PS::CPEDef *,xalloc<PS::CPEDef *> >::end
PUBLIC	?begin@?$vector@PAVCPGDef@PS@@V?$xalloc@PAVCPGDef@PS@@@@@std@@QAE?AV?$_Vector_iterator@V?$_Vector_val@U?$_Simple_types@PAVCPGDef@PS@@@std@@@std@@@2@XZ ; std::vector<PS::CPGDef *,xalloc<PS::CPGDef *> >::begin
PUBLIC	??$addressof@V?$_Vector_val@U?$_Simple_types@PAVCPGDef@PS@@@std@@@std@@@std@@YAPAV?$_Vector_val@U?$_Simple_types@PAVCPGDef@PS@@@std@@@0@AAV10@@Z ; std::addressof<std::_Vector_val<std::_Simple_types<PS::CPGDef *> > >
PUBLIC	??0?$_Vector_iterator@V?$_Vector_val@U?$_Simple_types@PAVCPGDef@PS@@@std@@@std@@@std@@QAE@PAPAVCPGDef@PS@@PBU_Container_base0@1@@Z ; std::_Vector_iterator<std::_Vector_val<std::_Simple_types<PS::CPGDef *> > >::_Vector_iterator<std::_Vector_val<std::_Simple_types<PS::CPGDef *> > >
PUBLIC	??0?$_Vector_const_iterator@V?$_Vector_val@U?$_Simple_types@PAVCPGDef@PS@@@std@@@std@@@std@@QAE@PAPAVCPGDef@PS@@PBU_Container_base0@1@@Z ; std::_Vector_const_iterator<std::_Vector_val<std::_Simple_types<PS::CPGDef *> > >::_Vector_const_iterator<std::_Vector_val<std::_Simple_types<PS::CPGDef *> > >
PUBLIC	?end@?$vector@PAVCPGDef@PS@@V?$xalloc@PAVCPGDef@PS@@@@@std@@QAE?AV?$_Vector_iterator@V?$_Vector_val@U?$_Simple_types@PAVCPGDef@PS@@@std@@@std@@@2@XZ ; std::vector<PS::CPGDef *,xalloc<PS::CPGDef *> >::end
PUBLIC	??$destroy@PAVCPGDef@PS@@@?$_Normal_allocator_traits@V?$xalloc@PAVCPGDef@PS@@@@@std@@SAXAAV?$xalloc@PAVCPGDef@PS@@@@PAPAVCPGDef@PS@@@Z ; std::_Normal_allocator_traits<xalloc<PS::CPGDef *> >::destroy<PS::CPGDef *>
PUBLIC	?destroy@?$xalloc@PAVCPGDef@PS@@@@QAEXPAPAVCPGDef@PS@@@Z ; xalloc<PS::CPGDef *>::destroy
PUBLIC	??$_Destroy_in_place@PAPAVCPGDef@PS@@@std@@YAXAAPAPAVCPGDef@PS@@@Z ; std::_Destroy_in_place<PS::CPGDef * *>
PUBLIC	??$_Unfancy@PAVCPGDef@PS@@@std@@YAPAPAVCPGDef@PS@@PAPAV12@@Z ; std::_Unfancy<PS::CPGDef *>
PUBLIC	?_Getal@?$vector@PAVCPGDef@PS@@V?$xalloc@PAVCPGDef@PS@@@@@std@@AAEAAV?$xalloc@PAVCPGDef@PS@@@@XZ ; std::vector<PS::CPGDef *,xalloc<PS::CPGDef *> >::_Getal
PUBLIC	?_Get_first@?$_Compressed_pair@V?$xalloc@PAVCPGDef@PS@@@@V?$_Vector_val@U?$_Simple_types@PAVCPGDef@PS@@@std@@@std@@$00@std@@QAEAAV?$xalloc@PAVCPGDef@PS@@@@XZ ; std::_Compressed_pair<xalloc<PS::CPGDef *>,std::_Vector_val<std::_Simple_types<PS::CPGDef *> >,1>::_Get_first
PUBLIC	??$destroy@PAVCPEDef@PS@@@?$_Normal_allocator_traits@V?$xalloc@PAVCPEDef@PS@@@@@std@@SAXAAV?$xalloc@PAVCPEDef@PS@@@@PAPAVCPEDef@PS@@@Z ; std::_Normal_allocator_traits<xalloc<PS::CPEDef *> >::destroy<PS::CPEDef *>
PUBLIC	?destroy@?$xalloc@PAVCPEDef@PS@@@@QAEXPAPAVCPEDef@PS@@@Z ; xalloc<PS::CPEDef *>::destroy
PUBLIC	??$_Destroy_in_place@PAPAVCPEDef@PS@@@std@@YAXAAPAPAVCPEDef@PS@@@Z ; std::_Destroy_in_place<PS::CPEDef * *>
PUBLIC	??$_Unfancy@PAVCPEDef@PS@@@std@@YAPAPAVCPEDef@PS@@PAPAV12@@Z ; std::_Unfancy<PS::CPEDef *>
PUBLIC	?_Getal@?$vector@PAVCPEDef@PS@@V?$xalloc@PAVCPEDef@PS@@@@@std@@AAEAAV?$xalloc@PAVCPEDef@PS@@@@XZ ; std::vector<PS::CPEDef *,xalloc<PS::CPEDef *> >::_Getal
PUBLIC	?_Get_first@?$_Compressed_pair@V?$xalloc@PAVCPEDef@PS@@@@V?$_Vector_val@U?$_Simple_types@PAVCPEDef@PS@@@std@@@std@@$00@std@@QAEAAV?$xalloc@PAVCPEDef@PS@@@@XZ ; std::_Compressed_pair<xalloc<PS::CPEDef *>,std::_Vector_val<std::_Simple_types<PS::CPEDef *> >,1>::_Get_first
PUBLIC	?_Destroy@?$vector@PAVCPGDef@PS@@V?$xalloc@PAVCPGDef@PS@@@@@std@@AAEXPAPAVCPGDef@PS@@0@Z ; std::vector<PS::CPGDef *,xalloc<PS::CPGDef *> >::_Destroy
PUBLIC	??$_Destroy_range@V?$xalloc@PAVCPGDef@PS@@@@@std@@YAXPAPAVCPGDef@PS@@QAPAV12@AAV?$xalloc@PAVCPGDef@PS@@@@@Z ; std::_Destroy_range<xalloc<PS::CPGDef *> >
PUBLIC	?_Destroy@?$vector@PAVCPEDef@PS@@V?$xalloc@PAVCPEDef@PS@@@@@std@@AAEXPAPAVCPEDef@PS@@0@Z ; std::vector<PS::CPEDef *,xalloc<PS::CPEDef *> >::_Destroy
PUBLIC	??$_Destroy_range@V?$xalloc@PAVCPEDef@PS@@@@@std@@YAXPAPAVCPEDef@PS@@QAPAV12@AAV?$xalloc@PAVCPEDef@PS@@@@@Z ; std::_Destroy_range<xalloc<PS::CPEDef *> >
PUBLIC	?deallocate@?$xalloc@PAVCPGDef@PS@@@@QBEXPAPAVCPGDef@PS@@I@Z ; xalloc<PS::CPGDef *>::deallocate
PUBLIC	??$xr_free@PAVCPGDef@PS@@@@YAXAAPAPAVCPGDef@PS@@@Z ; xr_free<PS::CPGDef *>
PUBLIC	?deallocate@?$xalloc@PAVCPEDef@PS@@@@QBEXPAPAVCPEDef@PS@@I@Z ; xalloc<PS::CPEDef *>::deallocate
PUBLIC	??$xr_free@PAVCPEDef@PS@@@@YAXAAPAPAVCPEDef@PS@@@Z ; xr_free<PS::CPEDef *>
PUBLIC	??$swap@PAVCPGDef@PS@@$0A@@std@@YAXAAPAVCPGDef@PS@@0@Z ; std::swap<PS::CPGDef *,0>
PUBLIC	??$_Med3_unchecked@PAPAVCPGDef@PS@@P6A_NPBV12@0@Z@std@@YAXPAPAVCPGDef@PS@@00P6A_NPBV12@1@Z@Z ; std::_Med3_unchecked<PS::CPGDef * *,bool (__cdecl*)(PS::CPGDef const *,PS::CPGDef const *)>
PUBLIC	??$_Pop_heap_hole_unchecked@PAPAVCPGDef@PS@@PAV12@P6A_NPBV12@0@Z@std@@YAXPAPAVCPGDef@PS@@00$$QAPAV12@P6A_NPBV12@2@Z@Z ; std::_Pop_heap_hole_unchecked<PS::CPGDef * *,PS::CPGDef *,bool (__cdecl*)(PS::CPGDef const *,PS::CPGDef const *)>
PUBLIC	??$_Push_heap_by_index@PAPAVCPGDef@PS@@PAV12@P6A_NPBV12@0@Z@std@@YAXPAPAVCPGDef@PS@@HH$$QAPAV12@P6A_NPBV12@2@Z@Z ; std::_Push_heap_by_index<PS::CPGDef * *,PS::CPGDef *,bool (__cdecl*)(PS::CPGDef const *,PS::CPGDef const *)>
PUBLIC	??$_Copy_backward_memmove@PAPAVCPGDef@PS@@PAPAV12@@std@@YAPAPAVCPGDef@PS@@PAPAV12@00@Z ; std::_Copy_backward_memmove<PS::CPGDef * *,PS::CPGDef * *>
PUBLIC	??$swap@PAVCPEDef@PS@@$0A@@std@@YAXAAPAVCPEDef@PS@@0@Z ; std::swap<PS::CPEDef *,0>
PUBLIC	??$_Med3_unchecked@PAPAVCPEDef@PS@@P6A_NPBV12@0@Z@std@@YAXPAPAVCPEDef@PS@@00P6A_NPBV12@1@Z@Z ; std::_Med3_unchecked<PS::CPEDef * *,bool (__cdecl*)(PS::CPEDef const *,PS::CPEDef const *)>
PUBLIC	??$_Pop_heap_hole_unchecked@PAPAVCPEDef@PS@@PAV12@P6A_NPBV12@0@Z@std@@YAXPAPAVCPEDef@PS@@00$$QAPAV12@P6A_NPBV12@2@Z@Z ; std::_Pop_heap_hole_unchecked<PS::CPEDef * *,PS::CPEDef *,bool (__cdecl*)(PS::CPEDef const *,PS::CPEDef const *)>
PUBLIC	??$_Push_heap_by_index@PAPAVCPEDef@PS@@PAV12@P6A_NPBV12@0@Z@std@@YAXPAPAVCPEDef@PS@@HH$$QAPAV12@P6A_NPBV12@2@Z@Z ; std::_Push_heap_by_index<PS::CPEDef * *,PS::CPEDef *,bool (__cdecl*)(PS::CPEDef const *,PS::CPEDef const *)>
PUBLIC	??$_Copy_backward_memmove@PAPAVCPEDef@PS@@PAPAV12@@std@@YAPAPAVCPEDef@PS@@PAPAV12@00@Z ; std::_Copy_backward_memmove<PS::CPEDef * *,PS::CPEDef * *>
PUBLIC	??$construct@PAVCPEDef@PS@@PAV12@@?$_Normal_allocator_traits@V?$xalloc@PAVCPEDef@PS@@@@@std@@SAXAAV?$xalloc@PAVCPEDef@PS@@@@PAPAVCPEDef@PS@@$$QAPAV34@@Z ; std::_Normal_allocator_traits<xalloc<PS::CPEDef *> >::construct<PS::CPEDef *,PS::CPEDef *>
PUBLIC	??$forward@PAVCPEDef@PS@@@std@@YA$$QAPAVCPEDef@PS@@AAPAV12@@Z ; std::forward<PS::CPEDef *>
PUBLIC	??$construct@PAVCPGDef@PS@@PAV12@@?$_Normal_allocator_traits@V?$xalloc@PAVCPGDef@PS@@@@@std@@SAXAAV?$xalloc@PAVCPGDef@PS@@@@PAPAVCPGDef@PS@@$$QAPAV34@@Z ; std::_Normal_allocator_traits<xalloc<PS::CPGDef *> >::construct<PS::CPGDef *,PS::CPGDef *>
PUBLIC	??$forward@PAVCPGDef@PS@@@std@@YA$$QAPAVCPGDef@PS@@AAPAV12@@Z ; std::forward<PS::CPGDef *>
PUBLIC	??$?0AAPAPAVCPGDef@PS@@AAPAPAV01@$0A@@?$pair@PAPAVCPGDef@PS@@PAPAV12@@std@@QAE@AAPAPAVCPGDef@PS@@0@Z ; std::pair<PS::CPGDef * *,PS::CPGDef * *>::pair<PS::CPGDef * *,PS::CPGDef * *><PS::CPGDef * * &,PS::CPGDef * * &,0>
PUBLIC	??$iter_swap@PAPAVCPGDef@PS@@PAPAV12@@std@@YAXPAPAVCPGDef@PS@@0@Z ; std::iter_swap<PS::CPGDef * *,PS::CPGDef * *>
PUBLIC	??$_Guess_median_unchecked@PAPAVCPGDef@PS@@P6A_NPBV12@0@Z@std@@YAXPAPAVCPGDef@PS@@00P6A_NPBV12@1@Z@Z ; std::_Guess_median_unchecked<PS::CPGDef * *,bool (__cdecl*)(PS::CPGDef const *,PS::CPGDef const *)>
PUBLIC	??$_Prev_iter@PAPAVCPGDef@PS@@@std@@YAPAPAVCPGDef@PS@@PAPAV12@@Z ; std::_Prev_iter<PS::CPGDef * *>
PUBLIC	??$_Pop_heap_unchecked@PAPAVCPGDef@PS@@P6A_NPBV12@0@Z@std@@YAXPAPAVCPGDef@PS@@0P6A_NPBV12@1@Z@Z ; std::_Pop_heap_unchecked<PS::CPGDef * *,bool (__cdecl*)(PS::CPGDef const *,PS::CPGDef const *)>
PUBLIC	??$_Pop_heap_hole_by_index@PAPAVCPGDef@PS@@PAV12@P6A_NPBV12@0@Z@std@@YAXPAPAVCPGDef@PS@@HH$$QAPAV12@P6A_NPBV12@2@Z@Z ; std::_Pop_heap_hole_by_index<PS::CPGDef * *,PS::CPGDef *,bool (__cdecl*)(PS::CPGDef const *,PS::CPGDef const *)>
PUBLIC	??$_Move_backward_unchecked@PAPAVCPGDef@PS@@PAPAV12@@std@@YAPAPAVCPGDef@PS@@PAPAV12@00@Z ; std::_Move_backward_unchecked<PS::CPGDef * *,PS::CPGDef * *>
PUBLIC	??$?0AAPAPAVCPEDef@PS@@AAPAPAV01@$0A@@?$pair@PAPAVCPEDef@PS@@PAPAV12@@std@@QAE@AAPAPAVCPEDef@PS@@0@Z ; std::pair<PS::CPEDef * *,PS::CPEDef * *>::pair<PS::CPEDef * *,PS::CPEDef * *><PS::CPEDef * * &,PS::CPEDef * * &,0>
PUBLIC	??$iter_swap@PAPAVCPEDef@PS@@PAPAV12@@std@@YAXPAPAVCPEDef@PS@@0@Z ; std::iter_swap<PS::CPEDef * *,PS::CPEDef * *>
PUBLIC	??$_Guess_median_unchecked@PAPAVCPEDef@PS@@P6A_NPBV12@0@Z@std@@YAXPAPAVCPEDef@PS@@00P6A_NPBV12@1@Z@Z ; std::_Guess_median_unchecked<PS::CPEDef * *,bool (__cdecl*)(PS::CPEDef const *,PS::CPEDef const *)>
PUBLIC	??$_Prev_iter@PAPAVCPEDef@PS@@@std@@YAPAPAVCPEDef@PS@@PAPAV12@@Z ; std::_Prev_iter<PS::CPEDef * *>
PUBLIC	??$_Pop_heap_unchecked@PAPAVCPEDef@PS@@P6A_NPBV12@0@Z@std@@YAXPAPAVCPEDef@PS@@0P6A_NPBV12@1@Z@Z ; std::_Pop_heap_unchecked<PS::CPEDef * *,bool (__cdecl*)(PS::CPEDef const *,PS::CPEDef const *)>
PUBLIC	??$_Pop_heap_hole_by_index@PAPAVCPEDef@PS@@PAV12@P6A_NPBV12@0@Z@std@@YAXPAPAVCPEDef@PS@@HH$$QAPAV12@P6A_NPBV12@2@Z@Z ; std::_Pop_heap_hole_by_index<PS::CPEDef * *,PS::CPEDef *,bool (__cdecl*)(PS::CPEDef const *,PS::CPEDef const *)>
PUBLIC	??$_Move_backward_unchecked@PAPAVCPEDef@PS@@PAPAV12@@std@@YAPAPAVCPEDef@PS@@PAPAV12@00@Z ; std::_Move_backward_unchecked<PS::CPEDef * *,PS::CPEDef * *>
PUBLIC	??$_Refancy@PAPAVCPEDef@PS@@$0A@@std@@YAPAPAVCPEDef@PS@@PAPAV12@@Z ; std::_Refancy<PS::CPEDef * *,0>
PUBLIC	??$_Refancy@PAPAVCPGDef@PS@@$0A@@std@@YAPAPAVCPGDef@PS@@PAPAV12@@Z ; std::_Refancy<PS::CPGDef * *,0>
PUBLIC	??$_Emplace_back@PAVCPEDef@PS@@@?$_Uninitialized_backout_al@V?$xalloc@PAVCPEDef@PS@@@@@std@@QAEX$$QAPAVCPEDef@PS@@@Z ; std::_Uninitialized_backout_al<xalloc<PS::CPEDef *> >::_Emplace_back<PS::CPEDef *>
PUBLIC	??$_Emplace_back@PAVCPGDef@PS@@@?$_Uninitialized_backout_al@V?$xalloc@PAVCPGDef@PS@@@@@std@@QAEX$$QAPAVCPGDef@PS@@@Z ; std::_Uninitialized_backout_al<xalloc<PS::CPGDef *> >::_Emplace_back<PS::CPGDef *>
PUBLIC	??$_Partition_by_median_guess_unchecked@PAPAVCPGDef@PS@@P6A_NPBV12@0@Z@std@@YA?AU?$pair@PAPAVCPGDef@PS@@PAPAV12@@0@PAPAVCPGDef@PS@@0P6A_NPBV23@1@Z@Z ; std::_Partition_by_median_guess_unchecked<PS::CPGDef * *,bool (__cdecl*)(PS::CPGDef const *,PS::CPGDef const *)>
PUBLIC	??$_Sort_heap_unchecked@PAPAVCPGDef@PS@@P6A_NPBV12@0@Z@std@@YAXPAPAVCPGDef@PS@@0P6A_NPBV12@1@Z@Z ; std::_Sort_heap_unchecked<PS::CPGDef * *,bool (__cdecl*)(PS::CPGDef const *,PS::CPGDef const *)>
PUBLIC	??$_Make_heap_unchecked@PAPAVCPGDef@PS@@P6A_NPBV12@0@Z@std@@YAXPAPAVCPGDef@PS@@0P6A_NPBV12@1@Z@Z ; std::_Make_heap_unchecked<PS::CPGDef * *,bool (__cdecl*)(PS::CPGDef const *,PS::CPGDef const *)>
PUBLIC	??$_Insertion_sort_unchecked@PAPAVCPGDef@PS@@P6A_NPBV12@0@Z@std@@YAPAPAVCPGDef@PS@@QAPAV12@0P6A_NPBV12@1@Z@Z ; std::_Insertion_sort_unchecked<PS::CPGDef * *,bool (__cdecl*)(PS::CPGDef const *,PS::CPGDef const *)>
PUBLIC	??$_Partition_by_median_guess_unchecked@PAPAVCPEDef@PS@@P6A_NPBV12@0@Z@std@@YA?AU?$pair@PAPAVCPEDef@PS@@PAPAV12@@0@PAPAVCPEDef@PS@@0P6A_NPBV23@1@Z@Z ; std::_Partition_by_median_guess_unchecked<PS::CPEDef * *,bool (__cdecl*)(PS::CPEDef const *,PS::CPEDef const *)>
PUBLIC	??$_Sort_heap_unchecked@PAPAVCPEDef@PS@@P6A_NPBV12@0@Z@std@@YAXPAPAVCPEDef@PS@@0P6A_NPBV12@1@Z@Z ; std::_Sort_heap_unchecked<PS::CPEDef * *,bool (__cdecl*)(PS::CPEDef const *,PS::CPEDef const *)>
PUBLIC	??$_Make_heap_unchecked@PAPAVCPEDef@PS@@P6A_NPBV12@0@Z@std@@YAXPAPAVCPEDef@PS@@0P6A_NPBV12@1@Z@Z ; std::_Make_heap_unchecked<PS::CPEDef * *,bool (__cdecl*)(PS::CPEDef const *,PS::CPEDef const *)>
PUBLIC	??$_Insertion_sort_unchecked@PAPAVCPEDef@PS@@P6A_NPBV12@0@Z@std@@YAPAPAVCPEDef@PS@@QAPAV12@0P6A_NPBV12@1@Z@Z ; std::_Insertion_sort_unchecked<PS::CPEDef * *,bool (__cdecl*)(PS::CPEDef const *,PS::CPEDef const *)>
PUBLIC	??$forward@AAPAPAVCPGDef@PS@@@std@@YAAAPAPAVCPGDef@PS@@AAPAPAV12@@Z ; std::forward<PS::CPGDef * * &>
PUBLIC	??$advance@PAPAVCPGDef@PS@@H@std@@YAXAAPAPAVCPGDef@PS@@H@Z ; std::advance<PS::CPGDef * *,int>
PUBLIC	??$forward@AAPAPAVCPEDef@PS@@@std@@YAAAPAPAVCPEDef@PS@@AAPAPAV12@@Z ; std::forward<PS::CPEDef * * &>
PUBLIC	??$advance@PAPAVCPEDef@PS@@H@std@@YAXAAPAPAVCPEDef@PS@@H@Z ; std::advance<PS::CPEDef * *,int>
PUBLIC	?_Seek_to@?$_Vector_const_iterator@V?$_Vector_val@U?$_Simple_types@PAVCPEDef@PS@@@std@@@std@@@std@@QAEXPBQAVCPEDef@PS@@@Z ; std::_Vector_const_iterator<std::_Vector_val<std::_Simple_types<PS::CPEDef *> > >::_Seek_to
PUBLIC	?_Seek_to@?$_Vector_const_iterator@V?$_Vector_val@U?$_Simple_types@PAVCPGDef@PS@@@std@@@std@@@std@@QAEXPBQAVCPGDef@PS@@@Z ; std::_Vector_const_iterator<std::_Vector_val<std::_Simple_types<PS::CPGDef *> > >::_Seek_to
PUBLIC	??0?$_Uninitialized_backout_al@V?$xalloc@PAVCPGDef@PS@@@@@std@@QAE@PAPAVCPGDef@PS@@AAV?$xalloc@PAVCPGDef@PS@@@@@Z ; std::_Uninitialized_backout_al<xalloc<PS::CPGDef *> >::_Uninitialized_backout_al<xalloc<PS::CPGDef *> >
PUBLIC	??1?$_Uninitialized_backout_al@V?$xalloc@PAVCPGDef@PS@@@@@std@@QAE@XZ ; std::_Uninitialized_backout_al<xalloc<PS::CPGDef *> >::~_Uninitialized_backout_al<xalloc<PS::CPGDef *> >
PUBLIC	?_Release@?$_Uninitialized_backout_al@V?$xalloc@PAVCPGDef@PS@@@@@std@@QAEPAPAVCPGDef@PS@@XZ ; std::_Uninitialized_backout_al<xalloc<PS::CPGDef *> >::_Release
PUBLIC	??0?$_Uninitialized_backout_al@V?$xalloc@PAVCPEDef@PS@@@@@std@@QAE@PAPAVCPEDef@PS@@AAV?$xalloc@PAVCPEDef@PS@@@@@Z ; std::_Uninitialized_backout_al<xalloc<PS::CPEDef *> >::_Uninitialized_backout_al<xalloc<PS::CPEDef *> >
PUBLIC	??1?$_Uninitialized_backout_al@V?$xalloc@PAVCPEDef@PS@@@@@std@@QAE@XZ ; std::_Uninitialized_backout_al<xalloc<PS::CPEDef *> >::~_Uninitialized_backout_al<xalloc<PS::CPEDef *> >
PUBLIC	?_Release@?$_Uninitialized_backout_al@V?$xalloc@PAVCPEDef@PS@@@@@std@@QAEPAPAVCPEDef@PS@@XZ ; std::_Uninitialized_backout_al<xalloc<PS::CPEDef *> >::_Release
PUBLIC	??$xr_alloc@PAVCPEDef@PS@@@@YAPAPAVCPEDef@PS@@I@Z ; xr_alloc<PS::CPEDef *>
PUBLIC	??$_Get_unwrapped@ABQAPAVCPEDef@PS@@@std@@YA?A_TABQAPAVCPEDef@PS@@@Z ; std::_Get_unwrapped<PS::CPEDef * * const &>
PUBLIC	??$_Uninitialized_move@PAPAVCPEDef@PS@@V?$xalloc@PAVCPEDef@PS@@@@@std@@YAPAPAVCPEDef@PS@@QAPAV12@0PAPAV12@AAV?$xalloc@PAVCPEDef@PS@@@@@Z ; std::_Uninitialized_move<PS::CPEDef * *,xalloc<PS::CPEDef *> >
PUBLIC	??$xr_alloc@PAVCPGDef@PS@@@@YAPAPAVCPGDef@PS@@I@Z ; xr_alloc<PS::CPGDef *>
PUBLIC	??$_Get_unwrapped@ABQAPAVCPGDef@PS@@@std@@YA?A_TABQAPAVCPGDef@PS@@@Z ; std::_Get_unwrapped<PS::CPGDef * * const &>
PUBLIC	??$_Uninitialized_move@PAPAVCPGDef@PS@@V?$xalloc@PAVCPGDef@PS@@@@@std@@YAPAPAVCPGDef@PS@@QAPAV12@0PAPAV12@AAV?$xalloc@PAVCPGDef@PS@@@@@Z ; std::_Uninitialized_move<PS::CPGDef * *,xalloc<PS::CPGDef *> >
PUBLIC	??$move@AAPAVCPEDef@PS@@@std@@YA$$QAPAVCPEDef@PS@@AAPAV12@@Z ; std::move<PS::CPEDef * &>
PUBLIC	??$_To_address@PAPAVCPEDef@PS@@@std@@YA?A_PABQAPAVCPEDef@PS@@@Z ; std::_To_address<PS::CPEDef * *>
PUBLIC	??$move@AAPAVCPGDef@PS@@@std@@YA$$QAPAVCPGDef@PS@@AAPAV12@@Z ; std::move<PS::CPGDef * &>
PUBLIC	??$_To_address@PAPAVCPGDef@PS@@@std@@YA?A_PABQAPAVCPGDef@PS@@@Z ; std::_To_address<PS::CPGDef * *>
PUBLIC	??$_Sort_unchecked@PAPAVCPGDef@PS@@P6A_NPBV12@0@Z@std@@YAXPAPAVCPGDef@PS@@0HP6A_NPBV12@1@Z@Z ; std::_Sort_unchecked<PS::CPGDef * *,bool (__cdecl*)(PS::CPGDef const *,PS::CPGDef const *)>
PUBLIC	??$_Pass_fn@P6A_NPBVCPGDef@PS@@0@Z$0A@@std@@YAP6A_NPBVCPGDef@PS@@0@ZP6A_N00@Z@Z ; std::_Pass_fn<bool (__cdecl*)(PS::CPGDef const *,PS::CPGDef const *),0>
PUBLIC	??$_Sort_unchecked@PAPAVCPEDef@PS@@P6A_NPBV12@0@Z@std@@YAXPAPAVCPEDef@PS@@0HP6A_NPBV12@1@Z@Z ; std::_Sort_unchecked<PS::CPEDef * *,bool (__cdecl*)(PS::CPEDef const *,PS::CPEDef const *)>
PUBLIC	??$_Pass_fn@P6A_NPBVCPEDef@PS@@0@Z$0A@@std@@YAP6A_NPBVCPEDef@PS@@0@ZP6A_N00@Z@Z ; std::_Pass_fn<bool (__cdecl*)(PS::CPEDef const *,PS::CPEDef const *),0>
PUBLIC	??$_Seek_wrapped@V?$_Vector_iterator@V?$_Vector_val@U?$_Simple_types@PAVCPGDef@PS@@@std@@@std@@@std@@AAPAPAVCPGDef@PS@@@std@@YAXAAV?$_Vector_iterator@V?$_Vector_val@U?$_Simple_types@PAVCPGDef@PS@@@std@@@std@@@0@AAPAPAVCPGDef@PS@@@Z ; std::_Seek_wrapped<std::_Vector_iterator<std::_Vector_val<std::_Simple_types<PS::CPGDef *> > >,PS::CPGDef * * &>
PUBLIC	??$_Next_iter@PAPAVCPGDef@PS@@@std@@YAPAPAVCPGDef@PS@@PAPAV12@@Z ; std::_Next_iter<PS::CPGDef * *>
PUBLIC	??$next@PAPAVCPGDef@PS@@@std@@YAPAPAVCPGDef@PS@@PAPAV12@H@Z ; std::next<PS::CPGDef * *>
PUBLIC	??$distance@PAPAVCPGDef@PS@@@std@@YAHPAPAVCPGDef@PS@@0@Z ; std::distance<PS::CPGDef * *>
PUBLIC	??$_Adl_verify_range@V?$_Vector_iterator@V?$_Vector_val@U?$_Simple_types@PAVCPGDef@PS@@@std@@@std@@@std@@V12@@std@@YAXABV?$_Vector_iterator@V?$_Vector_val@U?$_Simple_types@PAVCPGDef@PS@@@std@@@std@@@0@0@Z ; std::_Adl_verify_range<std::_Vector_iterator<std::_Vector_val<std::_Simple_types<PS::CPGDef *> > >,std::_Vector_iterator<std::_Vector_val<std::_Simple_types<PS::CPGDef *> > > >
PUBLIC	??$_Seek_wrapped@V?$_Vector_iterator@V?$_Vector_val@U?$_Simple_types@PAVCPEDef@PS@@@std@@@std@@@std@@AAPAPAVCPEDef@PS@@@std@@YAXAAV?$_Vector_iterator@V?$_Vector_val@U?$_Simple_types@PAVCPEDef@PS@@@std@@@std@@@0@AAPAPAVCPEDef@PS@@@Z ; std::_Seek_wrapped<std::_Vector_iterator<std::_Vector_val<std::_Simple_types<PS::CPEDef *> > >,PS::CPEDef * * &>
PUBLIC	??$_Next_iter@PAPAVCPEDef@PS@@@std@@YAPAPAVCPEDef@PS@@PAPAV12@@Z ; std::_Next_iter<PS::CPEDef * *>
PUBLIC	??$next@PAPAVCPEDef@PS@@@std@@YAPAPAVCPEDef@PS@@PAPAV12@H@Z ; std::next<PS::CPEDef * *>
PUBLIC	??$distance@PAPAVCPEDef@PS@@@std@@YAHPAPAVCPEDef@PS@@0@Z ; std::distance<PS::CPEDef * *>
PUBLIC	??$_Adl_verify_range@V?$_Vector_iterator@V?$_Vector_val@U?$_Simple_types@PAVCPEDef@PS@@@std@@@std@@@std@@V12@@std@@YAXABV?$_Vector_iterator@V?$_Vector_val@U?$_Simple_types@PAVCPEDef@PS@@@std@@@std@@@0@0@Z ; std::_Adl_verify_range<std::_Vector_iterator<std::_Vector_val<std::_Simple_types<PS::CPEDef *> > >,std::_Vector_iterator<std::_Vector_val<std::_Simple_types<PS::CPEDef *> > > >
PUBLIC	?max_size@?$xalloc@PAVCPEDef@PS@@@@QBEIXZ	; xalloc<PS::CPEDef *>::max_size
PUBLIC	?_Get_first@?$_Compressed_pair@V?$xalloc@PAVCPEDef@PS@@@@V?$_Vector_val@U?$_Simple_types@PAVCPEDef@PS@@@std@@@std@@$00@std@@QBEABV?$xalloc@PAVCPEDef@PS@@@@XZ ; std::_Compressed_pair<xalloc<PS::CPEDef *>,std::_Vector_val<std::_Simple_types<PS::CPEDef *> >,1>::_Get_first
PUBLIC	?max_size@?$xalloc@PAVCPGDef@PS@@@@QBEIXZ	; xalloc<PS::CPGDef *>::max_size
PUBLIC	?_Get_first@?$_Compressed_pair@V?$xalloc@PAVCPGDef@PS@@@@V?$_Vector_val@U?$_Simple_types@PAVCPGDef@PS@@@std@@@std@@$00@std@@QBEABV?$xalloc@PAVCPGDef@PS@@@@XZ ; std::_Compressed_pair<xalloc<PS::CPGDef *>,std::_Vector_val<std::_Simple_types<PS::CPGDef *> >,1>::_Get_first
PUBLIC	?max_size@?$_Normal_allocator_traits@V?$xalloc@PAVCPEDef@PS@@@@@std@@SAIABV?$xalloc@PAVCPEDef@PS@@@@@Z ; std::_Normal_allocator_traits<xalloc<PS::CPEDef *> >::max_size
PUBLIC	?capacity@?$vector@PAVCPEDef@PS@@V?$xalloc@PAVCPEDef@PS@@@@@std@@QBEIXZ ; std::vector<PS::CPEDef *,xalloc<PS::CPEDef *> >::capacity
PUBLIC	?_Umove_if_noexcept1@?$vector@PAVCPEDef@PS@@V?$xalloc@PAVCPEDef@PS@@@@@std@@AAEXPAPAVCPEDef@PS@@00U?$integral_constant@_N$00@2@@Z ; std::vector<PS::CPEDef *,xalloc<PS::CPEDef *> >::_Umove_if_noexcept1
PUBLIC	?_Getal@?$vector@PAVCPEDef@PS@@V?$xalloc@PAVCPEDef@PS@@@@@std@@ABEABV?$xalloc@PAVCPEDef@PS@@@@XZ ; std::vector<PS::CPEDef *,xalloc<PS::CPEDef *> >::_Getal
PUBLIC	?max_size@?$_Normal_allocator_traits@V?$xalloc@PAVCPGDef@PS@@@@@std@@SAIABV?$xalloc@PAVCPGDef@PS@@@@@Z ; std::_Normal_allocator_traits<xalloc<PS::CPGDef *> >::max_size
PUBLIC	?capacity@?$vector@PAVCPGDef@PS@@V?$xalloc@PAVCPGDef@PS@@@@@std@@QBEIXZ ; std::vector<PS::CPGDef *,xalloc<PS::CPGDef *> >::capacity
PUBLIC	?_Umove_if_noexcept1@?$vector@PAVCPGDef@PS@@V?$xalloc@PAVCPGDef@PS@@@@@std@@AAEXPAPAVCPGDef@PS@@00U?$integral_constant@_N$00@2@@Z ; std::vector<PS::CPGDef *,xalloc<PS::CPGDef *> >::_Umove_if_noexcept1
PUBLIC	?_Getal@?$vector@PAVCPGDef@PS@@V?$xalloc@PAVCPGDef@PS@@@@@std@@ABEABV?$xalloc@PAVCPGDef@PS@@@@XZ ; std::vector<PS::CPGDef *,xalloc<PS::CPGDef *> >::_Getal
PUBLIC	??_GCPEDef@PS@@QAEPAXI@Z			; PS::CPEDef::`scalar deleting destructor'
PUBLIC	??_GCPGDef@PS@@QAEPAXI@Z			; PS::CPGDef::`scalar deleting destructor'
PUBLIC	?allocate@?$xalloc@PAVCPEDef@PS@@@@QBEPAPAVCPEDef@PS@@IPBX@Z ; xalloc<PS::CPEDef *>::allocate
PUBLIC	?construct@?$xalloc@PAVCPEDef@PS@@@@QAEXPAPAVCPEDef@PS@@ABQAV23@@Z ; xalloc<PS::CPEDef *>::construct
PUBLIC	?max_size@?$vector@PAVCPEDef@PS@@V?$xalloc@PAVCPEDef@PS@@@@@std@@QBEIXZ ; std::vector<PS::CPEDef *,xalloc<PS::CPEDef *> >::max_size
PUBLIC	?_Umove@?$vector@PAVCPEDef@PS@@V?$xalloc@PAVCPEDef@PS@@@@@std@@AAEPAPAVCPEDef@PS@@PAPAV34@00@Z ; std::vector<PS::CPEDef *,xalloc<PS::CPEDef *> >::_Umove
PUBLIC	?_Umove_if_noexcept@?$vector@PAVCPEDef@PS@@V?$xalloc@PAVCPEDef@PS@@@@@std@@AAEXPAPAVCPEDef@PS@@00@Z ; std::vector<PS::CPEDef *,xalloc<PS::CPEDef *> >::_Umove_if_noexcept
PUBLIC	?_Calculate_growth@?$vector@PAVCPEDef@PS@@V?$xalloc@PAVCPEDef@PS@@@@@std@@ABEII@Z ; std::vector<PS::CPEDef *,xalloc<PS::CPEDef *> >::_Calculate_growth
PUBLIC	?_Change_array@?$vector@PAVCPEDef@PS@@V?$xalloc@PAVCPEDef@PS@@@@@std@@AAEXQAPAVCPEDef@PS@@II@Z ; std::vector<PS::CPEDef *,xalloc<PS::CPEDef *> >::_Change_array
PUBLIC	?_Xlength@?$vector@PAVCPEDef@PS@@V?$xalloc@PAVCPEDef@PS@@@@@std@@CAXXZ ; std::vector<PS::CPEDef *,xalloc<PS::CPEDef *> >::_Xlength
PUBLIC	?allocate@?$xalloc@PAVCPGDef@PS@@@@QBEPAPAVCPGDef@PS@@IPBX@Z ; xalloc<PS::CPGDef *>::allocate
PUBLIC	?construct@?$xalloc@PAVCPGDef@PS@@@@QAEXPAPAVCPGDef@PS@@ABQAV23@@Z ; xalloc<PS::CPGDef *>::construct
PUBLIC	?max_size@?$vector@PAVCPGDef@PS@@V?$xalloc@PAVCPGDef@PS@@@@@std@@QBEIXZ ; std::vector<PS::CPGDef *,xalloc<PS::CPGDef *> >::max_size
PUBLIC	?_Umove@?$vector@PAVCPGDef@PS@@V?$xalloc@PAVCPGDef@PS@@@@@std@@AAEPAPAVCPGDef@PS@@PAPAV34@00@Z ; std::vector<PS::CPGDef *,xalloc<PS::CPGDef *> >::_Umove
PUBLIC	?_Umove_if_noexcept@?$vector@PAVCPGDef@PS@@V?$xalloc@PAVCPGDef@PS@@@@@std@@AAEXPAPAVCPGDef@PS@@00@Z ; std::vector<PS::CPGDef *,xalloc<PS::CPGDef *> >::_Umove_if_noexcept
PUBLIC	?_Calculate_growth@?$vector@PAVCPGDef@PS@@V?$xalloc@PAVCPGDef@PS@@@@@std@@ABEII@Z ; std::vector<PS::CPGDef *,xalloc<PS::CPGDef *> >::_Calculate_growth
PUBLIC	?_Change_array@?$vector@PAVCPGDef@PS@@V?$xalloc@PAVCPGDef@PS@@@@@std@@AAEXQAPAVCPGDef@PS@@II@Z ; std::vector<PS::CPGDef *,xalloc<PS::CPGDef *> >::_Change_array
PUBLIC	?_Xlength@?$vector@PAVCPGDef@PS@@V?$xalloc@PAVCPGDef@PS@@@@@std@@CAXXZ ; std::vector<PS::CPGDef *,xalloc<PS::CPGDef *> >::_Xlength
PUBLIC	?_Unwrapped@?$_Vector_iterator@V?$_Vector_val@U?$_Simple_types@PAVCPEDef@PS@@@std@@@std@@@std@@QBEPAPAVCPEDef@PS@@XZ ; std::_Vector_iterator<std::_Vector_val<std::_Simple_types<PS::CPEDef *> > >::_Unwrapped
PUBLIC	?_Unwrapped@?$_Vector_iterator@V?$_Vector_val@U?$_Simple_types@PAVCPGDef@PS@@@std@@@std@@@std@@QBEPAPAVCPGDef@PS@@XZ ; std::_Vector_iterator<std::_Vector_val<std::_Simple_types<PS::CPGDef *> > >::_Unwrapped
PUBLIC	??R?$xr_special_free@$0A@VCPEDef@PS@@@@QAEXAAPAVCPEDef@PS@@@Z ; xr_special_free<0,PS::CPEDef>::operator()
PUBLIC	??R?$xr_special_free@$0A@VCPGDef@PS@@@@QAEXAAPAVCPGDef@PS@@@Z ; xr_special_free<0,PS::CPGDef>::operator()
PUBLIC	??$_Emplace_reallocate@ABQAVCPEDef@PS@@@?$vector@PAVCPEDef@PS@@V?$xalloc@PAVCPEDef@PS@@@@@std@@QAEPAPAVCPEDef@PS@@QAPAV23@ABQAV23@@Z ; std::vector<PS::CPEDef *,xalloc<PS::CPEDef *> >::_Emplace_reallocate<PS::CPEDef * const &>
PUBLIC	??$construct@PAVCPEDef@PS@@ABQAV12@@?$_Normal_allocator_traits@V?$xalloc@PAVCPEDef@PS@@@@@std@@SAXAAV?$xalloc@PAVCPEDef@PS@@@@PAPAVCPEDef@PS@@ABQAV34@@Z ; std::_Normal_allocator_traits<xalloc<PS::CPEDef *> >::construct<PS::CPEDef *,PS::CPEDef * const &>
PUBLIC	??$forward@ABQAVCPEDef@PS@@@std@@YAABQAVCPEDef@PS@@ABQAV12@@Z ; std::forward<PS::CPEDef * const &>
PUBLIC	??$_Emplace_reallocate@ABQAVCPGDef@PS@@@?$vector@PAVCPGDef@PS@@V?$xalloc@PAVCPGDef@PS@@@@@std@@QAEPAPAVCPGDef@PS@@QAPAV23@ABQAV23@@Z ; std::vector<PS::CPGDef *,xalloc<PS::CPGDef *> >::_Emplace_reallocate<PS::CPGDef * const &>
PUBLIC	??$construct@PAVCPGDef@PS@@ABQAV12@@?$_Normal_allocator_traits@V?$xalloc@PAVCPGDef@PS@@@@@std@@SAXAAV?$xalloc@PAVCPGDef@PS@@@@PAPAVCPGDef@PS@@ABQAV34@@Z ; std::_Normal_allocator_traits<xalloc<PS::CPGDef *> >::construct<PS::CPGDef *,PS::CPGDef * const &>
PUBLIC	??$forward@ABQAVCPGDef@PS@@@std@@YAABQAVCPGDef@PS@@ABQAV12@@Z ; std::forward<PS::CPGDef * const &>
PUBLIC	??$sort@V?$_Vector_iterator@V?$_Vector_val@U?$_Simple_types@PAVCPGDef@PS@@@std@@@std@@@std@@P6A_NPBVCPGDef@PS@@0@Z@std@@YAXV?$_Vector_iterator@V?$_Vector_val@U?$_Simple_types@PAVCPGDef@PS@@@std@@@std@@@0@0P6A_NPBVCPGDef@PS@@1@Z@Z ; std::sort<std::_Vector_iterator<std::_Vector_val<std::_Simple_types<PS::CPGDef *> > >,bool (__cdecl*)(PS::CPGDef const *,PS::CPGDef const *)>
PUBLIC	??$sort@V?$_Vector_iterator@V?$_Vector_val@U?$_Simple_types@PAVCPEDef@PS@@@std@@@std@@@std@@P6A_NPBVCPEDef@PS@@0@Z@std@@YAXV?$_Vector_iterator@V?$_Vector_val@U?$_Simple_types@PAVCPEDef@PS@@@std@@@std@@@0@0P6A_NPBVCPEDef@PS@@1@Z@Z ; std::sort<std::_Vector_iterator<std::_Vector_val<std::_Simple_types<PS::CPEDef *> > >,bool (__cdecl*)(PS::CPEDef const *,PS::CPEDef const *)>
PUBLIC	??$xr_new@VCPGDef@PS@@@@YAPAVCPGDef@PS@@XZ	; xr_new<PS::CPGDef>
PUBLIC	??$xr_new@VCPEDef@PS@@@@YAPAVCPEDef@PS@@XZ	; xr_new<PS::CPEDef>
PUBLIC	??$_Get_unwrapped@ABV?$_Vector_iterator@V?$_Vector_val@U?$_Simple_types@PAVCPGDef@PS@@@std@@@std@@@std@@@std@@YA?A_TABV?$_Vector_iterator@V?$_Vector_val@U?$_Simple_types@PAVCPGDef@PS@@@std@@@std@@@0@@Z ; std::_Get_unwrapped<std::_Vector_iterator<std::_Vector_val<std::_Simple_types<PS::CPGDef *> > > const &>
PUBLIC	??$_Get_unwrapped@AAV?$_Vector_iterator@V?$_Vector_val@U?$_Simple_types@PAVCPGDef@PS@@@std@@@std@@@std@@@std@@YA?A_TAAV?$_Vector_iterator@V?$_Vector_val@U?$_Simple_types@PAVCPGDef@PS@@@std@@@std@@@0@@Z ; std::_Get_unwrapped<std::_Vector_iterator<std::_Vector_val<std::_Simple_types<PS::CPGDef *> > > &>
PUBLIC	??$lower_bound@V?$_Vector_iterator@V?$_Vector_val@U?$_Simple_types@PAVCPGDef@PS@@@std@@@std@@@std@@PBDP6A_NPBVCPGDef@PS@@PBD@Z@std@@YA?AV?$_Vector_iterator@V?$_Vector_val@U?$_Simple_types@PAVCPGDef@PS@@@std@@@std@@@0@V10@V10@ABQBDP6A_NPBVCPGDef@PS@@PBD@Z@Z ; std::lower_bound<std::_Vector_iterator<std::_Vector_val<std::_Simple_types<PS::CPGDef *> > >,char const *,bool (__cdecl*)(PS::CPGDef const *,char const *)>
PUBLIC	??$_Get_unwrapped@ABV?$_Vector_iterator@V?$_Vector_val@U?$_Simple_types@PAVCPEDef@PS@@@std@@@std@@@std@@@std@@YA?A_TABV?$_Vector_iterator@V?$_Vector_val@U?$_Simple_types@PAVCPEDef@PS@@@std@@@std@@@0@@Z ; std::_Get_unwrapped<std::_Vector_iterator<std::_Vector_val<std::_Simple_types<PS::CPEDef *> > > const &>
PUBLIC	??$_Get_unwrapped@AAV?$_Vector_iterator@V?$_Vector_val@U?$_Simple_types@PAVCPEDef@PS@@@std@@@std@@@std@@@std@@YA?A_TAAV?$_Vector_iterator@V?$_Vector_val@U?$_Simple_types@PAVCPEDef@PS@@@std@@@std@@@0@@Z ; std::_Get_unwrapped<std::_Vector_iterator<std::_Vector_val<std::_Simple_types<PS::CPEDef *> > > &>
PUBLIC	??$lower_bound@V?$_Vector_iterator@V?$_Vector_val@U?$_Simple_types@PAVCPEDef@PS@@@std@@@std@@@std@@PBDP6A_NPBVCPEDef@PS@@PBD@Z@std@@YA?AV?$_Vector_iterator@V?$_Vector_val@U?$_Simple_types@PAVCPEDef@PS@@@std@@@std@@@0@V10@V10@ABQBDP6A_NPBVCPEDef@PS@@PBD@Z@Z ; std::lower_bound<std::_Vector_iterator<std::_Vector_val<std::_Simple_types<PS::CPEDef *> > >,char const *,bool (__cdecl*)(PS::CPEDef const *,char const *)>
PUBLIC	??$xr_delete@VCPGDef@PS@@@@YAXAAPAVCPGDef@PS@@@Z ; xr_delete<PS::CPGDef>
PUBLIC	??$xr_delete@VCPEDef@PS@@@@YAXAAPAVCPEDef@PS@@@Z ; xr_delete<PS::CPEDef>
PUBLIC	?clear@?$vector@PAVCPEDef@PS@@V?$xalloc@PAVCPEDef@PS@@@@@std@@QAEXXZ ; std::vector<PS::CPEDef *,xalloc<PS::CPEDef *> >::clear
PUBLIC	?clear@?$vector@PAVCPGDef@PS@@V?$xalloc@PAVCPGDef@PS@@@@@std@@QAEXXZ ; std::vector<PS::CPGDef *,xalloc<PS::CPGDef *> >::clear
PUBLIC	?_Orphan_range@?$vector@PAVCPEDef@PS@@V?$xalloc@PAVCPEDef@PS@@@@@std@@ABEXPAPAVCPEDef@PS@@0@Z ; std::vector<PS::CPEDef *,xalloc<PS::CPEDef *> >::_Orphan_range
PUBLIC	?clear_and_free@?$xr_vector@PAVCPEDef@PS@@V?$xalloc@PAVCPEDef@PS@@@@@@QAEXXZ ; xr_vector<PS::CPEDef *,xalloc<PS::CPEDef *> >::clear_and_free
PUBLIC	?_Orphan_range@?$vector@PAVCPGDef@PS@@V?$xalloc@PAVCPGDef@PS@@@@@std@@ABEXPAPAVCPGDef@PS@@0@Z ; std::vector<PS::CPGDef *,xalloc<PS::CPGDef *> >::_Orphan_range
PUBLIC	?clear_and_free@?$xr_vector@PAVCPGDef@PS@@V?$xalloc@PAVCPGDef@PS@@@@@@QAEXXZ ; xr_vector<PS::CPGDef *,xalloc<PS::CPGDef *> >::clear_and_free
PUBLIC	??D?$_Vector_const_iterator@V?$_Vector_val@U?$_Simple_types@PAVCPEDef@PS@@@std@@@std@@@std@@QBEABQAVCPEDef@PS@@XZ ; std::_Vector_const_iterator<std::_Vector_val<std::_Simple_types<PS::CPEDef *> > >::operator*
PUBLIC	??E?$_Vector_const_iterator@V?$_Vector_val@U?$_Simple_types@PAVCPEDef@PS@@@std@@@std@@@std@@QAEAAV01@XZ ; std::_Vector_const_iterator<std::_Vector_val<std::_Simple_types<PS::CPEDef *> > >::operator++
PUBLIC	?_Compat@?$_Vector_const_iterator@V?$_Vector_val@U?$_Simple_types@PAVCPEDef@PS@@@std@@@std@@@std@@QBEXABV12@@Z ; std::_Vector_const_iterator<std::_Vector_val<std::_Simple_types<PS::CPEDef *> > >::_Compat
PUBLIC	??D?$_Vector_const_iterator@V?$_Vector_val@U?$_Simple_types@PAVCPGDef@PS@@@std@@@std@@@std@@QBEABQAVCPGDef@PS@@XZ ; std::_Vector_const_iterator<std::_Vector_val<std::_Simple_types<PS::CPGDef *> > >::operator*
PUBLIC	??E?$_Vector_const_iterator@V?$_Vector_val@U?$_Simple_types@PAVCPGDef@PS@@@std@@@std@@@std@@QAEAAV01@XZ ; std::_Vector_const_iterator<std::_Vector_val<std::_Simple_types<PS::CPGDef *> > >::operator++
PUBLIC	?_Compat@?$_Vector_const_iterator@V?$_Vector_val@U?$_Simple_types@PAVCPGDef@PS@@@std@@@std@@@std@@QBEXABV12@@Z ; std::_Vector_const_iterator<std::_Vector_val<std::_Simple_types<PS::CPGDef *> > >::_Compat
PUBLIC	??$_Emplace_back_with_unused_capacity@ABQAVCPEDef@PS@@@?$vector@PAVCPEDef@PS@@V?$xalloc@PAVCPEDef@PS@@@@@std@@AAE?A_TABQAVCPEDef@PS@@@Z ; std::vector<PS::CPEDef *,xalloc<PS::CPEDef *> >::_Emplace_back_with_unused_capacity<PS::CPEDef * const &>
PUBLIC	??$emplace_back@ABQAVCPEDef@PS@@@?$vector@PAVCPEDef@PS@@V?$xalloc@PAVCPEDef@PS@@@@@std@@QAE?A_TABQAVCPEDef@PS@@@Z ; std::vector<PS::CPEDef *,xalloc<PS::CPEDef *> >::emplace_back<PS::CPEDef * const &>
PUBLIC	?push_back@?$vector@PAVCPEDef@PS@@V?$xalloc@PAVCPEDef@PS@@@@@std@@QAEXABQAVCPEDef@PS@@@Z ; std::vector<PS::CPEDef *,xalloc<PS::CPEDef *> >::push_back
PUBLIC	?clear@?$xr_vector@PAVCPEDef@PS@@V?$xalloc@PAVCPEDef@PS@@@@@@QAEXXZ ; xr_vector<PS::CPEDef *,xalloc<PS::CPEDef *> >::clear
PUBLIC	??$_Emplace_back_with_unused_capacity@ABQAVCPGDef@PS@@@?$vector@PAVCPGDef@PS@@V?$xalloc@PAVCPGDef@PS@@@@@std@@AAE?A_TABQAVCPGDef@PS@@@Z ; std::vector<PS::CPGDef *,xalloc<PS::CPGDef *> >::_Emplace_back_with_unused_capacity<PS::CPGDef * const &>
PUBLIC	??$emplace_back@ABQAVCPGDef@PS@@@?$vector@PAVCPGDef@PS@@V?$xalloc@PAVCPGDef@PS@@@@@std@@QAE?A_TABQAVCPGDef@PS@@@Z ; std::vector<PS::CPGDef *,xalloc<PS::CPGDef *> >::emplace_back<PS::CPGDef * const &>
PUBLIC	?push_back@?$vector@PAVCPGDef@PS@@V?$xalloc@PAVCPGDef@PS@@@@@std@@QAEXABQAVCPGDef@PS@@@Z ; std::vector<PS::CPGDef *,xalloc<PS::CPGDef *> >::push_back
PUBLIC	?clear@?$xr_vector@PAVCPGDef@PS@@V?$xalloc@PAVCPGDef@PS@@@@@@QAEXXZ ; xr_vector<PS::CPGDef *,xalloc<PS::CPGDef *> >::clear
PUBLIC	??8?$_Vector_const_iterator@V?$_Vector_val@U?$_Simple_types@PAVCPEDef@PS@@@std@@@std@@@std@@QBE_NABV01@@Z ; std::_Vector_const_iterator<std::_Vector_val<std::_Simple_types<PS::CPEDef *> > >::operator==
PUBLIC	??9?$_Vector_const_iterator@V?$_Vector_val@U?$_Simple_types@PAVCPEDef@PS@@@std@@@std@@@std@@QBE_NABV01@@Z ; std::_Vector_const_iterator<std::_Vector_val<std::_Simple_types<PS::CPEDef *> > >::operator!=
PUBLIC	??D?$_Vector_iterator@V?$_Vector_val@U?$_Simple_types@PAVCPEDef@PS@@@std@@@std@@@std@@QBEAAPAVCPEDef@PS@@XZ ; std::_Vector_iterator<std::_Vector_val<std::_Simple_types<PS::CPEDef *> > >::operator*
PUBLIC	??E?$_Vector_iterator@V?$_Vector_val@U?$_Simple_types@PAVCPEDef@PS@@@std@@@std@@@std@@QAE?AV01@H@Z ; std::_Vector_iterator<std::_Vector_val<std::_Simple_types<PS::CPEDef *> > >::operator++
PUBLIC	??8?$_Vector_const_iterator@V?$_Vector_val@U?$_Simple_types@PAVCPGDef@PS@@@std@@@std@@@std@@QBE_NABV01@@Z ; std::_Vector_const_iterator<std::_Vector_val<std::_Simple_types<PS::CPGDef *> > >::operator==
PUBLIC	??9?$_Vector_const_iterator@V?$_Vector_val@U?$_Simple_types@PAVCPGDef@PS@@@std@@@std@@@std@@QBE_NABV01@@Z ; std::_Vector_const_iterator<std::_Vector_val<std::_Simple_types<PS::CPGDef *> > >::operator!=
PUBLIC	??D?$_Vector_iterator@V?$_Vector_val@U?$_Simple_types@PAVCPGDef@PS@@@std@@@std@@@std@@QBEAAPAVCPGDef@PS@@XZ ; std::_Vector_iterator<std::_Vector_val<std::_Simple_types<PS::CPGDef *> > >::operator*
PUBLIC	??E?$_Vector_iterator@V?$_Vector_val@U?$_Simple_types@PAVCPGDef@PS@@@std@@@std@@@std@@QAE?AV01@H@Z ; std::_Vector_iterator<std::_Vector_val<std::_Simple_types<PS::CPGDef *> > >::operator++
PUBLIC	?Load@CPSLibrary@@QAE_NPBD@Z			; CPSLibrary::Load
PUBLIC	?FindPGD@CPSLibrary@@QAEPAVCPGDef@PS@@PBD@Z	; CPSLibrary::FindPGD
PUBLIC	?FindPGDIt@CPSLibrary@@QAE?AV?$_Vector_iterator@V?$_Vector_val@U?$_Simple_types@PAVCPGDef@PS@@@std@@@std@@@std@@PBD@Z ; CPSLibrary::FindPGDIt
PUBLIC	?FindPED@CPSLibrary@@QAEPAVCPEDef@PS@@PBD@Z	; CPSLibrary::FindPED
PUBLIC	?FindPEDIt@CPSLibrary@@QAE?AV?$_Vector_iterator@V?$_Vector_val@U?$_Simple_types@PAVCPEDef@PS@@@std@@@std@@@std@@PBD@Z ; CPSLibrary::FindPEDIt
PUBLIC	?OnDestroy@CPSLibrary@@QAEXXZ			; CPSLibrary::OnDestroy
PUBLIC	?OnCreate@CPSLibrary@@QAEXXZ			; CPSLibrary::OnCreate
PUBLIC	?pgd_find_pred@@YA_NPBVCPGDef@PS@@PBD@Z		; pgd_find_pred
PUBLIC	?ped_find_pred@@YA_NPBVCPEDef@PS@@PBD@Z		; ped_find_pred
PUBLIC	?pgd_sort_pred@@YA_NPBVCPGDef@PS@@0@Z		; pgd_sort_pred
PUBLIC	?ped_sort_pred@@YA_NPBVCPEDef@PS@@0@Z		; ped_sort_pred
;	COMDAT xdata$x
xdata$x	SEGMENT
__ehfuncinfo$??$_Emplace_reallocate@ABQAVCPGDef@PS@@@?$vector@PAVCPGDef@PS@@V?$xalloc@PAVCPGDef@PS@@@@@std@@QAEPAPAVCPGDef@PS@@QAPAV23@ABQAV23@@Z DD 019930522H
	DD	02H
	DD	FLAT:__unwindtable$??$_Emplace_reallocate@ABQAVCPGDef@PS@@@?$vector@PAVCPGDef@PS@@V?$xalloc@PAVCPGDef@PS@@@@@std@@QAEPAPAVCPGDef@PS@@QAPAV23@ABQAV23@@Z
	DD	01H
	DD	FLAT:__tryblocktable$??$_Emplace_reallocate@ABQAVCPGDef@PS@@@?$vector@PAVCPGDef@PS@@V?$xalloc@PAVCPGDef@PS@@@@@std@@QAEPAPAVCPGDef@PS@@QAPAV23@ABQAV23@@Z
	DD	2 DUP(00H)
	DD	00H
	DD	00H
__unwindtable$??$_Emplace_reallocate@ABQAVCPGDef@PS@@@?$vector@PAVCPGDef@PS@@V?$xalloc@PAVCPGDef@PS@@@@@std@@QAEPAPAVCPGDef@PS@@QAPAV23@ABQAV23@@Z DD 0ffffffffH
	DD	00H
	DD	0ffffffffH
	DD	00H
__tryblocktable$??$_Emplace_reallocate@ABQAVCPGDef@PS@@@?$vector@PAVCPGDef@PS@@V?$xalloc@PAVCPGDef@PS@@@@@std@@QAEPAPAVCPGDef@PS@@QAPAV23@ABQAV23@@Z DD 00H
	DD	00H
	DD	01H
	DD	01H
	DD	FLAT:__catchsym$??$_Emplace_reallocate@ABQAVCPGDef@PS@@@?$vector@PAVCPGDef@PS@@V?$xalloc@PAVCPGDef@PS@@@@@std@@QAEPAPAVCPGDef@PS@@QAPAV23@ABQAV23@@Z$2
__catchsym$??$_Emplace_reallocate@ABQAVCPGDef@PS@@@?$vector@PAVCPGDef@PS@@V?$xalloc@PAVCPGDef@PS@@@@@std@@QAEPAPAVCPGDef@PS@@QAPAV23@ABQAV23@@Z$2 DD 00H
	DD	00H
	DD	00H
	DD	FLAT:__catch$??$_Emplace_reallocate@ABQAVCPGDef@PS@@@?$vector@PAVCPGDef@PS@@V?$xalloc@PAVCPGDef@PS@@@@@std@@QAEPAPAVCPGDef@PS@@QAPAV23@ABQAV23@@Z$0
xdata$x	ENDS
;	COMDAT xdata$x
xdata$x	SEGMENT
__ehfuncinfo$??$_Emplace_reallocate@ABQAVCPEDef@PS@@@?$vector@PAVCPEDef@PS@@V?$xalloc@PAVCPEDef@PS@@@@@std@@QAEPAPAVCPEDef@PS@@QAPAV23@ABQAV23@@Z DD 019930522H
	DD	02H
	DD	FLAT:__unwindtable$??$_Emplace_reallocate@ABQAVCPEDef@PS@@@?$vector@PAVCPEDef@PS@@V?$xalloc@PAVCPEDef@PS@@@@@std@@QAEPAPAVCPEDef@PS@@QAPAV23@ABQAV23@@Z
	DD	01H
	DD	FLAT:__tryblocktable$??$_Emplace_reallocate@ABQAVCPEDef@PS@@@?$vector@PAVCPEDef@PS@@V?$xalloc@PAVCPEDef@PS@@@@@std@@QAEPAPAVCPEDef@PS@@QAPAV23@ABQAV23@@Z
	DD	2 DUP(00H)
	DD	00H
	DD	00H
__unwindtable$??$_Emplace_reallocate@ABQAVCPEDef@PS@@@?$vector@PAVCPEDef@PS@@V?$xalloc@PAVCPEDef@PS@@@@@std@@QAEPAPAVCPEDef@PS@@QAPAV23@ABQAV23@@Z DD 0ffffffffH
	DD	00H
	DD	0ffffffffH
	DD	00H
__tryblocktable$??$_Emplace_reallocate@ABQAVCPEDef@PS@@@?$vector@PAVCPEDef@PS@@V?$xalloc@PAVCPEDef@PS@@@@@std@@QAEPAPAVCPEDef@PS@@QAPAV23@ABQAV23@@Z DD 00H
	DD	00H
	DD	01H
	DD	01H
	DD	FLAT:__catchsym$??$_Emplace_reallocate@ABQAVCPEDef@PS@@@?$vector@PAVCPEDef@PS@@V?$xalloc@PAVCPEDef@PS@@@@@std@@QAEPAPAVCPEDef@PS@@QAPAV23@ABQAV23@@Z$2
__catchsym$??$_Emplace_reallocate@ABQAVCPEDef@PS@@@?$vector@PAVCPEDef@PS@@V?$xalloc@PAVCPEDef@PS@@@@@std@@QAEPAPAVCPEDef@PS@@QAPAV23@ABQAV23@@Z$2 DD 00H
	DD	00H
	DD	00H
	DD	FLAT:__catch$??$_Emplace_reallocate@ABQAVCPEDef@PS@@@?$vector@PAVCPEDef@PS@@V?$xalloc@PAVCPEDef@PS@@@@@std@@QAEPAPAVCPEDef@PS@@QAPAV23@ABQAV23@@Z$0
; Function compile flags: /Ogtpy
; File I:\Vitalya\mine\NSProjectX\layers\xrRender\PSLibrary.cpp
; File I:\Vitalya\mine\NSProjectX\xrCore\xrstring.h
; File I:\Vitalya\mine\NSProjectX\layers\xrRender\ParticleEffectDef.h
; File I:\Vitalya\mine\NSProjectX\xrCore\_std_extensions.h
; File I:\Vitalya\mine\NSProjectX\layers\xrRender\PSLibrary.cpp
; File I:\Vitalya\mine\NSProjectX\xrCore\_std_extensions.h
; File I:\Vitalya\mine\NSProjectX\layers\xrRender\PSLibrary.cpp
_TEXT	SEGMENT
_a$ = 8							; size = 4
_b$ = 12						; size = 4
?ped_sort_pred@@YA_NPBVCPEDef@PS@@0@Z PROC		; ped_sort_pred
; File I:\Vitalya\mine\NSProjectX\xrCore\xrstring.h

; 65   : 	str_c				operator*	() const						{	return p_?p_->value:0;							}

	mov	eax, DWORD PTR _b$[esp-4]
	mov	ecx, DWORD PTR _a$[esp-4]
	mov	eax, DWORD PTR [eax]
	mov	edx, DWORD PTR [ecx]
; File I:\Vitalya\mine\NSProjectX\layers\xrRender\ParticleEffectDef.h

; 108  :         IC LPCSTR			Name				()const{return *m_Name;}

	lea	ecx, DWORD PTR [eax+12]
	neg	eax
	sbb	eax, eax
	and	eax, ecx
; File I:\Vitalya\mine\NSProjectX\xrCore\_std_extensions.h

; 183  : {	return (int)strcmp(S1,S2);  }

	lea	ecx, DWORD PTR [edx+12]
	neg	edx
	sbb	edx, edx
	and	edx, ecx
	npad	2
$LL17@ped_sort_p:
	mov	cl, BYTE PTR [edx]
	cmp	cl, BYTE PTR [eax]
	jne	SHORT $LN18@ped_sort_p
	test	cl, cl
	je	SHORT $LN19@ped_sort_p
	mov	cl, BYTE PTR [edx+1]
	cmp	cl, BYTE PTR [eax+1]
	jne	SHORT $LN18@ped_sort_p
	add	edx, 2
	add	eax, 2
	test	cl, cl
	jne	SHORT $LL17@ped_sort_p
$LN19@ped_sort_p:
	mov	eax, 0
; File I:\Vitalya\mine\NSProjectX\layers\xrRender\PSLibrary.cpp

; 12   : bool ped_sort_pred	(const PS::CPEDef* a, 	const PS::CPEDef* b)	{	return xr_strcmp(a->Name(),b->Name())<0;}

	ret	0
$LN18@ped_sort_p:
; File I:\Vitalya\mine\NSProjectX\xrCore\_std_extensions.h

; 183  : {	return (int)strcmp(S1,S2);  }

	sbb	eax, eax
	or	eax, 1
; File I:\Vitalya\mine\NSProjectX\layers\xrRender\PSLibrary.cpp

; 12   : bool ped_sort_pred	(const PS::CPEDef* a, 	const PS::CPEDef* b)	{	return xr_strcmp(a->Name(),b->Name())<0;}

	shr	eax, 31					; 0000001fH
	ret	0
?ped_sort_pred@@YA_NPBVCPEDef@PS@@0@Z ENDP		; ped_sort_pred
_TEXT	ENDS
; Function compile flags: /Ogtpy
; File I:\Vitalya\mine\NSProjectX\layers\xrRender\PSLibrary.cpp
; File I:\Vitalya\mine\NSProjectX\xrCore\xrstring.h
; File I:\Vitalya\mine\NSProjectX\xrCore\_std_extensions.h
; File I:\Vitalya\mine\NSProjectX\layers\xrRender\PSLibrary.cpp
; File I:\Vitalya\mine\NSProjectX\xrCore\_std_extensions.h
; File I:\Vitalya\mine\NSProjectX\layers\xrRender\PSLibrary.cpp
_TEXT	SEGMENT
_a$ = 8							; size = 4
_b$ = 12						; size = 4
?pgd_sort_pred@@YA_NPBVCPGDef@PS@@0@Z PROC		; pgd_sort_pred
; File I:\Vitalya\mine\NSProjectX\xrCore\xrstring.h

; 73   : 	bool				equal		(const shared_str & rhs) const	{	return (p_ == rhs.p_);							}

	mov	eax, DWORD PTR _a$[esp-4]
	mov	edx, DWORD PTR [eax]
	mov	eax, DWORD PTR _b$[esp-4]
	mov	eax, DWORD PTR [eax]
	cmp	edx, eax

; 104  : 	if (a.equal(b))		return 0;

	je	SHORT $LN21@pgd_sort_p

; 65   : 	str_c				operator*	() const						{	return p_?p_->value:0;							}

	lea	ecx, DWORD PTR [eax+12]
	neg	eax
	sbb	eax, eax
	and	eax, ecx
; File I:\Vitalya\mine\NSProjectX\xrCore\_std_extensions.h

; 183  : {	return (int)strcmp(S1,S2);  }

	lea	ecx, DWORD PTR [edx+12]
	neg	edx
	sbb	edx, edx
	and	edx, ecx
$LL19@pgd_sort_p:
	mov	cl, BYTE PTR [edx]
	cmp	cl, BYTE PTR [eax]
	jne	SHORT $LN20@pgd_sort_p
	test	cl, cl
	je	SHORT $LN21@pgd_sort_p
	mov	cl, BYTE PTR [edx+1]
	cmp	cl, BYTE PTR [eax+1]
	jne	SHORT $LN20@pgd_sort_p
	add	edx, 2
	add	eax, 2
	test	cl, cl
	jne	SHORT $LL19@pgd_sort_p
$LN21@pgd_sort_p:
; File I:\Vitalya\mine\NSProjectX\layers\xrRender\PSLibrary.cpp

; 13   : bool pgd_sort_pred	(const PS::CPGDef* a, 	const PS::CPGDef* b)	{	return xr_strcmp(a->m_Name,b->m_Name)<0;}

	mov	eax, 0
	ret	0
$LN20@pgd_sort_p:
; File I:\Vitalya\mine\NSProjectX\xrCore\_std_extensions.h

; 183  : {	return (int)strcmp(S1,S2);  }

	sbb	eax, eax
	or	eax, 1
; File I:\Vitalya\mine\NSProjectX\layers\xrRender\PSLibrary.cpp

; 13   : bool pgd_sort_pred	(const PS::CPGDef* a, 	const PS::CPGDef* b)	{	return xr_strcmp(a->m_Name,b->m_Name)<0;}

	shr	eax, 31					; 0000001fH
	ret	0
?pgd_sort_pred@@YA_NPBVCPGDef@PS@@0@Z ENDP		; pgd_sort_pred
_TEXT	ENDS
; Function compile flags: /Ogtpy
; File I:\Vitalya\mine\NSProjectX\layers\xrRender\PSLibrary.cpp
; File I:\Vitalya\mine\NSProjectX\xrCore\xrstring.h
; File I:\Vitalya\mine\NSProjectX\xrCore\_std_extensions.h
; File I:\Vitalya\mine\NSProjectX\xrCore\xrstring.h
; File I:\Vitalya\mine\NSProjectX\xrCore\_std_extensions.h
; File I:\Vitalya\mine\NSProjectX\layers\xrRender\PSLibrary.cpp
; File I:\Vitalya\mine\NSProjectX\xrCore\_std_extensions.h
; File I:\Vitalya\mine\NSProjectX\layers\xrRender\PSLibrary.cpp
_TEXT	SEGMENT
_a$ = 8							; size = 4
_b$ = 12						; size = 4
?ped_find_pred@@YA_NPBVCPEDef@PS@@PBD@Z PROC		; ped_find_pred
; File I:\Vitalya\mine\NSProjectX\xrCore\xrstring.h

; 65   : 	str_c				operator*	() const						{	return p_?p_->value:0;							}

	mov	eax, DWORD PTR _a$[esp-4]
; File I:\Vitalya\mine\NSProjectX\xrCore\_std_extensions.h

; 183  : {	return (int)strcmp(S1,S2);  }

	mov	edx, DWORD PTR _b$[esp-4]
; File I:\Vitalya\mine\NSProjectX\xrCore\xrstring.h

; 65   : 	str_c				operator*	() const						{	return p_?p_->value:0;							}

	mov	eax, DWORD PTR [eax]
; File I:\Vitalya\mine\NSProjectX\xrCore\_std_extensions.h

; 183  : {	return (int)strcmp(S1,S2);  }

	lea	ecx, DWORD PTR [eax+12]
	neg	eax
	sbb	eax, eax
	and	eax, ecx
$LL11@ped_find_p:
	mov	cl, BYTE PTR [eax]
	cmp	cl, BYTE PTR [edx]
	jne	SHORT $LN12@ped_find_p
	test	cl, cl
	je	SHORT $LN13@ped_find_p
	mov	cl, BYTE PTR [eax+1]
	cmp	cl, BYTE PTR [edx+1]
	jne	SHORT $LN12@ped_find_p
	add	eax, 2
	add	edx, 2
	test	cl, cl
	jne	SHORT $LL11@ped_find_p
$LN13@ped_find_p:
	mov	eax, 0
; File I:\Vitalya\mine\NSProjectX\layers\xrRender\PSLibrary.cpp

; 15   : bool ped_find_pred	(const PS::CPEDef* a, 	LPCSTR b)				{	return xr_strcmp(a->Name(),b)<0;}

	ret	0
$LN12@ped_find_p:
; File I:\Vitalya\mine\NSProjectX\xrCore\_std_extensions.h

; 183  : {	return (int)strcmp(S1,S2);  }

	sbb	eax, eax
	or	eax, 1
; File I:\Vitalya\mine\NSProjectX\layers\xrRender\PSLibrary.cpp

; 15   : bool ped_find_pred	(const PS::CPEDef* a, 	LPCSTR b)				{	return xr_strcmp(a->Name(),b)<0;}

	shr	eax, 31					; 0000001fH
	ret	0
?ped_find_pred@@YA_NPBVCPEDef@PS@@PBD@Z ENDP		; ped_find_pred
_TEXT	ENDS
; Function compile flags: /Ogtpy
; File I:\Vitalya\mine\NSProjectX\layers\xrRender\PSLibrary.cpp
; File I:\Vitalya\mine\NSProjectX\xrCore\xrstring.h
; File I:\Vitalya\mine\NSProjectX\xrCore\_std_extensions.h
; File I:\Vitalya\mine\NSProjectX\xrCore\xrstring.h
; File I:\Vitalya\mine\NSProjectX\xrCore\_std_extensions.h
; File I:\Vitalya\mine\NSProjectX\layers\xrRender\PSLibrary.cpp
; File I:\Vitalya\mine\NSProjectX\xrCore\_std_extensions.h
; File I:\Vitalya\mine\NSProjectX\layers\xrRender\PSLibrary.cpp
_TEXT	SEGMENT
_a$ = 8							; size = 4
_b$ = 12						; size = 4
?pgd_find_pred@@YA_NPBVCPGDef@PS@@PBD@Z PROC		; pgd_find_pred
; File I:\Vitalya\mine\NSProjectX\xrCore\xrstring.h

; 65   : 	str_c				operator*	() const						{	return p_?p_->value:0;							}

	mov	eax, DWORD PTR _a$[esp-4]
; File I:\Vitalya\mine\NSProjectX\xrCore\_std_extensions.h

; 183  : {	return (int)strcmp(S1,S2);  }

	mov	edx, DWORD PTR _b$[esp-4]
; File I:\Vitalya\mine\NSProjectX\xrCore\xrstring.h

; 65   : 	str_c				operator*	() const						{	return p_?p_->value:0;							}

	mov	eax, DWORD PTR [eax]
; File I:\Vitalya\mine\NSProjectX\xrCore\_std_extensions.h

; 183  : {	return (int)strcmp(S1,S2);  }

	lea	ecx, DWORD PTR [eax+12]
	neg	eax
	sbb	eax, eax
	and	eax, ecx
$LL11@pgd_find_p:
	mov	cl, BYTE PTR [eax]
	cmp	cl, BYTE PTR [edx]
	jne	SHORT $LN12@pgd_find_p
	test	cl, cl
	je	SHORT $LN13@pgd_find_p
	mov	cl, BYTE PTR [eax+1]
	cmp	cl, BYTE PTR [edx+1]
	jne	SHORT $LN12@pgd_find_p
	add	eax, 2
	add	edx, 2
	test	cl, cl
	jne	SHORT $LL11@pgd_find_p
$LN13@pgd_find_p:
	mov	eax, 0
; File I:\Vitalya\mine\NSProjectX\layers\xrRender\PSLibrary.cpp

; 16   : bool pgd_find_pred	(const PS::CPGDef* a, 	LPCSTR b)				{	return xr_strcmp(a->m_Name,b)<0;}

	ret	0
$LN12@pgd_find_p:
; File I:\Vitalya\mine\NSProjectX\xrCore\_std_extensions.h

; 183  : {	return (int)strcmp(S1,S2);  }

	sbb	eax, eax
	or	eax, 1
; File I:\Vitalya\mine\NSProjectX\layers\xrRender\PSLibrary.cpp

; 16   : bool pgd_find_pred	(const PS::CPGDef* a, 	LPCSTR b)				{	return xr_strcmp(a->m_Name,b)<0;}

	shr	eax, 31					; 0000001fH
	ret	0
?pgd_find_pred@@YA_NPBVCPGDef@PS@@PBD@Z ENDP		; pgd_find_pred
_TEXT	ENDS
; Function compile flags: /Ogtpy
; File I:\Vitalya\mine\NSProjectX\layers\xrRender\PSLibrary.cpp
; File C:\Program Files\Microsoft Visual Studio\2022\Community\VC\Tools\MSVC\14.29.30133\include\vector
; File I:\Vitalya\mine\NSProjectX\layers\xrRender\PSLibrary.cpp
; File I:\Vitalya\mine\NSProjectX\xrCore\xrstring.h
; File I:\Vitalya\mine\NSProjectX\layers\xrRender\ParticleEffectDef.cpp
; File I:\Vitalya\mine\NSProjectX\xrCore\xrstring.h
; File I:\Vitalya\mine\NSProjectX\layers\xrRender\ParticleEffectDef.cpp
; File C:\Program Files\Microsoft Visual Studio\2022\Community\VC\Tools\MSVC\14.29.30133\include\vector
; File I:\Vitalya\mine\NSProjectX\layers\xrRender\PSLibrary.cpp
_TEXT	SEGMENT
_fn$ = -520						; size = 520
?OnCreate@CPSLibrary@@QAEXXZ PROC			; CPSLibrary::OnCreate
; _this$ = ecx

; 19   : {

	sub	esp, 520				; 00000208H

; 20   : 	string_path fn;
; 21   :     FS.update_path(fn,_game_data_,PSLIB_FILENAME);

	lea	eax, DWORD PTR _fn$[esp+520]
	push	ebx
	push	esi
	mov	ebx, ecx
	mov	ecx, DWORD PTR __imp_?xr_FS@@3PAVCLocatorAPI@@A
	push	OFFSET ??_C@_0N@KDJLGDBP@particles?4xr@
	push	OFFSET ??_C@_0M@FDPKAAFL@$game_data$@
	push	eax
	mov	ecx, DWORD PTR [ecx]
	call	DWORD PTR __imp_?update_path@CLocatorAPI@@QAEPBDAAY0CAI@DPBD1@Z

; 22   : 	if (FS.exist(fn)){

	mov	ecx, DWORD PTR __imp_?xr_FS@@3PAVCLocatorAPI@@A
	lea	eax, DWORD PTR _fn$[esp+528]
	push	eax
	mov	ecx, DWORD PTR [ecx]
	call	DWORD PTR __imp_?exist@CLocatorAPI@@QAEPBUfile@1@PBD@Z
	test	eax, eax
	lea	eax, DWORD PTR _fn$[esp+528]
	push	eax
	je	SHORT $LN5@OnCreate

; 23   :     	if (!Load(fn)) Msg("PS Library: Unsupported version.");

	mov	ecx, ebx
	call	?Load@CPSLibrary@@QAE_NPBD@Z		; CPSLibrary::Load
	test	al, al
	jne	SHORT $LN6@OnCreate
	push	OFFSET ??_C@_0CB@MNJHEPBF@PS?5Library?3?5Unsupported?5version@
	call	DWORD PTR __imp_?Msg@@YAXPBDZZ
	add	esp, 4

; 24   :     }else{

	jmp	SHORT $LN6@OnCreate
$LN5@OnCreate:

; 25   :     	Msg("Can't find file: '%s'",fn);

	push	OFFSET ??_C@_0BG@PFJIIDDI@Can?8t?5find?5file?3?5?8?$CFs?8@
	call	DWORD PTR __imp_?Msg@@YAXPBDZZ
	add	esp, 8
$LN6@OnCreate:
; File C:\Program Files\Microsoft Visual Studio\2022\Community\VC\Tools\MSVC\14.29.30133\include\vector

; 41   :     _CONSTEXPR20_CONTAINER _Vector_const_iterator(_Tptr _Parg, const _Container_base* _Pvector) noexcept : _Ptr(_Parg) {

	mov	esi, DWORD PTR [ebx]

; 150  :         return _Ptr == _Right._Ptr;

	cmp	esi, DWORD PTR [ebx+4]
; File I:\Vitalya\mine\NSProjectX\layers\xrRender\PSLibrary.cpp

; 27   : 	for (PS::PEDIt e_it = m_PEDs.begin(); e_it!=m_PEDs.end(); e_it++)

	je	SHORT $LN3@OnCreate
	push	ebp
	mov	ebp, DWORD PTR __imp_?create@resptrcode_shader@@QAEXPBD000@Z
	push	edi
	npad	6
$LL4@OnCreate:

; 28   :     	(*e_it)->CreateShader();

	mov	edi, DWORD PTR [esi]
; File I:\Vitalya\mine\NSProjectX\xrCore\xrstring.h

; 65   : 	str_c				operator*	() const						{	return p_?p_->value:0;							}

	mov	eax, DWORD PTR [edi+8]
; File I:\Vitalya\mine\NSProjectX\layers\xrRender\ParticleEffectDef.cpp

; 42   :     if (*m_ShaderName&&*m_TextureName)	

	lea	ecx, DWORD PTR [eax+12]
	neg	eax
	sbb	eax, eax
	and	eax, ecx
	je	SHORT $LN2@OnCreate
; File I:\Vitalya\mine\NSProjectX\xrCore\xrstring.h

; 65   : 	str_c				operator*	() const						{	return p_?p_->value:0;							}

	mov	edx, DWORD PTR [edi+12]
; File I:\Vitalya\mine\NSProjectX\layers\xrRender\ParticleEffectDef.cpp

; 42   :     if (*m_ShaderName&&*m_TextureName)	

	lea	ecx, DWORD PTR [edx+12]
	neg	edx
	sbb	edx, edx
	and	edx, ecx
	je	SHORT $LN2@OnCreate

; 43   :         m_CachedShader.create(*m_ShaderName,*m_TextureName);

	push	0
	push	0
	push	edx
	push	eax
	lea	ecx, DWORD PTR [edi+16]
	call	ebp
$LN2@OnCreate:
; File C:\Program Files\Microsoft Visual Studio\2022\Community\VC\Tools\MSVC\14.29.30133\include\vector

; 74   :         ++_Ptr;

	add	esi, 4

; 150  :         return _Ptr == _Right._Ptr;

	cmp	esi, DWORD PTR [ebx+4]
; File I:\Vitalya\mine\NSProjectX\layers\xrRender\PSLibrary.cpp

; 27   : 	for (PS::PEDIt e_it = m_PEDs.begin(); e_it!=m_PEDs.end(); e_it++)

	jne	SHORT $LL4@OnCreate
	pop	edi
	pop	ebp
$LN3@OnCreate:
	pop	esi

; 29   : }

	pop	ebx
	add	esp, 520				; 00000208H
	ret	0
?OnCreate@CPSLibrary@@QAEXXZ ENDP			; CPSLibrary::OnCreate
_TEXT	ENDS
; Function compile flags: /Ogtpy
; File I:\Vitalya\mine\NSProjectX\layers\xrRender\PSLibrary.cpp
; File C:\Program Files\Microsoft Visual Studio\2022\Community\VC\Tools\MSVC\14.29.30133\include\vector
; File I:\Vitalya\mine\NSProjectX\layers\xrRender\PSLibrary.cpp
; File I:\Vitalya\mine\NSProjectX\layers\xrRender\ParticleEffectDef.cpp
; File I:\Vitalya\mine\NSProjectX\xrCore\xr_resource.h
; File C:\Program Files\Microsoft Visual Studio\2022\Community\VC\Tools\MSVC\14.29.30133\include\vector
; File I:\Vitalya\mine\NSProjectX\layers\xrRender\PSLibrary.cpp
; File I:\Vitalya\mine\NSProjectX\xrCore\xrMemory_subst_msvc.h
; File C:\Program Files\Microsoft Visual Studio\2022\Community\VC\Tools\MSVC\14.29.30133\include\vector
; File I:\Vitalya\mine\NSProjectX\layers\xrRender\PSLibrary.cpp
; File I:\Vitalya\mine\NSProjectX\xrCore\xrMemory_subst_msvc.h
; File I:\Vitalya\mine\NSProjectX\layers\xrRender\ParticleEffectDef.cpp
; File I:\Vitalya\mine\NSProjectX\xrCore\xr_resource.h
; File I:\Vitalya\mine\NSProjectX\xrCore\xrstring.h
; File I:\Vitalya\mine\NSProjectX\xrCore\xrMemory_subst_msvc.h
; File C:\Program Files\Microsoft Visual Studio\2022\Community\VC\Tools\MSVC\14.29.30133\include\vector
; File I:\Vitalya\mine\NSProjectX\layers\xrRender\PSLibrary.cpp
; File I:\Vitalya\mine\NSProjectX\xrCore\xrMemory_subst_msvc.h
; File I:\Vitalya\mine\NSProjectX\layers\xrRender\PSLibrary.cpp
; File C:\Program Files\Microsoft Visual Studio\2022\Community\VC\Tools\MSVC\14.29.30133\include\vector
; File I:\Vitalya\mine\NSProjectX\layers\xrRender\PSLibrary.cpp
; File I:\Vitalya\mine\NSProjectX\xrCore\xrMemory_subst_msvc.h
; File C:\Program Files\Microsoft Visual Studio\2022\Community\VC\Tools\MSVC\14.29.30133\include\vector
; File I:\Vitalya\mine\NSProjectX\layers\xrRender\ParticleGroup.cpp
; File I:\Vitalya\mine\NSProjectX\xrCore\xrMemory_subst_msvc.h
; File I:\Vitalya\mine\NSProjectX\xrCore\xrstring.h
; File I:\Vitalya\mine\NSProjectX\xrCore\xrMemory_subst_msvc.h
; File C:\Program Files\Microsoft Visual Studio\2022\Community\VC\Tools\MSVC\14.29.30133\include\vector
; File I:\Vitalya\mine\NSProjectX\layers\xrRender\ParticleGroup.cpp
; File I:\Vitalya\mine\NSProjectX\xrCore\xrMemory_subst_msvc.h
; File I:\Vitalya\mine\NSProjectX\layers\xrRender\ParticleGroup.cpp
; File C:\Program Files\Microsoft Visual Studio\2022\Community\VC\Tools\MSVC\14.29.30133\include\vector
; File I:\Vitalya\mine\NSProjectX\xrCore\xrMemory.h
; File C:\Program Files\Microsoft Visual Studio\2022\Community\VC\Tools\MSVC\14.29.30133\include\vector
; File I:\Vitalya\mine\NSProjectX\xrCore\xrstring.h
; File I:\Vitalya\mine\NSProjectX\xrCore\xrMemory_subst_msvc.h
; File C:\Program Files\Microsoft Visual Studio\2022\Community\VC\Tools\MSVC\14.29.30133\include\vector
; File I:\Vitalya\mine\NSProjectX\layers\xrRender\PSLibrary.cpp
; File I:\Vitalya\mine\NSProjectX\xrCore\xrMemory_subst_msvc.h
; File I:\Vitalya\mine\NSProjectX\layers\xrRender\PSLibrary.cpp
_TEXT	SEGMENT
?OnDestroy@CPSLibrary@@QAEXXZ PROC			; CPSLibrary::OnDestroy
; _this$ = ecx

; 32   : {

	push	ebx
	push	ebp
	mov	ebp, ecx
	push	esi
	push	edi
; File C:\Program Files\Microsoft Visual Studio\2022\Community\VC\Tools\MSVC\14.29.30133\include\vector

; 41   :     _CONSTEXPR20_CONTAINER _Vector_const_iterator(_Tptr _Parg, const _Container_base* _Pvector) noexcept : _Ptr(_Parg) {

	mov	esi, DWORD PTR [ebp]

; 150  :         return _Ptr == _Right._Ptr;

	mov	edx, esi
	mov	eax, DWORD PTR [ebp+4]
	cmp	esi, eax
; File I:\Vitalya\mine\NSProjectX\layers\xrRender\PSLibrary.cpp

; 33   : 	for (PS::PEDIt e_it = m_PEDs.begin(); e_it!=m_PEDs.end(); e_it++)

	je	$LN6@OnDestroy
	npad	10
$LL4@OnDestroy:
; File I:\Vitalya\mine\NSProjectX\layers\xrRender\ParticleEffectDef.cpp

; 47   :     m_CachedShader.destroy();

	mov	edi, DWORD PTR [esi]
; File I:\Vitalya\mine\NSProjectX\xrCore\xr_resource.h

; 46   : 	ICF		void		_set	(T * rhs) 							{	if (0!=rhs) rhs->dwReference++;	_dec(); p_ = rhs;											}

	lea	ecx, DWORD PTR [edi+16]
	call	DWORD PTR __imp_?_dec@?$resptr_base@UShader@@@@IAEXXZ
	mov	DWORD PTR [edi+16], 0
; File C:\Program Files\Microsoft Visual Studio\2022\Community\VC\Tools\MSVC\14.29.30133\include\vector

; 74   :         ++_Ptr;

	add	esi, 4

; 150  :         return _Ptr == _Right._Ptr;

	mov	eax, DWORD PTR [ebp+4]
	cmp	esi, eax
; File I:\Vitalya\mine\NSProjectX\layers\xrRender\PSLibrary.cpp

; 33   : 	for (PS::PEDIt e_it = m_PEDs.begin(); e_it!=m_PEDs.end(); e_it++)

	jne	SHORT $LL4@OnDestroy
	mov	esi, DWORD PTR [ebp]
; File I:\Vitalya\mine\NSProjectX\xrCore\xrMemory_subst_msvc.h

; 154  : 		ptr = nullptr;

	mov	edx, esi
; File C:\Program Files\Microsoft Visual Studio\2022\Community\VC\Tools\MSVC\14.29.30133\include\vector

; 150  :         return _Ptr == _Right._Ptr;

	cmp	esi, eax
; File I:\Vitalya\mine\NSProjectX\layers\xrRender\PSLibrary.cpp

; 36   : 	for (e_it = m_PEDs.begin(); e_it!=m_PEDs.end(); e_it++)

	je	$LN6@OnDestroy
	mov	ebx, DWORD PTR __imp_??1CMemoryWriter@@UAE@XZ
	npad	1
$LL7@OnDestroy:
; File I:\Vitalya\mine\NSProjectX\xrCore\xrMemory_subst_msvc.h

; 151  : 	if (ptr) 

	mov	edi, DWORD PTR [esi]
	test	edi, edi
	je	SHORT $LN5@OnDestroy
; File I:\Vitalya\mine\NSProjectX\layers\xrRender\ParticleEffectDef.cpp

; 39   : }

	lea	ecx, DWORD PTR [edi+48]
	call	ebx
	lea	ecx, DWORD PTR [edi+16]
; File I:\Vitalya\mine\NSProjectX\xrCore\xr_resource.h

; 64   : 						~resptr_core	()												{	_dec();						}

	call	DWORD PTR __imp_?_dec@?$resptr_base@UShader@@@@IAEXXZ
; File I:\Vitalya\mine\NSProjectX\xrCore\xrstring.h

; 50   : 	void				_dec		()								{	if (0==p_) return;	p_->dwReference--; 	if (0==p_->dwReference)	p_=0;						}

	mov	eax, DWORD PTR [edi+12]
	test	eax, eax
	je	SHORT $LN75@OnDestroy
	dec	DWORD PTR [eax]
	mov	eax, DWORD PTR [edi+12]
	cmp	DWORD PTR [eax], 0
	jne	SHORT $LN75@OnDestroy
	mov	DWORD PTR [edi+12], 0
$LN75@OnDestroy:
	mov	eax, DWORD PTR [edi+8]
	test	eax, eax
	je	SHORT $LN81@OnDestroy
	dec	DWORD PTR [eax]
	mov	eax, DWORD PTR [edi+8]
	cmp	DWORD PTR [eax], 0
	jne	SHORT $LN81@OnDestroy
	mov	DWORD PTR [edi+8], 0
$LN81@OnDestroy:
	mov	eax, DWORD PTR [edi]
	test	eax, eax
	je	SHORT $LN87@OnDestroy
	dec	DWORD PTR [eax]
	mov	eax, DWORD PTR [edi]
	cmp	DWORD PTR [eax], 0
	jne	SHORT $LN87@OnDestroy
	mov	DWORD PTR [edi], 0
$LN87@OnDestroy:
; File I:\Vitalya\mine\NSProjectX\xrCore\xrMemory_subst_msvc.h

; 144  : 		Memory.mem_free	(ptr);

	push	DWORD PTR [esi]
	mov	ecx, DWORD PTR __imp_?Memory@@3VxrMemory@@A
	call	DWORD PTR __imp_?mem_free@xrMemory@@QAEXPAX@Z

; 154  : 		ptr = nullptr;

	mov	DWORD PTR [esi], 0
$LN5@OnDestroy:
; File C:\Program Files\Microsoft Visual Studio\2022\Community\VC\Tools\MSVC\14.29.30133\include\vector

; 74   :         ++_Ptr;

	add	esi, 4

; 150  :         return _Ptr == _Right._Ptr;

	cmp	esi, DWORD PTR [ebp+4]
; File I:\Vitalya\mine\NSProjectX\layers\xrRender\PSLibrary.cpp

; 36   : 	for (e_it = m_PEDs.begin(); e_it!=m_PEDs.end(); e_it++)

	jne	SHORT $LL7@OnDestroy
; File I:\Vitalya\mine\NSProjectX\xrCore\xrMemory_subst_msvc.h

; 154  : 		ptr = nullptr;

	mov	edx, DWORD PTR [ebp]
$LN6@OnDestroy:
; File I:\Vitalya\mine\NSProjectX\layers\xrRender\PSLibrary.cpp

; 38   : 	m_PEDs.clear	();

	mov	DWORD PTR [ebp+4], edx
; File C:\Program Files\Microsoft Visual Studio\2022\Community\VC\Tools\MSVC\14.29.30133\include\vector

; 41   :     _CONSTEXPR20_CONTAINER _Vector_const_iterator(_Tptr _Parg, const _Container_base* _Pvector) noexcept : _Ptr(_Parg) {

	mov	ebx, DWORD PTR [ebp+12]

; 150  :         return _Ptr == _Right._Ptr;

	cmp	ebx, DWORD PTR [ebp+16]
; File I:\Vitalya\mine\NSProjectX\layers\xrRender\PSLibrary.cpp

; 40   : 	for (PS::PGDIt g_it = m_PGDs.begin(); g_it!=m_PGDs.end(); g_it++)

	je	$LN216@OnDestroy
	npad	9
$LL10@OnDestroy:
; File I:\Vitalya\mine\NSProjectX\xrCore\xrMemory_subst_msvc.h

; 151  : 	if (ptr) 

	mov	edi, DWORD PTR [ebx]
	test	edi, edi
	je	$LN8@OnDestroy
; File C:\Program Files\Microsoft Visual Studio\2022\Community\VC\Tools\MSVC\14.29.30133\include\vector

; 41   :     _CONSTEXPR20_CONTAINER _Vector_const_iterator(_Tptr _Parg, const _Container_base* _Pvector) noexcept : _Ptr(_Parg) {

	mov	esi, DWORD PTR [edi+12]

; 150  :         return _Ptr == _Right._Ptr;

	cmp	esi, DWORD PTR [edi+16]
; File I:\Vitalya\mine\NSProjectX\layers\xrRender\ParticleGroup.cpp

; 20   :     for (EffectIt it=m_Effects.begin(); it!=m_Effects.end(); it++)

	je	$LN119@OnDestroy
$LL120@OnDestroy:
; File I:\Vitalya\mine\NSProjectX\xrCore\xrMemory_subst_msvc.h

; 151  : 	if (ptr) 

	mov	eax, DWORD PTR [esi]
	test	eax, eax
	je	SHORT $LN118@OnDestroy
; File I:\Vitalya\mine\NSProjectX\xrCore\xrstring.h

; 50   : 	void				_dec		()								{	if (0==p_) return;	p_->dwReference--; 	if (0==p_->dwReference)	p_=0;						}

	mov	ecx, DWORD PTR [eax+16]
	test	ecx, ecx
	je	SHORT $LN156@OnDestroy
	dec	DWORD PTR [ecx]
	mov	ecx, DWORD PTR [eax+16]
	cmp	DWORD PTR [ecx], 0
	jne	SHORT $LN156@OnDestroy
	mov	DWORD PTR [eax+16], 0
$LN156@OnDestroy:
	mov	ecx, DWORD PTR [eax+12]
	test	ecx, ecx
	je	SHORT $LN162@OnDestroy
	dec	DWORD PTR [ecx]
	mov	ecx, DWORD PTR [eax+12]
	cmp	DWORD PTR [ecx], 0
	jne	SHORT $LN162@OnDestroy
	mov	DWORD PTR [eax+12], 0
$LN162@OnDestroy:
	mov	ecx, DWORD PTR [eax+8]
	test	ecx, ecx
	je	SHORT $LN168@OnDestroy
	dec	DWORD PTR [ecx]
	mov	ecx, DWORD PTR [eax+8]
	cmp	DWORD PTR [ecx], 0
	jne	SHORT $LN168@OnDestroy
	mov	DWORD PTR [eax+8], 0
$LN168@OnDestroy:
	mov	ecx, DWORD PTR [eax+4]
	test	ecx, ecx
	je	SHORT $LN174@OnDestroy
	dec	DWORD PTR [ecx]
	mov	ecx, DWORD PTR [eax+4]
	cmp	DWORD PTR [ecx], 0
	jne	SHORT $LN174@OnDestroy
	mov	DWORD PTR [eax+4], 0
$LN174@OnDestroy:
; File I:\Vitalya\mine\NSProjectX\xrCore\xrMemory_subst_msvc.h

; 144  : 		Memory.mem_free	(ptr);

	push	DWORD PTR [esi]
	mov	ecx, DWORD PTR __imp_?Memory@@3VxrMemory@@A
	call	DWORD PTR __imp_?mem_free@xrMemory@@QAEXPAX@Z

; 154  : 		ptr = nullptr;

	mov	DWORD PTR [esi], 0
$LN118@OnDestroy:
; File C:\Program Files\Microsoft Visual Studio\2022\Community\VC\Tools\MSVC\14.29.30133\include\vector

; 74   :         ++_Ptr;

	add	esi, 4

; 150  :         return _Ptr == _Right._Ptr;

	cmp	esi, DWORD PTR [edi+16]
; File I:\Vitalya\mine\NSProjectX\layers\xrRender\ParticleGroup.cpp

; 20   :     for (EffectIt it=m_Effects.begin(); it!=m_Effects.end(); it++)

	jne	$LL120@OnDestroy
; File I:\Vitalya\mine\NSProjectX\xrCore\xrMemory_subst_msvc.h

; 154  : 		ptr = nullptr;

	mov	esi, DWORD PTR [edi+12]
$LN119@OnDestroy:
; File I:\Vitalya\mine\NSProjectX\layers\xrRender\ParticleGroup.cpp

; 22   :     m_Effects.clear	();

	mov	DWORD PTR [edi+16], esi
; File C:\Program Files\Microsoft Visual Studio\2022\Community\VC\Tools\MSVC\14.29.30133\include\vector

; 1750 :         if (_Myfirst) { // destroy and deallocate old array

	test	esi, esi
	je	SHORT $LN217@OnDestroy
; File I:\Vitalya\mine\NSProjectX\xrCore\xrMemory.h

; 109  : 	IC void		xr_free		(T* &P)					{	if (P) { Memory.mem_free((void*)P); P=NULL;	};	}

	mov	ecx, DWORD PTR __imp_?Memory@@3VxrMemory@@A
	push	esi
	mov	esi, DWORD PTR __imp_?mem_free@xrMemory@@QAEXPAX@Z
	call	esi
; File C:\Program Files\Microsoft Visual Studio\2022\Community\VC\Tools\MSVC\14.29.30133\include\vector

; 1754 :             _Myfirst = nullptr;

	mov	DWORD PTR [edi+12], 0

; 1755 :             _Mylast  = nullptr;

	mov	DWORD PTR [edi+16], 0

; 1756 :             _Myend   = nullptr;

	mov	DWORD PTR [edi+20], 0
	jmp	SHORT $LN181@OnDestroy
$LN217@OnDestroy:

; 1750 :         if (_Myfirst) { // destroy and deallocate old array

	mov	esi, DWORD PTR __imp_?mem_free@xrMemory@@QAEXPAX@Z
$LN181@OnDestroy:
; File I:\Vitalya\mine\NSProjectX\xrCore\xrstring.h

; 50   : 	void				_dec		()								{	if (0==p_) return;	p_->dwReference--; 	if (0==p_->dwReference)	p_=0;						}

	mov	eax, DWORD PTR [edi]
	test	eax, eax
	je	SHORT $LN192@OnDestroy
	dec	DWORD PTR [eax]
	mov	eax, DWORD PTR [edi]
	cmp	DWORD PTR [eax], 0
	jne	SHORT $LN192@OnDestroy
	mov	DWORD PTR [edi], 0
$LN192@OnDestroy:
; File I:\Vitalya\mine\NSProjectX\xrCore\xrMemory_subst_msvc.h

; 144  : 		Memory.mem_free	(ptr);

	push	DWORD PTR [ebx]
	mov	ecx, DWORD PTR __imp_?Memory@@3VxrMemory@@A
	call	esi

; 154  : 		ptr = nullptr;

	mov	DWORD PTR [ebx], 0
$LN8@OnDestroy:
; File C:\Program Files\Microsoft Visual Studio\2022\Community\VC\Tools\MSVC\14.29.30133\include\vector

; 74   :         ++_Ptr;

	add	ebx, 4

; 150  :         return _Ptr == _Right._Ptr;

	cmp	ebx, DWORD PTR [ebp+16]
; File I:\Vitalya\mine\NSProjectX\layers\xrRender\PSLibrary.cpp

; 40   : 	for (PS::PGDIt g_it = m_PGDs.begin(); g_it!=m_PGDs.end(); g_it++)

	jne	$LL10@OnDestroy
; File I:\Vitalya\mine\NSProjectX\xrCore\xrMemory_subst_msvc.h

; 154  : 		ptr = nullptr;

	mov	eax, DWORD PTR [ebp+12]
	pop	edi
; File I:\Vitalya\mine\NSProjectX\layers\xrRender\PSLibrary.cpp

; 43   : }

	pop	esi
	mov	DWORD PTR [ebp+16], eax
	pop	ebp
	pop	ebx
	ret	0
$LN216@OnDestroy:
	pop	edi
	pop	esi
	mov	DWORD PTR [ebp+16], ebx
	pop	ebp
	pop	ebx
	ret	0
?OnDestroy@CPSLibrary@@QAEXXZ ENDP			; CPSLibrary::OnDestroy
_TEXT	ENDS
; Function compile flags: /Ogtpy
; File I:\Vitalya\mine\NSProjectX\layers\xrRender\PSLibrary.cpp
; File C:\Program Files\Microsoft Visual Studio\2022\Community\VC\Tools\MSVC\14.29.30133\include\vector
; File I:\Vitalya\mine\NSProjectX\layers\xrRender\PSLibrary.cpp
; File C:\Program Files\Microsoft Visual Studio\2022\Community\VC\Tools\MSVC\14.29.30133\include\xutility
; File I:\Vitalya\mine\NSProjectX\xrCore\_std_extensions.h
; File C:\Program Files\Microsoft Visual Studio\2022\Community\VC\Tools\MSVC\14.29.30133\include\xutility
; File I:\Vitalya\mine\NSProjectX\layers\xrRender\ParticleEffectDef.h
; File I:\Vitalya\mine\NSProjectX\xrCore\xrstring.h
; File I:\Vitalya\mine\NSProjectX\xrCore\_std_extensions.h
; File I:\Vitalya\mine\NSProjectX\layers\xrRender\PSLibrary.cpp
; File C:\Program Files\Microsoft Visual Studio\2022\Community\VC\Tools\MSVC\14.29.30133\include\xutility
; File C:\Program Files\Microsoft Visual Studio\2022\Community\VC\Tools\MSVC\14.29.30133\include\vector
; File I:\Vitalya\mine\NSProjectX\layers\xrRender\PSLibrary.cpp
; File I:\Vitalya\mine\NSProjectX\xrCore\xrstring.h
; File I:\Vitalya\mine\NSProjectX\xrCore\_std_extensions.h
; File I:\Vitalya\mine\NSProjectX\layers\xrRender\PSLibrary.cpp
; File C:\Program Files\Microsoft Visual Studio\2022\Community\VC\Tools\MSVC\14.29.30133\include\vector
; File I:\Vitalya\mine\NSProjectX\layers\xrRender\PSLibrary.cpp
_TEXT	SEGMENT
$T1 = -4						; size = 4
___$ReturnUdt$ = 8					; size = 4
__UMid$1$ = 12						; size = 4
_Name$ = 12						; size = 4
?FindPEDIt@CPSLibrary@@QAE?AV?$_Vector_iterator@V?$_Vector_val@U?$_Simple_types@PAVCPEDef@PS@@@std@@@std@@@std@@PBD@Z PROC ; CPSLibrary::FindPEDIt
; _this$ = ecx

; 46   : {

	push	ecx
	push	edi

; 47   : 	if (!Name) return m_PEDs.end();

	mov	edi, DWORD PTR _Name$[esp+4]
	test	edi, edi
	jne	SHORT $LN2@FindPEDIt
; File C:\Program Files\Microsoft Visual Studio\2022\Community\VC\Tools\MSVC\14.29.30133\include\vector

; 41   :     _CONSTEXPR20_CONTAINER _Vector_const_iterator(_Tptr _Parg, const _Container_base* _Pvector) noexcept : _Ptr(_Parg) {

	mov	eax, DWORD PTR ___$ReturnUdt$[esp+4]
	mov	ecx, DWORD PTR [ecx+4]
	pop	edi
	mov	DWORD PTR [eax], ecx
; File I:\Vitalya\mine\NSProjectX\layers\xrRender\PSLibrary.cpp

; 57   : }

	pop	ecx
	ret	8
$LN2@FindPEDIt:
; File C:\Program Files\Microsoft Visual Studio\2022\Community\VC\Tools\MSVC\14.29.30133\include\xutility

; 1525 :         return _Last - _First; // assume the iterator will do debug checking

	mov	edx, DWORD PTR [ecx+4]
	push	ebp

; 5810 :     auto _UFirst                = _Get_unwrapped(_First);

	mov	ebp, DWORD PTR [ecx]
	push	esi

; 1525 :         return _Last - _First; // assume the iterator will do debug checking

	mov	esi, edx
	mov	DWORD PTR $T1[esp+16], edx
	sub	esi, ebp
	sar	esi, 2

; 5813 :     while (0 < _Count) { // divide and conquer, find half that contains answer

	test	esi, esi
	jle	SHORT $LN27@FindPEDIt
	push	ebx
	npad	1
$LL26@FindPEDIt:

; 5814 :         const _Iter_diff_t<_FwdIt> _Count2 = _Count / 2;

	mov	ebx, esi
; File I:\Vitalya\mine\NSProjectX\xrCore\_std_extensions.h

; 183  : {	return (int)strcmp(S1,S2);  }

	mov	edx, edi
; File C:\Program Files\Microsoft Visual Studio\2022\Community\VC\Tools\MSVC\14.29.30133\include\xutility

; 5814 :         const _Iter_diff_t<_FwdIt> _Count2 = _Count / 2;

	shr	ebx, 1

; 1497 :         _Where += _Off;

	lea	eax, DWORD PTR [ebx*4]
	add	eax, ebp
	mov	DWORD PTR __UMid$1$[esp+16], eax
; File I:\Vitalya\mine\NSProjectX\layers\xrRender\ParticleEffectDef.h

; 108  :         IC LPCSTR			Name				()const{return *m_Name;}

	mov	eax, DWORD PTR [eax]
; File I:\Vitalya\mine\NSProjectX\xrCore\xrstring.h

; 65   : 	str_c				operator*	() const						{	return p_?p_->value:0;							}

	mov	eax, DWORD PTR [eax]
; File I:\Vitalya\mine\NSProjectX\xrCore\_std_extensions.h

; 183  : {	return (int)strcmp(S1,S2);  }

	lea	ecx, DWORD PTR [eax+12]
	neg	eax
	sbb	eax, eax
	and	eax, ecx
$LL72@FindPEDIt:
	mov	cl, BYTE PTR [eax]
	cmp	cl, BYTE PTR [edx]
	jne	SHORT $LN73@FindPEDIt
	test	cl, cl
	je	SHORT $LN74@FindPEDIt
	mov	cl, BYTE PTR [eax+1]
	cmp	cl, BYTE PTR [edx+1]
	jne	SHORT $LN73@FindPEDIt
	add	eax, 2
	add	edx, 2
	test	cl, cl
	jne	SHORT $LL72@FindPEDIt
$LN74@FindPEDIt:
	xor	eax, eax
	jmp	SHORT $LN75@FindPEDIt
$LN73@FindPEDIt:
	sbb	eax, eax
	or	eax, 1
$LN75@FindPEDIt:
; File I:\Vitalya\mine\NSProjectX\layers\xrRender\PSLibrary.cpp

; 15   : bool ped_find_pred	(const PS::CPEDef* a, 	LPCSTR b)				{	return xr_strcmp(a->Name(),b)<0;}

	test	eax, eax
; File C:\Program Files\Microsoft Visual Studio\2022\Community\VC\Tools\MSVC\14.29.30133\include\xutility

; 5816 :         if (_Pred(*_UMid, _Val)) { // try top half

	jns	SHORT $LN28@FindPEDIt

; 5817 :             _UFirst = _Next_iter(_UMid);

	mov	ebp, DWORD PTR __UMid$1$[esp+16]

; 5818 :             _Count -= _Count2 + 1;

	or	eax, -1
	sub	eax, ebx
	add	ebp, 4
	add	esi, eax

; 5819 :         } else {

	jmp	SHORT $LN29@FindPEDIt
$LN28@FindPEDIt:

; 5820 :             _Count = _Count2;

	mov	esi, ebx
$LN29@FindPEDIt:

; 5811 :     _Iter_diff_t<_FwdIt> _Count = _STD distance(_UFirst, _Get_unwrapped(_Last));
; 5812 : 
; 5813 :     while (0 < _Count) { // divide and conquer, find half that contains answer

	test	esi, esi
	jg	SHORT $LL26@FindPEDIt
	mov	edx, DWORD PTR $T1[esp+20]
	pop	ebx
$LN27@FindPEDIt:
; File C:\Program Files\Microsoft Visual Studio\2022\Community\VC\Tools\MSVC\14.29.30133\include\vector

; 150  :         return _Ptr == _Right._Ptr;

	cmp	ebp, edx
; File I:\Vitalya\mine\NSProjectX\layers\xrRender\PSLibrary.cpp

; 54   : 	if (I==m_PEDs.end() || (0!=xr_strcmp((*I)->m_Name,Name)))	return m_PEDs.end();

	je	SHORT $LN5@FindPEDIt
	mov	eax, DWORD PTR [ebp]
; File I:\Vitalya\mine\NSProjectX\xrCore\xrstring.h

; 65   : 	str_c				operator*	() const						{	return p_?p_->value:0;							}

	mov	ecx, DWORD PTR [eax]
; File I:\Vitalya\mine\NSProjectX\xrCore\_std_extensions.h

; 183  : {	return (int)strcmp(S1,S2);  }

	lea	eax, DWORD PTR [ecx+12]
	neg	ecx
	sbb	ecx, ecx
	and	ecx, eax
$LL76@FindPEDIt:
	mov	al, BYTE PTR [ecx]
	cmp	al, BYTE PTR [edi]
	jne	SHORT $LN77@FindPEDIt
	test	al, al
	je	SHORT $LN78@FindPEDIt
	mov	al, BYTE PTR [ecx+1]
	cmp	al, BYTE PTR [edi+1]
	jne	SHORT $LN77@FindPEDIt
	add	ecx, 2
	add	edi, 2
	test	al, al
	jne	SHORT $LL76@FindPEDIt
$LN78@FindPEDIt:
	xor	eax, eax
	jmp	SHORT $LN79@FindPEDIt
$LN77@FindPEDIt:
	sbb	eax, eax
	or	eax, 1
$LN79@FindPEDIt:
; File I:\Vitalya\mine\NSProjectX\layers\xrRender\PSLibrary.cpp

; 54   : 	if (I==m_PEDs.end() || (0!=xr_strcmp((*I)->m_Name,Name)))	return m_PEDs.end();

	test	eax, eax
	jne	SHORT $LN5@FindPEDIt

; 55   : 	else														return I;

	mov	eax, DWORD PTR ___$ReturnUdt$[esp+12]
	pop	esi
	mov	DWORD PTR [eax], ebp
	pop	ebp
	pop	edi

; 57   : }

	pop	ecx
	ret	8
$LN5@FindPEDIt:
; File C:\Program Files\Microsoft Visual Studio\2022\Community\VC\Tools\MSVC\14.29.30133\include\vector

; 41   :     _CONSTEXPR20_CONTAINER _Vector_const_iterator(_Tptr _Parg, const _Container_base* _Pvector) noexcept : _Ptr(_Parg) {

	mov	eax, DWORD PTR ___$ReturnUdt$[esp+12]
	pop	esi
	pop	ebp
	pop	edi
	mov	DWORD PTR [eax], edx
; File I:\Vitalya\mine\NSProjectX\layers\xrRender\PSLibrary.cpp

; 57   : }

	pop	ecx
	ret	8
?FindPEDIt@CPSLibrary@@QAE?AV?$_Vector_iterator@V?$_Vector_val@U?$_Simple_types@PAVCPEDef@PS@@@std@@@std@@@std@@PBD@Z ENDP ; CPSLibrary::FindPEDIt
_TEXT	ENDS
; Function compile flags: /Ogtpy
; File I:\Vitalya\mine\NSProjectX\layers\xrRender\PSLibrary.cpp
; File C:\Program Files\Microsoft Visual Studio\2022\Community\VC\Tools\MSVC\14.29.30133\include\vector
; File I:\Vitalya\mine\NSProjectX\layers\xrRender\PSLibrary.cpp
_TEXT	SEGMENT
_it$ = 8						; size = 4
_Name$ = 8						; size = 4
?FindPED@CPSLibrary@@QAEPAVCPEDef@PS@@PBD@Z PROC	; CPSLibrary::FindPED
; _this$ = ecx

; 60   : {

	push	esi

; 61   : 	PS::PEDIt it = FindPEDIt(Name);

	push	DWORD PTR _Name$[esp]
	lea	eax, DWORD PTR _it$[esp+4]
	mov	esi, ecx
	push	eax
	call	?FindPEDIt@CPSLibrary@@QAE?AV?$_Vector_iterator@V?$_Vector_val@U?$_Simple_types@PAVCPEDef@PS@@@std@@@std@@@std@@PBD@Z ; CPSLibrary::FindPEDIt
; File C:\Program Files\Microsoft Visual Studio\2022\Community\VC\Tools\MSVC\14.29.30133\include\vector

; 150  :         return _Ptr == _Right._Ptr;

	mov	eax, DWORD PTR _it$[esp]
	cmp	eax, DWORD PTR [esi+4]
	pop	esi
; File I:\Vitalya\mine\NSProjectX\layers\xrRender\PSLibrary.cpp

; 62   :     return (it==m_PEDs.end())?0:*it;

	jne	SHORT $LN3@FindPED
	xor	eax, eax

; 63   : }

	ret	4
$LN3@FindPED:

; 62   :     return (it==m_PEDs.end())?0:*it;

	mov	eax, DWORD PTR [eax]

; 63   : }

	ret	4
?FindPED@CPSLibrary@@QAEPAVCPEDef@PS@@PBD@Z ENDP	; CPSLibrary::FindPED
_TEXT	ENDS
; Function compile flags: /Ogtpy
; File I:\Vitalya\mine\NSProjectX\layers\xrRender\PSLibrary.cpp
; File C:\Program Files\Microsoft Visual Studio\2022\Community\VC\Tools\MSVC\14.29.30133\include\vector
; File I:\Vitalya\mine\NSProjectX\layers\xrRender\PSLibrary.cpp
; File C:\Program Files\Microsoft Visual Studio\2022\Community\VC\Tools\MSVC\14.29.30133\include\xutility
; File I:\Vitalya\mine\NSProjectX\xrCore\_std_extensions.h
; File C:\Program Files\Microsoft Visual Studio\2022\Community\VC\Tools\MSVC\14.29.30133\include\xutility
; File I:\Vitalya\mine\NSProjectX\layers\xrRender\PSLibrary.cpp
; File I:\Vitalya\mine\NSProjectX\xrCore\xrstring.h
; File I:\Vitalya\mine\NSProjectX\xrCore\_std_extensions.h
; File I:\Vitalya\mine\NSProjectX\layers\xrRender\PSLibrary.cpp
; File C:\Program Files\Microsoft Visual Studio\2022\Community\VC\Tools\MSVC\14.29.30133\include\xutility
; File C:\Program Files\Microsoft Visual Studio\2022\Community\VC\Tools\MSVC\14.29.30133\include\vector
; File I:\Vitalya\mine\NSProjectX\layers\xrRender\PSLibrary.cpp
; File I:\Vitalya\mine\NSProjectX\xrCore\xrstring.h
; File I:\Vitalya\mine\NSProjectX\xrCore\_std_extensions.h
; File I:\Vitalya\mine\NSProjectX\layers\xrRender\PSLibrary.cpp
; File C:\Program Files\Microsoft Visual Studio\2022\Community\VC\Tools\MSVC\14.29.30133\include\vector
; File I:\Vitalya\mine\NSProjectX\layers\xrRender\PSLibrary.cpp
_TEXT	SEGMENT
$T1 = -4						; size = 4
___$ReturnUdt$ = 8					; size = 4
__UMid$1$ = 12						; size = 4
_Name$ = 12						; size = 4
?FindPGDIt@CPSLibrary@@QAE?AV?$_Vector_iterator@V?$_Vector_val@U?$_Simple_types@PAVCPGDef@PS@@@std@@@std@@@std@@PBD@Z PROC ; CPSLibrary::FindPGDIt
; _this$ = ecx

; 66   : {

	push	ecx
	push	edi

; 67   : 	if (!Name) return m_PGDs.end();

	mov	edi, DWORD PTR _Name$[esp+4]
	test	edi, edi
	jne	SHORT $LN2@FindPGDIt
; File C:\Program Files\Microsoft Visual Studio\2022\Community\VC\Tools\MSVC\14.29.30133\include\vector

; 41   :     _CONSTEXPR20_CONTAINER _Vector_const_iterator(_Tptr _Parg, const _Container_base* _Pvector) noexcept : _Ptr(_Parg) {

	mov	eax, DWORD PTR ___$ReturnUdt$[esp+4]
	mov	ecx, DWORD PTR [ecx+16]
	pop	edi
	mov	DWORD PTR [eax], ecx
; File I:\Vitalya\mine\NSProjectX\layers\xrRender\PSLibrary.cpp

; 77   : }

	pop	ecx
	ret	8
$LN2@FindPGDIt:
; File C:\Program Files\Microsoft Visual Studio\2022\Community\VC\Tools\MSVC\14.29.30133\include\xutility

; 1525 :         return _Last - _First; // assume the iterator will do debug checking

	mov	edx, DWORD PTR [ecx+16]
	push	ebp

; 5810 :     auto _UFirst                = _Get_unwrapped(_First);

	mov	ebp, DWORD PTR [ecx+12]
	push	esi

; 1525 :         return _Last - _First; // assume the iterator will do debug checking

	mov	esi, edx
	mov	DWORD PTR $T1[esp+16], edx
	sub	esi, ebp
	sar	esi, 2

; 5813 :     while (0 < _Count) { // divide and conquer, find half that contains answer

	test	esi, esi
	jle	SHORT $LN27@FindPGDIt
	push	ebx
$LL26@FindPGDIt:

; 5814 :         const _Iter_diff_t<_FwdIt> _Count2 = _Count / 2;

	mov	ebx, esi
; File I:\Vitalya\mine\NSProjectX\xrCore\_std_extensions.h

; 183  : {	return (int)strcmp(S1,S2);  }

	mov	edx, edi
; File C:\Program Files\Microsoft Visual Studio\2022\Community\VC\Tools\MSVC\14.29.30133\include\xutility

; 5814 :         const _Iter_diff_t<_FwdIt> _Count2 = _Count / 2;

	shr	ebx, 1

; 1497 :         _Where += _Off;

	lea	eax, DWORD PTR [ebx*4]
	add	eax, ebp
	mov	DWORD PTR __UMid$1$[esp+16], eax
; File I:\Vitalya\mine\NSProjectX\layers\xrRender\PSLibrary.cpp

; 16   : bool pgd_find_pred	(const PS::CPGDef* a, 	LPCSTR b)				{	return xr_strcmp(a->m_Name,b)<0;}

	mov	eax, DWORD PTR [eax]
; File I:\Vitalya\mine\NSProjectX\xrCore\xrstring.h

; 65   : 	str_c				operator*	() const						{	return p_?p_->value:0;							}

	mov	eax, DWORD PTR [eax]
; File I:\Vitalya\mine\NSProjectX\xrCore\_std_extensions.h

; 183  : {	return (int)strcmp(S1,S2);  }

	lea	ecx, DWORD PTR [eax+12]
	neg	eax
	sbb	eax, eax
	and	eax, ecx
$LL72@FindPGDIt:
	mov	cl, BYTE PTR [eax]
	cmp	cl, BYTE PTR [edx]
	jne	SHORT $LN73@FindPGDIt
	test	cl, cl
	je	SHORT $LN74@FindPGDIt
	mov	cl, BYTE PTR [eax+1]
	cmp	cl, BYTE PTR [edx+1]
	jne	SHORT $LN73@FindPGDIt
	add	eax, 2
	add	edx, 2
	test	cl, cl
	jne	SHORT $LL72@FindPGDIt
$LN74@FindPGDIt:
	xor	eax, eax
	jmp	SHORT $LN75@FindPGDIt
$LN73@FindPGDIt:
	sbb	eax, eax
	or	eax, 1
$LN75@FindPGDIt:
; File I:\Vitalya\mine\NSProjectX\layers\xrRender\PSLibrary.cpp

; 16   : bool pgd_find_pred	(const PS::CPGDef* a, 	LPCSTR b)				{	return xr_strcmp(a->m_Name,b)<0;}

	test	eax, eax
; File C:\Program Files\Microsoft Visual Studio\2022\Community\VC\Tools\MSVC\14.29.30133\include\xutility

; 5816 :         if (_Pred(*_UMid, _Val)) { // try top half

	jns	SHORT $LN28@FindPGDIt

; 5817 :             _UFirst = _Next_iter(_UMid);

	mov	ebp, DWORD PTR __UMid$1$[esp+16]

; 5818 :             _Count -= _Count2 + 1;

	or	eax, -1
	sub	eax, ebx
	add	ebp, 4
	add	esi, eax

; 5819 :         } else {

	jmp	SHORT $LN29@FindPGDIt
$LN28@FindPGDIt:

; 5820 :             _Count = _Count2;

	mov	esi, ebx
$LN29@FindPGDIt:

; 5811 :     _Iter_diff_t<_FwdIt> _Count = _STD distance(_UFirst, _Get_unwrapped(_Last));
; 5812 : 
; 5813 :     while (0 < _Count) { // divide and conquer, find half that contains answer

	test	esi, esi
	jg	SHORT $LL26@FindPGDIt
	mov	edx, DWORD PTR $T1[esp+20]
	pop	ebx
$LN27@FindPGDIt:
; File C:\Program Files\Microsoft Visual Studio\2022\Community\VC\Tools\MSVC\14.29.30133\include\vector

; 150  :         return _Ptr == _Right._Ptr;

	cmp	ebp, edx
; File I:\Vitalya\mine\NSProjectX\layers\xrRender\PSLibrary.cpp

; 74   : 	if (I==m_PGDs.end() || (0!=xr_strcmp((*I)->m_Name,Name)))	return m_PGDs.end();

	je	SHORT $LN5@FindPGDIt
	mov	eax, DWORD PTR [ebp]
; File I:\Vitalya\mine\NSProjectX\xrCore\xrstring.h

; 65   : 	str_c				operator*	() const						{	return p_?p_->value:0;							}

	mov	ecx, DWORD PTR [eax]
; File I:\Vitalya\mine\NSProjectX\xrCore\_std_extensions.h

; 183  : {	return (int)strcmp(S1,S2);  }

	lea	eax, DWORD PTR [ecx+12]
	neg	ecx
	sbb	ecx, ecx
	and	ecx, eax
$LL76@FindPGDIt:
	mov	al, BYTE PTR [ecx]
	cmp	al, BYTE PTR [edi]
	jne	SHORT $LN77@FindPGDIt
	test	al, al
	je	SHORT $LN78@FindPGDIt
	mov	al, BYTE PTR [ecx+1]
	cmp	al, BYTE PTR [edi+1]
	jne	SHORT $LN77@FindPGDIt
	add	ecx, 2
	add	edi, 2
	test	al, al
	jne	SHORT $LL76@FindPGDIt
$LN78@FindPGDIt:
	xor	eax, eax
	jmp	SHORT $LN79@FindPGDIt
$LN77@FindPGDIt:
	sbb	eax, eax
	or	eax, 1
$LN79@FindPGDIt:
; File I:\Vitalya\mine\NSProjectX\layers\xrRender\PSLibrary.cpp

; 74   : 	if (I==m_PGDs.end() || (0!=xr_strcmp((*I)->m_Name,Name)))	return m_PGDs.end();

	test	eax, eax
	jne	SHORT $LN5@FindPGDIt

; 75   : 	else														return I;

	mov	eax, DWORD PTR ___$ReturnUdt$[esp+12]
	pop	esi
	mov	DWORD PTR [eax], ebp
	pop	ebp
	pop	edi

; 77   : }

	pop	ecx
	ret	8
$LN5@FindPGDIt:
; File C:\Program Files\Microsoft Visual Studio\2022\Community\VC\Tools\MSVC\14.29.30133\include\vector

; 41   :     _CONSTEXPR20_CONTAINER _Vector_const_iterator(_Tptr _Parg, const _Container_base* _Pvector) noexcept : _Ptr(_Parg) {

	mov	eax, DWORD PTR ___$ReturnUdt$[esp+12]
	pop	esi
	pop	ebp
	pop	edi
	mov	DWORD PTR [eax], edx
; File I:\Vitalya\mine\NSProjectX\layers\xrRender\PSLibrary.cpp

; 77   : }

	pop	ecx
	ret	8
?FindPGDIt@CPSLibrary@@QAE?AV?$_Vector_iterator@V?$_Vector_val@U?$_Simple_types@PAVCPGDef@PS@@@std@@@std@@@std@@PBD@Z ENDP ; CPSLibrary::FindPGDIt
_TEXT	ENDS
; Function compile flags: /Ogtpy
; File I:\Vitalya\mine\NSProjectX\layers\xrRender\PSLibrary.cpp
; File C:\Program Files\Microsoft Visual Studio\2022\Community\VC\Tools\MSVC\14.29.30133\include\vector
; File I:\Vitalya\mine\NSProjectX\layers\xrRender\PSLibrary.cpp
_TEXT	SEGMENT
_it$ = 8						; size = 4
_Name$ = 8						; size = 4
?FindPGD@CPSLibrary@@QAEPAVCPGDef@PS@@PBD@Z PROC	; CPSLibrary::FindPGD
; _this$ = ecx

; 80   : {

	push	esi

; 81   : 	PS::PGDIt it = FindPGDIt(Name);

	push	DWORD PTR _Name$[esp]
	lea	eax, DWORD PTR _it$[esp+4]
	mov	esi, ecx
	push	eax
	call	?FindPGDIt@CPSLibrary@@QAE?AV?$_Vector_iterator@V?$_Vector_val@U?$_Simple_types@PAVCPGDef@PS@@@std@@@std@@@std@@PBD@Z ; CPSLibrary::FindPGDIt
; File C:\Program Files\Microsoft Visual Studio\2022\Community\VC\Tools\MSVC\14.29.30133\include\vector

; 150  :         return _Ptr == _Right._Ptr;

	mov	eax, DWORD PTR _it$[esp]
	cmp	eax, DWORD PTR [esi+16]
	pop	esi
; File I:\Vitalya\mine\NSProjectX\layers\xrRender\PSLibrary.cpp

; 82   :     return (it==m_PGDs.end())?0:*it;

	jne	SHORT $LN3@FindPGD
	xor	eax, eax

; 83   : }

	ret	4
$LN3@FindPGD:

; 82   :     return (it==m_PGDs.end())?0:*it;

	mov	eax, DWORD PTR [eax]

; 83   : }

	ret	4
?FindPGD@CPSLibrary@@QAEPAVCPGDef@PS@@PBD@Z ENDP	; CPSLibrary::FindPGD
_TEXT	ENDS
; Function compile flags: /Ogtpy
; File I:\Vitalya\mine\NSProjectX\layers\xrRender\PSLibrary.cpp
; File I:\Vitalya\mine\NSProjectX\xrCore\xrMemory_subst_msvc.h
; File I:\Vitalya\mine\NSProjectX\layers\xrRender\ParticleEffectDef.cpp
; File I:\Vitalya\mine\NSProjectX\xrCore\xrstring.h
; File I:\Vitalya\mine\NSProjectX\xrCore\xr_resource.h
; File I:\Vitalya\mine\NSProjectX\layers\xrRender\ParticleEffectDef.cpp
; File I:\Vitalya\mine\NSProjectX\xrCore\xr_resource.h
; File I:\Vitalya\mine\NSProjectX\xrCore\_vector2.h
; File I:\Vitalya\mine\NSProjectX\layers\xrRender\ParticleEffectDef.h
; File I:\Vitalya\mine\NSProjectX\layers\xrRender\ParticleEffectDef.cpp
; File I:\Vitalya\mine\NSProjectX\xrCore\xr_resource.h
; File I:\Vitalya\mine\NSProjectX\layers\xrRender\PSLibrary.cpp
; File I:\Vitalya\mine\NSProjectX\layers\xrRender\ParticleEffectDef.cpp
; File I:\Vitalya\mine\NSProjectX\xrCore\_vector3d.h
; File I:\Vitalya\mine\NSProjectX\xrCore\_flags.h
; File I:\Vitalya\mine\NSProjectX\layers\xrRender\PSLibrary.cpp
; File C:\Program Files\Microsoft Visual Studio\2022\Community\VC\Tools\MSVC\14.29.30133\include\vector
; File I:\Vitalya\mine\NSProjectX\layers\xrRender\PSLibrary.cpp
; File I:\Vitalya\mine\NSProjectX\xrCore\xrMemory_subst_msvc.h
; File I:\Vitalya\mine\NSProjectX\layers\xrRender\PSLibrary.cpp
; File I:\Vitalya\mine\NSProjectX\xrCore\xrstring.h
; File C:\Program Files\Microsoft Visual Studio\2022\Community\VC\Tools\MSVC\14.29.30133\include\vector
; File I:\Vitalya\mine\NSProjectX\xrCore\_flags.h
; File I:\Vitalya\mine\NSProjectX\layers\xrRender\ParticleGroup.cpp
; File I:\Vitalya\mine\NSProjectX\layers\xrRender\PSLibrary.cpp
; File C:\Program Files\Microsoft Visual Studio\2022\Community\VC\Tools\MSVC\14.29.30133\include\vector
; File I:\Vitalya\mine\NSProjectX\layers\xrRender\PSLibrary.cpp
; File C:\Program Files\Microsoft Visual Studio\2022\Community\VC\Tools\MSVC\14.29.30133\include\vector
; File I:\Vitalya\mine\NSProjectX\layers\xrRender\PSLibrary.cpp
; File C:\Program Files\Microsoft Visual Studio\2022\Community\VC\Tools\MSVC\14.29.30133\include\vector
; File I:\Vitalya\mine\NSProjectX\layers\xrRender\ParticleGroup.cpp
; File I:\Vitalya\mine\NSProjectX\layers\xrRender\PSLibrary.cpp
; File C:\Program Files\Microsoft Visual Studio\2022\Community\VC\Tools\MSVC\14.29.30133\include\vector
; File I:\Vitalya\mine\NSProjectX\layers\xrRender\ParticleGroup.cpp
; File I:\Vitalya\mine\NSProjectX\xrCore\xrMemory_subst_msvc.h
; File I:\Vitalya\mine\NSProjectX\xrCore\xrstring.h
; File I:\Vitalya\mine\NSProjectX\xrCore\xrMemory_subst_msvc.h
; File C:\Program Files\Microsoft Visual Studio\2022\Community\VC\Tools\MSVC\14.29.30133\include\vector
; File I:\Vitalya\mine\NSProjectX\layers\xrRender\ParticleGroup.cpp
; File I:\Vitalya\mine\NSProjectX\xrCore\xrMemory_subst_msvc.h
; File I:\Vitalya\mine\NSProjectX\layers\xrRender\ParticleGroup.cpp
; File C:\Program Files\Microsoft Visual Studio\2022\Community\VC\Tools\MSVC\14.29.30133\include\vector
; File I:\Vitalya\mine\NSProjectX\xrCore\xrMemory.h
; File C:\Program Files\Microsoft Visual Studio\2022\Community\VC\Tools\MSVC\14.29.30133\include\vector
; File I:\Vitalya\mine\NSProjectX\xrCore\xrstring.h
; File I:\Vitalya\mine\NSProjectX\xrCore\xrMemory_subst_msvc.h
; File I:\Vitalya\mine\NSProjectX\layers\xrRender\PSLibrary.cpp
; File C:\Program Files\Microsoft Visual Studio\2022\Community\VC\Tools\MSVC\14.29.30133\include\algorithm
; File I:\Vitalya\mine\NSProjectX\layers\xrRender\PSLibrary.cpp
; File C:\Program Files\Microsoft Visual Studio\2022\Community\VC\Tools\MSVC\14.29.30133\include\algorithm
; File I:\Vitalya\mine\NSProjectX\layers\xrRender\PSLibrary.cpp
_TEXT	SEGMENT
_F$ = -16						; size = 4
_count$1$ = -12						; size = 4
_def$1 = -8						; size = 4
_def$2 = -8						; size = 4
_OBJ$2$ = -4						; size = 4
_OBJ$1$ = -4						; size = 4
_bRes$1$ = 8						; size = 1
$T3 = 8							; size = 4
_nm$ = 8						; size = 4
?Load@CPSLibrary@@QAE_NPBD@Z PROC			; CPSLibrary::Load
; _this$ = ecx

; 115  : {

	sub	esp, 16					; 00000010H
	push	ebx

; 116  : 	IReader*	F			= FS.r_open(nm);

	push	DWORD PTR _nm$[esp+16]
	mov	ebx, ecx
	mov	ecx, DWORD PTR __imp_?xr_FS@@3PAVCLocatorAPI@@A
	mov	ecx, DWORD PTR [ecx]
	call	DWORD PTR __imp_?r_open@CLocatorAPI@@QAEPAVIReader@@PBD@Z

; 117  : 	bool bRes 				= true;
; 118  :     R_ASSERT(F->find_chunk(PS_CHUNK_VERSION));

	cmp	BYTE PTR ?ignore_always@?3??Load@CPSLibrary@@QAE_NPBD@Z@4_NA, 0
	mov	DWORD PTR _F$[esp+20], eax
	mov	BYTE PTR _bRes$1$[esp+16], 1
	jne	SHORT $LN2@Load
	push	0
	push	1
	mov	ecx, eax
	call	DWORD PTR __imp_?find_chunk@?$IReaderBase@VIReader@@@@QAEIIPAH@Z
	test	eax, eax
	jne	SHORT $LN225@Load
	mov	ecx, DWORD PTR __imp_?Debug@@3VxrDebug@@A
	push	OFFSET ?ignore_always@?3??Load@CPSLibrary@@QAE_NPBD@Z@4_NA
	push	OFFSET ??_C@_0BB@KDCDFEAK@CPSLibrary?3?3Load@
	push	118					; 00000076H
	push	OFFSET ??_C@_0DJ@NDCAIDJB@I?3?2Vitalya?2mine?2NSProjectX?2laye@
	push	OFFSET ??_C@_0CA@JIEJDHOP@F?9?$DOfind_chunk?$CIPS_CHUNK_VERSION?$CJ@
	call	DWORD PTR __imp_?fail@xrDebug@@QAEXPBD0H0AA_N@Z
$LN225@Load:

; 119  :     u16 ver					= F->r_u16();

	mov	eax, DWORD PTR _F$[esp+20]
$LN2@Load:
	mov	ecx, eax
	call	DWORD PTR __imp_?r_u16@?$IReaderBase@VIReader@@@@QAEGXZ

; 120  :     if (ver!=PS_VERSION) return false;

	cmp	ax, 1
	je	SHORT $LN12@Load
	xor	al, al
	pop	ebx

; 158  : }

	add	esp, 16					; 00000010H
	ret	4
$LN12@Load:

; 121  :     // second generation
; 122  :     IReader* OBJ;
; 123  :     OBJ			 			= F->open_chunk(PS_CHUNK_SECONDGEN);

	mov	ecx, DWORD PTR _F$[esp+20]
	push	ebp
	push	esi
	mov	esi, DWORD PTR __imp_?open_chunk@IReader@@QAEPAV1@I@Z
	push	edi
	push	3
	call	esi
	mov	DWORD PTR _OBJ$1$[esp+32], eax

; 124  :     if (OBJ){

	test	eax, eax
	je	$LN13@Load

; 125  :         IReader* O   		= OBJ->open_chunk(0);

	push	0
	mov	ecx, eax
	call	esi
	mov	ebp, eax

; 126  :         for (int count=1; O; count++) {

	mov	DWORD PTR _count$1$[esp+32], 1
	test	ebp, ebp
	je	$LN211@Load
	npad	4
$LL7@Load:
; File I:\Vitalya\mine\NSProjectX\xrCore\xrMemory_subst_msvc.h

; 68   : 	T* ptr	= (T*)Memory.mem_alloc(sizeof(T));

	mov	ecx, DWORD PTR __imp_?Memory@@3VxrMemory@@A
	push	128					; 00000080H
	call	DWORD PTR __imp_?mem_alloc@xrMemory@@QAEPAXI@Z

; 69   : 	return new (ptr) T();

	mov	edi, eax
; File I:\Vitalya\mine\NSProjectX\layers\xrRender\ParticleEffectDef.cpp

; 17   : {                                          

	lea	ecx, DWORD PTR [edi+48]
; File I:\Vitalya\mine\NSProjectX\xrCore\xrstring.h

; 57   : 						shared_str	()								{	p_ = 0;											}

	mov	DWORD PTR [edi], 0
	mov	DWORD PTR [edi+8], 0
	mov	DWORD PTR [edi+12], 0
; File I:\Vitalya\mine\NSProjectX\xrCore\xr_resource.h

; 61   : 						resptr_core		()												{	p_ = 0;						}

	mov	DWORD PTR [edi+16], 0
; File I:\Vitalya\mine\NSProjectX\layers\xrRender\ParticleEffectDef.cpp

; 17   : {                                          

	call	DWORD PTR __imp_??0CMemoryWriter@@QAE@XZ
; File I:\Vitalya\mine\NSProjectX\xrCore\xr_resource.h

; 46   : 	ICF		void		_set	(T * rhs) 							{	if (0!=rhs) rhs->dwReference++;	_dec(); p_ = rhs;											}

	lea	ecx, DWORD PTR [edi+16]
; File I:\Vitalya\mine\NSProjectX\xrCore\_vector2.h

; 15   : 	IC SelfRef set(float _u, float _v)				{ x=T(_u); y=T(_v);				return *this;	}

	mov	DWORD PTR [edi+20], 1040187392		; 3e000000H
	mov	DWORD PTR [edi+24], 1056964608		; 3f000000H
; File I:\Vitalya\mine\NSProjectX\layers\xrRender\ParticleEffectDef.h

; 42   : 			m_iFrameDimX 	= 8;

	mov	DWORD PTR [edi+36], 8

; 43   : 			m_iFrameCount 	= 16;

	mov	DWORD PTR [edi+40], 16			; 00000010H

; 44   : 			m_fSpeed		= 24.f;

	mov	DWORD PTR [edi+44], 1103101952		; 41c00000H
; File I:\Vitalya\mine\NSProjectX\layers\xrRender\ParticleEffectDef.cpp

; 19   :     m_MaxParticles		= 0;

	mov	DWORD PTR [edi+88], 0
; File I:\Vitalya\mine\NSProjectX\xrCore\xr_resource.h

; 62   : 						resptr_core		(T * p, bool add_ref = true) 					{	p_ = p;	if(add_ref)	_inc(); }

	mov	DWORD PTR $T3[esp+28], 0

; 46   : 	ICF		void		_set	(T * rhs) 							{	if (0!=rhs) rhs->dwReference++;	_dec(); p_ = rhs;											}

	call	DWORD PTR __imp_?_dec@?$resptr_base@UShader@@@@IAEXXZ

; 64   : 						~resptr_core	()												{	_dec();						}

	lea	ecx, DWORD PTR $T3[esp+28]

; 46   : 	ICF		void		_set	(T * rhs) 							{	if (0!=rhs) rhs->dwReference++;	_dec(); p_ = rhs;											}

	mov	DWORD PTR [edi+16], 0

; 64   : 						~resptr_core	()												{	_dec();						}

	call	DWORD PTR __imp_?_dec@?$resptr_base@UShader@@@@IAEXXZ
; File I:\Vitalya\mine\NSProjectX\layers\xrRender\PSLibrary.cpp

; 128  :             if (def->Load(*O)) m_PEDs.push_back(def);

	push	ebp
	mov	ecx, edi
; File I:\Vitalya\mine\NSProjectX\layers\xrRender\ParticleEffectDef.cpp

; 21   : 	m_fTimeLimit		= 0.f;

	mov	DWORD PTR [edi+84], 0

; 22   :     // collision
; 23   :     m_fCollideOneMinusFriction 	= 1.f;

	mov	DWORD PTR [edi+116], 1065353216		; 3f800000H

; 24   :     m_fCollideResilience		= 0.f;

	mov	DWORD PTR [edi+120], 0

; 25   :     m_fCollideSqrCutoff			= 0.f;

	mov	DWORD PTR [edi+124], 0
; File I:\Vitalya\mine\NSProjectX\xrCore\_vector3d.h

; 23   : 	ICF	SelfRef	set(T _x, T _y, T _z)					{ x = _x;		y = _y;		z = _z;		return *this;	};

	mov	DWORD PTR [edi+92], 0
	mov	DWORD PTR [edi+96], 0
	mov	DWORD PTR [edi+100], 0
	mov	DWORD PTR [edi+104], -1077342245	; bfc90fdbH
	mov	DWORD PTR [edi+108], 0
	mov	DWORD PTR [edi+112], 0
; File I:\Vitalya\mine\NSProjectX\xrCore\_flags.h

; 15   :     IC	SelfRef	zero	()											{ flags=T(0);	return *this;	}

	mov	DWORD PTR [edi+4], 0
; File I:\Vitalya\mine\NSProjectX\layers\xrRender\PSLibrary.cpp

; 127  :             PS::CPEDef*	def	= xr_new<PS::CPEDef>();

	mov	DWORD PTR _def$2[esp+36], edi

; 128  :             if (def->Load(*O)) m_PEDs.push_back(def);

	call	?Load@CPEDef@PS@@QAEHAAVIReader@@@Z	; PS::CPEDef::Load
	test	eax, eax
	je	SHORT $LN14@Load
; File C:\Program Files\Microsoft Visual Studio\2022\Community\VC\Tools\MSVC\14.29.30133\include\vector

; 730  :         if (_Mylast != _My_data._Myend) {

	mov	eax, DWORD PTR [ebx+4]
	cmp	eax, DWORD PTR [ebx+8]
	je	SHORT $LN64@Load

; 713  :         _Alty_traits::construct(_Getal(), _Unfancy(_Mylast), _STD forward<_Valty>(_Val)...);

	mov	DWORD PTR [eax], edi

; 714  :         _Orphan_range(_Mylast, _Mylast);
; 715  :         _Ty& _Result = *_Mylast;
; 716  :         ++_Mylast;

	add	DWORD PTR [ebx+4], 4

; 731  :             return _Emplace_back_with_unused_capacity(_STD forward<_Valty>(_Val)...);

	jmp	SHORT $LN63@Load
$LN64@Load:

; 732  :         }
; 733  : 
; 734  :         _Ty& _Result = *_Emplace_reallocate(_Mylast, _STD forward<_Valty>(_Val)...);

	lea	ecx, DWORD PTR _def$2[esp+32]
	push	ecx
	push	eax
	mov	ecx, ebx
	call	??$_Emplace_reallocate@ABQAVCPEDef@PS@@@?$vector@PAVCPEDef@PS@@V?$xalloc@PAVCPEDef@PS@@@@@std@@QAEPAPAVCPEDef@PS@@QAPAV23@ABQAV23@@Z ; std::vector<PS::CPEDef *,xalloc<PS::CPEDef *> >::_Emplace_reallocate<PS::CPEDef * const &>
$LN63@Load:
; File I:\Vitalya\mine\NSProjectX\layers\xrRender\PSLibrary.cpp

; 128  :             if (def->Load(*O)) m_PEDs.push_back(def);

	mov	ecx, ebp
	call	DWORD PTR __imp_?close@IReader@@QAEXXZ

; 130  :             O->close();
; 131  :             if (!bRes)	break;
; 132  :             O 			= OBJ->open_chunk(count);

	mov	esi, DWORD PTR _count$1$[esp+32]
	mov	ecx, DWORD PTR _OBJ$1$[esp+32]
	push	esi
	call	DWORD PTR __imp_?open_chunk@IReader@@QAEPAV1@I@Z
	mov	ebp, eax
	mov	BYTE PTR _bRes$1$[esp+28], 1
	inc	esi
	mov	DWORD PTR _count$1$[esp+32], esi
	test	ebp, ebp
	jne	$LL7@Load

; 126  :         for (int count=1; O; count++) {

	jmp	SHORT $LN226@Load
$LN14@Load:

; 129  :             else{ bRes = false; xr_delete(def); }

	lea	ecx, DWORD PTR _def$2[esp+32]
	mov	BYTE PTR _bRes$1$[esp+28], 0
	call	??$xr_delete@VCPEDef@PS@@@@YAXAAPAVCPEDef@PS@@@Z ; xr_delete<PS::CPEDef>
	mov	ecx, ebp
	call	DWORD PTR __imp_?close@IReader@@QAEXXZ
$LN226@Load:

; 133  :         }
; 134  :         OBJ->close();

	mov	esi, DWORD PTR __imp_?open_chunk@IReader@@QAEPAV1@I@Z
$LN211@Load:
	mov	ecx, DWORD PTR _OBJ$1$[esp+32]
	call	DWORD PTR __imp_?close@IReader@@QAEXXZ
$LN13@Load:

; 135  :     }
; 136  :     // second generation
; 137  :     OBJ 					= F->open_chunk(PS_CHUNK_THIRDGEN);

	mov	ecx, DWORD PTR _F$[esp+32]
	push	4
	call	esi
	mov	DWORD PTR _OBJ$2$[esp+32], eax

; 138  :     if (OBJ){

	test	eax, eax
	je	$LN17@Load

; 139  :         IReader* O   		= OBJ->open_chunk(0);

	push	0
	mov	ecx, eax
	call	esi
	mov	ebp, eax

; 140  :         for (int count=1; O; count++) {

	mov	edi, 1
	test	ebp, ebp
	je	$LN212@Load
	mov	al, BYTE PTR _bRes$1$[esp+28]
	npad	3
$LL10@Load:
; File I:\Vitalya\mine\NSProjectX\xrCore\xrMemory_subst_msvc.h

; 68   : 	T* ptr	= (T*)Memory.mem_alloc(sizeof(T));

	mov	ecx, DWORD PTR __imp_?Memory@@3VxrMemory@@A
	push	24					; 00000018H
	mov	BYTE PTR _bRes$1$[esp+32], al
	call	DWORD PTR __imp_?mem_alloc@xrMemory@@QAEPAXI@Z

; 69   : 	return new (ptr) T();

	mov	esi, eax
; File I:\Vitalya\mine\NSProjectX\layers\xrRender\PSLibrary.cpp

; 142  :             if (def->Load(*O)) m_PGDs.push_back(def);

	push	ebp
	mov	ecx, esi
	mov	DWORD PTR _def$1[esp+36], esi
; File I:\Vitalya\mine\NSProjectX\xrCore\xrstring.h

; 57   : 						shared_str	()								{	p_ = 0;											}

	mov	DWORD PTR [esi], 0
; File C:\Program Files\Microsoft Visual Studio\2022\Community\VC\Tools\MSVC\14.29.30133\include\vector

; 390  :     _CONSTEXPR20_CONTAINER _Vector_val() noexcept : _Myfirst(), _Mylast(), _Myend() {}

	mov	DWORD PTR [esi+12], 0
	mov	DWORD PTR [esi+16], 0
	mov	DWORD PTR [esi+20], 0
; File I:\Vitalya\mine\NSProjectX\xrCore\_flags.h

; 15   :     IC	SelfRef	zero	()											{ flags=T(0);	return *this;	}

	mov	DWORD PTR [esi+4], 0
; File I:\Vitalya\mine\NSProjectX\layers\xrRender\ParticleGroup.cpp

; 15   :     m_fTimeLimit	= 0.f;

	mov	DWORD PTR [esi+8], 0
; File I:\Vitalya\mine\NSProjectX\layers\xrRender\PSLibrary.cpp

; 142  :             if (def->Load(*O)) m_PGDs.push_back(def);

	call	?Load@CPGDef@PS@@QAEHAAVIReader@@@Z	; PS::CPGDef::Load
	test	eax, eax
	je	SHORT $LN18@Load
; File C:\Program Files\Microsoft Visual Studio\2022\Community\VC\Tools\MSVC\14.29.30133\include\vector

; 730  :         if (_Mylast != _My_data._Myend) {

	mov	eax, DWORD PTR [ebx+16]
; File I:\Vitalya\mine\NSProjectX\layers\xrRender\PSLibrary.cpp

; 142  :             if (def->Load(*O)) m_PGDs.push_back(def);

	lea	ecx, DWORD PTR [ebx+12]
; File C:\Program Files\Microsoft Visual Studio\2022\Community\VC\Tools\MSVC\14.29.30133\include\vector

; 730  :         if (_Mylast != _My_data._Myend) {

	cmp	eax, DWORD PTR [ecx+8]
	je	SHORT $LN87@Load

; 713  :         _Alty_traits::construct(_Getal(), _Unfancy(_Mylast), _STD forward<_Valty>(_Val)...);

	mov	DWORD PTR [eax], esi

; 714  :         _Orphan_range(_Mylast, _Mylast);
; 715  :         _Ty& _Result = *_Mylast;
; 716  :         ++_Mylast;

	add	DWORD PTR [ecx+4], 4

; 731  :             return _Emplace_back_with_unused_capacity(_STD forward<_Valty>(_Val)...);

	jmp	SHORT $LN92@Load
$LN87@Load:

; 732  :         }
; 733  : 
; 734  :         _Ty& _Result = *_Emplace_reallocate(_Mylast, _STD forward<_Valty>(_Val)...);

	lea	edx, DWORD PTR _def$1[esp+32]
	push	edx
	push	eax
	call	??$_Emplace_reallocate@ABQAVCPGDef@PS@@@?$vector@PAVCPGDef@PS@@V?$xalloc@PAVCPGDef@PS@@@@@std@@QAEPAPAVCPGDef@PS@@QAPAV23@ABQAV23@@Z ; std::vector<PS::CPGDef *,xalloc<PS::CPGDef *> >::_Emplace_reallocate<PS::CPGDef * const &>
$LN92@Load:
; File I:\Vitalya\mine\NSProjectX\layers\xrRender\PSLibrary.cpp

; 144  :             O->close();

	mov	ecx, ebp
	call	DWORD PTR __imp_?close@IReader@@QAEXXZ

; 145  :             if (!bRes) break;

	cmp	BYTE PTR _bRes$1$[esp+28], 0
	je	$LN212@Load

; 146  :             O 			= OBJ->open_chunk(count);

	mov	ecx, DWORD PTR _OBJ$2$[esp+32]
	push	edi
	call	DWORD PTR __imp_?open_chunk@IReader@@QAEPAV1@I@Z
	mov	ebp, eax
	inc	edi
	mov	al, BYTE PTR _bRes$1$[esp+28]
	mov	BYTE PTR _bRes$1$[esp+28], al
	test	ebp, ebp
	jne	$LL10@Load

; 140  :         for (int count=1; O; count++) {

	jmp	$LN212@Load
$LN18@Load:
; File C:\Program Files\Microsoft Visual Studio\2022\Community\VC\Tools\MSVC\14.29.30133\include\vector

; 41   :     _CONSTEXPR20_CONTAINER _Vector_const_iterator(_Tptr _Parg, const _Container_base* _Pvector) noexcept : _Ptr(_Parg) {

	mov	edi, DWORD PTR [esi+12]
; File I:\Vitalya\mine\NSProjectX\layers\xrRender\ParticleGroup.cpp

; 20   :     for (EffectIt it=m_Effects.begin(); it!=m_Effects.end(); it++)

	mov	edx, DWORD PTR __imp_?mem_free@xrMemory@@QAEXPAX@Z
; File I:\Vitalya\mine\NSProjectX\layers\xrRender\PSLibrary.cpp

; 143  :             else{ bRes = false; xr_delete(def); }

	mov	BYTE PTR _bRes$1$[esp+28], 0
; File C:\Program Files\Microsoft Visual Studio\2022\Community\VC\Tools\MSVC\14.29.30133\include\vector

; 150  :         return _Ptr == _Right._Ptr;

	cmp	edi, DWORD PTR [esi+16]
; File I:\Vitalya\mine\NSProjectX\layers\xrRender\ParticleGroup.cpp

; 20   :     for (EffectIt it=m_Effects.begin(); it!=m_Effects.end(); it++)

	je	$LN101@Load
	npad	8
$LL102@Load:
; File I:\Vitalya\mine\NSProjectX\xrCore\xrMemory_subst_msvc.h

; 151  : 	if (ptr) 

	mov	ecx, DWORD PTR [edi]
	test	ecx, ecx
	je	$LN100@Load
; File I:\Vitalya\mine\NSProjectX\xrCore\xrstring.h

; 50   : 	void				_dec		()								{	if (0==p_) return;	p_->dwReference--; 	if (0==p_->dwReference)	p_=0;						}

	mov	eax, DWORD PTR [ecx+16]
	test	eax, eax
	je	SHORT $LN138@Load
	dec	DWORD PTR [eax]
	mov	eax, DWORD PTR [ecx+16]
	cmp	DWORD PTR [eax], 0
	jne	SHORT $LN138@Load
	mov	DWORD PTR [ecx+16], 0
$LN138@Load:
	mov	eax, DWORD PTR [ecx+12]
	test	eax, eax
	je	SHORT $LN144@Load
	dec	DWORD PTR [eax]
	mov	eax, DWORD PTR [ecx+12]
	cmp	DWORD PTR [eax], 0
	jne	SHORT $LN144@Load
	mov	DWORD PTR [ecx+12], 0
$LN144@Load:
	mov	eax, DWORD PTR [ecx+8]
	test	eax, eax
	je	SHORT $LN150@Load
	dec	DWORD PTR [eax]
	mov	eax, DWORD PTR [ecx+8]
	cmp	DWORD PTR [eax], 0
	jne	SHORT $LN150@Load
	mov	DWORD PTR [ecx+8], 0
$LN150@Load:
	mov	eax, DWORD PTR [ecx+4]
	test	eax, eax
	je	SHORT $LN156@Load
	dec	DWORD PTR [eax]
	mov	eax, DWORD PTR [ecx+4]
	cmp	DWORD PTR [eax], 0
	jne	SHORT $LN156@Load
	mov	DWORD PTR [ecx+4], 0
$LN156@Load:
; File I:\Vitalya\mine\NSProjectX\xrCore\xrMemory_subst_msvc.h

; 144  : 		Memory.mem_free	(ptr);

	push	DWORD PTR [edi]
	mov	ecx, DWORD PTR __imp_?Memory@@3VxrMemory@@A
	call	edx

; 154  : 		ptr = nullptr;

	mov	edx, DWORD PTR __imp_?mem_free@xrMemory@@QAEXPAX@Z
	mov	DWORD PTR [edi], 0
$LN100@Load:
; File C:\Program Files\Microsoft Visual Studio\2022\Community\VC\Tools\MSVC\14.29.30133\include\vector

; 74   :         ++_Ptr;

	add	edi, 4

; 150  :         return _Ptr == _Right._Ptr;

	cmp	edi, DWORD PTR [esi+16]
; File I:\Vitalya\mine\NSProjectX\layers\xrRender\ParticleGroup.cpp

; 20   :     for (EffectIt it=m_Effects.begin(); it!=m_Effects.end(); it++)

	jne	$LL102@Load
; File I:\Vitalya\mine\NSProjectX\xrCore\xrMemory_subst_msvc.h

; 154  : 		ptr = nullptr;

	mov	edi, DWORD PTR [esi+12]
$LN101@Load:
; File I:\Vitalya\mine\NSProjectX\layers\xrRender\ParticleGroup.cpp

; 22   :     m_Effects.clear	();

	mov	DWORD PTR [esi+16], edi
; File C:\Program Files\Microsoft Visual Studio\2022\Community\VC\Tools\MSVC\14.29.30133\include\vector

; 1750 :         if (_Myfirst) { // destroy and deallocate old array

	test	edi, edi
	je	SHORT $LN163@Load
; File I:\Vitalya\mine\NSProjectX\xrCore\xrMemory.h

; 109  : 	IC void		xr_free		(T* &P)					{	if (P) { Memory.mem_free((void*)P); P=NULL;	};	}

	mov	ecx, DWORD PTR __imp_?Memory@@3VxrMemory@@A
	push	edi
	call	edx
; File C:\Program Files\Microsoft Visual Studio\2022\Community\VC\Tools\MSVC\14.29.30133\include\vector

; 1754 :             _Myfirst = nullptr;

	mov	DWORD PTR [esi+12], 0

; 1755 :             _Mylast  = nullptr;

	mov	DWORD PTR [esi+16], 0

; 1756 :             _Myend   = nullptr;

	mov	DWORD PTR [esi+20], 0
$LN163@Load:
; File I:\Vitalya\mine\NSProjectX\xrCore\xrstring.h

; 50   : 	void				_dec		()								{	if (0==p_) return;	p_->dwReference--; 	if (0==p_->dwReference)	p_=0;						}

	mov	eax, DWORD PTR [esi]
	test	eax, eax
	je	SHORT $LN174@Load
	dec	DWORD PTR [eax]
	mov	eax, DWORD PTR [esi]
	cmp	DWORD PTR [eax], 0
	jne	SHORT $LN174@Load
	mov	DWORD PTR [esi], 0
$LN174@Load:
; File I:\Vitalya\mine\NSProjectX\xrCore\xrMemory_subst_msvc.h

; 144  : 		Memory.mem_free	(ptr);

	mov	ecx, DWORD PTR __imp_?Memory@@3VxrMemory@@A
	push	esi
	call	DWORD PTR __imp_?mem_free@xrMemory@@QAEXPAX@Z
	mov	ecx, ebp
	call	DWORD PTR __imp_?close@IReader@@QAEXXZ
$LN212@Load:
; File I:\Vitalya\mine\NSProjectX\layers\xrRender\PSLibrary.cpp

; 148  :         OBJ->close();

	mov	ecx, DWORD PTR _OBJ$2$[esp+32]
	call	DWORD PTR __imp_?close@IReader@@QAEXXZ
$LN17@Load:

; 149  :     }
; 150  : 
; 151  :     // final
; 152  : 	FS.r_close			(F);

	mov	ecx, DWORD PTR __imp_?xr_FS@@3PAVCLocatorAPI@@A
	lea	eax, DWORD PTR _F$[esp+32]
	push	eax
	mov	ecx, DWORD PTR [ecx]
	call	DWORD PTR __imp_?r_close@CLocatorAPI@@QAEXAAPAVIReader@@@Z
; File C:\Program Files\Microsoft Visual Studio\2022\Community\VC\Tools\MSVC\14.29.30133\include\algorithm

; 7079 :     const auto _ULast  = _Get_unwrapped(_Last);

	mov	edx, DWORD PTR [ebx+4]

; 7080 :     _Sort_unchecked(_UFirst, _ULast, _ULast - _UFirst, _Pass_fn(_Pred));

	mov	eax, edx
	mov	ecx, DWORD PTR [ebx]
	sub	eax, ecx
	sar	eax, 2
	push	OFFSET ?ped_sort_pred@@YA_NPBVCPEDef@PS@@0@Z ; ped_sort_pred
	push	eax
	call	??$_Sort_unchecked@PAPAVCPEDef@PS@@P6A_NPBV12@0@Z@std@@YAXPAPAVCPEDef@PS@@0HP6A_NPBV12@1@Z@Z ; std::_Sort_unchecked<PS::CPEDef * *,bool (__cdecl*)(PS::CPEDef const *,PS::CPEDef const *)>

; 7079 :     const auto _ULast  = _Get_unwrapped(_Last);

	mov	edx, DWORD PTR [ebx+16]

; 7080 :     _Sort_unchecked(_UFirst, _ULast, _ULast - _UFirst, _Pass_fn(_Pred));

	mov	esi, edx
	mov	ecx, DWORD PTR [ebx+12]
	sub	esi, ecx
	push	OFFSET ?pgd_sort_pred@@YA_NPBVCPGDef@PS@@0@Z ; pgd_sort_pred
	sar	esi, 2
	push	esi
	call	??$_Sort_unchecked@PAPAVCPGDef@PS@@P6A_NPBV12@0@Z@std@@YAXPAPAVCPGDef@PS@@0HP6A_NPBV12@1@Z@Z ; std::_Sort_unchecked<PS::CPGDef * *,bool (__cdecl*)(PS::CPGDef const *,PS::CPGDef const *)>
; File I:\Vitalya\mine\NSProjectX\layers\xrRender\PSLibrary.cpp

; 157  :     return bRes;

	mov	al, BYTE PTR _bRes$1$[esp+44]
; File C:\Program Files\Microsoft Visual Studio\2022\Community\VC\Tools\MSVC\14.29.30133\include\algorithm

; 7080 :     _Sort_unchecked(_UFirst, _ULast, _ULast - _UFirst, _Pass_fn(_Pred));

	add	esp, 16					; 00000010H
; File I:\Vitalya\mine\NSProjectX\layers\xrRender\PSLibrary.cpp

; 157  :     return bRes;

	pop	edi
	pop	esi
	pop	ebp
	pop	ebx

; 158  : }

	add	esp, 16					; 00000010H
	ret	4
?Load@CPSLibrary@@QAE_NPBD@Z ENDP			; CPSLibrary::Load
_TEXT	ENDS
; Function compile flags: /Ogtpy
; File C:\Program Files\Microsoft Visual Studio\2022\Community\VC\Tools\MSVC\14.29.30133\include\vector
;	COMDAT ??E?$_Vector_iterator@V?$_Vector_val@U?$_Simple_types@PAVCPGDef@PS@@@std@@@std@@@std@@QAE?AV01@H@Z
_TEXT	SEGMENT
___$ReturnUdt$ = 8					; size = 4
___formal$dead$ = 12					; size = 4
??E?$_Vector_iterator@V?$_Vector_val@U?$_Simple_types@PAVCPGDef@PS@@@std@@@std@@@std@@QAE?AV01@H@Z PROC ; std::_Vector_iterator<std::_Vector_val<std::_Simple_types<PS::CPGDef *> > >::operator++, COMDAT
; _this$ = ecx

; 281  :         _Vector_iterator _Tmp = *this;

	mov	eax, DWORD PTR ___$ReturnUdt$[esp-4]
	mov	edx, DWORD PTR [ecx]
	mov	DWORD PTR [eax], edx

; 74   :         ++_Ptr;

	add	edx, 4
	mov	DWORD PTR [ecx], edx

; 282  :         _Mybase::operator++();
; 283  :         return _Tmp;
; 284  :     }

	ret	8
??E?$_Vector_iterator@V?$_Vector_val@U?$_Simple_types@PAVCPGDef@PS@@@std@@@std@@@std@@QAE?AV01@H@Z ENDP ; std::_Vector_iterator<std::_Vector_val<std::_Simple_types<PS::CPGDef *> > >::operator++
_TEXT	ENDS
; Function compile flags: /Ogtpy
; File C:\Program Files\Microsoft Visual Studio\2022\Community\VC\Tools\MSVC\14.29.30133\include\vector
;	COMDAT ??D?$_Vector_iterator@V?$_Vector_val@U?$_Simple_types@PAVCPGDef@PS@@@std@@@std@@@std@@QBEAAPAVCPGDef@PS@@XZ
_TEXT	SEGMENT
??D?$_Vector_iterator@V?$_Vector_val@U?$_Simple_types@PAVCPGDef@PS@@@std@@@std@@@std@@QBEAAPAVCPGDef@PS@@XZ PROC ; std::_Vector_iterator<std::_Vector_val<std::_Simple_types<PS::CPGDef *> > >::operator*, COMDAT
; _this$ = ecx

; 261  :         return const_cast<reference>(_Mybase::operator*());

	mov	eax, DWORD PTR [ecx]

; 262  :     }

	ret	0
??D?$_Vector_iterator@V?$_Vector_val@U?$_Simple_types@PAVCPGDef@PS@@@std@@@std@@@std@@QBEAAPAVCPGDef@PS@@XZ ENDP ; std::_Vector_iterator<std::_Vector_val<std::_Simple_types<PS::CPGDef *> > >::operator*
_TEXT	ENDS
; Function compile flags: /Ogtpy
; File C:\Program Files\Microsoft Visual Studio\2022\Community\VC\Tools\MSVC\14.29.30133\include\vector
;	COMDAT ??9?$_Vector_const_iterator@V?$_Vector_val@U?$_Simple_types@PAVCPGDef@PS@@@std@@@std@@@std@@QBE_NABV01@@Z
_TEXT	SEGMENT
__Right$ = 8						; size = 4
??9?$_Vector_const_iterator@V?$_Vector_val@U?$_Simple_types@PAVCPGDef@PS@@@std@@@std@@@std@@QBE_NABV01@@Z PROC ; std::_Vector_const_iterator<std::_Vector_val<std::_Simple_types<PS::CPGDef *> > >::operator!=, COMDAT
; _this$ = ecx

; 160  :         return !(*this == _Right);

	mov	eax, DWORD PTR __Right$[esp-4]
	mov	ecx, DWORD PTR [ecx]
	cmp	ecx, DWORD PTR [eax]
	setne	al

; 161  :     }

	ret	4
??9?$_Vector_const_iterator@V?$_Vector_val@U?$_Simple_types@PAVCPGDef@PS@@@std@@@std@@@std@@QBE_NABV01@@Z ENDP ; std::_Vector_const_iterator<std::_Vector_val<std::_Simple_types<PS::CPGDef *> > >::operator!=
_TEXT	ENDS
; Function compile flags: /Ogtpy
; File C:\Program Files\Microsoft Visual Studio\2022\Community\VC\Tools\MSVC\14.29.30133\include\vector
;	COMDAT ??8?$_Vector_const_iterator@V?$_Vector_val@U?$_Simple_types@PAVCPGDef@PS@@@std@@@std@@@std@@QBE_NABV01@@Z
_TEXT	SEGMENT
__Right$ = 8						; size = 4
??8?$_Vector_const_iterator@V?$_Vector_val@U?$_Simple_types@PAVCPGDef@PS@@@std@@@std@@@std@@QBE_NABV01@@Z PROC ; std::_Vector_const_iterator<std::_Vector_val<std::_Simple_types<PS::CPGDef *> > >::operator==, COMDAT
; _this$ = ecx

; 149  :         _Compat(_Right);
; 150  :         return _Ptr == _Right._Ptr;

	mov	eax, DWORD PTR __Right$[esp-4]
	mov	ecx, DWORD PTR [ecx]
	cmp	ecx, DWORD PTR [eax]
	sete	al

; 151  :     }

	ret	4
??8?$_Vector_const_iterator@V?$_Vector_val@U?$_Simple_types@PAVCPGDef@PS@@@std@@@std@@@std@@QBE_NABV01@@Z ENDP ; std::_Vector_const_iterator<std::_Vector_val<std::_Simple_types<PS::CPGDef *> > >::operator==
_TEXT	ENDS
; Function compile flags: /Ogtpy
; File C:\Program Files\Microsoft Visual Studio\2022\Community\VC\Tools\MSVC\14.29.30133\include\vector
;	COMDAT ??E?$_Vector_iterator@V?$_Vector_val@U?$_Simple_types@PAVCPEDef@PS@@@std@@@std@@@std@@QAE?AV01@H@Z
_TEXT	SEGMENT
___$ReturnUdt$ = 8					; size = 4
___formal$dead$ = 12					; size = 4
??E?$_Vector_iterator@V?$_Vector_val@U?$_Simple_types@PAVCPEDef@PS@@@std@@@std@@@std@@QAE?AV01@H@Z PROC ; std::_Vector_iterator<std::_Vector_val<std::_Simple_types<PS::CPEDef *> > >::operator++, COMDAT
; _this$ = ecx

; 281  :         _Vector_iterator _Tmp = *this;

	mov	eax, DWORD PTR ___$ReturnUdt$[esp-4]
	mov	edx, DWORD PTR [ecx]
	mov	DWORD PTR [eax], edx

; 74   :         ++_Ptr;

	add	edx, 4
	mov	DWORD PTR [ecx], edx

; 282  :         _Mybase::operator++();
; 283  :         return _Tmp;
; 284  :     }

	ret	8
??E?$_Vector_iterator@V?$_Vector_val@U?$_Simple_types@PAVCPEDef@PS@@@std@@@std@@@std@@QAE?AV01@H@Z ENDP ; std::_Vector_iterator<std::_Vector_val<std::_Simple_types<PS::CPEDef *> > >::operator++
_TEXT	ENDS
; Function compile flags: /Ogtpy
; File C:\Program Files\Microsoft Visual Studio\2022\Community\VC\Tools\MSVC\14.29.30133\include\vector
;	COMDAT ??D?$_Vector_iterator@V?$_Vector_val@U?$_Simple_types@PAVCPEDef@PS@@@std@@@std@@@std@@QBEAAPAVCPEDef@PS@@XZ
_TEXT	SEGMENT
??D?$_Vector_iterator@V?$_Vector_val@U?$_Simple_types@PAVCPEDef@PS@@@std@@@std@@@std@@QBEAAPAVCPEDef@PS@@XZ PROC ; std::_Vector_iterator<std::_Vector_val<std::_Simple_types<PS::CPEDef *> > >::operator*, COMDAT
; _this$ = ecx

; 261  :         return const_cast<reference>(_Mybase::operator*());

	mov	eax, DWORD PTR [ecx]

; 262  :     }

	ret	0
??D?$_Vector_iterator@V?$_Vector_val@U?$_Simple_types@PAVCPEDef@PS@@@std@@@std@@@std@@QBEAAPAVCPEDef@PS@@XZ ENDP ; std::_Vector_iterator<std::_Vector_val<std::_Simple_types<PS::CPEDef *> > >::operator*
_TEXT	ENDS
; Function compile flags: /Ogtpy
; File C:\Program Files\Microsoft Visual Studio\2022\Community\VC\Tools\MSVC\14.29.30133\include\vector
;	COMDAT ??9?$_Vector_const_iterator@V?$_Vector_val@U?$_Simple_types@PAVCPEDef@PS@@@std@@@std@@@std@@QBE_NABV01@@Z
_TEXT	SEGMENT
__Right$ = 8						; size = 4
??9?$_Vector_const_iterator@V?$_Vector_val@U?$_Simple_types@PAVCPEDef@PS@@@std@@@std@@@std@@QBE_NABV01@@Z PROC ; std::_Vector_const_iterator<std::_Vector_val<std::_Simple_types<PS::CPEDef *> > >::operator!=, COMDAT
; _this$ = ecx

; 160  :         return !(*this == _Right);

	mov	eax, DWORD PTR __Right$[esp-4]
	mov	ecx, DWORD PTR [ecx]
	cmp	ecx, DWORD PTR [eax]
	setne	al

; 161  :     }

	ret	4
??9?$_Vector_const_iterator@V?$_Vector_val@U?$_Simple_types@PAVCPEDef@PS@@@std@@@std@@@std@@QBE_NABV01@@Z ENDP ; std::_Vector_const_iterator<std::_Vector_val<std::_Simple_types<PS::CPEDef *> > >::operator!=
_TEXT	ENDS
; Function compile flags: /Ogtpy
; File C:\Program Files\Microsoft Visual Studio\2022\Community\VC\Tools\MSVC\14.29.30133\include\vector
;	COMDAT ??8?$_Vector_const_iterator@V?$_Vector_val@U?$_Simple_types@PAVCPEDef@PS@@@std@@@std@@@std@@QBE_NABV01@@Z
_TEXT	SEGMENT
__Right$ = 8						; size = 4
??8?$_Vector_const_iterator@V?$_Vector_val@U?$_Simple_types@PAVCPEDef@PS@@@std@@@std@@@std@@QBE_NABV01@@Z PROC ; std::_Vector_const_iterator<std::_Vector_val<std::_Simple_types<PS::CPEDef *> > >::operator==, COMDAT
; _this$ = ecx

; 149  :         _Compat(_Right);
; 150  :         return _Ptr == _Right._Ptr;

	mov	eax, DWORD PTR __Right$[esp-4]
	mov	ecx, DWORD PTR [ecx]
	cmp	ecx, DWORD PTR [eax]
	sete	al

; 151  :     }

	ret	4
??8?$_Vector_const_iterator@V?$_Vector_val@U?$_Simple_types@PAVCPEDef@PS@@@std@@@std@@@std@@QBE_NABV01@@Z ENDP ; std::_Vector_const_iterator<std::_Vector_val<std::_Simple_types<PS::CPEDef *> > >::operator==
_TEXT	ENDS
; Function compile flags: /Ogtpy
; File I:\Vitalya\mine\NSProjectX\xrCore\_stl_extensions.h
;	COMDAT ?clear@?$xr_vector@PAVCPGDef@PS@@V?$xalloc@PAVCPGDef@PS@@@@@@QAEXXZ
_TEXT	SEGMENT
?clear@?$xr_vector@PAVCPGDef@PS@@V?$xalloc@PAVCPGDef@PS@@@@@@QAEXXZ PROC ; xr_vector<PS::CPGDef *,xalloc<PS::CPGDef *> >::clear, COMDAT
; _this$ = ecx

; 132  : 	void	clear				()									{ clear_and_free	();			}

	mov	eax, DWORD PTR [ecx]
	mov	DWORD PTR [ecx+4], eax
	ret	0
?clear@?$xr_vector@PAVCPGDef@PS@@V?$xalloc@PAVCPGDef@PS@@@@@@QAEXXZ ENDP ; xr_vector<PS::CPGDef *,xalloc<PS::CPGDef *> >::clear
_TEXT	ENDS
; Function compile flags: /Ogtpy
; File C:\Program Files\Microsoft Visual Studio\2022\Community\VC\Tools\MSVC\14.29.30133\include\vector
;	COMDAT ?push_back@?$vector@PAVCPGDef@PS@@V?$xalloc@PAVCPGDef@PS@@@@@std@@QAEXABQAVCPGDef@PS@@@Z
_TEXT	SEGMENT
__Val$ = 8						; size = 4
?push_back@?$vector@PAVCPGDef@PS@@V?$xalloc@PAVCPGDef@PS@@@@@std@@QAEXABQAVCPGDef@PS@@@Z PROC ; std::vector<PS::CPGDef *,xalloc<PS::CPGDef *> >::push_back, COMDAT
; _this$ = ecx

; 730  :         if (_Mylast != _My_data._Myend) {

	mov	edx, DWORD PTR [ecx+4]
	cmp	edx, DWORD PTR [ecx+8]
	je	SHORT $LN4@push_back

; 713  :         _Alty_traits::construct(_Getal(), _Unfancy(_Mylast), _STD forward<_Valty>(_Val)...);

	mov	eax, DWORD PTR __Val$[esp-4]
	mov	eax, DWORD PTR [eax]
	mov	DWORD PTR [edx], eax

; 714  :         _Orphan_range(_Mylast, _Mylast);
; 715  :         _Ty& _Result = *_Mylast;
; 716  :         ++_Mylast;

	add	DWORD PTR [ecx+4], 4

; 743  :         emplace_back(_Val);
; 744  :     }

	ret	4
$LN4@push_back:

; 734  :         _Ty& _Result = *_Emplace_reallocate(_Mylast, _STD forward<_Valty>(_Val)...);

	push	DWORD PTR __Val$[esp-4]
	push	edx
	call	??$_Emplace_reallocate@ABQAVCPGDef@PS@@@?$vector@PAVCPGDef@PS@@V?$xalloc@PAVCPGDef@PS@@@@@std@@QAEPAPAVCPGDef@PS@@QAPAV23@ABQAV23@@Z ; std::vector<PS::CPGDef *,xalloc<PS::CPGDef *> >::_Emplace_reallocate<PS::CPGDef * const &>

; 743  :         emplace_back(_Val);
; 744  :     }

	ret	4
?push_back@?$vector@PAVCPGDef@PS@@V?$xalloc@PAVCPGDef@PS@@@@@std@@QAEXABQAVCPGDef@PS@@@Z ENDP ; std::vector<PS::CPGDef *,xalloc<PS::CPGDef *> >::push_back
_TEXT	ENDS
; Function compile flags: /Ogtpy
; File C:\Program Files\Microsoft Visual Studio\2022\Community\VC\Tools\MSVC\14.29.30133\include\vector
;	COMDAT ??$emplace_back@ABQAVCPGDef@PS@@@?$vector@PAVCPGDef@PS@@V?$xalloc@PAVCPGDef@PS@@@@@std@@QAE?A_TABQAVCPGDef@PS@@@Z
_TEXT	SEGMENT
_<_Val_0>$ = 8						; size = 4
??$emplace_back@ABQAVCPGDef@PS@@@?$vector@PAVCPGDef@PS@@V?$xalloc@PAVCPGDef@PS@@@@@std@@QAE?A_TABQAVCPGDef@PS@@@Z PROC ; std::vector<PS::CPGDef *,xalloc<PS::CPGDef *> >::emplace_back<PS::CPGDef * const &>, COMDAT
; _this$ = ecx

; 727  :         // insert by perfectly forwarding into element at end, provide strong guarantee
; 728  :         auto& _My_data   = _Mypair._Myval2;
; 729  :         pointer& _Mylast = _My_data._Mylast;
; 730  :         if (_Mylast != _My_data._Myend) {

	mov	edx, DWORD PTR [ecx+4]
	cmp	edx, DWORD PTR [ecx+8]
	je	SHORT $LN2@emplace_ba

; 713  :         _Alty_traits::construct(_Getal(), _Unfancy(_Mylast), _STD forward<_Valty>(_Val)...);

	mov	eax, DWORD PTR _<_Val_0>$[esp-4]
	mov	eax, DWORD PTR [eax]
	mov	DWORD PTR [edx], eax

; 714  :         _Orphan_range(_Mylast, _Mylast);
; 715  :         _Ty& _Result = *_Mylast;
; 716  :         ++_Mylast;

	add	DWORD PTR [ecx+4], 4

; 735  : #if _HAS_CXX17
; 736  :         return _Result;
; 737  : #else // ^^^ _HAS_CXX17 ^^^ // vvv !_HAS_CXX17 vvv
; 738  :         (void) _Result;
; 739  : #endif // _HAS_CXX17
; 740  :     }

	ret	4
$LN2@emplace_ba:

; 731  :             return _Emplace_back_with_unused_capacity(_STD forward<_Valty>(_Val)...);
; 732  :         }
; 733  : 
; 734  :         _Ty& _Result = *_Emplace_reallocate(_Mylast, _STD forward<_Valty>(_Val)...);

	push	DWORD PTR _<_Val_0>$[esp-4]
	push	edx
	call	??$_Emplace_reallocate@ABQAVCPGDef@PS@@@?$vector@PAVCPGDef@PS@@V?$xalloc@PAVCPGDef@PS@@@@@std@@QAEPAPAVCPGDef@PS@@QAPAV23@ABQAV23@@Z ; std::vector<PS::CPGDef *,xalloc<PS::CPGDef *> >::_Emplace_reallocate<PS::CPGDef * const &>

; 735  : #if _HAS_CXX17
; 736  :         return _Result;
; 737  : #else // ^^^ _HAS_CXX17 ^^^ // vvv !_HAS_CXX17 vvv
; 738  :         (void) _Result;
; 739  : #endif // _HAS_CXX17
; 740  :     }

	ret	4
??$emplace_back@ABQAVCPGDef@PS@@@?$vector@PAVCPGDef@PS@@V?$xalloc@PAVCPGDef@PS@@@@@std@@QAE?A_TABQAVCPGDef@PS@@@Z ENDP ; std::vector<PS::CPGDef *,xalloc<PS::CPGDef *> >::emplace_back<PS::CPGDef * const &>
_TEXT	ENDS
; Function compile flags: /Ogtpy
; File C:\Program Files\Microsoft Visual Studio\2022\Community\VC\Tools\MSVC\14.29.30133\include\vector
;	COMDAT ??$_Emplace_back_with_unused_capacity@ABQAVCPGDef@PS@@@?$vector@PAVCPGDef@PS@@V?$xalloc@PAVCPGDef@PS@@@@@std@@AAE?A_TABQAVCPGDef@PS@@@Z
_TEXT	SEGMENT
_<_Val_0>$ = 8						; size = 4
??$_Emplace_back_with_unused_capacity@ABQAVCPGDef@PS@@@?$vector@PAVCPGDef@PS@@V?$xalloc@PAVCPGDef@PS@@@@@std@@AAE?A_TABQAVCPGDef@PS@@@Z PROC ; std::vector<PS::CPGDef *,xalloc<PS::CPGDef *> >::_Emplace_back_with_unused_capacity<PS::CPGDef * const &>, COMDAT
; _this$ = ecx

; 709  :         // insert by perfectly forwarding into element at end, provide strong guarantee
; 710  :         auto& _My_data   = _Mypair._Myval2;
; 711  :         pointer& _Mylast = _My_data._Mylast;
; 712  :         _STL_INTERNAL_CHECK(_Mylast != _My_data._Myend); // check that we have unused capacity
; 713  :         _Alty_traits::construct(_Getal(), _Unfancy(_Mylast), _STD forward<_Valty>(_Val)...);

	mov	edx, DWORD PTR [ecx+4]
	mov	eax, DWORD PTR _<_Val_0>$[esp-4]
	mov	eax, DWORD PTR [eax]
	mov	DWORD PTR [edx], eax

; 714  :         _Orphan_range(_Mylast, _Mylast);
; 715  :         _Ty& _Result = *_Mylast;
; 716  :         ++_Mylast;

	add	DWORD PTR [ecx+4], 4

; 717  : #if _HAS_CXX17
; 718  :         return _Result;
; 719  : #else // ^^^ _HAS_CXX17 ^^^ // vvv !_HAS_CXX17 vvv
; 720  :         (void) _Result;
; 721  : #endif // _HAS_CXX17
; 722  :     }

	ret	4
??$_Emplace_back_with_unused_capacity@ABQAVCPGDef@PS@@@?$vector@PAVCPGDef@PS@@V?$xalloc@PAVCPGDef@PS@@@@@std@@AAE?A_TABQAVCPGDef@PS@@@Z ENDP ; std::vector<PS::CPGDef *,xalloc<PS::CPGDef *> >::_Emplace_back_with_unused_capacity<PS::CPGDef * const &>
_TEXT	ENDS
; Function compile flags: /Ogtpy
; File I:\Vitalya\mine\NSProjectX\xrCore\_stl_extensions.h
;	COMDAT ?clear@?$xr_vector@PAVCPEDef@PS@@V?$xalloc@PAVCPEDef@PS@@@@@@QAEXXZ
_TEXT	SEGMENT
?clear@?$xr_vector@PAVCPEDef@PS@@V?$xalloc@PAVCPEDef@PS@@@@@@QAEXXZ PROC ; xr_vector<PS::CPEDef *,xalloc<PS::CPEDef *> >::clear, COMDAT
; _this$ = ecx

; 132  : 	void	clear				()									{ clear_and_free	();			}

	mov	eax, DWORD PTR [ecx]
	mov	DWORD PTR [ecx+4], eax
	ret	0
?clear@?$xr_vector@PAVCPEDef@PS@@V?$xalloc@PAVCPEDef@PS@@@@@@QAEXXZ ENDP ; xr_vector<PS::CPEDef *,xalloc<PS::CPEDef *> >::clear
_TEXT	ENDS
; Function compile flags: /Ogtpy
; File C:\Program Files\Microsoft Visual Studio\2022\Community\VC\Tools\MSVC\14.29.30133\include\vector
;	COMDAT ?push_back@?$vector@PAVCPEDef@PS@@V?$xalloc@PAVCPEDef@PS@@@@@std@@QAEXABQAVCPEDef@PS@@@Z
_TEXT	SEGMENT
__Val$ = 8						; size = 4
?push_back@?$vector@PAVCPEDef@PS@@V?$xalloc@PAVCPEDef@PS@@@@@std@@QAEXABQAVCPEDef@PS@@@Z PROC ; std::vector<PS::CPEDef *,xalloc<PS::CPEDef *> >::push_back, COMDAT
; _this$ = ecx

; 730  :         if (_Mylast != _My_data._Myend) {

	mov	edx, DWORD PTR [ecx+4]
	cmp	edx, DWORD PTR [ecx+8]
	je	SHORT $LN4@push_back

; 713  :         _Alty_traits::construct(_Getal(), _Unfancy(_Mylast), _STD forward<_Valty>(_Val)...);

	mov	eax, DWORD PTR __Val$[esp-4]
	mov	eax, DWORD PTR [eax]
	mov	DWORD PTR [edx], eax

; 714  :         _Orphan_range(_Mylast, _Mylast);
; 715  :         _Ty& _Result = *_Mylast;
; 716  :         ++_Mylast;

	add	DWORD PTR [ecx+4], 4

; 743  :         emplace_back(_Val);
; 744  :     }

	ret	4
$LN4@push_back:

; 734  :         _Ty& _Result = *_Emplace_reallocate(_Mylast, _STD forward<_Valty>(_Val)...);

	push	DWORD PTR __Val$[esp-4]
	push	edx
	call	??$_Emplace_reallocate@ABQAVCPEDef@PS@@@?$vector@PAVCPEDef@PS@@V?$xalloc@PAVCPEDef@PS@@@@@std@@QAEPAPAVCPEDef@PS@@QAPAV23@ABQAV23@@Z ; std::vector<PS::CPEDef *,xalloc<PS::CPEDef *> >::_Emplace_reallocate<PS::CPEDef * const &>

; 743  :         emplace_back(_Val);
; 744  :     }

	ret	4
?push_back@?$vector@PAVCPEDef@PS@@V?$xalloc@PAVCPEDef@PS@@@@@std@@QAEXABQAVCPEDef@PS@@@Z ENDP ; std::vector<PS::CPEDef *,xalloc<PS::CPEDef *> >::push_back
_TEXT	ENDS
; Function compile flags: /Ogtpy
; File C:\Program Files\Microsoft Visual Studio\2022\Community\VC\Tools\MSVC\14.29.30133\include\vector
;	COMDAT ??$emplace_back@ABQAVCPEDef@PS@@@?$vector@PAVCPEDef@PS@@V?$xalloc@PAVCPEDef@PS@@@@@std@@QAE?A_TABQAVCPEDef@PS@@@Z
_TEXT	SEGMENT
_<_Val_0>$ = 8						; size = 4
??$emplace_back@ABQAVCPEDef@PS@@@?$vector@PAVCPEDef@PS@@V?$xalloc@PAVCPEDef@PS@@@@@std@@QAE?A_TABQAVCPEDef@PS@@@Z PROC ; std::vector<PS::CPEDef *,xalloc<PS::CPEDef *> >::emplace_back<PS::CPEDef * const &>, COMDAT
; _this$ = ecx

; 727  :         // insert by perfectly forwarding into element at end, provide strong guarantee
; 728  :         auto& _My_data   = _Mypair._Myval2;
; 729  :         pointer& _Mylast = _My_data._Mylast;
; 730  :         if (_Mylast != _My_data._Myend) {

	mov	edx, DWORD PTR [ecx+4]
	cmp	edx, DWORD PTR [ecx+8]
	je	SHORT $LN2@emplace_ba

; 713  :         _Alty_traits::construct(_Getal(), _Unfancy(_Mylast), _STD forward<_Valty>(_Val)...);

	mov	eax, DWORD PTR _<_Val_0>$[esp-4]
	mov	eax, DWORD PTR [eax]
	mov	DWORD PTR [edx], eax

; 714  :         _Orphan_range(_Mylast, _Mylast);
; 715  :         _Ty& _Result = *_Mylast;
; 716  :         ++_Mylast;

	add	DWORD PTR [ecx+4], 4

; 735  : #if _HAS_CXX17
; 736  :         return _Result;
; 737  : #else // ^^^ _HAS_CXX17 ^^^ // vvv !_HAS_CXX17 vvv
; 738  :         (void) _Result;
; 739  : #endif // _HAS_CXX17
; 740  :     }

	ret	4
$LN2@emplace_ba:

; 731  :             return _Emplace_back_with_unused_capacity(_STD forward<_Valty>(_Val)...);
; 732  :         }
; 733  : 
; 734  :         _Ty& _Result = *_Emplace_reallocate(_Mylast, _STD forward<_Valty>(_Val)...);

	push	DWORD PTR _<_Val_0>$[esp-4]
	push	edx
	call	??$_Emplace_reallocate@ABQAVCPEDef@PS@@@?$vector@PAVCPEDef@PS@@V?$xalloc@PAVCPEDef@PS@@@@@std@@QAEPAPAVCPEDef@PS@@QAPAV23@ABQAV23@@Z ; std::vector<PS::CPEDef *,xalloc<PS::CPEDef *> >::_Emplace_reallocate<PS::CPEDef * const &>

; 735  : #if _HAS_CXX17
; 736  :         return _Result;
; 737  : #else // ^^^ _HAS_CXX17 ^^^ // vvv !_HAS_CXX17 vvv
; 738  :         (void) _Result;
; 739  : #endif // _HAS_CXX17
; 740  :     }

	ret	4
??$emplace_back@ABQAVCPEDef@PS@@@?$vector@PAVCPEDef@PS@@V?$xalloc@PAVCPEDef@PS@@@@@std@@QAE?A_TABQAVCPEDef@PS@@@Z ENDP ; std::vector<PS::CPEDef *,xalloc<PS::CPEDef *> >::emplace_back<PS::CPEDef * const &>
_TEXT	ENDS
; Function compile flags: /Ogtpy
; File C:\Program Files\Microsoft Visual Studio\2022\Community\VC\Tools\MSVC\14.29.30133\include\vector
;	COMDAT ??$_Emplace_back_with_unused_capacity@ABQAVCPEDef@PS@@@?$vector@PAVCPEDef@PS@@V?$xalloc@PAVCPEDef@PS@@@@@std@@AAE?A_TABQAVCPEDef@PS@@@Z
_TEXT	SEGMENT
_<_Val_0>$ = 8						; size = 4
??$_Emplace_back_with_unused_capacity@ABQAVCPEDef@PS@@@?$vector@PAVCPEDef@PS@@V?$xalloc@PAVCPEDef@PS@@@@@std@@AAE?A_TABQAVCPEDef@PS@@@Z PROC ; std::vector<PS::CPEDef *,xalloc<PS::CPEDef *> >::_Emplace_back_with_unused_capacity<PS::CPEDef * const &>, COMDAT
; _this$ = ecx

; 709  :         // insert by perfectly forwarding into element at end, provide strong guarantee
; 710  :         auto& _My_data   = _Mypair._Myval2;
; 711  :         pointer& _Mylast = _My_data._Mylast;
; 712  :         _STL_INTERNAL_CHECK(_Mylast != _My_data._Myend); // check that we have unused capacity
; 713  :         _Alty_traits::construct(_Getal(), _Unfancy(_Mylast), _STD forward<_Valty>(_Val)...);

	mov	edx, DWORD PTR [ecx+4]
	mov	eax, DWORD PTR _<_Val_0>$[esp-4]
	mov	eax, DWORD PTR [eax]
	mov	DWORD PTR [edx], eax

; 714  :         _Orphan_range(_Mylast, _Mylast);
; 715  :         _Ty& _Result = *_Mylast;
; 716  :         ++_Mylast;

	add	DWORD PTR [ecx+4], 4

; 717  : #if _HAS_CXX17
; 718  :         return _Result;
; 719  : #else // ^^^ _HAS_CXX17 ^^^ // vvv !_HAS_CXX17 vvv
; 720  :         (void) _Result;
; 721  : #endif // _HAS_CXX17
; 722  :     }

	ret	4
??$_Emplace_back_with_unused_capacity@ABQAVCPEDef@PS@@@?$vector@PAVCPEDef@PS@@V?$xalloc@PAVCPEDef@PS@@@@@std@@AAE?A_TABQAVCPEDef@PS@@@Z ENDP ; std::vector<PS::CPEDef *,xalloc<PS::CPEDef *> >::_Emplace_back_with_unused_capacity<PS::CPEDef * const &>
_TEXT	ENDS
; Function compile flags: /Ogtpy
; File C:\Program Files\Microsoft Visual Studio\2022\Community\VC\Tools\MSVC\14.29.30133\include\vector
;	COMDAT ?_Compat@?$_Vector_const_iterator@V?$_Vector_val@U?$_Simple_types@PAVCPGDef@PS@@@std@@@std@@@std@@QBEXABV12@@Z
_TEXT	SEGMENT
__Right$dead$ = 8					; size = 4
?_Compat@?$_Vector_const_iterator@V?$_Vector_val@U?$_Simple_types@PAVCPGDef@PS@@@std@@@std@@@std@@QBEXABV12@@Z PROC ; std::_Vector_const_iterator<std::_Vector_val<std::_Simple_types<PS::CPGDef *> > >::_Compat, COMDAT
; _this$dead$ = ecx

; 182  :         // test for compatible iterator pair
; 183  : #if _ITERATOR_DEBUG_LEVEL == 0
; 184  :         (void) _Right;
; 185  : #else // ^^^ _ITERATOR_DEBUG_LEVEL == 0 ^^^ // vvv _ITERATOR_DEBUG_LEVEL != 0 vvv
; 186  :         _STL_VERIFY(this->_Getcont() == _Right._Getcont(), "vector iterators incompatible");
; 187  : #endif // _ITERATOR_DEBUG_LEVEL == 0
; 188  :     }

	ret	4
?_Compat@?$_Vector_const_iterator@V?$_Vector_val@U?$_Simple_types@PAVCPGDef@PS@@@std@@@std@@@std@@QBEXABV12@@Z ENDP ; std::_Vector_const_iterator<std::_Vector_val<std::_Simple_types<PS::CPGDef *> > >::_Compat
_TEXT	ENDS
; Function compile flags: /Ogtpy
; File C:\Program Files\Microsoft Visual Studio\2022\Community\VC\Tools\MSVC\14.29.30133\include\vector
;	COMDAT ??E?$_Vector_const_iterator@V?$_Vector_val@U?$_Simple_types@PAVCPGDef@PS@@@std@@@std@@@std@@QAEAAV01@XZ
_TEXT	SEGMENT
??E?$_Vector_const_iterator@V?$_Vector_val@U?$_Simple_types@PAVCPGDef@PS@@@std@@@std@@@std@@QAEAAV01@XZ PROC ; std::_Vector_const_iterator<std::_Vector_val<std::_Simple_types<PS::CPGDef *> > >::operator++, COMDAT
; _this$ = ecx

; 68   : #if _ITERATOR_DEBUG_LEVEL != 0
; 69   :         const auto _Mycont = static_cast<const _Myvec*>(this->_Getcont());
; 70   :         _STL_VERIFY(_Ptr, "can't increment value-initialized vector iterator");
; 71   :         _STL_VERIFY(_Ptr < _Mycont->_Mylast, "can't increment vector iterator past end");
; 72   : #endif // _ITERATOR_DEBUG_LEVEL != 0
; 73   : 
; 74   :         ++_Ptr;

	add	DWORD PTR [ecx], 4

; 75   :         return *this;

	mov	eax, ecx

; 76   :     }

	ret	0
??E?$_Vector_const_iterator@V?$_Vector_val@U?$_Simple_types@PAVCPGDef@PS@@@std@@@std@@@std@@QAEAAV01@XZ ENDP ; std::_Vector_const_iterator<std::_Vector_val<std::_Simple_types<PS::CPGDef *> > >::operator++
_TEXT	ENDS
; Function compile flags: /Ogtpy
; File C:\Program Files\Microsoft Visual Studio\2022\Community\VC\Tools\MSVC\14.29.30133\include\vector
;	COMDAT ??D?$_Vector_const_iterator@V?$_Vector_val@U?$_Simple_types@PAVCPGDef@PS@@@std@@@std@@@std@@QBEABQAVCPGDef@PS@@XZ
_TEXT	SEGMENT
??D?$_Vector_const_iterator@V?$_Vector_val@U?$_Simple_types@PAVCPGDef@PS@@@std@@@std@@@std@@QBEABQAVCPGDef@PS@@XZ PROC ; std::_Vector_const_iterator<std::_Vector_val<std::_Simple_types<PS::CPGDef *> > >::operator*, COMDAT
; _this$ = ecx

; 46   : #if _ITERATOR_DEBUG_LEVEL != 0
; 47   :         const auto _Mycont = static_cast<const _Myvec*>(this->_Getcont());
; 48   :         _STL_VERIFY(_Ptr, "can't dereference value-initialized vector iterator");
; 49   :         _STL_VERIFY(
; 50   :             _Mycont->_Myfirst <= _Ptr && _Ptr < _Mycont->_Mylast, "can't dereference out of range vector iterator");
; 51   : #endif // _ITERATOR_DEBUG_LEVEL != 0
; 52   : 
; 53   :         return *_Ptr;

	mov	eax, DWORD PTR [ecx]

; 54   :     }

	ret	0
??D?$_Vector_const_iterator@V?$_Vector_val@U?$_Simple_types@PAVCPGDef@PS@@@std@@@std@@@std@@QBEABQAVCPGDef@PS@@XZ ENDP ; std::_Vector_const_iterator<std::_Vector_val<std::_Simple_types<PS::CPGDef *> > >::operator*
_TEXT	ENDS
; Function compile flags: /Ogtpy
; File C:\Program Files\Microsoft Visual Studio\2022\Community\VC\Tools\MSVC\14.29.30133\include\vector
;	COMDAT ?_Compat@?$_Vector_const_iterator@V?$_Vector_val@U?$_Simple_types@PAVCPEDef@PS@@@std@@@std@@@std@@QBEXABV12@@Z
_TEXT	SEGMENT
__Right$dead$ = 8					; size = 4
?_Compat@?$_Vector_const_iterator@V?$_Vector_val@U?$_Simple_types@PAVCPEDef@PS@@@std@@@std@@@std@@QBEXABV12@@Z PROC ; std::_Vector_const_iterator<std::_Vector_val<std::_Simple_types<PS::CPEDef *> > >::_Compat, COMDAT
; _this$dead$ = ecx

; 182  :         // test for compatible iterator pair
; 183  : #if _ITERATOR_DEBUG_LEVEL == 0
; 184  :         (void) _Right;
; 185  : #else // ^^^ _ITERATOR_DEBUG_LEVEL == 0 ^^^ // vvv _ITERATOR_DEBUG_LEVEL != 0 vvv
; 186  :         _STL_VERIFY(this->_Getcont() == _Right._Getcont(), "vector iterators incompatible");
; 187  : #endif // _ITERATOR_DEBUG_LEVEL == 0
; 188  :     }

	ret	4
?_Compat@?$_Vector_const_iterator@V?$_Vector_val@U?$_Simple_types@PAVCPEDef@PS@@@std@@@std@@@std@@QBEXABV12@@Z ENDP ; std::_Vector_const_iterator<std::_Vector_val<std::_Simple_types<PS::CPEDef *> > >::_Compat
_TEXT	ENDS
; Function compile flags: /Ogtpy
; File C:\Program Files\Microsoft Visual Studio\2022\Community\VC\Tools\MSVC\14.29.30133\include\vector
;	COMDAT ??E?$_Vector_const_iterator@V?$_Vector_val@U?$_Simple_types@PAVCPEDef@PS@@@std@@@std@@@std@@QAEAAV01@XZ
_TEXT	SEGMENT
??E?$_Vector_const_iterator@V?$_Vector_val@U?$_Simple_types@PAVCPEDef@PS@@@std@@@std@@@std@@QAEAAV01@XZ PROC ; std::_Vector_const_iterator<std::_Vector_val<std::_Simple_types<PS::CPEDef *> > >::operator++, COMDAT
; _this$ = ecx

; 68   : #if _ITERATOR_DEBUG_LEVEL != 0
; 69   :         const auto _Mycont = static_cast<const _Myvec*>(this->_Getcont());
; 70   :         _STL_VERIFY(_Ptr, "can't increment value-initialized vector iterator");
; 71   :         _STL_VERIFY(_Ptr < _Mycont->_Mylast, "can't increment vector iterator past end");
; 72   : #endif // _ITERATOR_DEBUG_LEVEL != 0
; 73   : 
; 74   :         ++_Ptr;

	add	DWORD PTR [ecx], 4

; 75   :         return *this;

	mov	eax, ecx

; 76   :     }

	ret	0
??E?$_Vector_const_iterator@V?$_Vector_val@U?$_Simple_types@PAVCPEDef@PS@@@std@@@std@@@std@@QAEAAV01@XZ ENDP ; std::_Vector_const_iterator<std::_Vector_val<std::_Simple_types<PS::CPEDef *> > >::operator++
_TEXT	ENDS
; Function compile flags: /Ogtpy
; File C:\Program Files\Microsoft Visual Studio\2022\Community\VC\Tools\MSVC\14.29.30133\include\vector
;	COMDAT ??D?$_Vector_const_iterator@V?$_Vector_val@U?$_Simple_types@PAVCPEDef@PS@@@std@@@std@@@std@@QBEABQAVCPEDef@PS@@XZ
_TEXT	SEGMENT
??D?$_Vector_const_iterator@V?$_Vector_val@U?$_Simple_types@PAVCPEDef@PS@@@std@@@std@@@std@@QBEABQAVCPEDef@PS@@XZ PROC ; std::_Vector_const_iterator<std::_Vector_val<std::_Simple_types<PS::CPEDef *> > >::operator*, COMDAT
; _this$ = ecx

; 46   : #if _ITERATOR_DEBUG_LEVEL != 0
; 47   :         const auto _Mycont = static_cast<const _Myvec*>(this->_Getcont());
; 48   :         _STL_VERIFY(_Ptr, "can't dereference value-initialized vector iterator");
; 49   :         _STL_VERIFY(
; 50   :             _Mycont->_Myfirst <= _Ptr && _Ptr < _Mycont->_Mylast, "can't dereference out of range vector iterator");
; 51   : #endif // _ITERATOR_DEBUG_LEVEL != 0
; 52   : 
; 53   :         return *_Ptr;

	mov	eax, DWORD PTR [ecx]

; 54   :     }

	ret	0
??D?$_Vector_const_iterator@V?$_Vector_val@U?$_Simple_types@PAVCPEDef@PS@@@std@@@std@@@std@@QBEABQAVCPEDef@PS@@XZ ENDP ; std::_Vector_const_iterator<std::_Vector_val<std::_Simple_types<PS::CPEDef *> > >::operator*
_TEXT	ENDS
; Function compile flags: /Ogtpy
; File I:\Vitalya\mine\NSProjectX\xrCore\_stl_extensions.h
;	COMDAT ?clear_and_free@?$xr_vector@PAVCPGDef@PS@@V?$xalloc@PAVCPGDef@PS@@@@@@QAEXXZ
_TEXT	SEGMENT
?clear_and_free@?$xr_vector@PAVCPGDef@PS@@V?$xalloc@PAVCPGDef@PS@@@@@@QAEXXZ PROC ; xr_vector<PS::CPGDef *,xalloc<PS::CPGDef *> >::clear_and_free, COMDAT
; _this$ = ecx

; 127  : 	void	clear_and_free		()									{ inherited::clear();			}

	mov	eax, DWORD PTR [ecx]
	mov	DWORD PTR [ecx+4], eax
	ret	0
?clear_and_free@?$xr_vector@PAVCPGDef@PS@@V?$xalloc@PAVCPGDef@PS@@@@@@QAEXXZ ENDP ; xr_vector<PS::CPGDef *,xalloc<PS::CPGDef *> >::clear_and_free
_TEXT	ENDS
; Function compile flags: /Ogtpy
; File C:\Program Files\Microsoft Visual Studio\2022\Community\VC\Tools\MSVC\14.29.30133\include\vector
;	COMDAT ?_Orphan_range@?$vector@PAVCPGDef@PS@@V?$xalloc@PAVCPGDef@PS@@@@@std@@ABEXPAPAVCPGDef@PS@@0@Z
_TEXT	SEGMENT
___formal$dead$ = 8					; size = 4
___formal$dead$ = 12					; size = 4
?_Orphan_range@?$vector@PAVCPGDef@PS@@V?$xalloc@PAVCPGDef@PS@@@@@std@@ABEXPAPAVCPGDef@PS@@0@Z PROC ; std::vector<PS::CPGDef *,xalloc<PS::CPGDef *> >::_Orphan_range, COMDAT
; _this$dead$ = ecx

; 1801 :     _CONSTEXPR20_CONTAINER void _Orphan_range(pointer, pointer) const {}

	ret	8
?_Orphan_range@?$vector@PAVCPGDef@PS@@V?$xalloc@PAVCPGDef@PS@@@@@std@@ABEXPAPAVCPGDef@PS@@0@Z ENDP ; std::vector<PS::CPGDef *,xalloc<PS::CPGDef *> >::_Orphan_range
_TEXT	ENDS
; Function compile flags: /Ogtpy
; File I:\Vitalya\mine\NSProjectX\xrCore\_stl_extensions.h
;	COMDAT ?clear_and_free@?$xr_vector@PAVCPEDef@PS@@V?$xalloc@PAVCPEDef@PS@@@@@@QAEXXZ
_TEXT	SEGMENT
?clear_and_free@?$xr_vector@PAVCPEDef@PS@@V?$xalloc@PAVCPEDef@PS@@@@@@QAEXXZ PROC ; xr_vector<PS::CPEDef *,xalloc<PS::CPEDef *> >::clear_and_free, COMDAT
; _this$ = ecx

; 127  : 	void	clear_and_free		()									{ inherited::clear();			}

	mov	eax, DWORD PTR [ecx]
	mov	DWORD PTR [ecx+4], eax
	ret	0
?clear_and_free@?$xr_vector@PAVCPEDef@PS@@V?$xalloc@PAVCPEDef@PS@@@@@@QAEXXZ ENDP ; xr_vector<PS::CPEDef *,xalloc<PS::CPEDef *> >::clear_and_free
_TEXT	ENDS
; Function compile flags: /Ogtpy
; File C:\Program Files\Microsoft Visual Studio\2022\Community\VC\Tools\MSVC\14.29.30133\include\vector
;	COMDAT ?_Orphan_range@?$vector@PAVCPEDef@PS@@V?$xalloc@PAVCPEDef@PS@@@@@std@@ABEXPAPAVCPEDef@PS@@0@Z
_TEXT	SEGMENT
___formal$dead$ = 8					; size = 4
___formal$dead$ = 12					; size = 4
?_Orphan_range@?$vector@PAVCPEDef@PS@@V?$xalloc@PAVCPEDef@PS@@@@@std@@ABEXPAPAVCPEDef@PS@@0@Z PROC ; std::vector<PS::CPEDef *,xalloc<PS::CPEDef *> >::_Orphan_range, COMDAT
; _this$dead$ = ecx

; 1801 :     _CONSTEXPR20_CONTAINER void _Orphan_range(pointer, pointer) const {}

	ret	8
?_Orphan_range@?$vector@PAVCPEDef@PS@@V?$xalloc@PAVCPEDef@PS@@@@@std@@ABEXPAPAVCPEDef@PS@@0@Z ENDP ; std::vector<PS::CPEDef *,xalloc<PS::CPEDef *> >::_Orphan_range
_TEXT	ENDS
; Function compile flags: /Ogtpy
; File C:\Program Files\Microsoft Visual Studio\2022\Community\VC\Tools\MSVC\14.29.30133\include\vector
;	COMDAT ?clear@?$vector@PAVCPGDef@PS@@V?$xalloc@PAVCPGDef@PS@@@@@std@@QAEXXZ
_TEXT	SEGMENT
?clear@?$vector@PAVCPGDef@PS@@V?$xalloc@PAVCPGDef@PS@@@@@std@@QAEXXZ PROC ; std::vector<PS::CPGDef *,xalloc<PS::CPGDef *> >::clear, COMDAT
; _this$ = ecx

; 1437 :         auto& _My_data    = _Mypair._Myval2;
; 1438 :         pointer& _Myfirst = _My_data._Myfirst;
; 1439 :         pointer& _Mylast  = _My_data._Mylast;
; 1440 : 
; 1441 :         _My_data._Orphan_all();
; 1442 :         _Destroy(_Myfirst, _Mylast);
; 1443 :         _Mylast = _Myfirst;

	mov	eax, DWORD PTR [ecx]
	mov	DWORD PTR [ecx+4], eax

; 1444 :     }

	ret	0
?clear@?$vector@PAVCPGDef@PS@@V?$xalloc@PAVCPGDef@PS@@@@@std@@QAEXXZ ENDP ; std::vector<PS::CPGDef *,xalloc<PS::CPGDef *> >::clear
_TEXT	ENDS
; Function compile flags: /Ogtpy
; File C:\Program Files\Microsoft Visual Studio\2022\Community\VC\Tools\MSVC\14.29.30133\include\vector
;	COMDAT ?clear@?$vector@PAVCPEDef@PS@@V?$xalloc@PAVCPEDef@PS@@@@@std@@QAEXXZ
_TEXT	SEGMENT
?clear@?$vector@PAVCPEDef@PS@@V?$xalloc@PAVCPEDef@PS@@@@@std@@QAEXXZ PROC ; std::vector<PS::CPEDef *,xalloc<PS::CPEDef *> >::clear, COMDAT
; _this$ = ecx

; 1437 :         auto& _My_data    = _Mypair._Myval2;
; 1438 :         pointer& _Myfirst = _My_data._Myfirst;
; 1439 :         pointer& _Mylast  = _My_data._Mylast;
; 1440 : 
; 1441 :         _My_data._Orphan_all();
; 1442 :         _Destroy(_Myfirst, _Mylast);
; 1443 :         _Mylast = _Myfirst;

	mov	eax, DWORD PTR [ecx]
	mov	DWORD PTR [ecx+4], eax

; 1444 :     }

	ret	0
?clear@?$vector@PAVCPEDef@PS@@V?$xalloc@PAVCPEDef@PS@@@@@std@@QAEXXZ ENDP ; std::vector<PS::CPEDef *,xalloc<PS::CPEDef *> >::clear
_TEXT	ENDS
; Function compile flags: /Ogtpy
; File I:\Vitalya\mine\NSProjectX\xrCore\xrMemory_subst_msvc.h
; File I:\Vitalya\mine\NSProjectX\layers\xrRender\ParticleEffectDef.cpp
; File I:\Vitalya\mine\NSProjectX\xrCore\xr_resource.h
; File I:\Vitalya\mine\NSProjectX\xrCore\xrstring.h
; File I:\Vitalya\mine\NSProjectX\xrCore\xrMemory_subst_msvc.h
;	COMDAT ??$xr_delete@VCPEDef@PS@@@@YAXAAPAVCPEDef@PS@@@Z
_TEXT	SEGMENT
??$xr_delete@VCPEDef@PS@@@@YAXAAPAVCPEDef@PS@@@Z PROC	; xr_delete<PS::CPEDef>, COMDAT
; _ptr$ = ecx

; 150  : {

	push	esi
	push	edi
	mov	edi, ecx

; 151  : 	if (ptr) 

	mov	esi, DWORD PTR [edi]
	test	esi, esi
	je	SHORT $LN2@xr_delete
; File I:\Vitalya\mine\NSProjectX\layers\xrRender\ParticleEffectDef.cpp

; 39   : }

	lea	ecx, DWORD PTR [esi+48]
	call	DWORD PTR __imp_??1CMemoryWriter@@UAE@XZ
	lea	ecx, DWORD PTR [esi+16]
; File I:\Vitalya\mine\NSProjectX\xrCore\xr_resource.h

; 64   : 						~resptr_core	()												{	_dec();						}

	call	DWORD PTR __imp_?_dec@?$resptr_base@UShader@@@@IAEXXZ
; File I:\Vitalya\mine\NSProjectX\xrCore\xrstring.h

; 50   : 	void				_dec		()								{	if (0==p_) return;	p_->dwReference--; 	if (0==p_->dwReference)	p_=0;						}

	mov	eax, DWORD PTR [esi+12]
	test	eax, eax
	je	SHORT $LN17@xr_delete
	dec	DWORD PTR [eax]
	mov	eax, DWORD PTR [esi+12]
	cmp	DWORD PTR [eax], 0
	jne	SHORT $LN17@xr_delete
	mov	DWORD PTR [esi+12], 0
$LN17@xr_delete:
	mov	eax, DWORD PTR [esi+8]
	test	eax, eax
	je	SHORT $LN23@xr_delete
	dec	DWORD PTR [eax]
	mov	eax, DWORD PTR [esi+8]
	cmp	DWORD PTR [eax], 0
	jne	SHORT $LN23@xr_delete
	mov	DWORD PTR [esi+8], 0
$LN23@xr_delete:
	mov	eax, DWORD PTR [esi]
	test	eax, eax
	je	SHORT $LN29@xr_delete
	dec	DWORD PTR [eax]
	mov	eax, DWORD PTR [esi]
	cmp	DWORD PTR [eax], 0
	jne	SHORT $LN29@xr_delete
	mov	DWORD PTR [esi], 0
$LN29@xr_delete:
; File I:\Vitalya\mine\NSProjectX\xrCore\xrMemory_subst_msvc.h

; 144  : 		Memory.mem_free	(ptr);

	push	DWORD PTR [edi]
	mov	ecx, DWORD PTR __imp_?Memory@@3VxrMemory@@A
	call	DWORD PTR __imp_?mem_free@xrMemory@@QAEXPAX@Z

; 152  : 	{
; 153  : 		xr_special_free<is_polymorphic<T>::result,T>()(ptr);
; 154  : 		ptr = nullptr;

	mov	DWORD PTR [edi], 0
$LN2@xr_delete:

; 155  : 	}
; 156  : }

	pop	edi
	pop	esi
	ret	0
??$xr_delete@VCPEDef@PS@@@@YAXAAPAVCPEDef@PS@@@Z ENDP	; xr_delete<PS::CPEDef>
_TEXT	ENDS
; Function compile flags: /Ogtpy
; File I:\Vitalya\mine\NSProjectX\xrCore\xrMemory_subst_msvc.h
; File C:\Program Files\Microsoft Visual Studio\2022\Community\VC\Tools\MSVC\14.29.30133\include\vector
; File I:\Vitalya\mine\NSProjectX\layers\xrRender\ParticleGroup.cpp
; File C:\Program Files\Microsoft Visual Studio\2022\Community\VC\Tools\MSVC\14.29.30133\include\vector
; File I:\Vitalya\mine\NSProjectX\layers\xrRender\ParticleGroup.cpp
; File I:\Vitalya\mine\NSProjectX\xrCore\xrMemory_subst_msvc.h
; File I:\Vitalya\mine\NSProjectX\xrCore\xrstring.h
; File I:\Vitalya\mine\NSProjectX\xrCore\xrMemory_subst_msvc.h
; File C:\Program Files\Microsoft Visual Studio\2022\Community\VC\Tools\MSVC\14.29.30133\include\vector
; File I:\Vitalya\mine\NSProjectX\layers\xrRender\ParticleGroup.cpp
; File I:\Vitalya\mine\NSProjectX\xrCore\xrMemory_subst_msvc.h
; File I:\Vitalya\mine\NSProjectX\layers\xrRender\ParticleGroup.cpp
; File C:\Program Files\Microsoft Visual Studio\2022\Community\VC\Tools\MSVC\14.29.30133\include\vector
; File I:\Vitalya\mine\NSProjectX\xrCore\xrMemory.h
; File C:\Program Files\Microsoft Visual Studio\2022\Community\VC\Tools\MSVC\14.29.30133\include\vector
; File I:\Vitalya\mine\NSProjectX\xrCore\xrstring.h
; File I:\Vitalya\mine\NSProjectX\xrCore\xrMemory_subst_msvc.h
;	COMDAT ??$xr_delete@VCPGDef@PS@@@@YAXAAPAVCPGDef@PS@@@Z
_TEXT	SEGMENT
??$xr_delete@VCPGDef@PS@@@@YAXAAPAVCPGDef@PS@@@Z PROC	; xr_delete<PS::CPGDef>, COMDAT
; _ptr$ = ecx

; 150  : {

	push	ebp
	mov	ebp, ecx
	push	edi

; 151  : 	if (ptr) 

	mov	edi, DWORD PTR [ebp]
	test	edi, edi
	je	$LN2@xr_delete
; File C:\Program Files\Microsoft Visual Studio\2022\Community\VC\Tools\MSVC\14.29.30133\include\vector

; 41   :     _CONSTEXPR20_CONTAINER _Vector_const_iterator(_Tptr _Parg, const _Container_base* _Pvector) noexcept : _Ptr(_Parg) {

	push	ebx
; File I:\Vitalya\mine\NSProjectX\layers\xrRender\ParticleGroup.cpp

; 20   :     for (EffectIt it=m_Effects.begin(); it!=m_Effects.end(); it++)

	mov	ebx, DWORD PTR __imp_?mem_free@xrMemory@@QAEXPAX@Z
; File C:\Program Files\Microsoft Visual Studio\2022\Community\VC\Tools\MSVC\14.29.30133\include\vector

; 41   :     _CONSTEXPR20_CONTAINER _Vector_const_iterator(_Tptr _Parg, const _Container_base* _Pvector) noexcept : _Ptr(_Parg) {

	push	esi
	mov	esi, DWORD PTR [edi+12]

; 150  :         return _Ptr == _Right._Ptr;

	cmp	esi, DWORD PTR [edi+16]
; File I:\Vitalya\mine\NSProjectX\layers\xrRender\ParticleGroup.cpp

; 20   :     for (EffectIt it=m_Effects.begin(); it!=m_Effects.end(); it++)

	je	$LN11@xr_delete
$LL12@xr_delete:
; File I:\Vitalya\mine\NSProjectX\xrCore\xrMemory_subst_msvc.h

; 151  : 	if (ptr) 

	mov	eax, DWORD PTR [esi]
	test	eax, eax
	je	SHORT $LN10@xr_delete
; File I:\Vitalya\mine\NSProjectX\xrCore\xrstring.h

; 50   : 	void				_dec		()								{	if (0==p_) return;	p_->dwReference--; 	if (0==p_->dwReference)	p_=0;						}

	mov	ecx, DWORD PTR [eax+16]
	test	ecx, ecx
	je	SHORT $LN48@xr_delete
	dec	DWORD PTR [ecx]
	mov	ecx, DWORD PTR [eax+16]
	cmp	DWORD PTR [ecx], 0
	jne	SHORT $LN48@xr_delete
	mov	DWORD PTR [eax+16], 0
$LN48@xr_delete:
	mov	ecx, DWORD PTR [eax+12]
	test	ecx, ecx
	je	SHORT $LN54@xr_delete
	dec	DWORD PTR [ecx]
	mov	ecx, DWORD PTR [eax+12]
	cmp	DWORD PTR [ecx], 0
	jne	SHORT $LN54@xr_delete
	mov	DWORD PTR [eax+12], 0
$LN54@xr_delete:
	mov	ecx, DWORD PTR [eax+8]
	test	ecx, ecx
	je	SHORT $LN60@xr_delete
	dec	DWORD PTR [ecx]
	mov	ecx, DWORD PTR [eax+8]
	cmp	DWORD PTR [ecx], 0
	jne	SHORT $LN60@xr_delete
	mov	DWORD PTR [eax+8], 0
$LN60@xr_delete:
	mov	ecx, DWORD PTR [eax+4]
	test	ecx, ecx
	je	SHORT $LN66@xr_delete
	dec	DWORD PTR [ecx]
	mov	ecx, DWORD PTR [eax+4]
	cmp	DWORD PTR [ecx], 0
	jne	SHORT $LN66@xr_delete
	mov	DWORD PTR [eax+4], 0
$LN66@xr_delete:
; File I:\Vitalya\mine\NSProjectX\xrCore\xrMemory_subst_msvc.h

; 144  : 		Memory.mem_free	(ptr);

	push	DWORD PTR [esi]
	mov	ecx, DWORD PTR __imp_?Memory@@3VxrMemory@@A
	call	ebx

; 154  : 		ptr = nullptr;

	mov	DWORD PTR [esi], 0
$LN10@xr_delete:
; File C:\Program Files\Microsoft Visual Studio\2022\Community\VC\Tools\MSVC\14.29.30133\include\vector

; 74   :         ++_Ptr;

	add	esi, 4

; 150  :         return _Ptr == _Right._Ptr;

	cmp	esi, DWORD PTR [edi+16]
; File I:\Vitalya\mine\NSProjectX\layers\xrRender\ParticleGroup.cpp

; 20   :     for (EffectIt it=m_Effects.begin(); it!=m_Effects.end(); it++)

	jne	SHORT $LL12@xr_delete
; File I:\Vitalya\mine\NSProjectX\xrCore\xrMemory_subst_msvc.h

; 154  : 		ptr = nullptr;

	mov	esi, DWORD PTR [edi+12]
$LN11@xr_delete:
; File I:\Vitalya\mine\NSProjectX\layers\xrRender\ParticleGroup.cpp

; 22   :     m_Effects.clear	();

	mov	DWORD PTR [edi+16], esi
; File C:\Program Files\Microsoft Visual Studio\2022\Community\VC\Tools\MSVC\14.29.30133\include\vector

; 1750 :         if (_Myfirst) { // destroy and deallocate old array

	test	esi, esi
	je	SHORT $LN73@xr_delete
; File I:\Vitalya\mine\NSProjectX\xrCore\xrMemory.h

; 109  : 	IC void		xr_free		(T* &P)					{	if (P) { Memory.mem_free((void*)P); P=NULL;	};	}

	mov	ecx, DWORD PTR __imp_?Memory@@3VxrMemory@@A
	push	esi
	call	ebx
; File C:\Program Files\Microsoft Visual Studio\2022\Community\VC\Tools\MSVC\14.29.30133\include\vector

; 1754 :             _Myfirst = nullptr;

	mov	DWORD PTR [edi+12], 0

; 1755 :             _Mylast  = nullptr;

	mov	DWORD PTR [edi+16], 0

; 1756 :             _Myend   = nullptr;

	mov	DWORD PTR [edi+20], 0
$LN73@xr_delete:
; File I:\Vitalya\mine\NSProjectX\xrCore\xrstring.h

; 50   : 	void				_dec		()								{	if (0==p_) return;	p_->dwReference--; 	if (0==p_->dwReference)	p_=0;						}

	mov	eax, DWORD PTR [edi]
	test	eax, eax
	je	SHORT $LN84@xr_delete
	dec	DWORD PTR [eax]
	mov	eax, DWORD PTR [edi]
	cmp	DWORD PTR [eax], 0
	jne	SHORT $LN84@xr_delete
	mov	DWORD PTR [edi], 0
$LN84@xr_delete:
; File I:\Vitalya\mine\NSProjectX\xrCore\xrMemory_subst_msvc.h

; 144  : 		Memory.mem_free	(ptr);

	push	DWORD PTR [ebp]
	mov	ecx, DWORD PTR __imp_?Memory@@3VxrMemory@@A
	call	ebx

; 154  : 		ptr = nullptr;

	pop	esi
	mov	DWORD PTR [ebp], 0
	pop	ebx
$LN2@xr_delete:

; 155  : 	}
; 156  : }

	pop	edi
	pop	ebp
	ret	0
??$xr_delete@VCPGDef@PS@@@@YAXAAPAVCPGDef@PS@@@Z ENDP	; xr_delete<PS::CPGDef>
_TEXT	ENDS
; Function compile flags: /Ogtpy
; File C:\Program Files\Microsoft Visual Studio\2022\Community\VC\Tools\MSVC\14.29.30133\include\xutility
; File I:\Vitalya\mine\NSProjectX\xrCore\_std_extensions.h
; File C:\Program Files\Microsoft Visual Studio\2022\Community\VC\Tools\MSVC\14.29.30133\include\xutility
; File I:\Vitalya\mine\NSProjectX\layers\xrRender\ParticleEffectDef.h
; File C:\Program Files\Microsoft Visual Studio\2022\Community\VC\Tools\MSVC\14.29.30133\include\xutility
; File I:\Vitalya\mine\NSProjectX\xrCore\xrstring.h
; File I:\Vitalya\mine\NSProjectX\xrCore\_std_extensions.h
; File I:\Vitalya\mine\NSProjectX\layers\xrRender\PSLibrary.cpp
; File C:\Program Files\Microsoft Visual Studio\2022\Community\VC\Tools\MSVC\14.29.30133\include\xutility
;	COMDAT ??$lower_bound@V?$_Vector_iterator@V?$_Vector_val@U?$_Simple_types@PAVCPEDef@PS@@@std@@@std@@@std@@PBDP6A_NPBVCPEDef@PS@@PBD@Z@std@@YA?AV?$_Vector_iterator@V?$_Vector_val@U?$_Simple_types@PAVCPEDef@PS@@@std@@@std@@@0@V10@V10@ABQBDP6A_NPBVCPEDef@PS@@PBD@Z@Z
_TEXT	SEGMENT
tv176 = -8						; size = 4
___$ReturnUdt$1$ = -4					; size = 4
__First$ = 8						; size = 4
__Last$ = 12						; size = 4
__Pred$dead$ = 16					; size = 4
??$lower_bound@V?$_Vector_iterator@V?$_Vector_val@U?$_Simple_types@PAVCPEDef@PS@@@std@@@std@@@std@@PBDP6A_NPBVCPEDef@PS@@PBD@Z@std@@YA?AV?$_Vector_iterator@V?$_Vector_val@U?$_Simple_types@PAVCPEDef@PS@@@std@@@std@@@0@V10@V10@ABQBDP6A_NPBVCPEDef@PS@@PBD@Z@Z PROC ; std::lower_bound<std::_Vector_iterator<std::_Vector_val<std::_Simple_types<PS::CPEDef *> > >,char const *,bool (__cdecl*)(PS::CPEDef const *,char const *)>, COMDAT
; ___$ReturnUdt$ = ecx
; __Val$ = edx

; 5807 : _NODISCARD _CONSTEXPR20 _FwdIt lower_bound(_FwdIt _First, const _FwdIt _Last, const _Ty& _Val, _Pr _Pred) {

	sub	esp, 8
	push	ebx

; 5808 :     // find first element not before _Val
; 5809 :     _Adl_verify_range(_First, _Last);
; 5810 :     auto _UFirst                = _Get_unwrapped(_First);

	mov	ebx, DWORD PTR __First$[esp+8]
	mov	eax, ecx
	push	esi

; 1525 :         return _Last - _First; // assume the iterator will do debug checking

	mov	esi, DWORD PTR __Last$[esp+12]
	sub	esi, ebx

; 5807 : _NODISCARD _CONSTEXPR20 _FwdIt lower_bound(_FwdIt _First, const _FwdIt _Last, const _Ty& _Val, _Pr _Pred) {

	mov	DWORD PTR ___$ReturnUdt$1$[esp+16], eax

; 1525 :         return _Last - _First; // assume the iterator will do debug checking

	sar	esi, 2

; 5811 :     _Iter_diff_t<_FwdIt> _Count = _STD distance(_UFirst, _Get_unwrapped(_Last));
; 5812 : 
; 5813 :     while (0 < _Count) { // divide and conquer, find half that contains answer

	test	esi, esi
	jle	SHORT $LN30@lower_boun

; 5816 :         if (_Pred(*_UMid, _Val)) { // try top half

	mov	ecx, DWORD PTR [edx]
	push	ebp
	mov	DWORD PTR tv176[esp+20], ecx
	push	edi
$LL2@lower_boun:

; 5814 :         const _Iter_diff_t<_FwdIt> _Count2 = _Count / 2;

	mov	edi, esi
; File I:\Vitalya\mine\NSProjectX\xrCore\_std_extensions.h

; 183  : {	return (int)strcmp(S1,S2);  }

	mov	edx, ecx
; File C:\Program Files\Microsoft Visual Studio\2022\Community\VC\Tools\MSVC\14.29.30133\include\xutility

; 5814 :         const _Iter_diff_t<_FwdIt> _Count2 = _Count / 2;

	shr	edi, 1
; File I:\Vitalya\mine\NSProjectX\layers\xrRender\ParticleEffectDef.h

; 108  :         IC LPCSTR			Name				()const{return *m_Name;}

	mov	eax, DWORD PTR [ebx+edi*4]
; File C:\Program Files\Microsoft Visual Studio\2022\Community\VC\Tools\MSVC\14.29.30133\include\xutility

; 1497 :         _Where += _Off;

	lea	ebp, DWORD PTR [ebx+edi*4]
; File I:\Vitalya\mine\NSProjectX\xrCore\xrstring.h

; 65   : 	str_c				operator*	() const						{	return p_?p_->value:0;							}

	mov	eax, DWORD PTR [eax]
; File I:\Vitalya\mine\NSProjectX\xrCore\_std_extensions.h

; 183  : {	return (int)strcmp(S1,S2);  }

	lea	ecx, DWORD PTR [eax+12]
	neg	eax
	sbb	eax, eax
	and	eax, ecx
	npad	5
$LL26@lower_boun:
	mov	cl, BYTE PTR [eax]
	cmp	cl, BYTE PTR [edx]
	jne	SHORT $LN27@lower_boun
	test	cl, cl
	je	SHORT $LN28@lower_boun
	mov	cl, BYTE PTR [eax+1]
	cmp	cl, BYTE PTR [edx+1]
	jne	SHORT $LN27@lower_boun
	add	eax, 2
	add	edx, 2
	test	cl, cl
	jne	SHORT $LL26@lower_boun
$LN28@lower_boun:
	xor	eax, eax
	jmp	SHORT $LN29@lower_boun
$LN27@lower_boun:
	sbb	eax, eax
	or	eax, 1
$LN29@lower_boun:
; File I:\Vitalya\mine\NSProjectX\layers\xrRender\PSLibrary.cpp

; 15   : bool ped_find_pred	(const PS::CPEDef* a, 	LPCSTR b)				{	return xr_strcmp(a->Name(),b)<0;}

	test	eax, eax
; File C:\Program Files\Microsoft Visual Studio\2022\Community\VC\Tools\MSVC\14.29.30133\include\xutility

; 5816 :         if (_Pred(*_UMid, _Val)) { // try top half

	jns	SHORT $LN4@lower_boun

; 5817 :             _UFirst = _Next_iter(_UMid);
; 5818 :             _Count -= _Count2 + 1;

	or	eax, -1
	lea	ebx, DWORD PTR [ebp+4]
	sub	eax, edi
	add	esi, eax

; 5819 :         } else {

	jmp	SHORT $LN5@lower_boun
$LN4@lower_boun:

; 5820 :             _Count = _Count2;

	mov	esi, edi
$LN5@lower_boun:

; 5811 :     _Iter_diff_t<_FwdIt> _Count = _STD distance(_UFirst, _Get_unwrapped(_Last));
; 5812 : 
; 5813 :     while (0 < _Count) { // divide and conquer, find half that contains answer

	mov	ecx, DWORD PTR tv176[esp+24]
	test	esi, esi
	jg	SHORT $LL2@lower_boun

; 5821 :         }
; 5822 :     }
; 5823 : 
; 5824 :     _Seek_wrapped(_First, _UFirst);
; 5825 :     return _First;

	mov	eax, DWORD PTR ___$ReturnUdt$1$[esp+24]
	pop	edi
	pop	ebp
$LN30@lower_boun:

; 5826 : }

	pop	esi
	mov	DWORD PTR [eax], ebx
	pop	ebx
	add	esp, 8
	ret	0
??$lower_bound@V?$_Vector_iterator@V?$_Vector_val@U?$_Simple_types@PAVCPEDef@PS@@@std@@@std@@@std@@PBDP6A_NPBVCPEDef@PS@@PBD@Z@std@@YA?AV?$_Vector_iterator@V?$_Vector_val@U?$_Simple_types@PAVCPEDef@PS@@@std@@@std@@@0@V10@V10@ABQBDP6A_NPBVCPEDef@PS@@PBD@Z@Z ENDP ; std::lower_bound<std::_Vector_iterator<std::_Vector_val<std::_Simple_types<PS::CPEDef *> > >,char const *,bool (__cdecl*)(PS::CPEDef const *,char const *)>
_TEXT	ENDS
; Function compile flags: /Ogtpy
; File C:\Program Files\Microsoft Visual Studio\2022\Community\VC\Tools\MSVC\14.29.30133\include\xutility
;	COMDAT ??$_Get_unwrapped@AAV?$_Vector_iterator@V?$_Vector_val@U?$_Simple_types@PAVCPEDef@PS@@@std@@@std@@@std@@@std@@YA?A_TAAV?$_Vector_iterator@V?$_Vector_val@U?$_Simple_types@PAVCPEDef@PS@@@std@@@std@@@0@@Z
_TEXT	SEGMENT
??$_Get_unwrapped@AAV?$_Vector_iterator@V?$_Vector_val@U?$_Simple_types@PAVCPEDef@PS@@@std@@@std@@@std@@@std@@YA?A_TAAV?$_Vector_iterator@V?$_Vector_val@U?$_Simple_types@PAVCPEDef@PS@@@std@@@std@@@0@@Z PROC ; std::_Get_unwrapped<std::_Vector_iterator<std::_Vector_val<std::_Simple_types<PS::CPEDef *> > > &>, COMDAT
; __It$ = ecx

; 1275 :     // unwrap an iterator previously subjected to _Adl_verify_range or otherwise validated
; 1276 :     if constexpr (is_pointer_v<decay_t<_Iter>>) { // special-case pointers and arrays
; 1277 :         return _It + 0;
; 1278 :     } else if constexpr (_Unwrappable_v<_Iter>) {
; 1279 :         return static_cast<_Iter&&>(_It)._Unwrapped();

	mov	eax, DWORD PTR [ecx]

; 1280 :     } else {
; 1281 :         return static_cast<_Iter&&>(_It);
; 1282 :     }
; 1283 : }

	ret	0
??$_Get_unwrapped@AAV?$_Vector_iterator@V?$_Vector_val@U?$_Simple_types@PAVCPEDef@PS@@@std@@@std@@@std@@@std@@YA?A_TAAV?$_Vector_iterator@V?$_Vector_val@U?$_Simple_types@PAVCPEDef@PS@@@std@@@std@@@0@@Z ENDP ; std::_Get_unwrapped<std::_Vector_iterator<std::_Vector_val<std::_Simple_types<PS::CPEDef *> > > &>
_TEXT	ENDS
; Function compile flags: /Ogtpy
; File C:\Program Files\Microsoft Visual Studio\2022\Community\VC\Tools\MSVC\14.29.30133\include\xutility
;	COMDAT ??$_Get_unwrapped@ABV?$_Vector_iterator@V?$_Vector_val@U?$_Simple_types@PAVCPEDef@PS@@@std@@@std@@@std@@@std@@YA?A_TABV?$_Vector_iterator@V?$_Vector_val@U?$_Simple_types@PAVCPEDef@PS@@@std@@@std@@@0@@Z
_TEXT	SEGMENT
??$_Get_unwrapped@ABV?$_Vector_iterator@V?$_Vector_val@U?$_Simple_types@PAVCPEDef@PS@@@std@@@std@@@std@@@std@@YA?A_TABV?$_Vector_iterator@V?$_Vector_val@U?$_Simple_types@PAVCPEDef@PS@@@std@@@std@@@0@@Z PROC ; std::_Get_unwrapped<std::_Vector_iterator<std::_Vector_val<std::_Simple_types<PS::CPEDef *> > > const &>, COMDAT
; __It$ = ecx

; 1275 :     // unwrap an iterator previously subjected to _Adl_verify_range or otherwise validated
; 1276 :     if constexpr (is_pointer_v<decay_t<_Iter>>) { // special-case pointers and arrays
; 1277 :         return _It + 0;
; 1278 :     } else if constexpr (_Unwrappable_v<_Iter>) {
; 1279 :         return static_cast<_Iter&&>(_It)._Unwrapped();

	mov	eax, DWORD PTR [ecx]

; 1280 :     } else {
; 1281 :         return static_cast<_Iter&&>(_It);
; 1282 :     }
; 1283 : }

	ret	0
??$_Get_unwrapped@ABV?$_Vector_iterator@V?$_Vector_val@U?$_Simple_types@PAVCPEDef@PS@@@std@@@std@@@std@@@std@@YA?A_TABV?$_Vector_iterator@V?$_Vector_val@U?$_Simple_types@PAVCPEDef@PS@@@std@@@std@@@0@@Z ENDP ; std::_Get_unwrapped<std::_Vector_iterator<std::_Vector_val<std::_Simple_types<PS::CPEDef *> > > const &>
_TEXT	ENDS
; Function compile flags: /Ogtpy
; File C:\Program Files\Microsoft Visual Studio\2022\Community\VC\Tools\MSVC\14.29.30133\include\xutility
; File I:\Vitalya\mine\NSProjectX\xrCore\_std_extensions.h
; File C:\Program Files\Microsoft Visual Studio\2022\Community\VC\Tools\MSVC\14.29.30133\include\xutility
; File I:\Vitalya\mine\NSProjectX\layers\xrRender\PSLibrary.cpp
; File C:\Program Files\Microsoft Visual Studio\2022\Community\VC\Tools\MSVC\14.29.30133\include\xutility
; File I:\Vitalya\mine\NSProjectX\xrCore\xrstring.h
; File I:\Vitalya\mine\NSProjectX\xrCore\_std_extensions.h
; File I:\Vitalya\mine\NSProjectX\layers\xrRender\PSLibrary.cpp
; File C:\Program Files\Microsoft Visual Studio\2022\Community\VC\Tools\MSVC\14.29.30133\include\xutility
;	COMDAT ??$lower_bound@V?$_Vector_iterator@V?$_Vector_val@U?$_Simple_types@PAVCPGDef@PS@@@std@@@std@@@std@@PBDP6A_NPBVCPGDef@PS@@PBD@Z@std@@YA?AV?$_Vector_iterator@V?$_Vector_val@U?$_Simple_types@PAVCPGDef@PS@@@std@@@std@@@0@V10@V10@ABQBDP6A_NPBVCPGDef@PS@@PBD@Z@Z
_TEXT	SEGMENT
tv176 = -8						; size = 4
___$ReturnUdt$1$ = -4					; size = 4
__First$ = 8						; size = 4
__Last$ = 12						; size = 4
__Pred$dead$ = 16					; size = 4
??$lower_bound@V?$_Vector_iterator@V?$_Vector_val@U?$_Simple_types@PAVCPGDef@PS@@@std@@@std@@@std@@PBDP6A_NPBVCPGDef@PS@@PBD@Z@std@@YA?AV?$_Vector_iterator@V?$_Vector_val@U?$_Simple_types@PAVCPGDef@PS@@@std@@@std@@@0@V10@V10@ABQBDP6A_NPBVCPGDef@PS@@PBD@Z@Z PROC ; std::lower_bound<std::_Vector_iterator<std::_Vector_val<std::_Simple_types<PS::CPGDef *> > >,char const *,bool (__cdecl*)(PS::CPGDef const *,char const *)>, COMDAT
; ___$ReturnUdt$ = ecx
; __Val$ = edx

; 5807 : _NODISCARD _CONSTEXPR20 _FwdIt lower_bound(_FwdIt _First, const _FwdIt _Last, const _Ty& _Val, _Pr _Pred) {

	sub	esp, 8
	push	ebx

; 5808 :     // find first element not before _Val
; 5809 :     _Adl_verify_range(_First, _Last);
; 5810 :     auto _UFirst                = _Get_unwrapped(_First);

	mov	ebx, DWORD PTR __First$[esp+8]
	mov	eax, ecx
	push	esi

; 1525 :         return _Last - _First; // assume the iterator will do debug checking

	mov	esi, DWORD PTR __Last$[esp+12]
	sub	esi, ebx

; 5807 : _NODISCARD _CONSTEXPR20 _FwdIt lower_bound(_FwdIt _First, const _FwdIt _Last, const _Ty& _Val, _Pr _Pred) {

	mov	DWORD PTR ___$ReturnUdt$1$[esp+16], eax

; 1525 :         return _Last - _First; // assume the iterator will do debug checking

	sar	esi, 2

; 5811 :     _Iter_diff_t<_FwdIt> _Count = _STD distance(_UFirst, _Get_unwrapped(_Last));
; 5812 : 
; 5813 :     while (0 < _Count) { // divide and conquer, find half that contains answer

	test	esi, esi
	jle	SHORT $LN30@lower_boun

; 5816 :         if (_Pred(*_UMid, _Val)) { // try top half

	mov	ecx, DWORD PTR [edx]
	push	ebp
	mov	DWORD PTR tv176[esp+20], ecx
	push	edi
$LL2@lower_boun:

; 5814 :         const _Iter_diff_t<_FwdIt> _Count2 = _Count / 2;

	mov	edi, esi
; File I:\Vitalya\mine\NSProjectX\xrCore\_std_extensions.h

; 183  : {	return (int)strcmp(S1,S2);  }

	mov	edx, ecx
; File C:\Program Files\Microsoft Visual Studio\2022\Community\VC\Tools\MSVC\14.29.30133\include\xutility

; 5814 :         const _Iter_diff_t<_FwdIt> _Count2 = _Count / 2;

	shr	edi, 1
; File I:\Vitalya\mine\NSProjectX\layers\xrRender\PSLibrary.cpp

; 16   : bool pgd_find_pred	(const PS::CPGDef* a, 	LPCSTR b)				{	return xr_strcmp(a->m_Name,b)<0;}

	mov	eax, DWORD PTR [ebx+edi*4]
; File C:\Program Files\Microsoft Visual Studio\2022\Community\VC\Tools\MSVC\14.29.30133\include\xutility

; 1497 :         _Where += _Off;

	lea	ebp, DWORD PTR [ebx+edi*4]
; File I:\Vitalya\mine\NSProjectX\xrCore\xrstring.h

; 65   : 	str_c				operator*	() const						{	return p_?p_->value:0;							}

	mov	eax, DWORD PTR [eax]
; File I:\Vitalya\mine\NSProjectX\xrCore\_std_extensions.h

; 183  : {	return (int)strcmp(S1,S2);  }

	lea	ecx, DWORD PTR [eax+12]
	neg	eax
	sbb	eax, eax
	and	eax, ecx
	npad	5
$LL26@lower_boun:
	mov	cl, BYTE PTR [eax]
	cmp	cl, BYTE PTR [edx]
	jne	SHORT $LN27@lower_boun
	test	cl, cl
	je	SHORT $LN28@lower_boun
	mov	cl, BYTE PTR [eax+1]
	cmp	cl, BYTE PTR [edx+1]
	jne	SHORT $LN27@lower_boun
	add	eax, 2
	add	edx, 2
	test	cl, cl
	jne	SHORT $LL26@lower_boun
$LN28@lower_boun:
	xor	eax, eax
	jmp	SHORT $LN29@lower_boun
$LN27@lower_boun:
	sbb	eax, eax
	or	eax, 1
$LN29@lower_boun:
; File I:\Vitalya\mine\NSProjectX\layers\xrRender\PSLibrary.cpp

; 16   : bool pgd_find_pred	(const PS::CPGDef* a, 	LPCSTR b)				{	return xr_strcmp(a->m_Name,b)<0;}

	test	eax, eax
; File C:\Program Files\Microsoft Visual Studio\2022\Community\VC\Tools\MSVC\14.29.30133\include\xutility

; 5816 :         if (_Pred(*_UMid, _Val)) { // try top half

	jns	SHORT $LN4@lower_boun

; 5817 :             _UFirst = _Next_iter(_UMid);
; 5818 :             _Count -= _Count2 + 1;

	or	eax, -1
	lea	ebx, DWORD PTR [ebp+4]
	sub	eax, edi
	add	esi, eax

; 5819 :         } else {

	jmp	SHORT $LN5@lower_boun
$LN4@lower_boun:

; 5820 :             _Count = _Count2;

	mov	esi, edi
$LN5@lower_boun:

; 5811 :     _Iter_diff_t<_FwdIt> _Count = _STD distance(_UFirst, _Get_unwrapped(_Last));
; 5812 : 
; 5813 :     while (0 < _Count) { // divide and conquer, find half that contains answer

	mov	ecx, DWORD PTR tv176[esp+24]
	test	esi, esi
	jg	SHORT $LL2@lower_boun

; 5821 :         }
; 5822 :     }
; 5823 : 
; 5824 :     _Seek_wrapped(_First, _UFirst);
; 5825 :     return _First;

	mov	eax, DWORD PTR ___$ReturnUdt$1$[esp+24]
	pop	edi
	pop	ebp
$LN30@lower_boun:

; 5826 : }

	pop	esi
	mov	DWORD PTR [eax], ebx
	pop	ebx
	add	esp, 8
	ret	0
??$lower_bound@V?$_Vector_iterator@V?$_Vector_val@U?$_Simple_types@PAVCPGDef@PS@@@std@@@std@@@std@@PBDP6A_NPBVCPGDef@PS@@PBD@Z@std@@YA?AV?$_Vector_iterator@V?$_Vector_val@U?$_Simple_types@PAVCPGDef@PS@@@std@@@std@@@0@V10@V10@ABQBDP6A_NPBVCPGDef@PS@@PBD@Z@Z ENDP ; std::lower_bound<std::_Vector_iterator<std::_Vector_val<std::_Simple_types<PS::CPGDef *> > >,char const *,bool (__cdecl*)(PS::CPGDef const *,char const *)>
_TEXT	ENDS
; Function compile flags: /Ogtpy
; File C:\Program Files\Microsoft Visual Studio\2022\Community\VC\Tools\MSVC\14.29.30133\include\xutility
;	COMDAT ??$_Get_unwrapped@AAV?$_Vector_iterator@V?$_Vector_val@U?$_Simple_types@PAVCPGDef@PS@@@std@@@std@@@std@@@std@@YA?A_TAAV?$_Vector_iterator@V?$_Vector_val@U?$_Simple_types@PAVCPGDef@PS@@@std@@@std@@@0@@Z
_TEXT	SEGMENT
??$_Get_unwrapped@AAV?$_Vector_iterator@V?$_Vector_val@U?$_Simple_types@PAVCPGDef@PS@@@std@@@std@@@std@@@std@@YA?A_TAAV?$_Vector_iterator@V?$_Vector_val@U?$_Simple_types@PAVCPGDef@PS@@@std@@@std@@@0@@Z PROC ; std::_Get_unwrapped<std::_Vector_iterator<std::_Vector_val<std::_Simple_types<PS::CPGDef *> > > &>, COMDAT
; __It$ = ecx

; 1275 :     // unwrap an iterator previously subjected to _Adl_verify_range or otherwise validated
; 1276 :     if constexpr (is_pointer_v<decay_t<_Iter>>) { // special-case pointers and arrays
; 1277 :         return _It + 0;
; 1278 :     } else if constexpr (_Unwrappable_v<_Iter>) {
; 1279 :         return static_cast<_Iter&&>(_It)._Unwrapped();

	mov	eax, DWORD PTR [ecx]

; 1280 :     } else {
; 1281 :         return static_cast<_Iter&&>(_It);
; 1282 :     }
; 1283 : }

	ret	0
??$_Get_unwrapped@AAV?$_Vector_iterator@V?$_Vector_val@U?$_Simple_types@PAVCPGDef@PS@@@std@@@std@@@std@@@std@@YA?A_TAAV?$_Vector_iterator@V?$_Vector_val@U?$_Simple_types@PAVCPGDef@PS@@@std@@@std@@@0@@Z ENDP ; std::_Get_unwrapped<std::_Vector_iterator<std::_Vector_val<std::_Simple_types<PS::CPGDef *> > > &>
_TEXT	ENDS
; Function compile flags: /Ogtpy
; File C:\Program Files\Microsoft Visual Studio\2022\Community\VC\Tools\MSVC\14.29.30133\include\xutility
;	COMDAT ??$_Get_unwrapped@ABV?$_Vector_iterator@V?$_Vector_val@U?$_Simple_types@PAVCPGDef@PS@@@std@@@std@@@std@@@std@@YA?A_TABV?$_Vector_iterator@V?$_Vector_val@U?$_Simple_types@PAVCPGDef@PS@@@std@@@std@@@0@@Z
_TEXT	SEGMENT
??$_Get_unwrapped@ABV?$_Vector_iterator@V?$_Vector_val@U?$_Simple_types@PAVCPGDef@PS@@@std@@@std@@@std@@@std@@YA?A_TABV?$_Vector_iterator@V?$_Vector_val@U?$_Simple_types@PAVCPGDef@PS@@@std@@@std@@@0@@Z PROC ; std::_Get_unwrapped<std::_Vector_iterator<std::_Vector_val<std::_Simple_types<PS::CPGDef *> > > const &>, COMDAT
; __It$ = ecx

; 1275 :     // unwrap an iterator previously subjected to _Adl_verify_range or otherwise validated
; 1276 :     if constexpr (is_pointer_v<decay_t<_Iter>>) { // special-case pointers and arrays
; 1277 :         return _It + 0;
; 1278 :     } else if constexpr (_Unwrappable_v<_Iter>) {
; 1279 :         return static_cast<_Iter&&>(_It)._Unwrapped();

	mov	eax, DWORD PTR [ecx]

; 1280 :     } else {
; 1281 :         return static_cast<_Iter&&>(_It);
; 1282 :     }
; 1283 : }

	ret	0
??$_Get_unwrapped@ABV?$_Vector_iterator@V?$_Vector_val@U?$_Simple_types@PAVCPGDef@PS@@@std@@@std@@@std@@@std@@YA?A_TABV?$_Vector_iterator@V?$_Vector_val@U?$_Simple_types@PAVCPGDef@PS@@@std@@@std@@@0@@Z ENDP ; std::_Get_unwrapped<std::_Vector_iterator<std::_Vector_val<std::_Simple_types<PS::CPGDef *> > > const &>
_TEXT	ENDS
; Function compile flags: /Ogtpy
; File I:\Vitalya\mine\NSProjectX\xrCore\xrMemory_subst_msvc.h
; File I:\Vitalya\mine\NSProjectX\layers\xrRender\ParticleEffectDef.cpp
; File I:\Vitalya\mine\NSProjectX\xrCore\xrstring.h
; File I:\Vitalya\mine\NSProjectX\xrCore\xr_resource.h
; File I:\Vitalya\mine\NSProjectX\layers\xrRender\ParticleEffectDef.cpp
; File I:\Vitalya\mine\NSProjectX\xrCore\xr_resource.h
; File I:\Vitalya\mine\NSProjectX\xrCore\_vector2.h
; File I:\Vitalya\mine\NSProjectX\layers\xrRender\ParticleEffectDef.h
; File I:\Vitalya\mine\NSProjectX\layers\xrRender\ParticleEffectDef.cpp
; File I:\Vitalya\mine\NSProjectX\xrCore\xr_resource.h
; File I:\Vitalya\mine\NSProjectX\layers\xrRender\ParticleEffectDef.cpp
; File I:\Vitalya\mine\NSProjectX\xrCore\xrMemory_subst_msvc.h
; File I:\Vitalya\mine\NSProjectX\layers\xrRender\ParticleEffectDef.cpp
; File I:\Vitalya\mine\NSProjectX\xrCore\_vector3d.h
; File I:\Vitalya\mine\NSProjectX\xrCore\_flags.h
; File I:\Vitalya\mine\NSProjectX\xrCore\xrMemory_subst_msvc.h
;	COMDAT ??$xr_new@VCPEDef@PS@@@@YAPAVCPEDef@PS@@XZ
_TEXT	SEGMENT
$T1 = -4						; size = 4
??$xr_new@VCPEDef@PS@@@@YAPAVCPEDef@PS@@XZ PROC		; xr_new<PS::CPEDef>, COMDAT

; 67   : {

	push	ecx

; 68   : 	T* ptr	= (T*)Memory.mem_alloc(sizeof(T));

	mov	ecx, DWORD PTR __imp_?Memory@@3VxrMemory@@A
	push	esi
	push	edi
	push	128					; 00000080H
	call	DWORD PTR __imp_?mem_alloc@xrMemory@@QAEPAXI@Z

; 69   : 	return new (ptr) T();

	mov	edi, eax
; File I:\Vitalya\mine\NSProjectX\layers\xrRender\ParticleEffectDef.cpp

; 17   : {                                          

	lea	ecx, DWORD PTR [edi+48]
; File I:\Vitalya\mine\NSProjectX\xrCore\xrstring.h

; 57   : 						shared_str	()								{	p_ = 0;											}

	mov	DWORD PTR [edi], 0
	mov	DWORD PTR [edi+8], 0
	mov	DWORD PTR [edi+12], 0
; File I:\Vitalya\mine\NSProjectX\xrCore\xr_resource.h

; 61   : 						resptr_core		()												{	p_ = 0;						}

	mov	DWORD PTR [edi+16], 0
; File I:\Vitalya\mine\NSProjectX\layers\xrRender\ParticleEffectDef.cpp

; 17   : {                                          

	call	DWORD PTR __imp_??0CMemoryWriter@@QAE@XZ
; File I:\Vitalya\mine\NSProjectX\xrCore\xr_resource.h

; 46   : 	ICF		void		_set	(T * rhs) 							{	if (0!=rhs) rhs->dwReference++;	_dec(); p_ = rhs;											}

	lea	ecx, DWORD PTR [edi+16]
; File I:\Vitalya\mine\NSProjectX\xrCore\_vector2.h

; 15   : 	IC SelfRef set(float _u, float _v)				{ x=T(_u); y=T(_v);				return *this;	}

	mov	DWORD PTR [edi+20], 1040187392		; 3e000000H
	mov	DWORD PTR [edi+24], 1056964608		; 3f000000H
; File I:\Vitalya\mine\NSProjectX\layers\xrRender\ParticleEffectDef.h

; 42   : 			m_iFrameDimX 	= 8;

	mov	DWORD PTR [edi+36], 8

; 43   : 			m_iFrameCount 	= 16;

	mov	DWORD PTR [edi+40], 16			; 00000010H

; 44   : 			m_fSpeed		= 24.f;

	mov	DWORD PTR [edi+44], 1103101952		; 41c00000H
; File I:\Vitalya\mine\NSProjectX\layers\xrRender\ParticleEffectDef.cpp

; 19   :     m_MaxParticles		= 0;

	mov	DWORD PTR [edi+88], 0
; File I:\Vitalya\mine\NSProjectX\xrCore\xr_resource.h

; 62   : 						resptr_core		(T * p, bool add_ref = true) 					{	p_ = p;	if(add_ref)	_inc(); }

	mov	DWORD PTR $T1[esp+12], 0

; 46   : 	ICF		void		_set	(T * rhs) 							{	if (0!=rhs) rhs->dwReference++;	_dec(); p_ = rhs;											}

	call	DWORD PTR __imp_?_dec@?$resptr_base@UShader@@@@IAEXXZ

; 64   : 						~resptr_core	()												{	_dec();						}

	lea	ecx, DWORD PTR $T1[esp+12]

; 46   : 	ICF		void		_set	(T * rhs) 							{	if (0!=rhs) rhs->dwReference++;	_dec(); p_ = rhs;											}

	mov	DWORD PTR [edi+16], 0

; 64   : 						~resptr_core	()												{	_dec();						}

	call	DWORD PTR __imp_?_dec@?$resptr_base@UShader@@@@IAEXXZ
; File I:\Vitalya\mine\NSProjectX\layers\xrRender\ParticleEffectDef.cpp

; 21   : 	m_fTimeLimit		= 0.f;

	mov	DWORD PTR [edi+84], 0
; File I:\Vitalya\mine\NSProjectX\xrCore\xrMemory_subst_msvc.h

; 69   : 	return new (ptr) T();

	mov	eax, edi
; File I:\Vitalya\mine\NSProjectX\layers\xrRender\ParticleEffectDef.cpp

; 23   :     m_fCollideOneMinusFriction 	= 1.f;

	mov	DWORD PTR [edi+116], 1065353216		; 3f800000H

; 24   :     m_fCollideResilience		= 0.f;

	mov	DWORD PTR [edi+120], 0

; 25   :     m_fCollideSqrCutoff			= 0.f;

	mov	DWORD PTR [edi+124], 0
; File I:\Vitalya\mine\NSProjectX\xrCore\_vector3d.h

; 23   : 	ICF	SelfRef	set(T _x, T _y, T _z)					{ x = _x;		y = _y;		z = _z;		return *this;	};

	mov	DWORD PTR [edi+92], 0
	mov	DWORD PTR [edi+96], 0
	mov	DWORD PTR [edi+100], 0
	mov	DWORD PTR [edi+104], -1077342245	; bfc90fdbH
	mov	DWORD PTR [edi+108], 0
	mov	DWORD PTR [edi+112], 0
; File I:\Vitalya\mine\NSProjectX\xrCore\_flags.h

; 15   :     IC	SelfRef	zero	()											{ flags=T(0);	return *this;	}

	mov	DWORD PTR [edi+4], 0
; File I:\Vitalya\mine\NSProjectX\xrCore\xrMemory_subst_msvc.h

; 69   : 	return new (ptr) T();

	pop	edi
	pop	esi

; 70   : }

	pop	ecx
	ret	0
??$xr_new@VCPEDef@PS@@@@YAPAVCPEDef@PS@@XZ ENDP		; xr_new<PS::CPEDef>
_TEXT	ENDS
; Function compile flags: /Ogtpy
; File I:\Vitalya\mine\NSProjectX\xrCore\xrMemory_subst_msvc.h
; File I:\Vitalya\mine\NSProjectX\xrCore\xrstring.h
; File C:\Program Files\Microsoft Visual Studio\2022\Community\VC\Tools\MSVC\14.29.30133\include\vector
; File I:\Vitalya\mine\NSProjectX\xrCore\_flags.h
; File I:\Vitalya\mine\NSProjectX\layers\xrRender\ParticleGroup.cpp
; File I:\Vitalya\mine\NSProjectX\xrCore\xrMemory_subst_msvc.h
;	COMDAT ??$xr_new@VCPGDef@PS@@@@YAPAVCPGDef@PS@@XZ
_TEXT	SEGMENT
??$xr_new@VCPGDef@PS@@@@YAPAVCPGDef@PS@@XZ PROC		; xr_new<PS::CPGDef>, COMDAT

; 68   : 	T* ptr	= (T*)Memory.mem_alloc(sizeof(T));

	mov	ecx, DWORD PTR __imp_?Memory@@3VxrMemory@@A
	push	24					; 00000018H
	call	DWORD PTR __imp_?mem_alloc@xrMemory@@QAEPAXI@Z
; File I:\Vitalya\mine\NSProjectX\xrCore\xrstring.h

; 57   : 						shared_str	()								{	p_ = 0;											}

	mov	DWORD PTR [eax], 0
; File C:\Program Files\Microsoft Visual Studio\2022\Community\VC\Tools\MSVC\14.29.30133\include\vector

; 390  :     _CONSTEXPR20_CONTAINER _Vector_val() noexcept : _Myfirst(), _Mylast(), _Myend() {}

	mov	DWORD PTR [eax+12], 0
	mov	DWORD PTR [eax+16], 0
	mov	DWORD PTR [eax+20], 0
; File I:\Vitalya\mine\NSProjectX\xrCore\_flags.h

; 15   :     IC	SelfRef	zero	()											{ flags=T(0);	return *this;	}

	mov	DWORD PTR [eax+4], 0
; File I:\Vitalya\mine\NSProjectX\layers\xrRender\ParticleGroup.cpp

; 15   :     m_fTimeLimit	= 0.f;

	mov	DWORD PTR [eax+8], 0
; File I:\Vitalya\mine\NSProjectX\xrCore\xrMemory_subst_msvc.h

; 70   : }

	ret	0
??$xr_new@VCPGDef@PS@@@@YAPAVCPGDef@PS@@XZ ENDP		; xr_new<PS::CPGDef>
_TEXT	ENDS
; Function compile flags: /Ogtpy
; File C:\Program Files\Microsoft Visual Studio\2022\Community\VC\Tools\MSVC\14.29.30133\include\algorithm
;	COMDAT ??$sort@V?$_Vector_iterator@V?$_Vector_val@U?$_Simple_types@PAVCPEDef@PS@@@std@@@std@@@std@@P6A_NPBVCPEDef@PS@@0@Z@std@@YAXV?$_Vector_iterator@V?$_Vector_val@U?$_Simple_types@PAVCPEDef@PS@@@std@@@std@@@0@0P6A_NPBVCPEDef@PS@@1@Z@Z
_TEXT	SEGMENT
__First$ = 8						; size = 4
__Last$ = 12						; size = 4
??$sort@V?$_Vector_iterator@V?$_Vector_val@U?$_Simple_types@PAVCPEDef@PS@@@std@@@std@@@std@@P6A_NPBVCPEDef@PS@@0@Z@std@@YAXV?$_Vector_iterator@V?$_Vector_val@U?$_Simple_types@PAVCPEDef@PS@@@std@@@std@@@0@0P6A_NPBVCPEDef@PS@@1@Z@Z PROC ; std::sort<std::_Vector_iterator<std::_Vector_val<std::_Simple_types<PS::CPEDef *> > >,bool (__cdecl*)(PS::CPEDef const *,PS::CPEDef const *)>, COMDAT
; __Pred$dead$ = ecx

; 7077 :     _Adl_verify_range(_First, _Last);
; 7078 :     const auto _UFirst = _Get_unwrapped(_First);
; 7079 :     const auto _ULast  = _Get_unwrapped(_Last);
; 7080 :     _Sort_unchecked(_UFirst, _ULast, _ULast - _UFirst, _Pass_fn(_Pred));

	mov	edx, DWORD PTR __Last$[esp-4]
	mov	eax, edx
	mov	ecx, DWORD PTR __First$[esp-4]
	sub	eax, ecx
	sar	eax, 2
	push	OFFSET ?ped_sort_pred@@YA_NPBVCPEDef@PS@@0@Z ; ped_sort_pred
	push	eax
	call	??$_Sort_unchecked@PAPAVCPEDef@PS@@P6A_NPBV12@0@Z@std@@YAXPAPAVCPEDef@PS@@0HP6A_NPBV12@1@Z@Z ; std::_Sort_unchecked<PS::CPEDef * *,bool (__cdecl*)(PS::CPEDef const *,PS::CPEDef const *)>
	add	esp, 8

; 7081 : }

	ret	0
??$sort@V?$_Vector_iterator@V?$_Vector_val@U?$_Simple_types@PAVCPEDef@PS@@@std@@@std@@@std@@P6A_NPBVCPEDef@PS@@0@Z@std@@YAXV?$_Vector_iterator@V?$_Vector_val@U?$_Simple_types@PAVCPEDef@PS@@@std@@@std@@@0@0P6A_NPBVCPEDef@PS@@1@Z@Z ENDP ; std::sort<std::_Vector_iterator<std::_Vector_val<std::_Simple_types<PS::CPEDef *> > >,bool (__cdecl*)(PS::CPEDef const *,PS::CPEDef const *)>
_TEXT	ENDS
; Function compile flags: /Ogtpy
; File C:\Program Files\Microsoft Visual Studio\2022\Community\VC\Tools\MSVC\14.29.30133\include\algorithm
;	COMDAT ??$sort@V?$_Vector_iterator@V?$_Vector_val@U?$_Simple_types@PAVCPGDef@PS@@@std@@@std@@@std@@P6A_NPBVCPGDef@PS@@0@Z@std@@YAXV?$_Vector_iterator@V?$_Vector_val@U?$_Simple_types@PAVCPGDef@PS@@@std@@@std@@@0@0P6A_NPBVCPGDef@PS@@1@Z@Z
_TEXT	SEGMENT
__First$ = 8						; size = 4
__Last$ = 12						; size = 4
??$sort@V?$_Vector_iterator@V?$_Vector_val@U?$_Simple_types@PAVCPGDef@PS@@@std@@@std@@@std@@P6A_NPBVCPGDef@PS@@0@Z@std@@YAXV?$_Vector_iterator@V?$_Vector_val@U?$_Simple_types@PAVCPGDef@PS@@@std@@@std@@@0@0P6A_NPBVCPGDef@PS@@1@Z@Z PROC ; std::sort<std::_Vector_iterator<std::_Vector_val<std::_Simple_types<PS::CPGDef *> > >,bool (__cdecl*)(PS::CPGDef const *,PS::CPGDef const *)>, COMDAT
; __Pred$dead$ = ecx

; 7077 :     _Adl_verify_range(_First, _Last);
; 7078 :     const auto _UFirst = _Get_unwrapped(_First);
; 7079 :     const auto _ULast  = _Get_unwrapped(_Last);
; 7080 :     _Sort_unchecked(_UFirst, _ULast, _ULast - _UFirst, _Pass_fn(_Pred));

	mov	edx, DWORD PTR __Last$[esp-4]
	mov	eax, edx
	mov	ecx, DWORD PTR __First$[esp-4]
	sub	eax, ecx
	sar	eax, 2
	push	OFFSET ?pgd_sort_pred@@YA_NPBVCPGDef@PS@@0@Z ; pgd_sort_pred
	push	eax
	call	??$_Sort_unchecked@PAPAVCPGDef@PS@@P6A_NPBV12@0@Z@std@@YAXPAPAVCPGDef@PS@@0HP6A_NPBV12@1@Z@Z ; std::_Sort_unchecked<PS::CPGDef * *,bool (__cdecl*)(PS::CPGDef const *,PS::CPGDef const *)>
	add	esp, 8

; 7081 : }

	ret	0
??$sort@V?$_Vector_iterator@V?$_Vector_val@U?$_Simple_types@PAVCPGDef@PS@@@std@@@std@@@std@@P6A_NPBVCPGDef@PS@@0@Z@std@@YAXV?$_Vector_iterator@V?$_Vector_val@U?$_Simple_types@PAVCPGDef@PS@@@std@@@std@@@0@0P6A_NPBVCPGDef@PS@@1@Z@Z ENDP ; std::sort<std::_Vector_iterator<std::_Vector_val<std::_Simple_types<PS::CPGDef *> > >,bool (__cdecl*)(PS::CPGDef const *,PS::CPGDef const *)>
_TEXT	ENDS
; Function compile flags: /Ogtpy
; File C:\Program Files\Microsoft Visual Studio\2022\Community\VC\Tools\MSVC\14.29.30133\include\type_traits
;	COMDAT ??$forward@ABQAVCPGDef@PS@@@std@@YAABQAVCPGDef@PS@@ABQAV12@@Z
_TEXT	SEGMENT
??$forward@ABQAVCPGDef@PS@@@std@@YAABQAVCPGDef@PS@@ABQAV12@@Z PROC ; std::forward<PS::CPGDef * const &>, COMDAT
; __Arg$ = ecx

; 1386 :     return static_cast<_Ty&&>(_Arg);

	mov	eax, ecx

; 1387 : }

	ret	0
??$forward@ABQAVCPGDef@PS@@@std@@YAABQAVCPGDef@PS@@ABQAV12@@Z ENDP ; std::forward<PS::CPGDef * const &>
_TEXT	ENDS
; Function compile flags: /Ogtpy
; File C:\Program Files\Microsoft Visual Studio\2022\Community\VC\Tools\MSVC\14.29.30133\include\xmemory
;	COMDAT ??$construct@PAVCPGDef@PS@@ABQAV12@@?$_Normal_allocator_traits@V?$xalloc@PAVCPGDef@PS@@@@@std@@SAXAAV?$xalloc@PAVCPGDef@PS@@@@PAPAVCPGDef@PS@@ABQAV34@@Z
_TEXT	SEGMENT
_<_Args_0>$ = 8						; size = 4
??$construct@PAVCPGDef@PS@@ABQAV12@@?$_Normal_allocator_traits@V?$xalloc@PAVCPGDef@PS@@@@@std@@SAXAAV?$xalloc@PAVCPGDef@PS@@@@PAPAVCPGDef@PS@@ABQAV34@@Z PROC ; std::_Normal_allocator_traits<xalloc<PS::CPGDef *> >::construct<PS::CPGDef *,PS::CPGDef * const &>, COMDAT
; __Al$dead$ = ecx
; __Ptr$ = edx

; 565  :         if constexpr (_Uses_default_construct<_Alloc, _Ty*, _Types...>::value) {
; 566  :             (void) _Al; // TRANSITION, DevCom-1004719
; 567  : #ifdef __cpp_lib_constexpr_dynamic_alloc
; 568  :             _STD construct_at(_Ptr, _STD forward<_Types>(_Args)...);
; 569  : #else // __cpp_lib_constexpr_dynamic_alloc
; 570  :             ::new (static_cast<void*>(_Ptr)) _Ty(_STD forward<_Types>(_Args)...);
; 571  : #endif // __cpp_lib_constexpr_dynamic_alloc
; 572  :         } else {
; 573  :             _Al.construct(_Ptr, _STD forward<_Types>(_Args)...);

	mov	eax, DWORD PTR _<_Args_0>$[esp-4]
	mov	eax, DWORD PTR [eax]
	mov	DWORD PTR [edx], eax

; 574  :         }
; 575  :     }

	ret	0
??$construct@PAVCPGDef@PS@@ABQAV12@@?$_Normal_allocator_traits@V?$xalloc@PAVCPGDef@PS@@@@@std@@SAXAAV?$xalloc@PAVCPGDef@PS@@@@PAPAVCPGDef@PS@@ABQAV34@@Z ENDP ; std::_Normal_allocator_traits<xalloc<PS::CPGDef *> >::construct<PS::CPGDef *,PS::CPGDef * const &>
_TEXT	ENDS
; Function compile flags: /Ogtpy
; File C:\Program Files\Microsoft Visual Studio\2022\Community\VC\Tools\MSVC\14.29.30133\include\vector
; File I:\Vitalya\mine\NSProjectX\xrCore\xrMemory.h
; File C:\Program Files\Microsoft Visual Studio\2022\Community\VC\Tools\MSVC\14.29.30133\include\vector
; File C:\Program Files\Microsoft Visual Studio\2022\Community\VC\Tools\MSVC\14.29.30133\include\xmemory
; File C:\Program Files\Microsoft Visual Studio\2022\Community\VC\Tools\MSVC\14.29.30133\include\vector
; File C:\Program Files\Microsoft Visual Studio\2022\Community\VC\Tools\MSVC\14.29.30133\include\xmemory
; File C:\Program Files\Microsoft Visual Studio\2022\Community\VC\Tools\MSVC\14.29.30133\include\vector
; File C:\Program Files\Microsoft Visual Studio\2022\Community\VC\Tools\MSVC\14.29.30133\include\xmemory
; File C:\Program Files\Microsoft Visual Studio\2022\Community\VC\Tools\MSVC\14.29.30133\include\vector
; File I:\Vitalya\mine\NSProjectX\xrCore\xrMemory.h
; File C:\Program Files\Microsoft Visual Studio\2022\Community\VC\Tools\MSVC\14.29.30133\include\vector
;	COMDAT ??$_Emplace_reallocate@ABQAVCPGDef@PS@@@?$vector@PAVCPGDef@PS@@V?$xalloc@PAVCPGDef@PS@@@@@std@@QAEPAPAVCPGDef@PS@@QAPAV23@ABQAV23@@Z
_TEXT	SEGMENT
__Backout$2 = -76					; size = 12
__Backout$3 = -64					; size = 12
__Backout$4 = -52					; size = 12
__UFirst$5 = -40					; size = 4
__UFirst$6 = -36					; size = 4
__UFirst$7 = -32					; size = 4
__Newvec$ = -28						; size = 4
__Newcapacity$1$ = -24					; size = 4
__Newsize$1$ = -20					; size = 4
__$EHRec$ = -16						; size = 16
tv555 = 8						; size = 4
__Whereptr$ = 8						; size = 4
_<_Val_0>$ = 12						; size = 4
??$_Emplace_reallocate@ABQAVCPGDef@PS@@@?$vector@PAVCPGDef@PS@@V?$xalloc@PAVCPGDef@PS@@@@@std@@QAEPAPAVCPGDef@PS@@QAPAV23@ABQAV23@@Z PROC ; std::vector<PS::CPGDef *,xalloc<PS::CPGDef *> >::_Emplace_reallocate<PS::CPGDef * const &>, COMDAT
; _this$ = ecx

; 752  :     _CONSTEXPR20_CONTAINER pointer _Emplace_reallocate(const pointer _Whereptr, _Valty&&... _Val) {

	push	ebp
	mov	ebp, esp
	push	-1
	push	__ehhandler$??$_Emplace_reallocate@ABQAVCPGDef@PS@@@?$vector@PAVCPGDef@PS@@V?$xalloc@PAVCPGDef@PS@@@@@std@@QAEPAPAVCPGDef@PS@@QAPAV23@ABQAV23@@Z
	mov	eax, DWORD PTR fs:0
	push	eax
	mov	DWORD PTR fs:0, esp
	sub	esp, 64					; 00000040H
	push	ebx
	push	esi
	push	edi
	mov	DWORD PTR __$EHRec$[ebp], esp
	mov	edi, ecx

; 753  :         // reallocate and insert by perfectly forwarding _Val at _Whereptr
; 754  :         _Alty& _Al        = _Getal();
; 755  :         auto& _My_data    = _Mypair._Myval2;
; 756  :         pointer& _Myfirst = _My_data._Myfirst;
; 757  :         pointer& _Mylast  = _My_data._Mylast;
; 758  : 
; 759  :         _STL_INTERNAL_CHECK(_Mylast == _My_data._Myend); // check that we have no unused capacity
; 760  : 
; 761  :         const auto _Whereoff = static_cast<size_type>(_Whereptr - _Myfirst);

	mov	edx, DWORD PTR [edi]
	mov	esi, DWORD PTR __Whereptr$[ebp]
	mov	ebx, esi
	sub	ebx, edx
	sar	ebx, 2

; 762  :         const auto _Oldsize  = static_cast<size_type>(_Mylast - _Myfirst);

	mov	eax, DWORD PTR [edi+4]
	sub	eax, edx
	sar	eax, 2

; 763  : 
; 764  :         if (_Oldsize == max_size()) {

	cmp	eax, 1073741823				; 3fffffffH
	je	$LN83@Emplace_re

; 766  :         }
; 767  : 
; 768  :         const size_type _Newsize     = _Oldsize + 1;

	inc	eax
	mov	DWORD PTR __Newsize$1$[ebp], eax

; 1546 :         return static_cast<size_type>(_My_data._Myend - _My_data._Myfirst);

	mov	ecx, DWORD PTR [edi+8]
	sub	ecx, edx
	sar	ecx, 2

; 1675 :         if (_Oldcapacity > _Max - _Oldcapacity / 2) {

	mov	edx, ecx
	shr	edx, 1
	mov	eax, 1073741823				; 3fffffffH
	sub	eax, edx
	cmp	ecx, eax
	jbe	SHORT $LN12@Emplace_re

; 1676 :             return _Max; // geometric growth would overflow

	mov	eax, 1073741823				; 3fffffffH
	jmp	SHORT $LN81@Emplace_re
$LN12@Emplace_re:

; 1677 :         }
; 1678 : 
; 1679 :         const size_type _Geometric = _Oldcapacity + _Oldcapacity / 2;

	lea	eax, DWORD PTR [edx+ecx]

; 1680 : 
; 1681 :         if (_Geometric < _Newsize) {

	cmp	eax, DWORD PTR __Newsize$1$[ebp]
	cmovb	eax, DWORD PTR __Newsize$1$[ebp]
$LN81@Emplace_re:
; File I:\Vitalya\mine\NSProjectX\xrCore\xrMemory.h

; 107  : 	IC T*		xr_alloc	(u32 count)				{	return  (T*)Memory.mem_alloc(count*sizeof(T));	}

	mov	DWORD PTR __Newcapacity$1$[ebp], eax
	shl	eax, 2
	push	eax
	mov	ecx, DWORD PTR __imp_?Memory@@3VxrMemory@@A
	call	DWORD PTR __imp_?mem_alloc@xrMemory@@QAEPAXI@Z
; File C:\Program Files\Microsoft Visual Studio\2022\Community\VC\Tools\MSVC\14.29.30133\include\vector

; 771  :         const pointer _Newvec           = _Al.allocate(_Newcapacity);

	mov	edx, eax
	mov	DWORD PTR __Newvec$[ebp], edx

; 772  :         const pointer _Constructed_last = _Newvec + _Whereoff + 1;
; 773  :         pointer _Constructed_first      = _Constructed_last;
; 774  : 
; 775  :         _TRY_BEGIN

	mov	DWORD PTR __$EHRec$[ebp+12], 0

; 776  :         _Alty_traits::construct(_Al, _Unfancy(_Newvec + _Whereoff), _STD forward<_Valty>(_Val)...);

	lea	ecx, DWORD PTR [edx+ebx*4]
	mov	DWORD PTR tv555[ebp], ecx
	mov	eax, DWORD PTR _<_Val_0>$[ebp]
	mov	eax, DWORD PTR [eax]
	mov	DWORD PTR [ecx], eax

; 777  :         _Constructed_first = _Newvec + _Whereoff;
; 778  : 
; 779  :         if (_Whereptr == _Mylast) { // at back, provide strong guarantee

	mov	ebx, DWORD PTR [edi+4]
	mov	ecx, DWORD PTR [edi]
	cmp	esi, ebx
	jne	SHORT $LN4@Emplace_re
; File C:\Program Files\Microsoft Visual Studio\2022\Community\VC\Tools\MSVC\14.29.30133\include\xmemory

; 1703 :     auto _UFirst      = _Get_unwrapped(_First);

	mov	DWORD PTR __UFirst$7[ebp], ecx

; 1609 :         : _First(_Dest), _Last(_Dest), _Al(_Al_) {}

	mov	DWORD PTR __Backout$4[ebp], edx
	mov	DWORD PTR __Backout$4[ebp+4], edx
	mov	DWORD PTR __Backout$4[ebp+8], edi
	npad	1
$LL28@Emplace_re:

; 1717 :     for (; _UFirst != _ULast; ++_UFirst) {

	cmp	ecx, ebx
	je	SHORT $LN27@Emplace_re

; 1620 :         allocator_traits<_Alloc>::construct(_Al, _Unfancy(_Last), _STD forward<_Types>(_Vals)...);

	mov	eax, DWORD PTR [ecx]
	mov	DWORD PTR [edx], eax

; 1621 :         ++_Last;

	add	edx, 4
	mov	DWORD PTR __Backout$4[ebp+4], edx

; 1717 :     for (; _UFirst != _ULast; ++_UFirst) {

	add	ecx, 4
	mov	DWORD PTR __UFirst$7[ebp], ecx
	jmp	SHORT $LL28@Emplace_re
$LN27@Emplace_re:

; 1625 :         _First = _Last;

	mov	DWORD PTR __Backout$4[ebp], edx
; File C:\Program Files\Microsoft Visual Studio\2022\Community\VC\Tools\MSVC\14.29.30133\include\vector

; 781  :         } else { // provide basic guarantee

	mov	ebx, DWORD PTR tv555[ebp]
	jmp	SHORT $LN5@Emplace_re
$LN4@Emplace_re:
; File C:\Program Files\Microsoft Visual Studio\2022\Community\VC\Tools\MSVC\14.29.30133\include\xmemory

; 1703 :     auto _UFirst      = _Get_unwrapped(_First);

	mov	DWORD PTR __UFirst$6[ebp], ecx

; 1609 :         : _First(_Dest), _Last(_Dest), _Al(_Al_) {}

	mov	DWORD PTR __Backout$3[ebp], edx
	mov	DWORD PTR __Backout$3[ebp+4], edx
	mov	DWORD PTR __Backout$3[ebp+8], edi
	npad	6
$LL41@Emplace_re:

; 1717 :     for (; _UFirst != _ULast; ++_UFirst) {

	cmp	ecx, esi
	je	SHORT $LN40@Emplace_re

; 1620 :         allocator_traits<_Alloc>::construct(_Al, _Unfancy(_Last), _STD forward<_Types>(_Vals)...);

	mov	eax, DWORD PTR [ecx]
	mov	DWORD PTR [edx], eax

; 1621 :         ++_Last;

	add	edx, 4
	mov	DWORD PTR __Backout$3[ebp+4], edx

; 1717 :     for (; _UFirst != _ULast; ++_UFirst) {

	add	ecx, 4
	mov	DWORD PTR __UFirst$6[ebp], ecx
	jmp	SHORT $LL41@Emplace_re
$LN40@Emplace_re:

; 1625 :         _First = _Last;

	mov	DWORD PTR __Backout$3[ebp], edx
; File C:\Program Files\Microsoft Visual Studio\2022\Community\VC\Tools\MSVC\14.29.30133\include\vector

; 784  :             _Umove(_Whereptr, _Mylast, _Newvec + _Whereoff + 1);

	mov	ebx, DWORD PTR tv555[ebp]
	lea	ecx, DWORD PTR [ebx+4]

; 1646 :         return _Uninitialized_move(_First, _Last, _Dest, _Getal());

	mov	edx, DWORD PTR [edi+4]
; File C:\Program Files\Microsoft Visual Studio\2022\Community\VC\Tools\MSVC\14.29.30133\include\xmemory

; 1703 :     auto _UFirst      = _Get_unwrapped(_First);

	mov	DWORD PTR __UFirst$5[ebp], esi

; 1609 :         : _First(_Dest), _Last(_Dest), _Al(_Al_) {}

	mov	DWORD PTR __Backout$2[ebp], ecx
	mov	DWORD PTR __Backout$2[ebp+4], ecx
	mov	DWORD PTR __Backout$2[ebp+8], edi
	npad	2
$LL54@Emplace_re:

; 1717 :     for (; _UFirst != _ULast; ++_UFirst) {

	cmp	esi, edx
	je	SHORT $LN53@Emplace_re

; 1620 :         allocator_traits<_Alloc>::construct(_Al, _Unfancy(_Last), _STD forward<_Types>(_Vals)...);

	mov	eax, DWORD PTR [esi]
	mov	DWORD PTR [ecx], eax

; 1621 :         ++_Last;

	add	ecx, 4
	mov	DWORD PTR __Backout$2[ebp+4], ecx

; 1717 :     for (; _UFirst != _ULast; ++_UFirst) {

	add	esi, 4
	mov	DWORD PTR __UFirst$5[ebp], esi
	jmp	SHORT $LL54@Emplace_re
$LN53@Emplace_re:

; 1625 :         _First = _Last;

	mov	DWORD PTR __Backout$2[ebp], ecx
$LN5@Emplace_re:
; File C:\Program Files\Microsoft Visual Studio\2022\Community\VC\Tools\MSVC\14.29.30133\include\vector
	mov	DWORD PTR __$EHRec$[ebp+12], -1

; 1732 :         if (_Myfirst) { // destroy and deallocate old array

	mov	eax, DWORD PTR [edi]
	test	eax, eax
	je	SHORT $LN68@Emplace_re
; File I:\Vitalya\mine\NSProjectX\xrCore\xrMemory.h

; 109  : 	IC void		xr_free		(T* &P)					{	if (P) { Memory.mem_free((void*)P); P=NULL;	};	}

	push	eax
	mov	ecx, DWORD PTR __imp_?Memory@@3VxrMemory@@A
	call	DWORD PTR __imp_?mem_free@xrMemory@@QAEXPAX@Z
$LN68@Emplace_re:
; File C:\Program Files\Microsoft Visual Studio\2022\Community\VC\Tools\MSVC\14.29.30133\include\vector

; 1737 :         _Myfirst = _Newvec;

	mov	eax, DWORD PTR __Newvec$[ebp]
	mov	DWORD PTR [edi], eax

; 1738 :         _Mylast  = _Newvec + _Newsize;

	mov	ecx, DWORD PTR __Newsize$1$[ebp]
	lea	ecx, DWORD PTR [eax+ecx*4]
	mov	DWORD PTR [edi+4], ecx

; 1739 :         _Myend   = _Newvec + _Newcapacity;

	mov	ecx, DWORD PTR __Newcapacity$1$[ebp]
	lea	ecx, DWORD PTR [eax+ecx*4]
	mov	DWORD PTR [edi+8], ecx

; 790  :         _CATCH_END
; 791  : 
; 792  :         _Change_array(_Newvec, _Newsize, _Newcapacity);
; 793  :         return _Newvec + _Whereoff;

	mov	eax, ebx

; 794  :     }

	mov	ecx, DWORD PTR __$EHRec$[ebp+4]
	mov	DWORD PTR fs:0, ecx
	pop	edi
	pop	esi
	pop	ebx
	mov	esp, ebp
	pop	ebp
	ret	8
__catch$??$_Emplace_reallocate@ABQAVCPGDef@PS@@@?$vector@PAVCPGDef@PS@@V?$xalloc@PAVCPGDef@PS@@@@@std@@QAEPAPAVCPGDef@PS@@QAPAV23@ABQAV23@@Z$0:

; 785  :         }
; 786  :         _CATCH_ALL
; 787  :         _Destroy(_Constructed_first, _Constructed_last);
; 788  :         _Al.deallocate(_Newvec, _Newcapacity);

	push	ecx
	push	DWORD PTR __Newvec$[ebp]
	call	?deallocate@?$xalloc@PAVCPGDef@PS@@@@QBEXPAPAVCPGDef@PS@@I@Z ; xalloc<PS::CPGDef *>::deallocate

; 789  :         _RERAISE;

	push	0
	push	0
	call	__CxxThrowException@8
$LN83@Emplace_re:

; 765  :             _Xlength();

	call	?_Xlength@?$vector@PAVCPGDef@PS@@V?$xalloc@PAVCPGDef@PS@@@@@std@@CAXXZ ; std::vector<PS::CPGDef *,xalloc<PS::CPGDef *> >::_Xlength
$LN80@Emplace_re:
	int	3
	int	3
	int	3
	int	3
	int	3
	int	3
_TEXT	ENDS
;	COMDAT text$x
text$x	SEGMENT
__ehhandler$??$_Emplace_reallocate@ABQAVCPGDef@PS@@@?$vector@PAVCPGDef@PS@@V?$xalloc@PAVCPGDef@PS@@@@@std@@QAEPAPAVCPGDef@PS@@QAPAV23@ABQAV23@@Z:
	npad	1
	npad	1
	mov	eax, OFFSET __ehfuncinfo$??$_Emplace_reallocate@ABQAVCPGDef@PS@@@?$vector@PAVCPGDef@PS@@V?$xalloc@PAVCPGDef@PS@@@@@std@@QAEPAPAVCPGDef@PS@@QAPAV23@ABQAV23@@Z
	jmp	___CxxFrameHandler3
text$x	ENDS
??$_Emplace_reallocate@ABQAVCPGDef@PS@@@?$vector@PAVCPGDef@PS@@V?$xalloc@PAVCPGDef@PS@@@@@std@@QAEPAPAVCPGDef@PS@@QAPAV23@ABQAV23@@Z ENDP ; std::vector<PS::CPGDef *,xalloc<PS::CPGDef *> >::_Emplace_reallocate<PS::CPGDef * const &>
; Function compile flags: /Ogtpy
; File C:\Program Files\Microsoft Visual Studio\2022\Community\VC\Tools\MSVC\14.29.30133\include\type_traits
;	COMDAT ??$forward@ABQAVCPEDef@PS@@@std@@YAABQAVCPEDef@PS@@ABQAV12@@Z
_TEXT	SEGMENT
??$forward@ABQAVCPEDef@PS@@@std@@YAABQAVCPEDef@PS@@ABQAV12@@Z PROC ; std::forward<PS::CPEDef * const &>, COMDAT
; __Arg$ = ecx

; 1386 :     return static_cast<_Ty&&>(_Arg);

	mov	eax, ecx

; 1387 : }

	ret	0
??$forward@ABQAVCPEDef@PS@@@std@@YAABQAVCPEDef@PS@@ABQAV12@@Z ENDP ; std::forward<PS::CPEDef * const &>
_TEXT	ENDS
; Function compile flags: /Ogtpy
; File C:\Program Files\Microsoft Visual Studio\2022\Community\VC\Tools\MSVC\14.29.30133\include\xmemory
;	COMDAT ??$construct@PAVCPEDef@PS@@ABQAV12@@?$_Normal_allocator_traits@V?$xalloc@PAVCPEDef@PS@@@@@std@@SAXAAV?$xalloc@PAVCPEDef@PS@@@@PAPAVCPEDef@PS@@ABQAV34@@Z
_TEXT	SEGMENT
_<_Args_0>$ = 8						; size = 4
??$construct@PAVCPEDef@PS@@ABQAV12@@?$_Normal_allocator_traits@V?$xalloc@PAVCPEDef@PS@@@@@std@@SAXAAV?$xalloc@PAVCPEDef@PS@@@@PAPAVCPEDef@PS@@ABQAV34@@Z PROC ; std::_Normal_allocator_traits<xalloc<PS::CPEDef *> >::construct<PS::CPEDef *,PS::CPEDef * const &>, COMDAT
; __Al$dead$ = ecx
; __Ptr$ = edx

; 565  :         if constexpr (_Uses_default_construct<_Alloc, _Ty*, _Types...>::value) {
; 566  :             (void) _Al; // TRANSITION, DevCom-1004719
; 567  : #ifdef __cpp_lib_constexpr_dynamic_alloc
; 568  :             _STD construct_at(_Ptr, _STD forward<_Types>(_Args)...);
; 569  : #else // __cpp_lib_constexpr_dynamic_alloc
; 570  :             ::new (static_cast<void*>(_Ptr)) _Ty(_STD forward<_Types>(_Args)...);
; 571  : #endif // __cpp_lib_constexpr_dynamic_alloc
; 572  :         } else {
; 573  :             _Al.construct(_Ptr, _STD forward<_Types>(_Args)...);

	mov	eax, DWORD PTR _<_Args_0>$[esp-4]
	mov	eax, DWORD PTR [eax]
	mov	DWORD PTR [edx], eax

; 574  :         }
; 575  :     }

	ret	0
??$construct@PAVCPEDef@PS@@ABQAV12@@?$_Normal_allocator_traits@V?$xalloc@PAVCPEDef@PS@@@@@std@@SAXAAV?$xalloc@PAVCPEDef@PS@@@@PAPAVCPEDef@PS@@ABQAV34@@Z ENDP ; std::_Normal_allocator_traits<xalloc<PS::CPEDef *> >::construct<PS::CPEDef *,PS::CPEDef * const &>
_TEXT	ENDS
; Function compile flags: /Ogtpy
; File C:\Program Files\Microsoft Visual Studio\2022\Community\VC\Tools\MSVC\14.29.30133\include\vector
; File I:\Vitalya\mine\NSProjectX\xrCore\xrMemory.h
; File C:\Program Files\Microsoft Visual Studio\2022\Community\VC\Tools\MSVC\14.29.30133\include\vector
; File C:\Program Files\Microsoft Visual Studio\2022\Community\VC\Tools\MSVC\14.29.30133\include\xmemory
; File C:\Program Files\Microsoft Visual Studio\2022\Community\VC\Tools\MSVC\14.29.30133\include\vector
; File C:\Program Files\Microsoft Visual Studio\2022\Community\VC\Tools\MSVC\14.29.30133\include\xmemory
; File C:\Program Files\Microsoft Visual Studio\2022\Community\VC\Tools\MSVC\14.29.30133\include\vector
; File C:\Program Files\Microsoft Visual Studio\2022\Community\VC\Tools\MSVC\14.29.30133\include\xmemory
; File C:\Program Files\Microsoft Visual Studio\2022\Community\VC\Tools\MSVC\14.29.30133\include\vector
; File I:\Vitalya\mine\NSProjectX\xrCore\xrMemory.h
; File C:\Program Files\Microsoft Visual Studio\2022\Community\VC\Tools\MSVC\14.29.30133\include\vector
;	COMDAT ??$_Emplace_reallocate@ABQAVCPEDef@PS@@@?$vector@PAVCPEDef@PS@@V?$xalloc@PAVCPEDef@PS@@@@@std@@QAEPAPAVCPEDef@PS@@QAPAV23@ABQAV23@@Z
_TEXT	SEGMENT
__Backout$2 = -76					; size = 12
__Backout$3 = -64					; size = 12
__Backout$4 = -52					; size = 12
__UFirst$5 = -40					; size = 4
__UFirst$6 = -36					; size = 4
__UFirst$7 = -32					; size = 4
__Newvec$ = -28						; size = 4
__Newcapacity$1$ = -24					; size = 4
__Newsize$1$ = -20					; size = 4
__$EHRec$ = -16						; size = 16
tv555 = 8						; size = 4
__Whereptr$ = 8						; size = 4
_<_Val_0>$ = 12						; size = 4
??$_Emplace_reallocate@ABQAVCPEDef@PS@@@?$vector@PAVCPEDef@PS@@V?$xalloc@PAVCPEDef@PS@@@@@std@@QAEPAPAVCPEDef@PS@@QAPAV23@ABQAV23@@Z PROC ; std::vector<PS::CPEDef *,xalloc<PS::CPEDef *> >::_Emplace_reallocate<PS::CPEDef * const &>, COMDAT
; _this$ = ecx

; 752  :     _CONSTEXPR20_CONTAINER pointer _Emplace_reallocate(const pointer _Whereptr, _Valty&&... _Val) {

	push	ebp
	mov	ebp, esp
	push	-1
	push	__ehhandler$??$_Emplace_reallocate@ABQAVCPEDef@PS@@@?$vector@PAVCPEDef@PS@@V?$xalloc@PAVCPEDef@PS@@@@@std@@QAEPAPAVCPEDef@PS@@QAPAV23@ABQAV23@@Z
	mov	eax, DWORD PTR fs:0
	push	eax
	mov	DWORD PTR fs:0, esp
	sub	esp, 64					; 00000040H
	push	ebx
	push	esi
	push	edi
	mov	DWORD PTR __$EHRec$[ebp], esp
	mov	edi, ecx

; 753  :         // reallocate and insert by perfectly forwarding _Val at _Whereptr
; 754  :         _Alty& _Al        = _Getal();
; 755  :         auto& _My_data    = _Mypair._Myval2;
; 756  :         pointer& _Myfirst = _My_data._Myfirst;
; 757  :         pointer& _Mylast  = _My_data._Mylast;
; 758  : 
; 759  :         _STL_INTERNAL_CHECK(_Mylast == _My_data._Myend); // check that we have no unused capacity
; 760  : 
; 761  :         const auto _Whereoff = static_cast<size_type>(_Whereptr - _Myfirst);

	mov	edx, DWORD PTR [edi]
	mov	esi, DWORD PTR __Whereptr$[ebp]
	mov	ebx, esi
	sub	ebx, edx
	sar	ebx, 2

; 762  :         const auto _Oldsize  = static_cast<size_type>(_Mylast - _Myfirst);

	mov	eax, DWORD PTR [edi+4]
	sub	eax, edx
	sar	eax, 2

; 763  : 
; 764  :         if (_Oldsize == max_size()) {

	cmp	eax, 1073741823				; 3fffffffH
	je	$LN83@Emplace_re

; 766  :         }
; 767  : 
; 768  :         const size_type _Newsize     = _Oldsize + 1;

	inc	eax
	mov	DWORD PTR __Newsize$1$[ebp], eax

; 1546 :         return static_cast<size_type>(_My_data._Myend - _My_data._Myfirst);

	mov	ecx, DWORD PTR [edi+8]
	sub	ecx, edx
	sar	ecx, 2

; 1675 :         if (_Oldcapacity > _Max - _Oldcapacity / 2) {

	mov	edx, ecx
	shr	edx, 1
	mov	eax, 1073741823				; 3fffffffH
	sub	eax, edx
	cmp	ecx, eax
	jbe	SHORT $LN12@Emplace_re

; 1676 :             return _Max; // geometric growth would overflow

	mov	eax, 1073741823				; 3fffffffH
	jmp	SHORT $LN81@Emplace_re
$LN12@Emplace_re:

; 1677 :         }
; 1678 : 
; 1679 :         const size_type _Geometric = _Oldcapacity + _Oldcapacity / 2;

	lea	eax, DWORD PTR [edx+ecx]

; 1680 : 
; 1681 :         if (_Geometric < _Newsize) {

	cmp	eax, DWORD PTR __Newsize$1$[ebp]
	cmovb	eax, DWORD PTR __Newsize$1$[ebp]
$LN81@Emplace_re:
; File I:\Vitalya\mine\NSProjectX\xrCore\xrMemory.h

; 107  : 	IC T*		xr_alloc	(u32 count)				{	return  (T*)Memory.mem_alloc(count*sizeof(T));	}

	mov	DWORD PTR __Newcapacity$1$[ebp], eax
	shl	eax, 2
	push	eax
	mov	ecx, DWORD PTR __imp_?Memory@@3VxrMemory@@A
	call	DWORD PTR __imp_?mem_alloc@xrMemory@@QAEPAXI@Z
; File C:\Program Files\Microsoft Visual Studio\2022\Community\VC\Tools\MSVC\14.29.30133\include\vector

; 771  :         const pointer _Newvec           = _Al.allocate(_Newcapacity);

	mov	edx, eax
	mov	DWORD PTR __Newvec$[ebp], edx

; 772  :         const pointer _Constructed_last = _Newvec + _Whereoff + 1;
; 773  :         pointer _Constructed_first      = _Constructed_last;
; 774  : 
; 775  :         _TRY_BEGIN

	mov	DWORD PTR __$EHRec$[ebp+12], 0

; 776  :         _Alty_traits::construct(_Al, _Unfancy(_Newvec + _Whereoff), _STD forward<_Valty>(_Val)...);

	lea	ecx, DWORD PTR [edx+ebx*4]
	mov	DWORD PTR tv555[ebp], ecx
	mov	eax, DWORD PTR _<_Val_0>$[ebp]
	mov	eax, DWORD PTR [eax]
	mov	DWORD PTR [ecx], eax

; 777  :         _Constructed_first = _Newvec + _Whereoff;
; 778  : 
; 779  :         if (_Whereptr == _Mylast) { // at back, provide strong guarantee

	mov	ebx, DWORD PTR [edi+4]
	mov	ecx, DWORD PTR [edi]
	cmp	esi, ebx
	jne	SHORT $LN4@Emplace_re
; File C:\Program Files\Microsoft Visual Studio\2022\Community\VC\Tools\MSVC\14.29.30133\include\xmemory

; 1703 :     auto _UFirst      = _Get_unwrapped(_First);

	mov	DWORD PTR __UFirst$7[ebp], ecx

; 1609 :         : _First(_Dest), _Last(_Dest), _Al(_Al_) {}

	mov	DWORD PTR __Backout$4[ebp], edx
	mov	DWORD PTR __Backout$4[ebp+4], edx
	mov	DWORD PTR __Backout$4[ebp+8], edi
	npad	1
$LL28@Emplace_re:

; 1717 :     for (; _UFirst != _ULast; ++_UFirst) {

	cmp	ecx, ebx
	je	SHORT $LN27@Emplace_re

; 1620 :         allocator_traits<_Alloc>::construct(_Al, _Unfancy(_Last), _STD forward<_Types>(_Vals)...);

	mov	eax, DWORD PTR [ecx]
	mov	DWORD PTR [edx], eax

; 1621 :         ++_Last;

	add	edx, 4
	mov	DWORD PTR __Backout$4[ebp+4], edx

; 1717 :     for (; _UFirst != _ULast; ++_UFirst) {

	add	ecx, 4
	mov	DWORD PTR __UFirst$7[ebp], ecx
	jmp	SHORT $LL28@Emplace_re
$LN27@Emplace_re:

; 1625 :         _First = _Last;

	mov	DWORD PTR __Backout$4[ebp], edx
; File C:\Program Files\Microsoft Visual Studio\2022\Community\VC\Tools\MSVC\14.29.30133\include\vector

; 781  :         } else { // provide basic guarantee

	mov	ebx, DWORD PTR tv555[ebp]
	jmp	SHORT $LN5@Emplace_re
$LN4@Emplace_re:
; File C:\Program Files\Microsoft Visual Studio\2022\Community\VC\Tools\MSVC\14.29.30133\include\xmemory

; 1703 :     auto _UFirst      = _Get_unwrapped(_First);

	mov	DWORD PTR __UFirst$6[ebp], ecx

; 1609 :         : _First(_Dest), _Last(_Dest), _Al(_Al_) {}

	mov	DWORD PTR __Backout$3[ebp], edx
	mov	DWORD PTR __Backout$3[ebp+4], edx
	mov	DWORD PTR __Backout$3[ebp+8], edi
	npad	6
$LL41@Emplace_re:

; 1717 :     for (; _UFirst != _ULast; ++_UFirst) {

	cmp	ecx, esi
	je	SHORT $LN40@Emplace_re

; 1620 :         allocator_traits<_Alloc>::construct(_Al, _Unfancy(_Last), _STD forward<_Types>(_Vals)...);

	mov	eax, DWORD PTR [ecx]
	mov	DWORD PTR [edx], eax

; 1621 :         ++_Last;

	add	edx, 4
	mov	DWORD PTR __Backout$3[ebp+4], edx

; 1717 :     for (; _UFirst != _ULast; ++_UFirst) {

	add	ecx, 4
	mov	DWORD PTR __UFirst$6[ebp], ecx
	jmp	SHORT $LL41@Emplace_re
$LN40@Emplace_re:

; 1625 :         _First = _Last;

	mov	DWORD PTR __Backout$3[ebp], edx
; File C:\Program Files\Microsoft Visual Studio\2022\Community\VC\Tools\MSVC\14.29.30133\include\vector

; 784  :             _Umove(_Whereptr, _Mylast, _Newvec + _Whereoff + 1);

	mov	ebx, DWORD PTR tv555[ebp]
	lea	ecx, DWORD PTR [ebx+4]

; 1646 :         return _Uninitialized_move(_First, _Last, _Dest, _Getal());

	mov	edx, DWORD PTR [edi+4]
; File C:\Program Files\Microsoft Visual Studio\2022\Community\VC\Tools\MSVC\14.29.30133\include\xmemory

; 1703 :     auto _UFirst      = _Get_unwrapped(_First);

	mov	DWORD PTR __UFirst$5[ebp], esi

; 1609 :         : _First(_Dest), _Last(_Dest), _Al(_Al_) {}

	mov	DWORD PTR __Backout$2[ebp], ecx
	mov	DWORD PTR __Backout$2[ebp+4], ecx
	mov	DWORD PTR __Backout$2[ebp+8], edi
	npad	2
$LL54@Emplace_re:

; 1717 :     for (; _UFirst != _ULast; ++_UFirst) {

	cmp	esi, edx
	je	SHORT $LN53@Emplace_re

; 1620 :         allocator_traits<_Alloc>::construct(_Al, _Unfancy(_Last), _STD forward<_Types>(_Vals)...);

	mov	eax, DWORD PTR [esi]
	mov	DWORD PTR [ecx], eax

; 1621 :         ++_Last;

	add	ecx, 4
	mov	DWORD PTR __Backout$2[ebp+4], ecx

; 1717 :     for (; _UFirst != _ULast; ++_UFirst) {

	add	esi, 4
	mov	DWORD PTR __UFirst$5[ebp], esi
	jmp	SHORT $LL54@Emplace_re
$LN53@Emplace_re:

; 1625 :         _First = _Last;

	mov	DWORD PTR __Backout$2[ebp], ecx
$LN5@Emplace_re:
; File C:\Program Files\Microsoft Visual Studio\2022\Community\VC\Tools\MSVC\14.29.30133\include\vector
	mov	DWORD PTR __$EHRec$[ebp+12], -1

; 1732 :         if (_Myfirst) { // destroy and deallocate old array

	mov	eax, DWORD PTR [edi]
	test	eax, eax
	je	SHORT $LN68@Emplace_re
; File I:\Vitalya\mine\NSProjectX\xrCore\xrMemory.h

; 109  : 	IC void		xr_free		(T* &P)					{	if (P) { Memory.mem_free((void*)P); P=NULL;	};	}

	push	eax
	mov	ecx, DWORD PTR __imp_?Memory@@3VxrMemory@@A
	call	DWORD PTR __imp_?mem_free@xrMemory@@QAEXPAX@Z
$LN68@Emplace_re:
; File C:\Program Files\Microsoft Visual Studio\2022\Community\VC\Tools\MSVC\14.29.30133\include\vector

; 1737 :         _Myfirst = _Newvec;

	mov	eax, DWORD PTR __Newvec$[ebp]
	mov	DWORD PTR [edi], eax

; 1738 :         _Mylast  = _Newvec + _Newsize;

	mov	ecx, DWORD PTR __Newsize$1$[ebp]
	lea	ecx, DWORD PTR [eax+ecx*4]
	mov	DWORD PTR [edi+4], ecx

; 1739 :         _Myend   = _Newvec + _Newcapacity;

	mov	ecx, DWORD PTR __Newcapacity$1$[ebp]
	lea	ecx, DWORD PTR [eax+ecx*4]
	mov	DWORD PTR [edi+8], ecx

; 790  :         _CATCH_END
; 791  : 
; 792  :         _Change_array(_Newvec, _Newsize, _Newcapacity);
; 793  :         return _Newvec + _Whereoff;

	mov	eax, ebx

; 794  :     }

	mov	ecx, DWORD PTR __$EHRec$[ebp+4]
	mov	DWORD PTR fs:0, ecx
	pop	edi
	pop	esi
	pop	ebx
	mov	esp, ebp
	pop	ebp
	ret	8
__catch$??$_Emplace_reallocate@ABQAVCPEDef@PS@@@?$vector@PAVCPEDef@PS@@V?$xalloc@PAVCPEDef@PS@@@@@std@@QAEPAPAVCPEDef@PS@@QAPAV23@ABQAV23@@Z$0:

; 785  :         }
; 786  :         _CATCH_ALL
; 787  :         _Destroy(_Constructed_first, _Constructed_last);
; 788  :         _Al.deallocate(_Newvec, _Newcapacity);

	push	ecx
	push	DWORD PTR __Newvec$[ebp]
	call	?deallocate@?$xalloc@PAVCPEDef@PS@@@@QBEXPAPAVCPEDef@PS@@I@Z ; xalloc<PS::CPEDef *>::deallocate

; 789  :         _RERAISE;

	push	0
	push	0
	call	__CxxThrowException@8
$LN83@Emplace_re:

; 765  :             _Xlength();

	call	?_Xlength@?$vector@PAVCPEDef@PS@@V?$xalloc@PAVCPEDef@PS@@@@@std@@CAXXZ ; std::vector<PS::CPEDef *,xalloc<PS::CPEDef *> >::_Xlength
$LN80@Emplace_re:
	int	3
	int	3
	int	3
	int	3
	int	3
	int	3
_TEXT	ENDS
;	COMDAT text$x
text$x	SEGMENT
__ehhandler$??$_Emplace_reallocate@ABQAVCPEDef@PS@@@?$vector@PAVCPEDef@PS@@V?$xalloc@PAVCPEDef@PS@@@@@std@@QAEPAPAVCPEDef@PS@@QAPAV23@ABQAV23@@Z:
	npad	1
	npad	1
	mov	eax, OFFSET __ehfuncinfo$??$_Emplace_reallocate@ABQAVCPEDef@PS@@@?$vector@PAVCPEDef@PS@@V?$xalloc@PAVCPEDef@PS@@@@@std@@QAEPAPAVCPEDef@PS@@QAPAV23@ABQAV23@@Z
	jmp	___CxxFrameHandler3
text$x	ENDS
??$_Emplace_reallocate@ABQAVCPEDef@PS@@@?$vector@PAVCPEDef@PS@@V?$xalloc@PAVCPEDef@PS@@@@@std@@QAEPAPAVCPEDef@PS@@QAPAV23@ABQAV23@@Z ENDP ; std::vector<PS::CPEDef *,xalloc<PS::CPEDef *> >::_Emplace_reallocate<PS::CPEDef * const &>
; Function compile flags: /Ogtpy
; File I:\Vitalya\mine\NSProjectX\xrCore\xrMemory_subst_msvc.h
; File I:\Vitalya\mine\NSProjectX\layers\xrRender\ParticleGroup.cpp
; File I:\Vitalya\mine\NSProjectX\xrCore\xrMemory_subst_msvc.h
; File C:\Program Files\Microsoft Visual Studio\2022\Community\VC\Tools\MSVC\14.29.30133\include\vector
; File I:\Vitalya\mine\NSProjectX\layers\xrRender\ParticleGroup.cpp
; File I:\Vitalya\mine\NSProjectX\xrCore\xrMemory_subst_msvc.h
; File I:\Vitalya\mine\NSProjectX\xrCore\xrstring.h
; File I:\Vitalya\mine\NSProjectX\xrCore\xrMemory_subst_msvc.h
; File C:\Program Files\Microsoft Visual Studio\2022\Community\VC\Tools\MSVC\14.29.30133\include\vector
; File I:\Vitalya\mine\NSProjectX\layers\xrRender\ParticleGroup.cpp
; File I:\Vitalya\mine\NSProjectX\xrCore\xrMemory_subst_msvc.h
; File I:\Vitalya\mine\NSProjectX\layers\xrRender\ParticleGroup.cpp
; File C:\Program Files\Microsoft Visual Studio\2022\Community\VC\Tools\MSVC\14.29.30133\include\vector
; File I:\Vitalya\mine\NSProjectX\xrCore\xrMemory.h
; File C:\Program Files\Microsoft Visual Studio\2022\Community\VC\Tools\MSVC\14.29.30133\include\vector
; File I:\Vitalya\mine\NSProjectX\xrCore\xrstring.h
; File I:\Vitalya\mine\NSProjectX\xrCore\xrMemory_subst_msvc.h
;	COMDAT ??R?$xr_special_free@$0A@VCPGDef@PS@@@@QAEXAAPAVCPGDef@PS@@@Z
_TEXT	SEGMENT
_ptr$ = 8						; size = 4
??R?$xr_special_free@$0A@VCPGDef@PS@@@@QAEXAAPAVCPGDef@PS@@@Z PROC ; xr_special_free<0,PS::CPGDef>::operator(), COMDAT
; _this$dead$ = ecx

; 142  : 	{

	push	ebx
; File I:\Vitalya\mine\NSProjectX\layers\xrRender\ParticleGroup.cpp

; 20   :     for (EffectIt it=m_Effects.begin(); it!=m_Effects.end(); it++)

	mov	ebx, DWORD PTR __imp_?mem_free@xrMemory@@QAEXPAX@Z
; File I:\Vitalya\mine\NSProjectX\xrCore\xrMemory_subst_msvc.h

; 142  : 	{

	push	ebp

; 143  : 		ptr->~T			();

	mov	ebp, DWORD PTR _ptr$[esp+4]
	push	esi
	push	edi
	mov	edi, DWORD PTR [ebp]
; File C:\Program Files\Microsoft Visual Studio\2022\Community\VC\Tools\MSVC\14.29.30133\include\vector

; 41   :     _CONSTEXPR20_CONTAINER _Vector_const_iterator(_Tptr _Parg, const _Container_base* _Pvector) noexcept : _Ptr(_Parg) {

	mov	esi, DWORD PTR [edi+12]

; 150  :         return _Ptr == _Right._Ptr;

	cmp	esi, DWORD PTR [edi+16]
; File I:\Vitalya\mine\NSProjectX\layers\xrRender\ParticleGroup.cpp

; 20   :     for (EffectIt it=m_Effects.begin(); it!=m_Effects.end(); it++)

	je	$LN8@operator
	npad	3
$LL9@operator:
; File I:\Vitalya\mine\NSProjectX\xrCore\xrMemory_subst_msvc.h

; 151  : 	if (ptr) 

	mov	eax, DWORD PTR [esi]
	test	eax, eax
	je	SHORT $LN7@operator
; File I:\Vitalya\mine\NSProjectX\xrCore\xrstring.h

; 50   : 	void				_dec		()								{	if (0==p_) return;	p_->dwReference--; 	if (0==p_->dwReference)	p_=0;						}

	mov	ecx, DWORD PTR [eax+16]
	test	ecx, ecx
	je	SHORT $LN45@operator
	dec	DWORD PTR [ecx]
	mov	ecx, DWORD PTR [eax+16]
	cmp	DWORD PTR [ecx], 0
	jne	SHORT $LN45@operator
	mov	DWORD PTR [eax+16], 0
$LN45@operator:
	mov	ecx, DWORD PTR [eax+12]
	test	ecx, ecx
	je	SHORT $LN51@operator
	dec	DWORD PTR [ecx]
	mov	ecx, DWORD PTR [eax+12]
	cmp	DWORD PTR [ecx], 0
	jne	SHORT $LN51@operator
	mov	DWORD PTR [eax+12], 0
$LN51@operator:
	mov	ecx, DWORD PTR [eax+8]
	test	ecx, ecx
	je	SHORT $LN57@operator
	dec	DWORD PTR [ecx]
	mov	ecx, DWORD PTR [eax+8]
	cmp	DWORD PTR [ecx], 0
	jne	SHORT $LN57@operator
	mov	DWORD PTR [eax+8], 0
$LN57@operator:
	mov	ecx, DWORD PTR [eax+4]
	test	ecx, ecx
	je	SHORT $LN63@operator
	dec	DWORD PTR [ecx]
	mov	ecx, DWORD PTR [eax+4]
	cmp	DWORD PTR [ecx], 0
	jne	SHORT $LN63@operator
	mov	DWORD PTR [eax+4], 0
$LN63@operator:
; File I:\Vitalya\mine\NSProjectX\xrCore\xrMemory_subst_msvc.h

; 144  : 		Memory.mem_free	(ptr);

	push	DWORD PTR [esi]
	mov	ecx, DWORD PTR __imp_?Memory@@3VxrMemory@@A
	call	ebx

; 154  : 		ptr = nullptr;

	mov	DWORD PTR [esi], 0
$LN7@operator:
; File C:\Program Files\Microsoft Visual Studio\2022\Community\VC\Tools\MSVC\14.29.30133\include\vector

; 74   :         ++_Ptr;

	add	esi, 4

; 150  :         return _Ptr == _Right._Ptr;

	cmp	esi, DWORD PTR [edi+16]
; File I:\Vitalya\mine\NSProjectX\layers\xrRender\ParticleGroup.cpp

; 20   :     for (EffectIt it=m_Effects.begin(); it!=m_Effects.end(); it++)

	jne	SHORT $LL9@operator
; File I:\Vitalya\mine\NSProjectX\xrCore\xrMemory_subst_msvc.h

; 154  : 		ptr = nullptr;

	mov	esi, DWORD PTR [edi+12]
$LN8@operator:
; File I:\Vitalya\mine\NSProjectX\layers\xrRender\ParticleGroup.cpp

; 22   :     m_Effects.clear	();

	mov	DWORD PTR [edi+16], esi
; File C:\Program Files\Microsoft Visual Studio\2022\Community\VC\Tools\MSVC\14.29.30133\include\vector

; 1750 :         if (_Myfirst) { // destroy and deallocate old array

	test	esi, esi
	je	SHORT $LN70@operator
; File I:\Vitalya\mine\NSProjectX\xrCore\xrMemory.h

; 109  : 	IC void		xr_free		(T* &P)					{	if (P) { Memory.mem_free((void*)P); P=NULL;	};	}

	mov	ecx, DWORD PTR __imp_?Memory@@3VxrMemory@@A
	push	esi
	call	ebx
; File C:\Program Files\Microsoft Visual Studio\2022\Community\VC\Tools\MSVC\14.29.30133\include\vector

; 1754 :             _Myfirst = nullptr;

	mov	DWORD PTR [edi+12], 0

; 1755 :             _Mylast  = nullptr;

	mov	DWORD PTR [edi+16], 0

; 1756 :             _Myend   = nullptr;

	mov	DWORD PTR [edi+20], 0
$LN70@operator:
; File I:\Vitalya\mine\NSProjectX\xrCore\xrstring.h

; 50   : 	void				_dec		()								{	if (0==p_) return;	p_->dwReference--; 	if (0==p_->dwReference)	p_=0;						}

	mov	eax, DWORD PTR [edi]
	test	eax, eax
	je	SHORT $LN81@operator
	dec	DWORD PTR [eax]
	mov	eax, DWORD PTR [edi]
	cmp	DWORD PTR [eax], 0
	jne	SHORT $LN81@operator
	mov	DWORD PTR [edi], 0
$LN81@operator:
; File I:\Vitalya\mine\NSProjectX\xrCore\xrMemory_subst_msvc.h

; 144  : 		Memory.mem_free	(ptr);

	push	DWORD PTR [ebp]
	mov	ecx, DWORD PTR __imp_?Memory@@3VxrMemory@@A
	call	ebx
	pop	edi
	pop	esi
	pop	ebp
	pop	ebx

; 145  : 	}

	ret	4
??R?$xr_special_free@$0A@VCPGDef@PS@@@@QAEXAAPAVCPGDef@PS@@@Z ENDP ; xr_special_free<0,PS::CPGDef>::operator()
_TEXT	ENDS
; Function compile flags: /Ogtpy
; File I:\Vitalya\mine\NSProjectX\xrCore\xrMemory_subst_msvc.h
; File I:\Vitalya\mine\NSProjectX\layers\xrRender\ParticleEffectDef.cpp
; File I:\Vitalya\mine\NSProjectX\xrCore\xr_resource.h
; File I:\Vitalya\mine\NSProjectX\xrCore\xrstring.h
; File I:\Vitalya\mine\NSProjectX\xrCore\xrMemory_subst_msvc.h
;	COMDAT ??R?$xr_special_free@$0A@VCPEDef@PS@@@@QAEXAAPAVCPEDef@PS@@@Z
_TEXT	SEGMENT
_ptr$ = 8						; size = 4
??R?$xr_special_free@$0A@VCPEDef@PS@@@@QAEXAAPAVCPEDef@PS@@@Z PROC ; xr_special_free<0,PS::CPEDef>::operator(), COMDAT
; _this$dead$ = ecx

; 142  : 	{

	push	esi
	push	edi

; 143  : 		ptr->~T			();

	mov	edi, DWORD PTR _ptr$[esp+4]
	mov	esi, DWORD PTR [edi]
; File I:\Vitalya\mine\NSProjectX\layers\xrRender\ParticleEffectDef.cpp

; 39   : }

	lea	ecx, DWORD PTR [esi+48]
	call	DWORD PTR __imp_??1CMemoryWriter@@UAE@XZ
	lea	ecx, DWORD PTR [esi+16]
; File I:\Vitalya\mine\NSProjectX\xrCore\xr_resource.h

; 64   : 						~resptr_core	()												{	_dec();						}

	call	DWORD PTR __imp_?_dec@?$resptr_base@UShader@@@@IAEXXZ
; File I:\Vitalya\mine\NSProjectX\xrCore\xrstring.h

; 50   : 	void				_dec		()								{	if (0==p_) return;	p_->dwReference--; 	if (0==p_->dwReference)	p_=0;						}

	mov	eax, DWORD PTR [esi+12]
	test	eax, eax
	je	SHORT $LN14@operator
	dec	DWORD PTR [eax]
	mov	eax, DWORD PTR [esi+12]
	cmp	DWORD PTR [eax], 0
	jne	SHORT $LN14@operator
	mov	DWORD PTR [esi+12], 0
$LN14@operator:
	mov	eax, DWORD PTR [esi+8]
	test	eax, eax
	je	SHORT $LN20@operator
	dec	DWORD PTR [eax]
	mov	eax, DWORD PTR [esi+8]
	cmp	DWORD PTR [eax], 0
	jne	SHORT $LN20@operator
	mov	DWORD PTR [esi+8], 0
$LN20@operator:
	mov	eax, DWORD PTR [esi]
	test	eax, eax
	je	SHORT $LN26@operator
	dec	DWORD PTR [eax]
	mov	eax, DWORD PTR [esi]
	cmp	DWORD PTR [eax], 0
	jne	SHORT $LN26@operator
	mov	DWORD PTR [esi], 0
$LN26@operator:
; File I:\Vitalya\mine\NSProjectX\xrCore\xrMemory_subst_msvc.h

; 144  : 		Memory.mem_free	(ptr);

	push	DWORD PTR [edi]
	mov	ecx, DWORD PTR __imp_?Memory@@3VxrMemory@@A
	call	DWORD PTR __imp_?mem_free@xrMemory@@QAEXPAX@Z
	pop	edi
	pop	esi

; 145  : 	}

	ret	4
??R?$xr_special_free@$0A@VCPEDef@PS@@@@QAEXAAPAVCPEDef@PS@@@Z ENDP ; xr_special_free<0,PS::CPEDef>::operator()
_TEXT	ENDS
; Function compile flags: /Ogtpy
; File C:\Program Files\Microsoft Visual Studio\2022\Community\VC\Tools\MSVC\14.29.30133\include\vector
;	COMDAT ?_Unwrapped@?$_Vector_iterator@V?$_Vector_val@U?$_Simple_types@PAVCPGDef@PS@@@std@@@std@@@std@@QBEPAPAVCPGDef@PS@@XZ
_TEXT	SEGMENT
?_Unwrapped@?$_Vector_iterator@V?$_Vector_val@U?$_Simple_types@PAVCPGDef@PS@@@std@@@std@@@std@@QBEPAPAVCPGDef@PS@@XZ PROC ; std::_Vector_iterator<std::_Vector_val<std::_Simple_types<PS::CPGDef *> > >::_Unwrapped, COMDAT
; _this$ = ecx

; 328  :         return _Unfancy(this->_Ptr);

	mov	eax, DWORD PTR [ecx]

; 329  :     }

	ret	0
?_Unwrapped@?$_Vector_iterator@V?$_Vector_val@U?$_Simple_types@PAVCPGDef@PS@@@std@@@std@@@std@@QBEPAPAVCPGDef@PS@@XZ ENDP ; std::_Vector_iterator<std::_Vector_val<std::_Simple_types<PS::CPGDef *> > >::_Unwrapped
_TEXT	ENDS
; Function compile flags: /Ogtpy
; File C:\Program Files\Microsoft Visual Studio\2022\Community\VC\Tools\MSVC\14.29.30133\include\vector
;	COMDAT ?_Unwrapped@?$_Vector_iterator@V?$_Vector_val@U?$_Simple_types@PAVCPEDef@PS@@@std@@@std@@@std@@QBEPAPAVCPEDef@PS@@XZ
_TEXT	SEGMENT
?_Unwrapped@?$_Vector_iterator@V?$_Vector_val@U?$_Simple_types@PAVCPEDef@PS@@@std@@@std@@@std@@QBEPAPAVCPEDef@PS@@XZ PROC ; std::_Vector_iterator<std::_Vector_val<std::_Simple_types<PS::CPEDef *> > >::_Unwrapped, COMDAT
; _this$ = ecx

; 328  :         return _Unfancy(this->_Ptr);

	mov	eax, DWORD PTR [ecx]

; 329  :     }

	ret	0
?_Unwrapped@?$_Vector_iterator@V?$_Vector_val@U?$_Simple_types@PAVCPEDef@PS@@@std@@@std@@@std@@QBEPAPAVCPEDef@PS@@XZ ENDP ; std::_Vector_iterator<std::_Vector_val<std::_Simple_types<PS::CPEDef *> > >::_Unwrapped
_TEXT	ENDS
; Function compile flags: /Ogtpy
; File C:\Program Files\Microsoft Visual Studio\2022\Community\VC\Tools\MSVC\14.29.30133\include\vector
;	COMDAT ?_Xlength@?$vector@PAVCPGDef@PS@@V?$xalloc@PAVCPGDef@PS@@@@@std@@CAXXZ
_TEXT	SEGMENT
?_Xlength@?$vector@PAVCPGDef@PS@@V?$xalloc@PAVCPGDef@PS@@@@@std@@CAXXZ PROC ; std::vector<PS::CPGDef *,xalloc<PS::CPGDef *> >::_Xlength, COMDAT

; 1761 :         _Xlength_error("vector too long");

	push	OFFSET ??_C@_0BA@FOIKENOD@vector?5too?5long@
	call	DWORD PTR __imp_?_Xlength_error@std@@YAXPBD@Z
$LN3@Xlength:
	int	3
?_Xlength@?$vector@PAVCPGDef@PS@@V?$xalloc@PAVCPGDef@PS@@@@@std@@CAXXZ ENDP ; std::vector<PS::CPGDef *,xalloc<PS::CPGDef *> >::_Xlength
_TEXT	ENDS
; Function compile flags: /Ogtpy
; File C:\Program Files\Microsoft Visual Studio\2022\Community\VC\Tools\MSVC\14.29.30133\include\vector
; File I:\Vitalya\mine\NSProjectX\xrCore\xrMemory.h
; File C:\Program Files\Microsoft Visual Studio\2022\Community\VC\Tools\MSVC\14.29.30133\include\vector
;	COMDAT ?_Change_array@?$vector@PAVCPGDef@PS@@V?$xalloc@PAVCPGDef@PS@@@@@std@@AAEXQAPAVCPGDef@PS@@II@Z
_TEXT	SEGMENT
__Newvec$ = 8						; size = 4
__Newsize$ = 12						; size = 4
__Newcapacity$ = 16					; size = 4
?_Change_array@?$vector@PAVCPGDef@PS@@V?$xalloc@PAVCPGDef@PS@@@@@std@@AAEXQAPAVCPGDef@PS@@II@Z PROC ; std::vector<PS::CPGDef *,xalloc<PS::CPGDef *> >::_Change_array, COMDAT
; _this$ = ecx

; 1723 :         const pointer _Newvec, const size_type _Newsize, const size_type _Newcapacity) {

	push	esi
	mov	esi, ecx

; 1724 :         // orphan all iterators, discard old array, acquire new array
; 1725 :         auto& _My_data    = _Mypair._Myval2;
; 1726 :         pointer& _Myfirst = _My_data._Myfirst;
; 1727 :         pointer& _Mylast  = _My_data._Mylast;
; 1728 :         pointer& _Myend   = _My_data._Myend;
; 1729 : 
; 1730 :         _My_data._Orphan_all();
; 1731 : 
; 1732 :         if (_Myfirst) { // destroy and deallocate old array

	mov	eax, DWORD PTR [esi]
	test	eax, eax
	je	SHORT $LN7@Change_arr
; File I:\Vitalya\mine\NSProjectX\xrCore\xrMemory.h

; 109  : 	IC void		xr_free		(T* &P)					{	if (P) { Memory.mem_free((void*)P); P=NULL;	};	}

	mov	ecx, DWORD PTR __imp_?Memory@@3VxrMemory@@A
	push	eax
	call	DWORD PTR __imp_?mem_free@xrMemory@@QAEXPAX@Z
$LN7@Change_arr:
; File C:\Program Files\Microsoft Visual Studio\2022\Community\VC\Tools\MSVC\14.29.30133\include\vector

; 1737 :         _Myfirst = _Newvec;

	mov	ecx, DWORD PTR __Newvec$[esp]

; 1738 :         _Mylast  = _Newvec + _Newsize;

	mov	eax, DWORD PTR __Newsize$[esp]
	mov	DWORD PTR [esi], ecx
	lea	eax, DWORD PTR [ecx+eax*4]
	mov	DWORD PTR [esi+4], eax

; 1739 :         _Myend   = _Newvec + _Newcapacity;

	mov	eax, DWORD PTR __Newcapacity$[esp]
	lea	eax, DWORD PTR [ecx+eax*4]
	mov	DWORD PTR [esi+8], eax
	pop	esi

; 1740 :     }

	ret	12					; 0000000cH
?_Change_array@?$vector@PAVCPGDef@PS@@V?$xalloc@PAVCPGDef@PS@@@@@std@@AAEXQAPAVCPGDef@PS@@II@Z ENDP ; std::vector<PS::CPGDef *,xalloc<PS::CPGDef *> >::_Change_array
_TEXT	ENDS
; Function compile flags: /Ogtpy
; File C:\Program Files\Microsoft Visual Studio\2022\Community\VC\Tools\MSVC\14.29.30133\include\vector
;	COMDAT ?_Calculate_growth@?$vector@PAVCPGDef@PS@@V?$xalloc@PAVCPGDef@PS@@@@@std@@ABEII@Z
_TEXT	SEGMENT
__Newsize$ = 8						; size = 4
?_Calculate_growth@?$vector@PAVCPGDef@PS@@V?$xalloc@PAVCPGDef@PS@@@@@std@@ABEII@Z PROC ; std::vector<PS::CPGDef *,xalloc<PS::CPGDef *> >::_Calculate_growth, COMDAT
; _this$ = ecx

; 1546 :         return static_cast<size_type>(_My_data._Myend - _My_data._Myfirst);

	mov	edx, DWORD PTR [ecx+8]
	sub	edx, DWORD PTR [ecx]

; 1671 :         // given _Oldcapacity and _Newsize, calculate geometric growth
; 1672 :         const size_type _Oldcapacity = capacity();
; 1673 :         const auto _Max              = max_size();
; 1674 : 
; 1675 :         if (_Oldcapacity > _Max - _Oldcapacity / 2) {

	mov	ecx, 1073741823				; 3fffffffH

; 1546 :         return static_cast<size_type>(_My_data._Myend - _My_data._Myfirst);

	sar	edx, 2

; 1670 :     _CONSTEXPR20_CONTAINER size_type _Calculate_growth(const size_type _Newsize) const {

	push	esi

; 1671 :         // given _Oldcapacity and _Newsize, calculate geometric growth
; 1672 :         const size_type _Oldcapacity = capacity();
; 1673 :         const auto _Max              = max_size();
; 1674 : 
; 1675 :         if (_Oldcapacity > _Max - _Oldcapacity / 2) {

	mov	esi, edx
	shr	esi, 1
	sub	ecx, esi
	cmp	edx, ecx
	jbe	SHORT $LN2@Calculate_

; 1676 :             return _Max; // geometric growth would overflow

	mov	eax, 1073741823				; 3fffffffH
	pop	esi

; 1682 :             return _Newsize; // geometric growth would be insufficient
; 1683 :         }
; 1684 : 
; 1685 :         return _Geometric; // geometric growth is sufficient
; 1686 :     }

	ret	4
$LN2@Calculate_:

; 1677 :         }
; 1678 : 
; 1679 :         const size_type _Geometric = _Oldcapacity + _Oldcapacity / 2;

	lea	eax, DWORD PTR [esi+edx]

; 1680 : 
; 1681 :         if (_Geometric < _Newsize) {

	cmp	eax, DWORD PTR __Newsize$[esp]
	pop	esi
	cmovb	eax, DWORD PTR __Newsize$[esp-4]

; 1682 :             return _Newsize; // geometric growth would be insufficient
; 1683 :         }
; 1684 : 
; 1685 :         return _Geometric; // geometric growth is sufficient
; 1686 :     }

	ret	4
?_Calculate_growth@?$vector@PAVCPGDef@PS@@V?$xalloc@PAVCPGDef@PS@@@@@std@@ABEII@Z ENDP ; std::vector<PS::CPGDef *,xalloc<PS::CPGDef *> >::_Calculate_growth
_TEXT	ENDS
; Function compile flags: /Ogtpy
; File C:\Program Files\Microsoft Visual Studio\2022\Community\VC\Tools\MSVC\14.29.30133\include\vector
; File C:\Program Files\Microsoft Visual Studio\2022\Community\VC\Tools\MSVC\14.29.30133\include\xmemory
; File C:\Program Files\Microsoft Visual Studio\2022\Community\VC\Tools\MSVC\14.29.30133\include\vector
; File C:\Program Files\Microsoft Visual Studio\2022\Community\VC\Tools\MSVC\14.29.30133\include\xmemory
; File C:\Program Files\Microsoft Visual Studio\2022\Community\VC\Tools\MSVC\14.29.30133\include\vector
;	COMDAT ?_Umove_if_noexcept@?$vector@PAVCPGDef@PS@@V?$xalloc@PAVCPGDef@PS@@@@@std@@AAEXPAPAVCPGDef@PS@@00@Z
_TEXT	SEGMENT
__First$ = 8						; size = 4
__Last$ = 12						; size = 4
__Dest$ = 16						; size = 4
?_Umove_if_noexcept@?$vector@PAVCPGDef@PS@@V?$xalloc@PAVCPGDef@PS@@@@@std@@AAEXPAPAVCPGDef@PS@@00@Z PROC ; std::vector<PS::CPGDef *,xalloc<PS::CPGDef *> >::_Umove_if_noexcept, COMDAT
; _this$dead$ = ecx
; File C:\Program Files\Microsoft Visual Studio\2022\Community\VC\Tools\MSVC\14.29.30133\include\xmemory

; 1703 :     auto _UFirst      = _Get_unwrapped(_First);

	mov	eax, DWORD PTR __First$[esp-4]
; File C:\Program Files\Microsoft Visual Studio\2022\Community\VC\Tools\MSVC\14.29.30133\include\vector

; 1659 :     _CONSTEXPR20_CONTAINER void _Umove_if_noexcept(pointer _First, pointer _Last, pointer _Dest) {

	push	esi
; File C:\Program Files\Microsoft Visual Studio\2022\Community\VC\Tools\MSVC\14.29.30133\include\xmemory

; 1717 :     for (; _UFirst != _ULast; ++_UFirst) {

	mov	esi, DWORD PTR __Last$[esp]
	cmp	eax, esi
	je	SHORT $LN7@Umove_if_n

; 1609 :         : _First(_Dest), _Last(_Dest), _Al(_Al_) {}

	mov	edx, DWORD PTR __Dest$[esp]
	sub	edx, eax
$LL8@Umove_if_n:

; 1620 :         allocator_traits<_Alloc>::construct(_Al, _Unfancy(_Last), _STD forward<_Types>(_Vals)...);

	mov	ecx, DWORD PTR [eax]
	mov	DWORD PTR [edx+eax], ecx

; 1717 :     for (; _UFirst != _ULast; ++_UFirst) {

	add	eax, 4
	cmp	eax, esi
	jne	SHORT $LL8@Umove_if_n
$LN7@Umove_if_n:
	pop	esi
; File C:\Program Files\Microsoft Visual Studio\2022\Community\VC\Tools\MSVC\14.29.30133\include\vector

; 1663 :     }

	ret	12					; 0000000cH
?_Umove_if_noexcept@?$vector@PAVCPGDef@PS@@V?$xalloc@PAVCPGDef@PS@@@@@std@@AAEXPAPAVCPGDef@PS@@00@Z ENDP ; std::vector<PS::CPGDef *,xalloc<PS::CPGDef *> >::_Umove_if_noexcept
_TEXT	ENDS
; Function compile flags: /Ogtpy
; File C:\Program Files\Microsoft Visual Studio\2022\Community\VC\Tools\MSVC\14.29.30133\include\vector
; File C:\Program Files\Microsoft Visual Studio\2022\Community\VC\Tools\MSVC\14.29.30133\include\xmemory
; File C:\Program Files\Microsoft Visual Studio\2022\Community\VC\Tools\MSVC\14.29.30133\include\vector
; File C:\Program Files\Microsoft Visual Studio\2022\Community\VC\Tools\MSVC\14.29.30133\include\xmemory
; File C:\Program Files\Microsoft Visual Studio\2022\Community\VC\Tools\MSVC\14.29.30133\include\vector
;	COMDAT ?_Umove@?$vector@PAVCPGDef@PS@@V?$xalloc@PAVCPGDef@PS@@@@@std@@AAEPAPAVCPGDef@PS@@PAPAV34@00@Z
_TEXT	SEGMENT
__First$ = 8						; size = 4
__Last$ = 12						; size = 4
__Dest$ = 16						; size = 4
?_Umove@?$vector@PAVCPGDef@PS@@V?$xalloc@PAVCPGDef@PS@@@@@std@@AAEPAPAVCPGDef@PS@@PAPAV34@00@Z PROC ; std::vector<PS::CPGDef *,xalloc<PS::CPGDef *> >::_Umove, COMDAT
; _this$dead$ = ecx
; File C:\Program Files\Microsoft Visual Studio\2022\Community\VC\Tools\MSVC\14.29.30133\include\xmemory

; 1717 :     for (; _UFirst != _ULast; ++_UFirst) {

	mov	ecx, DWORD PTR __First$[esp-4]

; 1609 :         : _First(_Dest), _Last(_Dest), _Al(_Al_) {}

	mov	eax, DWORD PTR __Dest$[esp-4]
; File C:\Program Files\Microsoft Visual Studio\2022\Community\VC\Tools\MSVC\14.29.30133\include\vector

; 1644 :     _CONSTEXPR20_CONTAINER pointer _Umove(pointer _First, pointer _Last, pointer _Dest) {

	push	esi
; File C:\Program Files\Microsoft Visual Studio\2022\Community\VC\Tools\MSVC\14.29.30133\include\xmemory

; 1717 :     for (; _UFirst != _ULast; ++_UFirst) {

	mov	esi, DWORD PTR __Last$[esp]
	cmp	ecx, esi
	je	SHORT $LN5@Umove
$LL6@Umove:

; 1620 :         allocator_traits<_Alloc>::construct(_Al, _Unfancy(_Last), _STD forward<_Types>(_Vals)...);

	mov	edx, DWORD PTR [ecx]

; 1621 :         ++_Last;

	add	ecx, 4
	mov	DWORD PTR [eax], edx
	add	eax, 4

; 1717 :     for (; _UFirst != _ULast; ++_UFirst) {

	cmp	ecx, esi
	jne	SHORT $LL6@Umove
$LN5@Umove:
	pop	esi
; File C:\Program Files\Microsoft Visual Studio\2022\Community\VC\Tools\MSVC\14.29.30133\include\vector

; 1647 :     }

	ret	12					; 0000000cH
?_Umove@?$vector@PAVCPGDef@PS@@V?$xalloc@PAVCPGDef@PS@@@@@std@@AAEPAPAVCPGDef@PS@@PAPAV34@00@Z ENDP ; std::vector<PS::CPGDef *,xalloc<PS::CPGDef *> >::_Umove
_TEXT	ENDS
; Function compile flags: /Ogtpy
; File C:\Program Files\Microsoft Visual Studio\2022\Community\VC\Tools\MSVC\14.29.30133\include\vector
;	COMDAT ?max_size@?$vector@PAVCPGDef@PS@@V?$xalloc@PAVCPGDef@PS@@@@@std@@QBEIXZ
_TEXT	SEGMENT
?max_size@?$vector@PAVCPGDef@PS@@V?$xalloc@PAVCPGDef@PS@@@@@std@@QBEIXZ PROC ; std::vector<PS::CPGDef *,xalloc<PS::CPGDef *> >::max_size, COMDAT
; _this$dead$ = ecx

; 1540 :         return (_STD min)(

	mov	eax, 1073741823				; 3fffffffH

; 1541 :             static_cast<size_type>((numeric_limits<difference_type>::max)()), _Alty_traits::max_size(_Getal()));
; 1542 :     }

	ret	0
?max_size@?$vector@PAVCPGDef@PS@@V?$xalloc@PAVCPGDef@PS@@@@@std@@QBEIXZ ENDP ; std::vector<PS::CPGDef *,xalloc<PS::CPGDef *> >::max_size
_TEXT	ENDS
; Function compile flags: /Ogtpy
; File I:\Vitalya\mine\NSProjectX\xrCore\_stl_extensions.h
;	COMDAT ?construct@?$xalloc@PAVCPGDef@PS@@@@QAEXPAPAVCPGDef@PS@@ABQAV23@@Z
_TEXT	SEGMENT
_p$ = 8							; size = 4
__Val$ = 12						; size = 4
?construct@?$xalloc@PAVCPGDef@PS@@@@QAEXPAPAVCPGDef@PS@@ABQAV23@@Z PROC ; xalloc<PS::CPGDef *>::construct, COMDAT
; _this$dead$ = ecx

; 84   : 							void					construct		(pointer p, const T& _Val)				{	::new((void*)p) value_type (_Val); }

	mov	eax, DWORD PTR __Val$[esp-4]
	mov	ecx, DWORD PTR [eax]
	mov	eax, DWORD PTR _p$[esp-4]
	mov	DWORD PTR [eax], ecx
	ret	8
?construct@?$xalloc@PAVCPGDef@PS@@@@QAEXPAPAVCPGDef@PS@@ABQAV23@@Z ENDP ; xalloc<PS::CPGDef *>::construct
_TEXT	ENDS
; Function compile flags: /Ogtpy
; File I:\Vitalya\mine\NSProjectX\xrCore\_stl_extensions.h
; File I:\Vitalya\mine\NSProjectX\xrCore\xrMemory.h
; File I:\Vitalya\mine\NSProjectX\xrCore\_stl_extensions.h
;	COMDAT ?allocate@?$xalloc@PAVCPGDef@PS@@@@QBEPAPAVCPGDef@PS@@IPBX@Z
_TEXT	SEGMENT
_n$ = 8							; size = 4
_p$dead$ = 12						; size = 4
?allocate@?$xalloc@PAVCPGDef@PS@@@@QBEPAPAVCPGDef@PS@@IPBX@Z PROC ; xalloc<PS::CPGDef *>::allocate, COMDAT
; _this$dead$ = ecx
; File I:\Vitalya\mine\NSProjectX\xrCore\xrMemory.h

; 107  : 	IC T*		xr_alloc	(u32 count)				{	return  (T*)Memory.mem_alloc(count*sizeof(T));	}

	mov	eax, DWORD PTR _n$[esp-4]
	mov	ecx, DWORD PTR __imp_?Memory@@3VxrMemory@@A
	shl	eax, 2
	push	eax
	call	DWORD PTR __imp_?mem_alloc@xrMemory@@QAEPAXI@Z
; File I:\Vitalya\mine\NSProjectX\xrCore\_stl_extensions.h

; 80   : 							pointer					allocate		(size_type n, const void* p=0) const	{	return xr_alloc<T>((u32)n);	}

	ret	8
?allocate@?$xalloc@PAVCPGDef@PS@@@@QBEPAPAVCPGDef@PS@@IPBX@Z ENDP ; xalloc<PS::CPGDef *>::allocate
_TEXT	ENDS
; Function compile flags: /Ogtpy
; File C:\Program Files\Microsoft Visual Studio\2022\Community\VC\Tools\MSVC\14.29.30133\include\vector
;	COMDAT ?_Xlength@?$vector@PAVCPEDef@PS@@V?$xalloc@PAVCPEDef@PS@@@@@std@@CAXXZ
_TEXT	SEGMENT
?_Xlength@?$vector@PAVCPEDef@PS@@V?$xalloc@PAVCPEDef@PS@@@@@std@@CAXXZ PROC ; std::vector<PS::CPEDef *,xalloc<PS::CPEDef *> >::_Xlength, COMDAT

; 1761 :         _Xlength_error("vector too long");

	push	OFFSET ??_C@_0BA@FOIKENOD@vector?5too?5long@
	call	DWORD PTR __imp_?_Xlength_error@std@@YAXPBD@Z
$LN3@Xlength:
	int	3
?_Xlength@?$vector@PAVCPEDef@PS@@V?$xalloc@PAVCPEDef@PS@@@@@std@@CAXXZ ENDP ; std::vector<PS::CPEDef *,xalloc<PS::CPEDef *> >::_Xlength
_TEXT	ENDS
; Function compile flags: /Ogtpy
; File C:\Program Files\Microsoft Visual Studio\2022\Community\VC\Tools\MSVC\14.29.30133\include\vector
; File I:\Vitalya\mine\NSProjectX\xrCore\xrMemory.h
; File C:\Program Files\Microsoft Visual Studio\2022\Community\VC\Tools\MSVC\14.29.30133\include\vector
;	COMDAT ?_Change_array@?$vector@PAVCPEDef@PS@@V?$xalloc@PAVCPEDef@PS@@@@@std@@AAEXQAPAVCPEDef@PS@@II@Z
_TEXT	SEGMENT
__Newvec$ = 8						; size = 4
__Newsize$ = 12						; size = 4
__Newcapacity$ = 16					; size = 4
?_Change_array@?$vector@PAVCPEDef@PS@@V?$xalloc@PAVCPEDef@PS@@@@@std@@AAEXQAPAVCPEDef@PS@@II@Z PROC ; std::vector<PS::CPEDef *,xalloc<PS::CPEDef *> >::_Change_array, COMDAT
; _this$ = ecx

; 1723 :         const pointer _Newvec, const size_type _Newsize, const size_type _Newcapacity) {

	push	esi
	mov	esi, ecx

; 1724 :         // orphan all iterators, discard old array, acquire new array
; 1725 :         auto& _My_data    = _Mypair._Myval2;
; 1726 :         pointer& _Myfirst = _My_data._Myfirst;
; 1727 :         pointer& _Mylast  = _My_data._Mylast;
; 1728 :         pointer& _Myend   = _My_data._Myend;
; 1729 : 
; 1730 :         _My_data._Orphan_all();
; 1731 : 
; 1732 :         if (_Myfirst) { // destroy and deallocate old array

	mov	eax, DWORD PTR [esi]
	test	eax, eax
	je	SHORT $LN7@Change_arr
; File I:\Vitalya\mine\NSProjectX\xrCore\xrMemory.h

; 109  : 	IC void		xr_free		(T* &P)					{	if (P) { Memory.mem_free((void*)P); P=NULL;	};	}

	mov	ecx, DWORD PTR __imp_?Memory@@3VxrMemory@@A
	push	eax
	call	DWORD PTR __imp_?mem_free@xrMemory@@QAEXPAX@Z
$LN7@Change_arr:
; File C:\Program Files\Microsoft Visual Studio\2022\Community\VC\Tools\MSVC\14.29.30133\include\vector

; 1737 :         _Myfirst = _Newvec;

	mov	ecx, DWORD PTR __Newvec$[esp]

; 1738 :         _Mylast  = _Newvec + _Newsize;

	mov	eax, DWORD PTR __Newsize$[esp]
	mov	DWORD PTR [esi], ecx
	lea	eax, DWORD PTR [ecx+eax*4]
	mov	DWORD PTR [esi+4], eax

; 1739 :         _Myend   = _Newvec + _Newcapacity;

	mov	eax, DWORD PTR __Newcapacity$[esp]
	lea	eax, DWORD PTR [ecx+eax*4]
	mov	DWORD PTR [esi+8], eax
	pop	esi

; 1740 :     }

	ret	12					; 0000000cH
?_Change_array@?$vector@PAVCPEDef@PS@@V?$xalloc@PAVCPEDef@PS@@@@@std@@AAEXQAPAVCPEDef@PS@@II@Z ENDP ; std::vector<PS::CPEDef *,xalloc<PS::CPEDef *> >::_Change_array
_TEXT	ENDS
; Function compile flags: /Ogtpy
; File C:\Program Files\Microsoft Visual Studio\2022\Community\VC\Tools\MSVC\14.29.30133\include\vector
;	COMDAT ?_Calculate_growth@?$vector@PAVCPEDef@PS@@V?$xalloc@PAVCPEDef@PS@@@@@std@@ABEII@Z
_TEXT	SEGMENT
__Newsize$ = 8						; size = 4
?_Calculate_growth@?$vector@PAVCPEDef@PS@@V?$xalloc@PAVCPEDef@PS@@@@@std@@ABEII@Z PROC ; std::vector<PS::CPEDef *,xalloc<PS::CPEDef *> >::_Calculate_growth, COMDAT
; _this$ = ecx

; 1546 :         return static_cast<size_type>(_My_data._Myend - _My_data._Myfirst);

	mov	edx, DWORD PTR [ecx+8]
	sub	edx, DWORD PTR [ecx]

; 1671 :         // given _Oldcapacity and _Newsize, calculate geometric growth
; 1672 :         const size_type _Oldcapacity = capacity();
; 1673 :         const auto _Max              = max_size();
; 1674 : 
; 1675 :         if (_Oldcapacity > _Max - _Oldcapacity / 2) {

	mov	ecx, 1073741823				; 3fffffffH

; 1546 :         return static_cast<size_type>(_My_data._Myend - _My_data._Myfirst);

	sar	edx, 2

; 1670 :     _CONSTEXPR20_CONTAINER size_type _Calculate_growth(const size_type _Newsize) const {

	push	esi

; 1671 :         // given _Oldcapacity and _Newsize, calculate geometric growth
; 1672 :         const size_type _Oldcapacity = capacity();
; 1673 :         const auto _Max              = max_size();
; 1674 : 
; 1675 :         if (_Oldcapacity > _Max - _Oldcapacity / 2) {

	mov	esi, edx
	shr	esi, 1
	sub	ecx, esi
	cmp	edx, ecx
	jbe	SHORT $LN2@Calculate_

; 1676 :             return _Max; // geometric growth would overflow

	mov	eax, 1073741823				; 3fffffffH
	pop	esi

; 1682 :             return _Newsize; // geometric growth would be insufficient
; 1683 :         }
; 1684 : 
; 1685 :         return _Geometric; // geometric growth is sufficient
; 1686 :     }

	ret	4
$LN2@Calculate_:

; 1677 :         }
; 1678 : 
; 1679 :         const size_type _Geometric = _Oldcapacity + _Oldcapacity / 2;

	lea	eax, DWORD PTR [esi+edx]

; 1680 : 
; 1681 :         if (_Geometric < _Newsize) {

	cmp	eax, DWORD PTR __Newsize$[esp]
	pop	esi
	cmovb	eax, DWORD PTR __Newsize$[esp-4]

; 1682 :             return _Newsize; // geometric growth would be insufficient
; 1683 :         }
; 1684 : 
; 1685 :         return _Geometric; // geometric growth is sufficient
; 1686 :     }

	ret	4
?_Calculate_growth@?$vector@PAVCPEDef@PS@@V?$xalloc@PAVCPEDef@PS@@@@@std@@ABEII@Z ENDP ; std::vector<PS::CPEDef *,xalloc<PS::CPEDef *> >::_Calculate_growth
_TEXT	ENDS
; Function compile flags: /Ogtpy
; File C:\Program Files\Microsoft Visual Studio\2022\Community\VC\Tools\MSVC\14.29.30133\include\vector
; File C:\Program Files\Microsoft Visual Studio\2022\Community\VC\Tools\MSVC\14.29.30133\include\xmemory
; File C:\Program Files\Microsoft Visual Studio\2022\Community\VC\Tools\MSVC\14.29.30133\include\vector
; File C:\Program Files\Microsoft Visual Studio\2022\Community\VC\Tools\MSVC\14.29.30133\include\xmemory
; File C:\Program Files\Microsoft Visual Studio\2022\Community\VC\Tools\MSVC\14.29.30133\include\vector
;	COMDAT ?_Umove_if_noexcept@?$vector@PAVCPEDef@PS@@V?$xalloc@PAVCPEDef@PS@@@@@std@@AAEXPAPAVCPEDef@PS@@00@Z
_TEXT	SEGMENT
__First$ = 8						; size = 4
__Last$ = 12						; size = 4
__Dest$ = 16						; size = 4
?_Umove_if_noexcept@?$vector@PAVCPEDef@PS@@V?$xalloc@PAVCPEDef@PS@@@@@std@@AAEXPAPAVCPEDef@PS@@00@Z PROC ; std::vector<PS::CPEDef *,xalloc<PS::CPEDef *> >::_Umove_if_noexcept, COMDAT
; _this$dead$ = ecx
; File C:\Program Files\Microsoft Visual Studio\2022\Community\VC\Tools\MSVC\14.29.30133\include\xmemory

; 1703 :     auto _UFirst      = _Get_unwrapped(_First);

	mov	eax, DWORD PTR __First$[esp-4]
; File C:\Program Files\Microsoft Visual Studio\2022\Community\VC\Tools\MSVC\14.29.30133\include\vector

; 1659 :     _CONSTEXPR20_CONTAINER void _Umove_if_noexcept(pointer _First, pointer _Last, pointer _Dest) {

	push	esi
; File C:\Program Files\Microsoft Visual Studio\2022\Community\VC\Tools\MSVC\14.29.30133\include\xmemory

; 1717 :     for (; _UFirst != _ULast; ++_UFirst) {

	mov	esi, DWORD PTR __Last$[esp]
	cmp	eax, esi
	je	SHORT $LN7@Umove_if_n

; 1609 :         : _First(_Dest), _Last(_Dest), _Al(_Al_) {}

	mov	edx, DWORD PTR __Dest$[esp]
	sub	edx, eax
$LL8@Umove_if_n:

; 1620 :         allocator_traits<_Alloc>::construct(_Al, _Unfancy(_Last), _STD forward<_Types>(_Vals)...);

	mov	ecx, DWORD PTR [eax]
	mov	DWORD PTR [edx+eax], ecx

; 1717 :     for (; _UFirst != _ULast; ++_UFirst) {

	add	eax, 4
	cmp	eax, esi
	jne	SHORT $LL8@Umove_if_n
$LN7@Umove_if_n:
	pop	esi
; File C:\Program Files\Microsoft Visual Studio\2022\Community\VC\Tools\MSVC\14.29.30133\include\vector

; 1663 :     }

	ret	12					; 0000000cH
?_Umove_if_noexcept@?$vector@PAVCPEDef@PS@@V?$xalloc@PAVCPEDef@PS@@@@@std@@AAEXPAPAVCPEDef@PS@@00@Z ENDP ; std::vector<PS::CPEDef *,xalloc<PS::CPEDef *> >::_Umove_if_noexcept
_TEXT	ENDS
; Function compile flags: /Ogtpy
; File C:\Program Files\Microsoft Visual Studio\2022\Community\VC\Tools\MSVC\14.29.30133\include\vector
; File C:\Program Files\Microsoft Visual Studio\2022\Community\VC\Tools\MSVC\14.29.30133\include\xmemory
; File C:\Program Files\Microsoft Visual Studio\2022\Community\VC\Tools\MSVC\14.29.30133\include\vector
; File C:\Program Files\Microsoft Visual Studio\2022\Community\VC\Tools\MSVC\14.29.30133\include\xmemory
; File C:\Program Files\Microsoft Visual Studio\2022\Community\VC\Tools\MSVC\14.29.30133\include\vector
;	COMDAT ?_Umove@?$vector@PAVCPEDef@PS@@V?$xalloc@PAVCPEDef@PS@@@@@std@@AAEPAPAVCPEDef@PS@@PAPAV34@00@Z
_TEXT	SEGMENT
__First$ = 8						; size = 4
__Last$ = 12						; size = 4
__Dest$ = 16						; size = 4
?_Umove@?$vector@PAVCPEDef@PS@@V?$xalloc@PAVCPEDef@PS@@@@@std@@AAEPAPAVCPEDef@PS@@PAPAV34@00@Z PROC ; std::vector<PS::CPEDef *,xalloc<PS::CPEDef *> >::_Umove, COMDAT
; _this$dead$ = ecx
; File C:\Program Files\Microsoft Visual Studio\2022\Community\VC\Tools\MSVC\14.29.30133\include\xmemory

; 1717 :     for (; _UFirst != _ULast; ++_UFirst) {

	mov	ecx, DWORD PTR __First$[esp-4]

; 1609 :         : _First(_Dest), _Last(_Dest), _Al(_Al_) {}

	mov	eax, DWORD PTR __Dest$[esp-4]
; File C:\Program Files\Microsoft Visual Studio\2022\Community\VC\Tools\MSVC\14.29.30133\include\vector

; 1644 :     _CONSTEXPR20_CONTAINER pointer _Umove(pointer _First, pointer _Last, pointer _Dest) {

	push	esi
; File C:\Program Files\Microsoft Visual Studio\2022\Community\VC\Tools\MSVC\14.29.30133\include\xmemory

; 1717 :     for (; _UFirst != _ULast; ++_UFirst) {

	mov	esi, DWORD PTR __Last$[esp]
	cmp	ecx, esi
	je	SHORT $LN5@Umove
$LL6@Umove:

; 1620 :         allocator_traits<_Alloc>::construct(_Al, _Unfancy(_Last), _STD forward<_Types>(_Vals)...);

	mov	edx, DWORD PTR [ecx]

; 1621 :         ++_Last;

	add	ecx, 4
	mov	DWORD PTR [eax], edx
	add	eax, 4

; 1717 :     for (; _UFirst != _ULast; ++_UFirst) {

	cmp	ecx, esi
	jne	SHORT $LL6@Umove
$LN5@Umove:
	pop	esi
; File C:\Program Files\Microsoft Visual Studio\2022\Community\VC\Tools\MSVC\14.29.30133\include\vector

; 1647 :     }

	ret	12					; 0000000cH
?_Umove@?$vector@PAVCPEDef@PS@@V?$xalloc@PAVCPEDef@PS@@@@@std@@AAEPAPAVCPEDef@PS@@PAPAV34@00@Z ENDP ; std::vector<PS::CPEDef *,xalloc<PS::CPEDef *> >::_Umove
_TEXT	ENDS
; Function compile flags: /Ogtpy
; File C:\Program Files\Microsoft Visual Studio\2022\Community\VC\Tools\MSVC\14.29.30133\include\vector
;	COMDAT ?max_size@?$vector@PAVCPEDef@PS@@V?$xalloc@PAVCPEDef@PS@@@@@std@@QBEIXZ
_TEXT	SEGMENT
?max_size@?$vector@PAVCPEDef@PS@@V?$xalloc@PAVCPEDef@PS@@@@@std@@QBEIXZ PROC ; std::vector<PS::CPEDef *,xalloc<PS::CPEDef *> >::max_size, COMDAT
; _this$dead$ = ecx

; 1540 :         return (_STD min)(

	mov	eax, 1073741823				; 3fffffffH

; 1541 :             static_cast<size_type>((numeric_limits<difference_type>::max)()), _Alty_traits::max_size(_Getal()));
; 1542 :     }

	ret	0
?max_size@?$vector@PAVCPEDef@PS@@V?$xalloc@PAVCPEDef@PS@@@@@std@@QBEIXZ ENDP ; std::vector<PS::CPEDef *,xalloc<PS::CPEDef *> >::max_size
_TEXT	ENDS
; Function compile flags: /Ogtpy
; File I:\Vitalya\mine\NSProjectX\xrCore\_stl_extensions.h
;	COMDAT ?construct@?$xalloc@PAVCPEDef@PS@@@@QAEXPAPAVCPEDef@PS@@ABQAV23@@Z
_TEXT	SEGMENT
_p$ = 8							; size = 4
__Val$ = 12						; size = 4
?construct@?$xalloc@PAVCPEDef@PS@@@@QAEXPAPAVCPEDef@PS@@ABQAV23@@Z PROC ; xalloc<PS::CPEDef *>::construct, COMDAT
; _this$dead$ = ecx

; 84   : 							void					construct		(pointer p, const T& _Val)				{	::new((void*)p) value_type (_Val); }

	mov	eax, DWORD PTR __Val$[esp-4]
	mov	ecx, DWORD PTR [eax]
	mov	eax, DWORD PTR _p$[esp-4]
	mov	DWORD PTR [eax], ecx
	ret	8
?construct@?$xalloc@PAVCPEDef@PS@@@@QAEXPAPAVCPEDef@PS@@ABQAV23@@Z ENDP ; xalloc<PS::CPEDef *>::construct
_TEXT	ENDS
; Function compile flags: /Ogtpy
; File I:\Vitalya\mine\NSProjectX\xrCore\_stl_extensions.h
; File I:\Vitalya\mine\NSProjectX\xrCore\xrMemory.h
; File I:\Vitalya\mine\NSProjectX\xrCore\_stl_extensions.h
;	COMDAT ?allocate@?$xalloc@PAVCPEDef@PS@@@@QBEPAPAVCPEDef@PS@@IPBX@Z
_TEXT	SEGMENT
_n$ = 8							; size = 4
_p$dead$ = 12						; size = 4
?allocate@?$xalloc@PAVCPEDef@PS@@@@QBEPAPAVCPEDef@PS@@IPBX@Z PROC ; xalloc<PS::CPEDef *>::allocate, COMDAT
; _this$dead$ = ecx
; File I:\Vitalya\mine\NSProjectX\xrCore\xrMemory.h

; 107  : 	IC T*		xr_alloc	(u32 count)				{	return  (T*)Memory.mem_alloc(count*sizeof(T));	}

	mov	eax, DWORD PTR _n$[esp-4]
	mov	ecx, DWORD PTR __imp_?Memory@@3VxrMemory@@A
	shl	eax, 2
	push	eax
	call	DWORD PTR __imp_?mem_alloc@xrMemory@@QAEPAXI@Z
; File I:\Vitalya\mine\NSProjectX\xrCore\_stl_extensions.h

; 80   : 							pointer					allocate		(size_type n, const void* p=0) const	{	return xr_alloc<T>((u32)n);	}

	ret	8
?allocate@?$xalloc@PAVCPEDef@PS@@@@QBEPAPAVCPEDef@PS@@IPBX@Z ENDP ; xalloc<PS::CPEDef *>::allocate
_TEXT	ENDS
; Function compile flags: /Ogtpy
; File C:\Program Files\Microsoft Visual Studio\2022\Community\VC\Tools\MSVC\14.29.30133\include\vector
; File I:\Vitalya\mine\NSProjectX\layers\xrRender\ParticleGroup.cpp
; File C:\Program Files\Microsoft Visual Studio\2022\Community\VC\Tools\MSVC\14.29.30133\include\vector
; File I:\Vitalya\mine\NSProjectX\layers\xrRender\ParticleGroup.cpp
; File I:\Vitalya\mine\NSProjectX\xrCore\xrMemory_subst_msvc.h
; File I:\Vitalya\mine\NSProjectX\xrCore\xrstring.h
; File I:\Vitalya\mine\NSProjectX\xrCore\xrMemory_subst_msvc.h
; File C:\Program Files\Microsoft Visual Studio\2022\Community\VC\Tools\MSVC\14.29.30133\include\vector
; File I:\Vitalya\mine\NSProjectX\layers\xrRender\ParticleGroup.cpp
; File I:\Vitalya\mine\NSProjectX\xrCore\xrMemory_subst_msvc.h
; File I:\Vitalya\mine\NSProjectX\layers\xrRender\ParticleGroup.cpp
; File C:\Program Files\Microsoft Visual Studio\2022\Community\VC\Tools\MSVC\14.29.30133\include\vector
; File I:\Vitalya\mine\NSProjectX\xrCore\xrMemory.h
; File C:\Program Files\Microsoft Visual Studio\2022\Community\VC\Tools\MSVC\14.29.30133\include\vector
; File I:\Vitalya\mine\NSProjectX\xrCore\xrstring.h
;	COMDAT ??_GCPGDef@PS@@QAEPAXI@Z
_TEXT	SEGMENT
___flags$dead$ = 8					; size = 4
??_GCPGDef@PS@@QAEPAXI@Z PROC				; PS::CPGDef::`scalar deleting destructor', COMDAT
; _this$ = ecx
; File C:\Program Files\Microsoft Visual Studio\2022\Community\VC\Tools\MSVC\14.29.30133\include\vector

; 41   :     _CONSTEXPR20_CONTAINER _Vector_const_iterator(_Tptr _Parg, const _Container_base* _Pvector) noexcept : _Ptr(_Parg) {

	push	ebx
; File I:\Vitalya\mine\NSProjectX\layers\xrRender\ParticleGroup.cpp

; 20   :     for (EffectIt it=m_Effects.begin(); it!=m_Effects.end(); it++)

	mov	ebx, DWORD PTR __imp_?mem_free@xrMemory@@QAEXPAX@Z
; File C:\Program Files\Microsoft Visual Studio\2022\Community\VC\Tools\MSVC\14.29.30133\include\vector

; 41   :     _CONSTEXPR20_CONTAINER _Vector_const_iterator(_Tptr _Parg, const _Container_base* _Pvector) noexcept : _Ptr(_Parg) {

	push	esi
	push	edi
	mov	edi, ecx
	mov	esi, DWORD PTR [edi+12]

; 150  :         return _Ptr == _Right._Ptr;

	cmp	esi, DWORD PTR [edi+16]
; File I:\Vitalya\mine\NSProjectX\layers\xrRender\ParticleGroup.cpp

; 20   :     for (EffectIt it=m_Effects.begin(); it!=m_Effects.end(); it++)

	je	$LN6@scalar
$LL7@scalar:
; File I:\Vitalya\mine\NSProjectX\xrCore\xrMemory_subst_msvc.h

; 151  : 	if (ptr) 

	mov	eax, DWORD PTR [esi]
	test	eax, eax
	je	SHORT $LN5@scalar
; File I:\Vitalya\mine\NSProjectX\xrCore\xrstring.h

; 50   : 	void				_dec		()								{	if (0==p_) return;	p_->dwReference--; 	if (0==p_->dwReference)	p_=0;						}

	mov	ecx, DWORD PTR [eax+16]
	test	ecx, ecx
	je	SHORT $LN43@scalar
	dec	DWORD PTR [ecx]
	mov	ecx, DWORD PTR [eax+16]
	cmp	DWORD PTR [ecx], 0
	jne	SHORT $LN43@scalar
	mov	DWORD PTR [eax+16], 0
$LN43@scalar:
	mov	ecx, DWORD PTR [eax+12]
	test	ecx, ecx
	je	SHORT $LN49@scalar
	dec	DWORD PTR [ecx]
	mov	ecx, DWORD PTR [eax+12]
	cmp	DWORD PTR [ecx], 0
	jne	SHORT $LN49@scalar
	mov	DWORD PTR [eax+12], 0
$LN49@scalar:
	mov	ecx, DWORD PTR [eax+8]
	test	ecx, ecx
	je	SHORT $LN55@scalar
	dec	DWORD PTR [ecx]
	mov	ecx, DWORD PTR [eax+8]
	cmp	DWORD PTR [ecx], 0
	jne	SHORT $LN55@scalar
	mov	DWORD PTR [eax+8], 0
$LN55@scalar:
	mov	ecx, DWORD PTR [eax+4]
	test	ecx, ecx
	je	SHORT $LN61@scalar
	dec	DWORD PTR [ecx]
	mov	ecx, DWORD PTR [eax+4]
	cmp	DWORD PTR [ecx], 0
	jne	SHORT $LN61@scalar
	mov	DWORD PTR [eax+4], 0
$LN61@scalar:
; File I:\Vitalya\mine\NSProjectX\xrCore\xrMemory_subst_msvc.h

; 144  : 		Memory.mem_free	(ptr);

	push	DWORD PTR [esi]
	mov	ecx, DWORD PTR __imp_?Memory@@3VxrMemory@@A
	call	ebx

; 154  : 		ptr = nullptr;

	mov	DWORD PTR [esi], 0
$LN5@scalar:
; File C:\Program Files\Microsoft Visual Studio\2022\Community\VC\Tools\MSVC\14.29.30133\include\vector

; 74   :         ++_Ptr;

	add	esi, 4

; 150  :         return _Ptr == _Right._Ptr;

	cmp	esi, DWORD PTR [edi+16]
; File I:\Vitalya\mine\NSProjectX\layers\xrRender\ParticleGroup.cpp

; 20   :     for (EffectIt it=m_Effects.begin(); it!=m_Effects.end(); it++)

	jne	SHORT $LL7@scalar
; File I:\Vitalya\mine\NSProjectX\xrCore\xrMemory_subst_msvc.h

; 154  : 		ptr = nullptr;

	mov	esi, DWORD PTR [edi+12]
$LN6@scalar:
; File I:\Vitalya\mine\NSProjectX\layers\xrRender\ParticleGroup.cpp

; 22   :     m_Effects.clear	();

	mov	DWORD PTR [edi+16], esi
; File C:\Program Files\Microsoft Visual Studio\2022\Community\VC\Tools\MSVC\14.29.30133\include\vector

; 1750 :         if (_Myfirst) { // destroy and deallocate old array

	test	esi, esi
	je	SHORT $LN68@scalar
; File I:\Vitalya\mine\NSProjectX\xrCore\xrMemory.h

; 109  : 	IC void		xr_free		(T* &P)					{	if (P) { Memory.mem_free((void*)P); P=NULL;	};	}

	mov	ecx, DWORD PTR __imp_?Memory@@3VxrMemory@@A
	push	esi
	call	ebx
; File C:\Program Files\Microsoft Visual Studio\2022\Community\VC\Tools\MSVC\14.29.30133\include\vector

; 1754 :             _Myfirst = nullptr;

	mov	DWORD PTR [edi+12], 0

; 1755 :             _Mylast  = nullptr;

	mov	DWORD PTR [edi+16], 0

; 1756 :             _Myend   = nullptr;

	mov	DWORD PTR [edi+20], 0
$LN68@scalar:
; File I:\Vitalya\mine\NSProjectX\xrCore\xrstring.h

; 50   : 	void				_dec		()								{	if (0==p_) return;	p_->dwReference--; 	if (0==p_->dwReference)	p_=0;						}

	mov	eax, DWORD PTR [edi]
	test	eax, eax
	je	SHORT $LN88@scalar
	dec	DWORD PTR [eax]
	mov	eax, DWORD PTR [edi]
	cmp	DWORD PTR [eax], 0
	mov	eax, edi
	jne	SHORT $LN79@scalar
	mov	DWORD PTR [edi], 0
	pop	edi
	pop	esi
	pop	ebx
	ret	4
$LN88@scalar:
	mov	eax, edi
$LN79@scalar:
	pop	edi
	pop	esi
	pop	ebx
	ret	4
??_GCPGDef@PS@@QAEPAXI@Z ENDP				; PS::CPGDef::`scalar deleting destructor'
_TEXT	ENDS
; Function compile flags: /Ogtpy
; File I:\Vitalya\mine\NSProjectX\layers\xrRender\ParticleEffectDef.cpp
; File I:\Vitalya\mine\NSProjectX\xrCore\xr_resource.h
; File I:\Vitalya\mine\NSProjectX\xrCore\xrstring.h
;	COMDAT ??_GCPEDef@PS@@QAEPAXI@Z
_TEXT	SEGMENT
___flags$dead$ = 8					; size = 4
??_GCPEDef@PS@@QAEPAXI@Z PROC				; PS::CPEDef::`scalar deleting destructor', COMDAT
; _this$ = ecx
; File I:\Vitalya\mine\NSProjectX\layers\xrRender\ParticleEffectDef.cpp

; 39   : }

	push	esi
	mov	esi, ecx
	lea	ecx, DWORD PTR [esi+48]
	call	DWORD PTR __imp_??1CMemoryWriter@@UAE@XZ
	lea	ecx, DWORD PTR [esi+16]
; File I:\Vitalya\mine\NSProjectX\xrCore\xr_resource.h

; 64   : 						~resptr_core	()												{	_dec();						}

	call	DWORD PTR __imp_?_dec@?$resptr_base@UShader@@@@IAEXXZ
; File I:\Vitalya\mine\NSProjectX\xrCore\xrstring.h

; 50   : 	void				_dec		()								{	if (0==p_) return;	p_->dwReference--; 	if (0==p_->dwReference)	p_=0;						}

	mov	eax, DWORD PTR [esi+12]
	test	eax, eax
	je	SHORT $LN12@scalar
	dec	DWORD PTR [eax]
	mov	eax, DWORD PTR [esi+12]
	cmp	DWORD PTR [eax], 0
	jne	SHORT $LN12@scalar
	mov	DWORD PTR [esi+12], 0
$LN12@scalar:
	mov	eax, DWORD PTR [esi+8]
	test	eax, eax
	je	SHORT $LN18@scalar
	dec	DWORD PTR [eax]
	mov	eax, DWORD PTR [esi+8]
	cmp	DWORD PTR [eax], 0
	jne	SHORT $LN18@scalar
	mov	DWORD PTR [esi+8], 0
$LN18@scalar:
	mov	eax, DWORD PTR [esi]
	test	eax, eax
	je	SHORT $LN27@scalar
	dec	DWORD PTR [eax]
	mov	eax, DWORD PTR [esi]
	cmp	DWORD PTR [eax], 0
	mov	eax, esi
	jne	SHORT $LN24@scalar
	mov	DWORD PTR [esi], 0
	pop	esi
	ret	4
$LN27@scalar:
	mov	eax, esi
$LN24@scalar:
	pop	esi
	ret	4
??_GCPEDef@PS@@QAEPAXI@Z ENDP				; PS::CPEDef::`scalar deleting destructor'
_TEXT	ENDS
; Function compile flags: /Ogtpy
; File C:\Program Files\Microsoft Visual Studio\2022\Community\VC\Tools\MSVC\14.29.30133\include\vector
;	COMDAT ?_Getal@?$vector@PAVCPGDef@PS@@V?$xalloc@PAVCPGDef@PS@@@@@std@@ABEABV?$xalloc@PAVCPGDef@PS@@@@XZ
_TEXT	SEGMENT
?_Getal@?$vector@PAVCPGDef@PS@@V?$xalloc@PAVCPGDef@PS@@@@@std@@ABEABV?$xalloc@PAVCPGDef@PS@@@@XZ PROC ; std::vector<PS::CPGDef *,xalloc<PS::CPGDef *> >::_Getal, COMDAT
; _this$ = ecx

; 1809 :         return _Mypair._Get_first();

	mov	eax, ecx

; 1810 :     }

	ret	0
?_Getal@?$vector@PAVCPGDef@PS@@V?$xalloc@PAVCPGDef@PS@@@@@std@@ABEABV?$xalloc@PAVCPGDef@PS@@@@XZ ENDP ; std::vector<PS::CPGDef *,xalloc<PS::CPGDef *> >::_Getal
_TEXT	ENDS
; Function compile flags: /Ogtpy
; File C:\Program Files\Microsoft Visual Studio\2022\Community\VC\Tools\MSVC\14.29.30133\include\vector
; File C:\Program Files\Microsoft Visual Studio\2022\Community\VC\Tools\MSVC\14.29.30133\include\xmemory
; File C:\Program Files\Microsoft Visual Studio\2022\Community\VC\Tools\MSVC\14.29.30133\include\vector
; File C:\Program Files\Microsoft Visual Studio\2022\Community\VC\Tools\MSVC\14.29.30133\include\xmemory
; File C:\Program Files\Microsoft Visual Studio\2022\Community\VC\Tools\MSVC\14.29.30133\include\vector
;	COMDAT ?_Umove_if_noexcept1@?$vector@PAVCPGDef@PS@@V?$xalloc@PAVCPGDef@PS@@@@@std@@AAEXPAPAVCPGDef@PS@@00U?$integral_constant@_N$00@2@@Z
_TEXT	SEGMENT
__First$ = 8						; size = 4
__Last$ = 12						; size = 4
__Dest$ = 16						; size = 4
___formal$ = 20						; size = 1
?_Umove_if_noexcept1@?$vector@PAVCPGDef@PS@@V?$xalloc@PAVCPGDef@PS@@@@@std@@AAEXPAPAVCPGDef@PS@@00U?$integral_constant@_N$00@2@@Z PROC ; std::vector<PS::CPGDef *,xalloc<PS::CPGDef *> >::_Umove_if_noexcept1, COMDAT
; _this$dead$ = ecx
; File C:\Program Files\Microsoft Visual Studio\2022\Community\VC\Tools\MSVC\14.29.30133\include\xmemory

; 1703 :     auto _UFirst      = _Get_unwrapped(_First);

	mov	eax, DWORD PTR __First$[esp-4]
; File C:\Program Files\Microsoft Visual Studio\2022\Community\VC\Tools\MSVC\14.29.30133\include\vector

; 1649 :     _CONSTEXPR20_CONTAINER void _Umove_if_noexcept1(pointer _First, pointer _Last, pointer _Dest, true_type) {

	push	esi
; File C:\Program Files\Microsoft Visual Studio\2022\Community\VC\Tools\MSVC\14.29.30133\include\xmemory

; 1717 :     for (; _UFirst != _ULast; ++_UFirst) {

	mov	esi, DWORD PTR __Last$[esp]
	cmp	eax, esi
	je	SHORT $LN5@Umove_if_n

; 1609 :         : _First(_Dest), _Last(_Dest), _Al(_Al_) {}

	mov	edx, DWORD PTR __Dest$[esp]
	sub	edx, eax
$LL6@Umove_if_n:

; 1620 :         allocator_traits<_Alloc>::construct(_Al, _Unfancy(_Last), _STD forward<_Types>(_Vals)...);

	mov	ecx, DWORD PTR [eax]
	mov	DWORD PTR [edx+eax], ecx

; 1717 :     for (; _UFirst != _ULast; ++_UFirst) {

	add	eax, 4
	cmp	eax, esi
	jne	SHORT $LL6@Umove_if_n
$LN5@Umove_if_n:
	pop	esi
; File C:\Program Files\Microsoft Visual Studio\2022\Community\VC\Tools\MSVC\14.29.30133\include\vector

; 1652 :     }

	ret	16					; 00000010H
?_Umove_if_noexcept1@?$vector@PAVCPGDef@PS@@V?$xalloc@PAVCPGDef@PS@@@@@std@@AAEXPAPAVCPGDef@PS@@00U?$integral_constant@_N$00@2@@Z ENDP ; std::vector<PS::CPGDef *,xalloc<PS::CPGDef *> >::_Umove_if_noexcept1
_TEXT	ENDS
; Function compile flags: /Ogtpy
; File C:\Program Files\Microsoft Visual Studio\2022\Community\VC\Tools\MSVC\14.29.30133\include\vector
;	COMDAT ?capacity@?$vector@PAVCPGDef@PS@@V?$xalloc@PAVCPGDef@PS@@@@@std@@QBEIXZ
_TEXT	SEGMENT
?capacity@?$vector@PAVCPGDef@PS@@V?$xalloc@PAVCPGDef@PS@@@@@std@@QBEIXZ PROC ; std::vector<PS::CPGDef *,xalloc<PS::CPGDef *> >::capacity, COMDAT
; _this$ = ecx

; 1545 :         auto& _My_data = _Mypair._Myval2;
; 1546 :         return static_cast<size_type>(_My_data._Myend - _My_data._Myfirst);

	mov	eax, DWORD PTR [ecx+8]
