; Listing generated by Microsoft (R) Optimizing Compiler Version 19.29.30146.0 

	TITLE	i:\vitalya\mine\nsprojectx\nspx_build\intermediate\release-win32\xrrender_r1\r__dsgraph_render.obj
	.686P
	.XMM
	include listing.inc
	.model	flat

INCLUDELIB OLDNAMES

EXTRN	__imp_?psHUD_FOV@@3MA:DWORD
EXTRN	__imp_??A?$xr_vector@U?$pair@IV?$resptr_core@VCTexture@@Uresptrcode_texture@@@@@std@@V?$xalloc@U?$pair@IV?$resptr_core@VCTexture@@Uresptrcode_texture@@@@@std@@@@@@QAEAAU?$pair@IV?$resptr_core@VCTexture@@Uresptrcode_texture@@@@@std@@I@Z:PROC
EXTRN	__imp_?end@?$vector@U?$pair@IV?$resptr_core@VCTexture@@Uresptrcode_texture@@@@@std@@V?$xalloc@U?$pair@IV?$resptr_core@VCTexture@@Uresptrcode_texture@@@@@std@@@@@std@@QAE?AV?$_Vector_iterator@V?$_Vector_val@U?$_Simple_types@U?$pair@IV?$resptr_core@VCTexture@@Uresptrcode_texture@@@@@std@@@std@@@std@@@2@XZ:PROC
EXTRN	__imp_?begin@?$vector@U?$pair@IV?$resptr_core@VCTexture@@Uresptrcode_texture@@@@@std@@V?$xalloc@U?$pair@IV?$resptr_core@VCTexture@@Uresptrcode_texture@@@@@std@@@@@std@@QAE?AV?$_Vector_iterator@V?$_Vector_val@U?$_Simple_types@U?$pair@IV?$resptr_core@VCTexture@@Uresptrcode_texture@@@@@std@@@std@@@std@@@2@XZ:PROC
EXTRN	__imp_?_get@?$resptr_base@VCTexture@@@@QBEPAVCTexture@@XZ:PROC
EXTRN	__imp_?testSphere_dirty@CFrustum@@QBEHAAU?$_vector3@M@@M@Z:PROC
EXTRN	__imp_?q_frustum@ISpatial_DB@@QAEXAAV?$xr_vector@PAVISpatial@@V?$xalloc@PAVISpatial@@@@@@IIABVCFrustum@@@Z:PROC
EXTRN	__imp_?set_Frustum@IRender_interface@@QAEXPAVCFrustum@@@Z:PROC
EXTRN	__imp_?set_xform_project@CBackend@@QAEXABU?$_matrix@M@@@Z:PROC
EXTRN	__imp_?size@?$vector@U?$pair@IV?$resptr_core@VCTexture@@Uresptrcode_texture@@@@@std@@V?$xalloc@U?$pair@IV?$resptr_core@VCTexture@@Uresptrcode_texture@@@@@std@@@@@std@@QBEIXZ:PROC
EXTRN	__imp_?size@?$xr_vector@U?$pair@IV?$resptr_core@VCTexture@@Uresptrcode_texture@@@@@std@@V?$xalloc@U?$pair@IV?$resptr_core@VCTexture@@Uresptrcode_texture@@@@@std@@@@@@QBEIXZ:PROC
EXTRN	__imp_?set_States@CBackend@@QAEXPAUIDirect3DStateBlock9@@@Z:PROC
EXTRN	__imp_?set_PS@CBackend@@QAEXPAUIDirect3DPixelShader9@@PBD@Z:PROC
EXTRN	__imp_?set_VS@CBackend@@QAEXPAUIDirect3DVertexShader9@@PBD@Z:PROC
EXTRN	__imp_?set_Constants@CBackend@@QAEXPAVR_constant_table@@@Z:PROC
EXTRN	__imp_?set_Textures@CBackend@@QAEXPAUSTextureList@@@Z:PROC
EXTRN	__imp_?set_Element@CBackend@@QAEXPAUShaderElement@@I@Z:PROC
?_Fake_alloc@std@@3U_Fake_allocator@1@B	ORG $+1		; std::_Fake_alloc
PUBLIC	?begin@?$FixedMAP@PAUSTextureList@@UmapNormalItems@R_dsgraph@@Udoug_lea_allocator@@@@QAEPAUTNode@1@XZ ; FixedMAP<STextureList *,R_dsgraph::mapNormalItems,doug_lea_allocator>::begin
PUBLIC	?begin@?$FixedMAP@PAUSTextureList@@UmapMatrixItems@R_dsgraph@@Udoug_lea_allocator@@@@QAEPAUTNode@1@XZ ; FixedMAP<STextureList *,R_dsgraph::mapMatrixItems,doug_lea_allocator>::begin
PUBLIC	?clear@?$xr_vector@PAUTNode@?$FixedMAP@PAUSTextureList@@UmapNormalItems@R_dsgraph@@Udoug_lea_allocator@@@@V?$doug_lea_alloc@PAUTNode@?$FixedMAP@PAUSTextureList@@UmapNormalItems@R_dsgraph@@Udoug_lea_allocator@@@@@@@@QAEXXZ ; xr_vector<FixedMAP<STextureList *,R_dsgraph::mapNormalItems,doug_lea_allocator>::TNode *,doug_lea_alloc<FixedMAP<STextureList *,R_dsgraph::mapNormalItems,doug_lea_allocator>::TNode *> >::clear
PUBLIC	?clear_and_free@?$xr_vector@PAUTNode@?$FixedMAP@PAUSTextureList@@UmapNormalItems@R_dsgraph@@Udoug_lea_allocator@@@@V?$doug_lea_alloc@PAUTNode@?$FixedMAP@PAUSTextureList@@UmapNormalItems@R_dsgraph@@Udoug_lea_allocator@@@@@@@@QAEXXZ ; xr_vector<FixedMAP<STextureList *,R_dsgraph::mapNormalItems,doug_lea_allocator>::TNode *,doug_lea_alloc<FixedMAP<STextureList *,R_dsgraph::mapNormalItems,doug_lea_allocator>::TNode *> >::clear_and_free
PUBLIC	?clear@?$vector@PAUTNode@?$FixedMAP@PAUSTextureList@@UmapNormalItems@R_dsgraph@@Udoug_lea_allocator@@@@V?$doug_lea_alloc@PAUTNode@?$FixedMAP@PAUSTextureList@@UmapNormalItems@R_dsgraph@@Udoug_lea_allocator@@@@@@@std@@QAEXXZ ; std::vector<FixedMAP<STextureList *,R_dsgraph::mapNormalItems,doug_lea_allocator>::TNode *,doug_lea_alloc<FixedMAP<STextureList *,R_dsgraph::mapNormalItems,doug_lea_allocator>::TNode *> >::clear
PUBLIC	?_Destroy@?$vector@PAUTNode@?$FixedMAP@PAUSTextureList@@UmapNormalItems@R_dsgraph@@Udoug_lea_allocator@@@@V?$doug_lea_alloc@PAUTNode@?$FixedMAP@PAUSTextureList@@UmapNormalItems@R_dsgraph@@Udoug_lea_allocator@@@@@@@std@@AAEXPAPAUTNode@?$FixedMAP@PAUSTextureList@@UmapNormalItems@R_dsgraph@@Udoug_lea_allocator@@@@0@Z ; std::vector<FixedMAP<STextureList *,R_dsgraph::mapNormalItems,doug_lea_allocator>::TNode *,doug_lea_alloc<FixedMAP<STextureList *,R_dsgraph::mapNormalItems,doug_lea_allocator>::TNode *> >::_Destroy
PUBLIC	?_Getal@?$vector@PAUTNode@?$FixedMAP@PAUSTextureList@@UmapNormalItems@R_dsgraph@@Udoug_lea_allocator@@@@V?$doug_lea_alloc@PAUTNode@?$FixedMAP@PAUSTextureList@@UmapNormalItems@R_dsgraph@@Udoug_lea_allocator@@@@@@@std@@AAEAAV?$doug_lea_alloc@PAUTNode@?$FixedMAP@PAUSTextureList@@UmapNormalItems@R_dsgraph@@Udoug_lea_allocator@@@@@@XZ ; std::vector<FixedMAP<STextureList *,R_dsgraph::mapNormalItems,doug_lea_allocator>::TNode *,doug_lea_alloc<FixedMAP<STextureList *,R_dsgraph::mapNormalItems,doug_lea_allocator>::TNode *> >::_Getal
PUBLIC	?_Get_first@?$_Compressed_pair@V?$doug_lea_alloc@PAUTNode@?$FixedMAP@PAUSTextureList@@UmapNormalItems@R_dsgraph@@Udoug_lea_allocator@@@@@@V?$_Vector_val@U?$_Simple_types@PAUTNode@?$FixedMAP@PAUSTextureList@@UmapNormalItems@R_dsgraph@@Udoug_lea_allocator@@@@@std@@@std@@$00@std@@QAEAAV?$doug_lea_alloc@PAUTNode@?$FixedMAP@PAUSTextureList@@UmapNormalItems@R_dsgraph@@Udoug_lea_allocator@@@@@@XZ ; std::_Compressed_pair<doug_lea_alloc<FixedMAP<STextureList *,R_dsgraph::mapNormalItems,doug_lea_allocator>::TNode *>,std::_Vector_val<std::_Simple_types<FixedMAP<STextureList *,R_dsgraph::mapNormalItems,doug_lea_allocator>::TNode *> >,1>::_Get_first
PUBLIC	??$_Destroy_range@V?$doug_lea_alloc@PAUTNode@?$FixedMAP@PAUSTextureList@@UmapNormalItems@R_dsgraph@@Udoug_lea_allocator@@@@@@@std@@YAXPAPAUTNode@?$FixedMAP@PAUSTextureList@@UmapNormalItems@R_dsgraph@@Udoug_lea_allocator@@@@QAPAU12@AAV?$doug_lea_alloc@PAUTNode@?$FixedMAP@PAUSTextureList@@UmapNormalItems@R_dsgraph@@Udoug_lea_allocator@@@@@@@Z ; std::_Destroy_range<doug_lea_alloc<FixedMAP<STextureList *,R_dsgraph::mapNormalItems,doug_lea_allocator>::TNode *> >
PUBLIC	??$_Unfancy@PAUTNode@?$FixedMAP@PAUSTextureList@@UmapNormalItems@R_dsgraph@@Udoug_lea_allocator@@@@@std@@YAPAPAUTNode@?$FixedMAP@PAUSTextureList@@UmapNormalItems@R_dsgraph@@Udoug_lea_allocator@@@@PAPAU12@@Z ; std::_Unfancy<FixedMAP<STextureList *,R_dsgraph::mapNormalItems,doug_lea_allocator>::TNode *>
PUBLIC	??$destroy@PAUTNode@?$FixedMAP@PAUSTextureList@@UmapNormalItems@R_dsgraph@@Udoug_lea_allocator@@@@@?$_Normal_allocator_traits@V?$doug_lea_alloc@PAUTNode@?$FixedMAP@PAUSTextureList@@UmapNormalItems@R_dsgraph@@Udoug_lea_allocator@@@@@@@std@@SAXAAV?$doug_lea_alloc@PAUTNode@?$FixedMAP@PAUSTextureList@@UmapNormalItems@R_dsgraph@@Udoug_lea_allocator@@@@@@PAPAUTNode@?$FixedMAP@PAUSTextureList@@UmapNormalItems@R_dsgraph@@Udoug_lea_allocator@@@@@Z ; std::_Normal_allocator_traits<doug_lea_alloc<FixedMAP<STextureList *,R_dsgraph::mapNormalItems,doug_lea_allocator>::TNode *> >::destroy<FixedMAP<STextureList *,R_dsgraph::mapNormalItems,doug_lea_allocator>::TNode *>
PUBLIC	?destroy@?$doug_lea_alloc@PAUTNode@?$FixedMAP@PAUSTextureList@@UmapNormalItems@R_dsgraph@@Udoug_lea_allocator@@@@@@QAEXPAPAUTNode@?$FixedMAP@PAUSTextureList@@UmapNormalItems@R_dsgraph@@Udoug_lea_allocator@@@@@Z ; doug_lea_alloc<FixedMAP<STextureList *,R_dsgraph::mapNormalItems,doug_lea_allocator>::TNode *>::destroy
PUBLIC	??$_Destroy_in_place@PAPAUTNode@?$FixedMAP@PAUSTextureList@@UmapNormalItems@R_dsgraph@@Udoug_lea_allocator@@@@@std@@YAXAAPAPAUTNode@?$FixedMAP@PAUSTextureList@@UmapNormalItems@R_dsgraph@@Udoug_lea_allocator@@@@@Z ; std::_Destroy_in_place<FixedMAP<STextureList *,R_dsgraph::mapNormalItems,doug_lea_allocator>::TNode * *>
PUBLIC	?clear@?$xr_vector@PAUTNode@?$FixedMAP@PAUIDirect3DStateBlock9@@UmapNormalTextures@R_dsgraph@@Udoug_lea_allocator@@@@V?$doug_lea_alloc@PAUTNode@?$FixedMAP@PAUIDirect3DStateBlock9@@UmapNormalTextures@R_dsgraph@@Udoug_lea_allocator@@@@@@@@QAEXXZ ; xr_vector<FixedMAP<IDirect3DStateBlock9 *,R_dsgraph::mapNormalTextures,doug_lea_allocator>::TNode *,doug_lea_alloc<FixedMAP<IDirect3DStateBlock9 *,R_dsgraph::mapNormalTextures,doug_lea_allocator>::TNode *> >::clear
PUBLIC	?clear_and_free@?$xr_vector@PAUTNode@?$FixedMAP@PAUIDirect3DStateBlock9@@UmapNormalTextures@R_dsgraph@@Udoug_lea_allocator@@@@V?$doug_lea_alloc@PAUTNode@?$FixedMAP@PAUIDirect3DStateBlock9@@UmapNormalTextures@R_dsgraph@@Udoug_lea_allocator@@@@@@@@QAEXXZ ; xr_vector<FixedMAP<IDirect3DStateBlock9 *,R_dsgraph::mapNormalTextures,doug_lea_allocator>::TNode *,doug_lea_alloc<FixedMAP<IDirect3DStateBlock9 *,R_dsgraph::mapNormalTextures,doug_lea_allocator>::TNode *> >::clear_and_free
PUBLIC	?clear@?$vector@PAUTNode@?$FixedMAP@PAUIDirect3DStateBlock9@@UmapNormalTextures@R_dsgraph@@Udoug_lea_allocator@@@@V?$doug_lea_alloc@PAUTNode@?$FixedMAP@PAUIDirect3DStateBlock9@@UmapNormalTextures@R_dsgraph@@Udoug_lea_allocator@@@@@@@std@@QAEXXZ ; std::vector<FixedMAP<IDirect3DStateBlock9 *,R_dsgraph::mapNormalTextures,doug_lea_allocator>::TNode *,doug_lea_alloc<FixedMAP<IDirect3DStateBlock9 *,R_dsgraph::mapNormalTextures,doug_lea_allocator>::TNode *> >::clear
PUBLIC	?_Destroy@?$vector@PAUTNode@?$FixedMAP@PAUIDirect3DStateBlock9@@UmapNormalTextures@R_dsgraph@@Udoug_lea_allocator@@@@V?$doug_lea_alloc@PAUTNode@?$FixedMAP@PAUIDirect3DStateBlock9@@UmapNormalTextures@R_dsgraph@@Udoug_lea_allocator@@@@@@@std@@AAEXPAPAUTNode@?$FixedMAP@PAUIDirect3DStateBlock9@@UmapNormalTextures@R_dsgraph@@Udoug_lea_allocator@@@@0@Z ; std::vector<FixedMAP<IDirect3DStateBlock9 *,R_dsgraph::mapNormalTextures,doug_lea_allocator>::TNode *,doug_lea_alloc<FixedMAP<IDirect3DStateBlock9 *,R_dsgraph::mapNormalTextures,doug_lea_allocator>::TNode *> >::_Destroy
PUBLIC	?_Getal@?$vector@PAUTNode@?$FixedMAP@PAUIDirect3DStateBlock9@@UmapNormalTextures@R_dsgraph@@Udoug_lea_allocator@@@@V?$doug_lea_alloc@PAUTNode@?$FixedMAP@PAUIDirect3DStateBlock9@@UmapNormalTextures@R_dsgraph@@Udoug_lea_allocator@@@@@@@std@@AAEAAV?$doug_lea_alloc@PAUTNode@?$FixedMAP@PAUIDirect3DStateBlock9@@UmapNormalTextures@R_dsgraph@@Udoug_lea_allocator@@@@@@XZ ; std::vector<FixedMAP<IDirect3DStateBlock9 *,R_dsgraph::mapNormalTextures,doug_lea_allocator>::TNode *,doug_lea_alloc<FixedMAP<IDirect3DStateBlock9 *,R_dsgraph::mapNormalTextures,doug_lea_allocator>::TNode *> >::_Getal
PUBLIC	?_Get_first@?$_Compressed_pair@V?$doug_lea_alloc@PAUTNode@?$FixedMAP@PAUIDirect3DStateBlock9@@UmapNormalTextures@R_dsgraph@@Udoug_lea_allocator@@@@@@V?$_Vector_val@U?$_Simple_types@PAUTNode@?$FixedMAP@PAUIDirect3DStateBlock9@@UmapNormalTextures@R_dsgraph@@Udoug_lea_allocator@@@@@std@@@std@@$00@std@@QAEAAV?$doug_lea_alloc@PAUTNode@?$FixedMAP@PAUIDirect3DStateBlock9@@UmapNormalTextures@R_dsgraph@@Udoug_lea_allocator@@@@@@XZ ; std::_Compressed_pair<doug_lea_alloc<FixedMAP<IDirect3DStateBlock9 *,R_dsgraph::mapNormalTextures,doug_lea_allocator>::TNode *>,std::_Vector_val<std::_Simple_types<FixedMAP<IDirect3DStateBlock9 *,R_dsgraph::mapNormalTextures,doug_lea_allocator>::TNode *> >,1>::_Get_first
PUBLIC	??$_Destroy_range@V?$doug_lea_alloc@PAUTNode@?$FixedMAP@PAUIDirect3DStateBlock9@@UmapNormalTextures@R_dsgraph@@Udoug_lea_allocator@@@@@@@std@@YAXPAPAUTNode@?$FixedMAP@PAUIDirect3DStateBlock9@@UmapNormalTextures@R_dsgraph@@Udoug_lea_allocator@@@@QAPAU12@AAV?$doug_lea_alloc@PAUTNode@?$FixedMAP@PAUIDirect3DStateBlock9@@UmapNormalTextures@R_dsgraph@@Udoug_lea_allocator@@@@@@@Z ; std::_Destroy_range<doug_lea_alloc<FixedMAP<IDirect3DStateBlock9 *,R_dsgraph::mapNormalTextures,doug_lea_allocator>::TNode *> >
PUBLIC	??$_Unfancy@PAUTNode@?$FixedMAP@PAUIDirect3DStateBlock9@@UmapNormalTextures@R_dsgraph@@Udoug_lea_allocator@@@@@std@@YAPAPAUTNode@?$FixedMAP@PAUIDirect3DStateBlock9@@UmapNormalTextures@R_dsgraph@@Udoug_lea_allocator@@@@PAPAU12@@Z ; std::_Unfancy<FixedMAP<IDirect3DStateBlock9 *,R_dsgraph::mapNormalTextures,doug_lea_allocator>::TNode *>
PUBLIC	??$destroy@PAUTNode@?$FixedMAP@PAUIDirect3DStateBlock9@@UmapNormalTextures@R_dsgraph@@Udoug_lea_allocator@@@@@?$_Normal_allocator_traits@V?$doug_lea_alloc@PAUTNode@?$FixedMAP@PAUIDirect3DStateBlock9@@UmapNormalTextures@R_dsgraph@@Udoug_lea_allocator@@@@@@@std@@SAXAAV?$doug_lea_alloc@PAUTNode@?$FixedMAP@PAUIDirect3DStateBlock9@@UmapNormalTextures@R_dsgraph@@Udoug_lea_allocator@@@@@@PAPAUTNode@?$FixedMAP@PAUIDirect3DStateBlock9@@UmapNormalTextures@R_dsgraph@@Udoug_lea_allocator@@@@@Z ; std::_Normal_allocator_traits<doug_lea_alloc<FixedMAP<IDirect3DStateBlock9 *,R_dsgraph::mapNormalTextures,doug_lea_allocator>::TNode *> >::destroy<FixedMAP<IDirect3DStateBlock9 *,R_dsgraph::mapNormalTextures,doug_lea_allocator>::TNode *>
PUBLIC	?destroy@?$doug_lea_alloc@PAUTNode@?$FixedMAP@PAUIDirect3DStateBlock9@@UmapNormalTextures@R_dsgraph@@Udoug_lea_allocator@@@@@@QAEXPAPAUTNode@?$FixedMAP@PAUIDirect3DStateBlock9@@UmapNormalTextures@R_dsgraph@@Udoug_lea_allocator@@@@@Z ; doug_lea_alloc<FixedMAP<IDirect3DStateBlock9 *,R_dsgraph::mapNormalTextures,doug_lea_allocator>::TNode *>::destroy
PUBLIC	??$_Destroy_in_place@PAPAUTNode@?$FixedMAP@PAUIDirect3DStateBlock9@@UmapNormalTextures@R_dsgraph@@Udoug_lea_allocator@@@@@std@@YAXAAPAPAUTNode@?$FixedMAP@PAUIDirect3DStateBlock9@@UmapNormalTextures@R_dsgraph@@Udoug_lea_allocator@@@@@Z ; std::_Destroy_in_place<FixedMAP<IDirect3DStateBlock9 *,R_dsgraph::mapNormalTextures,doug_lea_allocator>::TNode * *>
PUBLIC	?clear@?$xr_vector@PAUTNode@?$FixedMAP@PAVR_constant_table@@UmapNormalStates@R_dsgraph@@Udoug_lea_allocator@@@@V?$doug_lea_alloc@PAUTNode@?$FixedMAP@PAVR_constant_table@@UmapNormalStates@R_dsgraph@@Udoug_lea_allocator@@@@@@@@QAEXXZ ; xr_vector<FixedMAP<R_constant_table *,R_dsgraph::mapNormalStates,doug_lea_allocator>::TNode *,doug_lea_alloc<FixedMAP<R_constant_table *,R_dsgraph::mapNormalStates,doug_lea_allocator>::TNode *> >::clear
PUBLIC	?clear_and_free@?$xr_vector@PAUTNode@?$FixedMAP@PAVR_constant_table@@UmapNormalStates@R_dsgraph@@Udoug_lea_allocator@@@@V?$doug_lea_alloc@PAUTNode@?$FixedMAP@PAVR_constant_table@@UmapNormalStates@R_dsgraph@@Udoug_lea_allocator@@@@@@@@QAEXXZ ; xr_vector<FixedMAP<R_constant_table *,R_dsgraph::mapNormalStates,doug_lea_allocator>::TNode *,doug_lea_alloc<FixedMAP<R_constant_table *,R_dsgraph::mapNormalStates,doug_lea_allocator>::TNode *> >::clear_and_free
PUBLIC	?clear@?$vector@PAUTNode@?$FixedMAP@PAVR_constant_table@@UmapNormalStates@R_dsgraph@@Udoug_lea_allocator@@@@V?$doug_lea_alloc@PAUTNode@?$FixedMAP@PAVR_constant_table@@UmapNormalStates@R_dsgraph@@Udoug_lea_allocator@@@@@@@std@@QAEXXZ ; std::vector<FixedMAP<R_constant_table *,R_dsgraph::mapNormalStates,doug_lea_allocator>::TNode *,doug_lea_alloc<FixedMAP<R_constant_table *,R_dsgraph::mapNormalStates,doug_lea_allocator>::TNode *> >::clear
PUBLIC	?_Destroy@?$vector@PAUTNode@?$FixedMAP@PAVR_constant_table@@UmapNormalStates@R_dsgraph@@Udoug_lea_allocator@@@@V?$doug_lea_alloc@PAUTNode@?$FixedMAP@PAVR_constant_table@@UmapNormalStates@R_dsgraph@@Udoug_lea_allocator@@@@@@@std@@AAEXPAPAUTNode@?$FixedMAP@PAVR_constant_table@@UmapNormalStates@R_dsgraph@@Udoug_lea_allocator@@@@0@Z ; std::vector<FixedMAP<R_constant_table *,R_dsgraph::mapNormalStates,doug_lea_allocator>::TNode *,doug_lea_alloc<FixedMAP<R_constant_table *,R_dsgraph::mapNormalStates,doug_lea_allocator>::TNode *> >::_Destroy
PUBLIC	?_Getal@?$vector@PAUTNode@?$FixedMAP@PAVR_constant_table@@UmapNormalStates@R_dsgraph@@Udoug_lea_allocator@@@@V?$doug_lea_alloc@PAUTNode@?$FixedMAP@PAVR_constant_table@@UmapNormalStates@R_dsgraph@@Udoug_lea_allocator@@@@@@@std@@AAEAAV?$doug_lea_alloc@PAUTNode@?$FixedMAP@PAVR_constant_table@@UmapNormalStates@R_dsgraph@@Udoug_lea_allocator@@@@@@XZ ; std::vector<FixedMAP<R_constant_table *,R_dsgraph::mapNormalStates,doug_lea_allocator>::TNode *,doug_lea_alloc<FixedMAP<R_constant_table *,R_dsgraph::mapNormalStates,doug_lea_allocator>::TNode *> >::_Getal
PUBLIC	?_Get_first@?$_Compressed_pair@V?$doug_lea_alloc@PAUTNode@?$FixedMAP@PAVR_constant_table@@UmapNormalStates@R_dsgraph@@Udoug_lea_allocator@@@@@@V?$_Vector_val@U?$_Simple_types@PAUTNode@?$FixedMAP@PAVR_constant_table@@UmapNormalStates@R_dsgraph@@Udoug_lea_allocator@@@@@std@@@std@@$00@std@@QAEAAV?$doug_lea_alloc@PAUTNode@?$FixedMAP@PAVR_constant_table@@UmapNormalStates@R_dsgraph@@Udoug_lea_allocator@@@@@@XZ ; std::_Compressed_pair<doug_lea_alloc<FixedMAP<R_constant_table *,R_dsgraph::mapNormalStates,doug_lea_allocator>::TNode *>,std::_Vector_val<std::_Simple_types<FixedMAP<R_constant_table *,R_dsgraph::mapNormalStates,doug_lea_allocator>::TNode *> >,1>::_Get_first
PUBLIC	??$_Destroy_range@V?$doug_lea_alloc@PAUTNode@?$FixedMAP@PAVR_constant_table@@UmapNormalStates@R_dsgraph@@Udoug_lea_allocator@@@@@@@std@@YAXPAPAUTNode@?$FixedMAP@PAVR_constant_table@@UmapNormalStates@R_dsgraph@@Udoug_lea_allocator@@@@QAPAU12@AAV?$doug_lea_alloc@PAUTNode@?$FixedMAP@PAVR_constant_table@@UmapNormalStates@R_dsgraph@@Udoug_lea_allocator@@@@@@@Z ; std::_Destroy_range<doug_lea_alloc<FixedMAP<R_constant_table *,R_dsgraph::mapNormalStates,doug_lea_allocator>::TNode *> >
PUBLIC	??$_Unfancy@PAUTNode@?$FixedMAP@PAVR_constant_table@@UmapNormalStates@R_dsgraph@@Udoug_lea_allocator@@@@@std@@YAPAPAUTNode@?$FixedMAP@PAVR_constant_table@@UmapNormalStates@R_dsgraph@@Udoug_lea_allocator@@@@PAPAU12@@Z ; std::_Unfancy<FixedMAP<R_constant_table *,R_dsgraph::mapNormalStates,doug_lea_allocator>::TNode *>
PUBLIC	??$destroy@PAUTNode@?$FixedMAP@PAVR_constant_table@@UmapNormalStates@R_dsgraph@@Udoug_lea_allocator@@@@@?$_Normal_allocator_traits@V?$doug_lea_alloc@PAUTNode@?$FixedMAP@PAVR_constant_table@@UmapNormalStates@R_dsgraph@@Udoug_lea_allocator@@@@@@@std@@SAXAAV?$doug_lea_alloc@PAUTNode@?$FixedMAP@PAVR_constant_table@@UmapNormalStates@R_dsgraph@@Udoug_lea_allocator@@@@@@PAPAUTNode@?$FixedMAP@PAVR_constant_table@@UmapNormalStates@R_dsgraph@@Udoug_lea_allocator@@@@@Z ; std::_Normal_allocator_traits<doug_lea_alloc<FixedMAP<R_constant_table *,R_dsgraph::mapNormalStates,doug_lea_allocator>::TNode *> >::destroy<FixedMAP<R_constant_table *,R_dsgraph::mapNormalStates,doug_lea_allocator>::TNode *>
PUBLIC	?destroy@?$doug_lea_alloc@PAUTNode@?$FixedMAP@PAVR_constant_table@@UmapNormalStates@R_dsgraph@@Udoug_lea_allocator@@@@@@QAEXPAPAUTNode@?$FixedMAP@PAVR_constant_table@@UmapNormalStates@R_dsgraph@@Udoug_lea_allocator@@@@@Z ; doug_lea_alloc<FixedMAP<R_constant_table *,R_dsgraph::mapNormalStates,doug_lea_allocator>::TNode *>::destroy
PUBLIC	??$_Destroy_in_place@PAPAUTNode@?$FixedMAP@PAVR_constant_table@@UmapNormalStates@R_dsgraph@@Udoug_lea_allocator@@@@@std@@YAXAAPAPAUTNode@?$FixedMAP@PAVR_constant_table@@UmapNormalStates@R_dsgraph@@Udoug_lea_allocator@@@@@Z ; std::_Destroy_in_place<FixedMAP<R_constant_table *,R_dsgraph::mapNormalStates,doug_lea_allocator>::TNode * *>
PUBLIC	?clear@?$xr_vector@PAUTNode@?$FixedMAP@PAUIDirect3DPixelShader9@@UmapNormalCS@R_dsgraph@@Udoug_lea_allocator@@@@V?$doug_lea_alloc@PAUTNode@?$FixedMAP@PAUIDirect3DPixelShader9@@UmapNormalCS@R_dsgraph@@Udoug_lea_allocator@@@@@@@@QAEXXZ ; xr_vector<FixedMAP<IDirect3DPixelShader9 *,R_dsgraph::mapNormalCS,doug_lea_allocator>::TNode *,doug_lea_alloc<FixedMAP<IDirect3DPixelShader9 *,R_dsgraph::mapNormalCS,doug_lea_allocator>::TNode *> >::clear
PUBLIC	?clear_and_free@?$xr_vector@PAUTNode@?$FixedMAP@PAUIDirect3DPixelShader9@@UmapNormalCS@R_dsgraph@@Udoug_lea_allocator@@@@V?$doug_lea_alloc@PAUTNode@?$FixedMAP@PAUIDirect3DPixelShader9@@UmapNormalCS@R_dsgraph@@Udoug_lea_allocator@@@@@@@@QAEXXZ ; xr_vector<FixedMAP<IDirect3DPixelShader9 *,R_dsgraph::mapNormalCS,doug_lea_allocator>::TNode *,doug_lea_alloc<FixedMAP<IDirect3DPixelShader9 *,R_dsgraph::mapNormalCS,doug_lea_allocator>::TNode *> >::clear_and_free
PUBLIC	?clear@?$vector@PAUTNode@?$FixedMAP@PAUIDirect3DPixelShader9@@UmapNormalCS@R_dsgraph@@Udoug_lea_allocator@@@@V?$doug_lea_alloc@PAUTNode@?$FixedMAP@PAUIDirect3DPixelShader9@@UmapNormalCS@R_dsgraph@@Udoug_lea_allocator@@@@@@@std@@QAEXXZ ; std::vector<FixedMAP<IDirect3DPixelShader9 *,R_dsgraph::mapNormalCS,doug_lea_allocator>::TNode *,doug_lea_alloc<FixedMAP<IDirect3DPixelShader9 *,R_dsgraph::mapNormalCS,doug_lea_allocator>::TNode *> >::clear
PUBLIC	?_Destroy@?$vector@PAUTNode@?$FixedMAP@PAUIDirect3DPixelShader9@@UmapNormalCS@R_dsgraph@@Udoug_lea_allocator@@@@V?$doug_lea_alloc@PAUTNode@?$FixedMAP@PAUIDirect3DPixelShader9@@UmapNormalCS@R_dsgraph@@Udoug_lea_allocator@@@@@@@std@@AAEXPAPAUTNode@?$FixedMAP@PAUIDirect3DPixelShader9@@UmapNormalCS@R_dsgraph@@Udoug_lea_allocator@@@@0@Z ; std::vector<FixedMAP<IDirect3DPixelShader9 *,R_dsgraph::mapNormalCS,doug_lea_allocator>::TNode *,doug_lea_alloc<FixedMAP<IDirect3DPixelShader9 *,R_dsgraph::mapNormalCS,doug_lea_allocator>::TNode *> >::_Destroy
PUBLIC	?_Getal@?$vector@PAUTNode@?$FixedMAP@PAUIDirect3DPixelShader9@@UmapNormalCS@R_dsgraph@@Udoug_lea_allocator@@@@V?$doug_lea_alloc@PAUTNode@?$FixedMAP@PAUIDirect3DPixelShader9@@UmapNormalCS@R_dsgraph@@Udoug_lea_allocator@@@@@@@std@@AAEAAV?$doug_lea_alloc@PAUTNode@?$FixedMAP@PAUIDirect3DPixelShader9@@UmapNormalCS@R_dsgraph@@Udoug_lea_allocator@@@@@@XZ ; std::vector<FixedMAP<IDirect3DPixelShader9 *,R_dsgraph::mapNormalCS,doug_lea_allocator>::TNode *,doug_lea_alloc<FixedMAP<IDirect3DPixelShader9 *,R_dsgraph::mapNormalCS,doug_lea_allocator>::TNode *> >::_Getal
PUBLIC	?_Get_first@?$_Compressed_pair@V?$doug_lea_alloc@PAUTNode@?$FixedMAP@PAUIDirect3DPixelShader9@@UmapNormalCS@R_dsgraph@@Udoug_lea_allocator@@@@@@V?$_Vector_val@U?$_Simple_types@PAUTNode@?$FixedMAP@PAUIDirect3DPixelShader9@@UmapNormalCS@R_dsgraph@@Udoug_lea_allocator@@@@@std@@@std@@$00@std@@QAEAAV?$doug_lea_alloc@PAUTNode@?$FixedMAP@PAUIDirect3DPixelShader9@@UmapNormalCS@R_dsgraph@@Udoug_lea_allocator@@@@@@XZ ; std::_Compressed_pair<doug_lea_alloc<FixedMAP<IDirect3DPixelShader9 *,R_dsgraph::mapNormalCS,doug_lea_allocator>::TNode *>,std::_Vector_val<std::_Simple_types<FixedMAP<IDirect3DPixelShader9 *,R_dsgraph::mapNormalCS,doug_lea_allocator>::TNode *> >,1>::_Get_first
PUBLIC	??$_Destroy_range@V?$doug_lea_alloc@PAUTNode@?$FixedMAP@PAUIDirect3DPixelShader9@@UmapNormalCS@R_dsgraph@@Udoug_lea_allocator@@@@@@@std@@YAXPAPAUTNode@?$FixedMAP@PAUIDirect3DPixelShader9@@UmapNormalCS@R_dsgraph@@Udoug_lea_allocator@@@@QAPAU12@AAV?$doug_lea_alloc@PAUTNode@?$FixedMAP@PAUIDirect3DPixelShader9@@UmapNormalCS@R_dsgraph@@Udoug_lea_allocator@@@@@@@Z ; std::_Destroy_range<doug_lea_alloc<FixedMAP<IDirect3DPixelShader9 *,R_dsgraph::mapNormalCS,doug_lea_allocator>::TNode *> >
PUBLIC	??$_Unfancy@PAUTNode@?$FixedMAP@PAUIDirect3DPixelShader9@@UmapNormalCS@R_dsgraph@@Udoug_lea_allocator@@@@@std@@YAPAPAUTNode@?$FixedMAP@PAUIDirect3DPixelShader9@@UmapNormalCS@R_dsgraph@@Udoug_lea_allocator@@@@PAPAU12@@Z ; std::_Unfancy<FixedMAP<IDirect3DPixelShader9 *,R_dsgraph::mapNormalCS,doug_lea_allocator>::TNode *>
PUBLIC	??$destroy@PAUTNode@?$FixedMAP@PAUIDirect3DPixelShader9@@UmapNormalCS@R_dsgraph@@Udoug_lea_allocator@@@@@?$_Normal_allocator_traits@V?$doug_lea_alloc@PAUTNode@?$FixedMAP@PAUIDirect3DPixelShader9@@UmapNormalCS@R_dsgraph@@Udoug_lea_allocator@@@@@@@std@@SAXAAV?$doug_lea_alloc@PAUTNode@?$FixedMAP@PAUIDirect3DPixelShader9@@UmapNormalCS@R_dsgraph@@Udoug_lea_allocator@@@@@@PAPAUTNode@?$FixedMAP@PAUIDirect3DPixelShader9@@UmapNormalCS@R_dsgraph@@Udoug_lea_allocator@@@@@Z ; std::_Normal_allocator_traits<doug_lea_alloc<FixedMAP<IDirect3DPixelShader9 *,R_dsgraph::mapNormalCS,doug_lea_allocator>::TNode *> >::destroy<FixedMAP<IDirect3DPixelShader9 *,R_dsgraph::mapNormalCS,doug_lea_allocator>::TNode *>
PUBLIC	?destroy@?$doug_lea_alloc@PAUTNode@?$FixedMAP@PAUIDirect3DPixelShader9@@UmapNormalCS@R_dsgraph@@Udoug_lea_allocator@@@@@@QAEXPAPAUTNode@?$FixedMAP@PAUIDirect3DPixelShader9@@UmapNormalCS@R_dsgraph@@Udoug_lea_allocator@@@@@Z ; doug_lea_alloc<FixedMAP<IDirect3DPixelShader9 *,R_dsgraph::mapNormalCS,doug_lea_allocator>::TNode *>::destroy
PUBLIC	??$_Destroy_in_place@PAPAUTNode@?$FixedMAP@PAUIDirect3DPixelShader9@@UmapNormalCS@R_dsgraph@@Udoug_lea_allocator@@@@@std@@YAXAAPAPAUTNode@?$FixedMAP@PAUIDirect3DPixelShader9@@UmapNormalCS@R_dsgraph@@Udoug_lea_allocator@@@@@Z ; std::_Destroy_in_place<FixedMAP<IDirect3DPixelShader9 *,R_dsgraph::mapNormalCS,doug_lea_allocator>::TNode * *>
PUBLIC	?clear@?$xr_vector@PAUTNode@?$FixedMAP@PAUIDirect3DVertexShader9@@UmapNormalPS@R_dsgraph@@Udoug_lea_allocator@@@@V?$doug_lea_alloc@PAUTNode@?$FixedMAP@PAUIDirect3DVertexShader9@@UmapNormalPS@R_dsgraph@@Udoug_lea_allocator@@@@@@@@QAEXXZ ; xr_vector<FixedMAP<IDirect3DVertexShader9 *,R_dsgraph::mapNormalPS,doug_lea_allocator>::TNode *,doug_lea_alloc<FixedMAP<IDirect3DVertexShader9 *,R_dsgraph::mapNormalPS,doug_lea_allocator>::TNode *> >::clear
PUBLIC	?clear_and_free@?$xr_vector@PAUTNode@?$FixedMAP@PAUIDirect3DVertexShader9@@UmapNormalPS@R_dsgraph@@Udoug_lea_allocator@@@@V?$doug_lea_alloc@PAUTNode@?$FixedMAP@PAUIDirect3DVertexShader9@@UmapNormalPS@R_dsgraph@@Udoug_lea_allocator@@@@@@@@QAEXXZ ; xr_vector<FixedMAP<IDirect3DVertexShader9 *,R_dsgraph::mapNormalPS,doug_lea_allocator>::TNode *,doug_lea_alloc<FixedMAP<IDirect3DVertexShader9 *,R_dsgraph::mapNormalPS,doug_lea_allocator>::TNode *> >::clear_and_free
PUBLIC	?clear@?$vector@PAUTNode@?$FixedMAP@PAUIDirect3DVertexShader9@@UmapNormalPS@R_dsgraph@@Udoug_lea_allocator@@@@V?$doug_lea_alloc@PAUTNode@?$FixedMAP@PAUIDirect3DVertexShader9@@UmapNormalPS@R_dsgraph@@Udoug_lea_allocator@@@@@@@std@@QAEXXZ ; std::vector<FixedMAP<IDirect3DVertexShader9 *,R_dsgraph::mapNormalPS,doug_lea_allocator>::TNode *,doug_lea_alloc<FixedMAP<IDirect3DVertexShader9 *,R_dsgraph::mapNormalPS,doug_lea_allocator>::TNode *> >::clear
PUBLIC	?_Destroy@?$vector@PAUTNode@?$FixedMAP@PAUIDirect3DVertexShader9@@UmapNormalPS@R_dsgraph@@Udoug_lea_allocator@@@@V?$doug_lea_alloc@PAUTNode@?$FixedMAP@PAUIDirect3DVertexShader9@@UmapNormalPS@R_dsgraph@@Udoug_lea_allocator@@@@@@@std@@AAEXPAPAUTNode@?$FixedMAP@PAUIDirect3DVertexShader9@@UmapNormalPS@R_dsgraph@@Udoug_lea_allocator@@@@0@Z ; std::vector<FixedMAP<IDirect3DVertexShader9 *,R_dsgraph::mapNormalPS,doug_lea_allocator>::TNode *,doug_lea_alloc<FixedMAP<IDirect3DVertexShader9 *,R_dsgraph::mapNormalPS,doug_lea_allocator>::TNode *> >::_Destroy
PUBLIC	?_Getal@?$vector@PAUTNode@?$FixedMAP@PAUIDirect3DVertexShader9@@UmapNormalPS@R_dsgraph@@Udoug_lea_allocator@@@@V?$doug_lea_alloc@PAUTNode@?$FixedMAP@PAUIDirect3DVertexShader9@@UmapNormalPS@R_dsgraph@@Udoug_lea_allocator@@@@@@@std@@AAEAAV?$doug_lea_alloc@PAUTNode@?$FixedMAP@PAUIDirect3DVertexShader9@@UmapNormalPS@R_dsgraph@@Udoug_lea_allocator@@@@@@XZ ; std::vector<FixedMAP<IDirect3DVertexShader9 *,R_dsgraph::mapNormalPS,doug_lea_allocator>::TNode *,doug_lea_alloc<FixedMAP<IDirect3DVertexShader9 *,R_dsgraph::mapNormalPS,doug_lea_allocator>::TNode *> >::_Getal
PUBLIC	?_Get_first@?$_Compressed_pair@V?$doug_lea_alloc@PAUTNode@?$FixedMAP@PAUIDirect3DVertexShader9@@UmapNormalPS@R_dsgraph@@Udoug_lea_allocator@@@@@@V?$_Vector_val@U?$_Simple_types@PAUTNode@?$FixedMAP@PAUIDirect3DVertexShader9@@UmapNormalPS@R_dsgraph@@Udoug_lea_allocator@@@@@std@@@std@@$00@std@@QAEAAV?$doug_lea_alloc@PAUTNode@?$FixedMAP@PAUIDirect3DVertexShader9@@UmapNormalPS@R_dsgraph@@Udoug_lea_allocator@@@@@@XZ ; std::_Compressed_pair<doug_lea_alloc<FixedMAP<IDirect3DVertexShader9 *,R_dsgraph::mapNormalPS,doug_lea_allocator>::TNode *>,std::_Vector_val<std::_Simple_types<FixedMAP<IDirect3DVertexShader9 *,R_dsgraph::mapNormalPS,doug_lea_allocator>::TNode *> >,1>::_Get_first
PUBLIC	??$_Destroy_range@V?$doug_lea_alloc@PAUTNode@?$FixedMAP@PAUIDirect3DVertexShader9@@UmapNormalPS@R_dsgraph@@Udoug_lea_allocator@@@@@@@std@@YAXPAPAUTNode@?$FixedMAP@PAUIDirect3DVertexShader9@@UmapNormalPS@R_dsgraph@@Udoug_lea_allocator@@@@QAPAU12@AAV?$doug_lea_alloc@PAUTNode@?$FixedMAP@PAUIDirect3DVertexShader9@@UmapNormalPS@R_dsgraph@@Udoug_lea_allocator@@@@@@@Z ; std::_Destroy_range<doug_lea_alloc<FixedMAP<IDirect3DVertexShader9 *,R_dsgraph::mapNormalPS,doug_lea_allocator>::TNode *> >
PUBLIC	??$_Unfancy@PAUTNode@?$FixedMAP@PAUIDirect3DVertexShader9@@UmapNormalPS@R_dsgraph@@Udoug_lea_allocator@@@@@std@@YAPAPAUTNode@?$FixedMAP@PAUIDirect3DVertexShader9@@UmapNormalPS@R_dsgraph@@Udoug_lea_allocator@@@@PAPAU12@@Z ; std::_Unfancy<FixedMAP<IDirect3DVertexShader9 *,R_dsgraph::mapNormalPS,doug_lea_allocator>::TNode *>
PUBLIC	??$destroy@PAUTNode@?$FixedMAP@PAUIDirect3DVertexShader9@@UmapNormalPS@R_dsgraph@@Udoug_lea_allocator@@@@@?$_Normal_allocator_traits@V?$doug_lea_alloc@PAUTNode@?$FixedMAP@PAUIDirect3DVertexShader9@@UmapNormalPS@R_dsgraph@@Udoug_lea_allocator@@@@@@@std@@SAXAAV?$doug_lea_alloc@PAUTNode@?$FixedMAP@PAUIDirect3DVertexShader9@@UmapNormalPS@R_dsgraph@@Udoug_lea_allocator@@@@@@PAPAUTNode@?$FixedMAP@PAUIDirect3DVertexShader9@@UmapNormalPS@R_dsgraph@@Udoug_lea_allocator@@@@@Z ; std::_Normal_allocator_traits<doug_lea_alloc<FixedMAP<IDirect3DVertexShader9 *,R_dsgraph::mapNormalPS,doug_lea_allocator>::TNode *> >::destroy<FixedMAP<IDirect3DVertexShader9 *,R_dsgraph::mapNormalPS,doug_lea_allocator>::TNode *>
PUBLIC	?destroy@?$doug_lea_alloc@PAUTNode@?$FixedMAP@PAUIDirect3DVertexShader9@@UmapNormalPS@R_dsgraph@@Udoug_lea_allocator@@@@@@QAEXPAPAUTNode@?$FixedMAP@PAUIDirect3DVertexShader9@@UmapNormalPS@R_dsgraph@@Udoug_lea_allocator@@@@@Z ; doug_lea_alloc<FixedMAP<IDirect3DVertexShader9 *,R_dsgraph::mapNormalPS,doug_lea_allocator>::TNode *>::destroy
PUBLIC	??$_Destroy_in_place@PAPAUTNode@?$FixedMAP@PAUIDirect3DVertexShader9@@UmapNormalPS@R_dsgraph@@Udoug_lea_allocator@@@@@std@@YAXAAPAPAUTNode@?$FixedMAP@PAUIDirect3DVertexShader9@@UmapNormalPS@R_dsgraph@@Udoug_lea_allocator@@@@@Z ; std::_Destroy_in_place<FixedMAP<IDirect3DVertexShader9 *,R_dsgraph::mapNormalPS,doug_lea_allocator>::TNode * *>
PUBLIC	?clear@?$xr_vector@PAUTNode@?$FixedMAP@PAUSTextureList@@UmapMatrixItems@R_dsgraph@@Udoug_lea_allocator@@@@V?$doug_lea_alloc@PAUTNode@?$FixedMAP@PAUSTextureList@@UmapMatrixItems@R_dsgraph@@Udoug_lea_allocator@@@@@@@@QAEXXZ ; xr_vector<FixedMAP<STextureList *,R_dsgraph::mapMatrixItems,doug_lea_allocator>::TNode *,doug_lea_alloc<FixedMAP<STextureList *,R_dsgraph::mapMatrixItems,doug_lea_allocator>::TNode *> >::clear
PUBLIC	?clear_and_free@?$xr_vector@PAUTNode@?$FixedMAP@PAUSTextureList@@UmapMatrixItems@R_dsgraph@@Udoug_lea_allocator@@@@V?$doug_lea_alloc@PAUTNode@?$FixedMAP@PAUSTextureList@@UmapMatrixItems@R_dsgraph@@Udoug_lea_allocator@@@@@@@@QAEXXZ ; xr_vector<FixedMAP<STextureList *,R_dsgraph::mapMatrixItems,doug_lea_allocator>::TNode *,doug_lea_alloc<FixedMAP<STextureList *,R_dsgraph::mapMatrixItems,doug_lea_allocator>::TNode *> >::clear_and_free
PUBLIC	?clear@?$vector@PAUTNode@?$FixedMAP@PAUSTextureList@@UmapMatrixItems@R_dsgraph@@Udoug_lea_allocator@@@@V?$doug_lea_alloc@PAUTNode@?$FixedMAP@PAUSTextureList@@UmapMatrixItems@R_dsgraph@@Udoug_lea_allocator@@@@@@@std@@QAEXXZ ; std::vector<FixedMAP<STextureList *,R_dsgraph::mapMatrixItems,doug_lea_allocator>::TNode *,doug_lea_alloc<FixedMAP<STextureList *,R_dsgraph::mapMatrixItems,doug_lea_allocator>::TNode *> >::clear
PUBLIC	?_Destroy@?$vector@PAUTNode@?$FixedMAP@PAUSTextureList@@UmapMatrixItems@R_dsgraph@@Udoug_lea_allocator@@@@V?$doug_lea_alloc@PAUTNode@?$FixedMAP@PAUSTextureList@@UmapMatrixItems@R_dsgraph@@Udoug_lea_allocator@@@@@@@std@@AAEXPAPAUTNode@?$FixedMAP@PAUSTextureList@@UmapMatrixItems@R_dsgraph@@Udoug_lea_allocator@@@@0@Z ; std::vector<FixedMAP<STextureList *,R_dsgraph::mapMatrixItems,doug_lea_allocator>::TNode *,doug_lea_alloc<FixedMAP<STextureList *,R_dsgraph::mapMatrixItems,doug_lea_allocator>::TNode *> >::_Destroy
PUBLIC	?_Getal@?$vector@PAUTNode@?$FixedMAP@PAUSTextureList@@UmapMatrixItems@R_dsgraph@@Udoug_lea_allocator@@@@V?$doug_lea_alloc@PAUTNode@?$FixedMAP@PAUSTextureList@@UmapMatrixItems@R_dsgraph@@Udoug_lea_allocator@@@@@@@std@@AAEAAV?$doug_lea_alloc@PAUTNode@?$FixedMAP@PAUSTextureList@@UmapMatrixItems@R_dsgraph@@Udoug_lea_allocator@@@@@@XZ ; std::vector<FixedMAP<STextureList *,R_dsgraph::mapMatrixItems,doug_lea_allocator>::TNode *,doug_lea_alloc<FixedMAP<STextureList *,R_dsgraph::mapMatrixItems,doug_lea_allocator>::TNode *> >::_Getal
PUBLIC	?_Get_first@?$_Compressed_pair@V?$doug_lea_alloc@PAUTNode@?$FixedMAP@PAUSTextureList@@UmapMatrixItems@R_dsgraph@@Udoug_lea_allocator@@@@@@V?$_Vector_val@U?$_Simple_types@PAUTNode@?$FixedMAP@PAUSTextureList@@UmapMatrixItems@R_dsgraph@@Udoug_lea_allocator@@@@@std@@@std@@$00@std@@QAEAAV?$doug_lea_alloc@PAUTNode@?$FixedMAP@PAUSTextureList@@UmapMatrixItems@R_dsgraph@@Udoug_lea_allocator@@@@@@XZ ; std::_Compressed_pair<doug_lea_alloc<FixedMAP<STextureList *,R_dsgraph::mapMatrixItems,doug_lea_allocator>::TNode *>,std::_Vector_val<std::_Simple_types<FixedMAP<STextureList *,R_dsgraph::mapMatrixItems,doug_lea_allocator>::TNode *> >,1>::_Get_first
PUBLIC	??$_Destroy_range@V?$doug_lea_alloc@PAUTNode@?$FixedMAP@PAUSTextureList@@UmapMatrixItems@R_dsgraph@@Udoug_lea_allocator@@@@@@@std@@YAXPAPAUTNode@?$FixedMAP@PAUSTextureList@@UmapMatrixItems@R_dsgraph@@Udoug_lea_allocator@@@@QAPAU12@AAV?$doug_lea_alloc@PAUTNode@?$FixedMAP@PAUSTextureList@@UmapMatrixItems@R_dsgraph@@Udoug_lea_allocator@@@@@@@Z ; std::_Destroy_range<doug_lea_alloc<FixedMAP<STextureList *,R_dsgraph::mapMatrixItems,doug_lea_allocator>::TNode *> >
PUBLIC	??$_Unfancy@PAUTNode@?$FixedMAP@PAUSTextureList@@UmapMatrixItems@R_dsgraph@@Udoug_lea_allocator@@@@@std@@YAPAPAUTNode@?$FixedMAP@PAUSTextureList@@UmapMatrixItems@R_dsgraph@@Udoug_lea_allocator@@@@PAPAU12@@Z ; std::_Unfancy<FixedMAP<STextureList *,R_dsgraph::mapMatrixItems,doug_lea_allocator>::TNode *>
PUBLIC	??$destroy@PAUTNode@?$FixedMAP@PAUSTextureList@@UmapMatrixItems@R_dsgraph@@Udoug_lea_allocator@@@@@?$_Normal_allocator_traits@V?$doug_lea_alloc@PAUTNode@?$FixedMAP@PAUSTextureList@@UmapMatrixItems@R_dsgraph@@Udoug_lea_allocator@@@@@@@std@@SAXAAV?$doug_lea_alloc@PAUTNode@?$FixedMAP@PAUSTextureList@@UmapMatrixItems@R_dsgraph@@Udoug_lea_allocator@@@@@@PAPAUTNode@?$FixedMAP@PAUSTextureList@@UmapMatrixItems@R_dsgraph@@Udoug_lea_allocator@@@@@Z ; std::_Normal_allocator_traits<doug_lea_alloc<FixedMAP<STextureList *,R_dsgraph::mapMatrixItems,doug_lea_allocator>::TNode *> >::destroy<FixedMAP<STextureList *,R_dsgraph::mapMatrixItems,doug_lea_allocator>::TNode *>
PUBLIC	?destroy@?$doug_lea_alloc@PAUTNode@?$FixedMAP@PAUSTextureList@@UmapMatrixItems@R_dsgraph@@Udoug_lea_allocator@@@@@@QAEXPAPAUTNode@?$FixedMAP@PAUSTextureList@@UmapMatrixItems@R_dsgraph@@Udoug_lea_allocator@@@@@Z ; doug_lea_alloc<FixedMAP<STextureList *,R_dsgraph::mapMatrixItems,doug_lea_allocator>::TNode *>::destroy
PUBLIC	??$_Destroy_in_place@PAPAUTNode@?$FixedMAP@PAUSTextureList@@UmapMatrixItems@R_dsgraph@@Udoug_lea_allocator@@@@@std@@YAXAAPAPAUTNode@?$FixedMAP@PAUSTextureList@@UmapMatrixItems@R_dsgraph@@Udoug_lea_allocator@@@@@Z ; std::_Destroy_in_place<FixedMAP<STextureList *,R_dsgraph::mapMatrixItems,doug_lea_allocator>::TNode * *>
PUBLIC	?clear@?$xr_vector@PAUTNode@?$FixedMAP@PAUIDirect3DStateBlock9@@UmapMatrixTextures@R_dsgraph@@Udoug_lea_allocator@@@@V?$doug_lea_alloc@PAUTNode@?$FixedMAP@PAUIDirect3DStateBlock9@@UmapMatrixTextures@R_dsgraph@@Udoug_lea_allocator@@@@@@@@QAEXXZ ; xr_vector<FixedMAP<IDirect3DStateBlock9 *,R_dsgraph::mapMatrixTextures,doug_lea_allocator>::TNode *,doug_lea_alloc<FixedMAP<IDirect3DStateBlock9 *,R_dsgraph::mapMatrixTextures,doug_lea_allocator>::TNode *> >::clear
PUBLIC	?clear_and_free@?$xr_vector@PAUTNode@?$FixedMAP@PAUIDirect3DStateBlock9@@UmapMatrixTextures@R_dsgraph@@Udoug_lea_allocator@@@@V?$doug_lea_alloc@PAUTNode@?$FixedMAP@PAUIDirect3DStateBlock9@@UmapMatrixTextures@R_dsgraph@@Udoug_lea_allocator@@@@@@@@QAEXXZ ; xr_vector<FixedMAP<IDirect3DStateBlock9 *,R_dsgraph::mapMatrixTextures,doug_lea_allocator>::TNode *,doug_lea_alloc<FixedMAP<IDirect3DStateBlock9 *,R_dsgraph::mapMatrixTextures,doug_lea_allocator>::TNode *> >::clear_and_free
PUBLIC	?clear@?$vector@PAUTNode@?$FixedMAP@PAUIDirect3DStateBlock9@@UmapMatrixTextures@R_dsgraph@@Udoug_lea_allocator@@@@V?$doug_lea_alloc@PAUTNode@?$FixedMAP@PAUIDirect3DStateBlock9@@UmapMatrixTextures@R_dsgraph@@Udoug_lea_allocator@@@@@@@std@@QAEXXZ ; std::vector<FixedMAP<IDirect3DStateBlock9 *,R_dsgraph::mapMatrixTextures,doug_lea_allocator>::TNode *,doug_lea_alloc<FixedMAP<IDirect3DStateBlock9 *,R_dsgraph::mapMatrixTextures,doug_lea_allocator>::TNode *> >::clear
PUBLIC	?_Destroy@?$vector@PAUTNode@?$FixedMAP@PAUIDirect3DStateBlock9@@UmapMatrixTextures@R_dsgraph@@Udoug_lea_allocator@@@@V?$doug_lea_alloc@PAUTNode@?$FixedMAP@PAUIDirect3DStateBlock9@@UmapMatrixTextures@R_dsgraph@@Udoug_lea_allocator@@@@@@@std@@AAEXPAPAUTNode@?$FixedMAP@PAUIDirect3DStateBlock9@@UmapMatrixTextures@R_dsgraph@@Udoug_lea_allocator@@@@0@Z ; std::vector<FixedMAP<IDirect3DStateBlock9 *,R_dsgraph::mapMatrixTextures,doug_lea_allocator>::TNode *,doug_lea_alloc<FixedMAP<IDirect3DStateBlock9 *,R_dsgraph::mapMatrixTextures,doug_lea_allocator>::TNode *> >::_Destroy
PUBLIC	?_Getal@?$vector@PAUTNode@?$FixedMAP@PAUIDirect3DStateBlock9@@UmapMatrixTextures@R_dsgraph@@Udoug_lea_allocator@@@@V?$doug_lea_alloc@PAUTNode@?$FixedMAP@PAUIDirect3DStateBlock9@@UmapMatrixTextures@R_dsgraph@@Udoug_lea_allocator@@@@@@@std@@AAEAAV?$doug_lea_alloc@PAUTNode@?$FixedMAP@PAUIDirect3DStateBlock9@@UmapMatrixTextures@R_dsgraph@@Udoug_lea_allocator@@@@@@XZ ; std::vector<FixedMAP<IDirect3DStateBlock9 *,R_dsgraph::mapMatrixTextures,doug_lea_allocator>::TNode *,doug_lea_alloc<FixedMAP<IDirect3DStateBlock9 *,R_dsgraph::mapMatrixTextures,doug_lea_allocator>::TNode *> >::_Getal
PUBLIC	?_Get_first@?$_Compressed_pair@V?$doug_lea_alloc@PAUTNode@?$FixedMAP@PAUIDirect3DStateBlock9@@UmapMatrixTextures@R_dsgraph@@Udoug_lea_allocator@@@@@@V?$_Vector_val@U?$_Simple_types@PAUTNode@?$FixedMAP@PAUIDirect3DStateBlock9@@UmapMatrixTextures@R_dsgraph@@Udoug_lea_allocator@@@@@std@@@std@@$00@std@@QAEAAV?$doug_lea_alloc@PAUTNode@?$FixedMAP@PAUIDirect3DStateBlock9@@UmapMatrixTextures@R_dsgraph@@Udoug_lea_allocator@@@@@@XZ ; std::_Compressed_pair<doug_lea_alloc<FixedMAP<IDirect3DStateBlock9 *,R_dsgraph::mapMatrixTextures,doug_lea_allocator>::TNode *>,std::_Vector_val<std::_Simple_types<FixedMAP<IDirect3DStateBlock9 *,R_dsgraph::mapMatrixTextures,doug_lea_allocator>::TNode *> >,1>::_Get_first
PUBLIC	??$_Destroy_range@V?$doug_lea_alloc@PAUTNode@?$FixedMAP@PAUIDirect3DStateBlock9@@UmapMatrixTextures@R_dsgraph@@Udoug_lea_allocator@@@@@@@std@@YAXPAPAUTNode@?$FixedMAP@PAUIDirect3DStateBlock9@@UmapMatrixTextures@R_dsgraph@@Udoug_lea_allocator@@@@QAPAU12@AAV?$doug_lea_alloc@PAUTNode@?$FixedMAP@PAUIDirect3DStateBlock9@@UmapMatrixTextures@R_dsgraph@@Udoug_lea_allocator@@@@@@@Z ; std::_Destroy_range<doug_lea_alloc<FixedMAP<IDirect3DStateBlock9 *,R_dsgraph::mapMatrixTextures,doug_lea_allocator>::TNode *> >
PUBLIC	??$_Unfancy@PAUTNode@?$FixedMAP@PAUIDirect3DStateBlock9@@UmapMatrixTextures@R_dsgraph@@Udoug_lea_allocator@@@@@std@@YAPAPAUTNode@?$FixedMAP@PAUIDirect3DStateBlock9@@UmapMatrixTextures@R_dsgraph@@Udoug_lea_allocator@@@@PAPAU12@@Z ; std::_Unfancy<FixedMAP<IDirect3DStateBlock9 *,R_dsgraph::mapMatrixTextures,doug_lea_allocator>::TNode *>
PUBLIC	??$destroy@PAUTNode@?$FixedMAP@PAUIDirect3DStateBlock9@@UmapMatrixTextures@R_dsgraph@@Udoug_lea_allocator@@@@@?$_Normal_allocator_traits@V?$doug_lea_alloc@PAUTNode@?$FixedMAP@PAUIDirect3DStateBlock9@@UmapMatrixTextures@R_dsgraph@@Udoug_lea_allocator@@@@@@@std@@SAXAAV?$doug_lea_alloc@PAUTNode@?$FixedMAP@PAUIDirect3DStateBlock9@@UmapMatrixTextures@R_dsgraph@@Udoug_lea_allocator@@@@@@PAPAUTNode@?$FixedMAP@PAUIDirect3DStateBlock9@@UmapMatrixTextures@R_dsgraph@@Udoug_lea_allocator@@@@@Z ; std::_Normal_allocator_traits<doug_lea_alloc<FixedMAP<IDirect3DStateBlock9 *,R_dsgraph::mapMatrixTextures,doug_lea_allocator>::TNode *> >::destroy<FixedMAP<IDirect3DStateBlock9 *,R_dsgraph::mapMatrixTextures,doug_lea_allocator>::TNode *>
PUBLIC	?destroy@?$doug_lea_alloc@PAUTNode@?$FixedMAP@PAUIDirect3DStateBlock9@@UmapMatrixTextures@R_dsgraph@@Udoug_lea_allocator@@@@@@QAEXPAPAUTNode@?$FixedMAP@PAUIDirect3DStateBlock9@@UmapMatrixTextures@R_dsgraph@@Udoug_lea_allocator@@@@@Z ; doug_lea_alloc<FixedMAP<IDirect3DStateBlock9 *,R_dsgraph::mapMatrixTextures,doug_lea_allocator>::TNode *>::destroy
PUBLIC	??$_Destroy_in_place@PAPAUTNode@?$FixedMAP@PAUIDirect3DStateBlock9@@UmapMatrixTextures@R_dsgraph@@Udoug_lea_allocator@@@@@std@@YAXAAPAPAUTNode@?$FixedMAP@PAUIDirect3DStateBlock9@@UmapMatrixTextures@R_dsgraph@@Udoug_lea_allocator@@@@@Z ; std::_Destroy_in_place<FixedMAP<IDirect3DStateBlock9 *,R_dsgraph::mapMatrixTextures,doug_lea_allocator>::TNode * *>
PUBLIC	?clear@?$xr_vector@PAUTNode@?$FixedMAP@PAVR_constant_table@@UmapMatrixStates@R_dsgraph@@Udoug_lea_allocator@@@@V?$doug_lea_alloc@PAUTNode@?$FixedMAP@PAVR_constant_table@@UmapMatrixStates@R_dsgraph@@Udoug_lea_allocator@@@@@@@@QAEXXZ ; xr_vector<FixedMAP<R_constant_table *,R_dsgraph::mapMatrixStates,doug_lea_allocator>::TNode *,doug_lea_alloc<FixedMAP<R_constant_table *,R_dsgraph::mapMatrixStates,doug_lea_allocator>::TNode *> >::clear
PUBLIC	?clear_and_free@?$xr_vector@PAUTNode@?$FixedMAP@PAVR_constant_table@@UmapMatrixStates@R_dsgraph@@Udoug_lea_allocator@@@@V?$doug_lea_alloc@PAUTNode@?$FixedMAP@PAVR_constant_table@@UmapMatrixStates@R_dsgraph@@Udoug_lea_allocator@@@@@@@@QAEXXZ ; xr_vector<FixedMAP<R_constant_table *,R_dsgraph::mapMatrixStates,doug_lea_allocator>::TNode *,doug_lea_alloc<FixedMAP<R_constant_table *,R_dsgraph::mapMatrixStates,doug_lea_allocator>::TNode *> >::clear_and_free
PUBLIC	?clear@?$vector@PAUTNode@?$FixedMAP@PAVR_constant_table@@UmapMatrixStates@R_dsgraph@@Udoug_lea_allocator@@@@V?$doug_lea_alloc@PAUTNode@?$FixedMAP@PAVR_constant_table@@UmapMatrixStates@R_dsgraph@@Udoug_lea_allocator@@@@@@@std@@QAEXXZ ; std::vector<FixedMAP<R_constant_table *,R_dsgraph::mapMatrixStates,doug_lea_allocator>::TNode *,doug_lea_alloc<FixedMAP<R_constant_table *,R_dsgraph::mapMatrixStates,doug_lea_allocator>::TNode *> >::clear
PUBLIC	?_Destroy@?$vector@PAUTNode@?$FixedMAP@PAVR_constant_table@@UmapMatrixStates@R_dsgraph@@Udoug_lea_allocator@@@@V?$doug_lea_alloc@PAUTNode@?$FixedMAP@PAVR_constant_table@@UmapMatrixStates@R_dsgraph@@Udoug_lea_allocator@@@@@@@std@@AAEXPAPAUTNode@?$FixedMAP@PAVR_constant_table@@UmapMatrixStates@R_dsgraph@@Udoug_lea_allocator@@@@0@Z ; std::vector<FixedMAP<R_constant_table *,R_dsgraph::mapMatrixStates,doug_lea_allocator>::TNode *,doug_lea_alloc<FixedMAP<R_constant_table *,R_dsgraph::mapMatrixStates,doug_lea_allocator>::TNode *> >::_Destroy
PUBLIC	?_Getal@?$vector@PAUTNode@?$FixedMAP@PAVR_constant_table@@UmapMatrixStates@R_dsgraph@@Udoug_lea_allocator@@@@V?$doug_lea_alloc@PAUTNode@?$FixedMAP@PAVR_constant_table@@UmapMatrixStates@R_dsgraph@@Udoug_lea_allocator@@@@@@@std@@AAEAAV?$doug_lea_alloc@PAUTNode@?$FixedMAP@PAVR_constant_table@@UmapMatrixStates@R_dsgraph@@Udoug_lea_allocator@@@@@@XZ ; std::vector<FixedMAP<R_constant_table *,R_dsgraph::mapMatrixStates,doug_lea_allocator>::TNode *,doug_lea_alloc<FixedMAP<R_constant_table *,R_dsgraph::mapMatrixStates,doug_lea_allocator>::TNode *> >::_Getal
PUBLIC	?_Get_first@?$_Compressed_pair@V?$doug_lea_alloc@PAUTNode@?$FixedMAP@PAVR_constant_table@@UmapMatrixStates@R_dsgraph@@Udoug_lea_allocator@@@@@@V?$_Vector_val@U?$_Simple_types@PAUTNode@?$FixedMAP@PAVR_constant_table@@UmapMatrixStates@R_dsgraph@@Udoug_lea_allocator@@@@@std@@@std@@$00@std@@QAEAAV?$doug_lea_alloc@PAUTNode@?$FixedMAP@PAVR_constant_table@@UmapMatrixStates@R_dsgraph@@Udoug_lea_allocator@@@@@@XZ ; std::_Compressed_pair<doug_lea_alloc<FixedMAP<R_constant_table *,R_dsgraph::mapMatrixStates,doug_lea_allocator>::TNode *>,std::_Vector_val<std::_Simple_types<FixedMAP<R_constant_table *,R_dsgraph::mapMatrixStates,doug_lea_allocator>::TNode *> >,1>::_Get_first
PUBLIC	??$_Destroy_range@V?$doug_lea_alloc@PAUTNode@?$FixedMAP@PAVR_constant_table@@UmapMatrixStates@R_dsgraph@@Udoug_lea_allocator@@@@@@@std@@YAXPAPAUTNode@?$FixedMAP@PAVR_constant_table@@UmapMatrixStates@R_dsgraph@@Udoug_lea_allocator@@@@QAPAU12@AAV?$doug_lea_alloc@PAUTNode@?$FixedMAP@PAVR_constant_table@@UmapMatrixStates@R_dsgraph@@Udoug_lea_allocator@@@@@@@Z ; std::_Destroy_range<doug_lea_alloc<FixedMAP<R_constant_table *,R_dsgraph::mapMatrixStates,doug_lea_allocator>::TNode *> >
PUBLIC	??$_Unfancy@PAUTNode@?$FixedMAP@PAVR_constant_table@@UmapMatrixStates@R_dsgraph@@Udoug_lea_allocator@@@@@std@@YAPAPAUTNode@?$FixedMAP@PAVR_constant_table@@UmapMatrixStates@R_dsgraph@@Udoug_lea_allocator@@@@PAPAU12@@Z ; std::_Unfancy<FixedMAP<R_constant_table *,R_dsgraph::mapMatrixStates,doug_lea_allocator>::TNode *>
PUBLIC	??$destroy@PAUTNode@?$FixedMAP@PAVR_constant_table@@UmapMatrixStates@R_dsgraph@@Udoug_lea_allocator@@@@@?$_Normal_allocator_traits@V?$doug_lea_alloc@PAUTNode@?$FixedMAP@PAVR_constant_table@@UmapMatrixStates@R_dsgraph@@Udoug_lea_allocator@@@@@@@std@@SAXAAV?$doug_lea_alloc@PAUTNode@?$FixedMAP@PAVR_constant_table@@UmapMatrixStates@R_dsgraph@@Udoug_lea_allocator@@@@@@PAPAUTNode@?$FixedMAP@PAVR_constant_table@@UmapMatrixStates@R_dsgraph@@Udoug_lea_allocator@@@@@Z ; std::_Normal_allocator_traits<doug_lea_alloc<FixedMAP<R_constant_table *,R_dsgraph::mapMatrixStates,doug_lea_allocator>::TNode *> >::destroy<FixedMAP<R_constant_table *,R_dsgraph::mapMatrixStates,doug_lea_allocator>::TNode *>
PUBLIC	?destroy@?$doug_lea_alloc@PAUTNode@?$FixedMAP@PAVR_constant_table@@UmapMatrixStates@R_dsgraph@@Udoug_lea_allocator@@@@@@QAEXPAPAUTNode@?$FixedMAP@PAVR_constant_table@@UmapMatrixStates@R_dsgraph@@Udoug_lea_allocator@@@@@Z ; doug_lea_alloc<FixedMAP<R_constant_table *,R_dsgraph::mapMatrixStates,doug_lea_allocator>::TNode *>::destroy
PUBLIC	??$_Destroy_in_place@PAPAUTNode@?$FixedMAP@PAVR_constant_table@@UmapMatrixStates@R_dsgraph@@Udoug_lea_allocator@@@@@std@@YAXAAPAPAUTNode@?$FixedMAP@PAVR_constant_table@@UmapMatrixStates@R_dsgraph@@Udoug_lea_allocator@@@@@Z ; std::_Destroy_in_place<FixedMAP<R_constant_table *,R_dsgraph::mapMatrixStates,doug_lea_allocator>::TNode * *>
PUBLIC	?clear@?$xr_vector@PAUTNode@?$FixedMAP@PAUIDirect3DPixelShader9@@UmapMatrixCS@R_dsgraph@@Udoug_lea_allocator@@@@V?$doug_lea_alloc@PAUTNode@?$FixedMAP@PAUIDirect3DPixelShader9@@UmapMatrixCS@R_dsgraph@@Udoug_lea_allocator@@@@@@@@QAEXXZ ; xr_vector<FixedMAP<IDirect3DPixelShader9 *,R_dsgraph::mapMatrixCS,doug_lea_allocator>::TNode *,doug_lea_alloc<FixedMAP<IDirect3DPixelShader9 *,R_dsgraph::mapMatrixCS,doug_lea_allocator>::TNode *> >::clear
PUBLIC	?clear_and_free@?$xr_vector@PAUTNode@?$FixedMAP@PAUIDirect3DPixelShader9@@UmapMatrixCS@R_dsgraph@@Udoug_lea_allocator@@@@V?$doug_lea_alloc@PAUTNode@?$FixedMAP@PAUIDirect3DPixelShader9@@UmapMatrixCS@R_dsgraph@@Udoug_lea_allocator@@@@@@@@QAEXXZ ; xr_vector<FixedMAP<IDirect3DPixelShader9 *,R_dsgraph::mapMatrixCS,doug_lea_allocator>::TNode *,doug_lea_alloc<FixedMAP<IDirect3DPixelShader9 *,R_dsgraph::mapMatrixCS,doug_lea_allocator>::TNode *> >::clear_and_free
PUBLIC	?clear@?$vector@PAUTNode@?$FixedMAP@PAUIDirect3DPixelShader9@@UmapMatrixCS@R_dsgraph@@Udoug_lea_allocator@@@@V?$doug_lea_alloc@PAUTNode@?$FixedMAP@PAUIDirect3DPixelShader9@@UmapMatrixCS@R_dsgraph@@Udoug_lea_allocator@@@@@@@std@@QAEXXZ ; std::vector<FixedMAP<IDirect3DPixelShader9 *,R_dsgraph::mapMatrixCS,doug_lea_allocator>::TNode *,doug_lea_alloc<FixedMAP<IDirect3DPixelShader9 *,R_dsgraph::mapMatrixCS,doug_lea_allocator>::TNode *> >::clear
PUBLIC	?_Destroy@?$vector@PAUTNode@?$FixedMAP@PAUIDirect3DPixelShader9@@UmapMatrixCS@R_dsgraph@@Udoug_lea_allocator@@@@V?$doug_lea_alloc@PAUTNode@?$FixedMAP@PAUIDirect3DPixelShader9@@UmapMatrixCS@R_dsgraph@@Udoug_lea_allocator@@@@@@@std@@AAEXPAPAUTNode@?$FixedMAP@PAUIDirect3DPixelShader9@@UmapMatrixCS@R_dsgraph@@Udoug_lea_allocator@@@@0@Z ; std::vector<FixedMAP<IDirect3DPixelShader9 *,R_dsgraph::mapMatrixCS,doug_lea_allocator>::TNode *,doug_lea_alloc<FixedMAP<IDirect3DPixelShader9 *,R_dsgraph::mapMatrixCS,doug_lea_allocator>::TNode *> >::_Destroy
PUBLIC	?_Getal@?$vector@PAUTNode@?$FixedMAP@PAUIDirect3DPixelShader9@@UmapMatrixCS@R_dsgraph@@Udoug_lea_allocator@@@@V?$doug_lea_alloc@PAUTNode@?$FixedMAP@PAUIDirect3DPixelShader9@@UmapMatrixCS@R_dsgraph@@Udoug_lea_allocator@@@@@@@std@@AAEAAV?$doug_lea_alloc@PAUTNode@?$FixedMAP@PAUIDirect3DPixelShader9@@UmapMatrixCS@R_dsgraph@@Udoug_lea_allocator@@@@@@XZ ; std::vector<FixedMAP<IDirect3DPixelShader9 *,R_dsgraph::mapMatrixCS,doug_lea_allocator>::TNode *,doug_lea_alloc<FixedMAP<IDirect3DPixelShader9 *,R_dsgraph::mapMatrixCS,doug_lea_allocator>::TNode *> >::_Getal
PUBLIC	?_Get_first@?$_Compressed_pair@V?$doug_lea_alloc@PAUTNode@?$FixedMAP@PAUIDirect3DPixelShader9@@UmapMatrixCS@R_dsgraph@@Udoug_lea_allocator@@@@@@V?$_Vector_val@U?$_Simple_types@PAUTNode@?$FixedMAP@PAUIDirect3DPixelShader9@@UmapMatrixCS@R_dsgraph@@Udoug_lea_allocator@@@@@std@@@std@@$00@std@@QAEAAV?$doug_lea_alloc@PAUTNode@?$FixedMAP@PAUIDirect3DPixelShader9@@UmapMatrixCS@R_dsgraph@@Udoug_lea_allocator@@@@@@XZ ; std::_Compressed_pair<doug_lea_alloc<FixedMAP<IDirect3DPixelShader9 *,R_dsgraph::mapMatrixCS,doug_lea_allocator>::TNode *>,std::_Vector_val<std::_Simple_types<FixedMAP<IDirect3DPixelShader9 *,R_dsgraph::mapMatrixCS,doug_lea_allocator>::TNode *> >,1>::_Get_first
PUBLIC	??$_Destroy_range@V?$doug_lea_alloc@PAUTNode@?$FixedMAP@PAUIDirect3DPixelShader9@@UmapMatrixCS@R_dsgraph@@Udoug_lea_allocator@@@@@@@std@@YAXPAPAUTNode@?$FixedMAP@PAUIDirect3DPixelShader9@@UmapMatrixCS@R_dsgraph@@Udoug_lea_allocator@@@@QAPAU12@AAV?$doug_lea_alloc@PAUTNode@?$FixedMAP@PAUIDirect3DPixelShader9@@UmapMatrixCS@R_dsgraph@@Udoug_lea_allocator@@@@@@@Z ; std::_Destroy_range<doug_lea_alloc<FixedMAP<IDirect3DPixelShader9 *,R_dsgraph::mapMatrixCS,doug_lea_allocator>::TNode *> >
PUBLIC	??$_Unfancy@PAUTNode@?$FixedMAP@PAUIDirect3DPixelShader9@@UmapMatrixCS@R_dsgraph@@Udoug_lea_allocator@@@@@std@@YAPAPAUTNode@?$FixedMAP@PAUIDirect3DPixelShader9@@UmapMatrixCS@R_dsgraph@@Udoug_lea_allocator@@@@PAPAU12@@Z ; std::_Unfancy<FixedMAP<IDirect3DPixelShader9 *,R_dsgraph::mapMatrixCS,doug_lea_allocator>::TNode *>
PUBLIC	??$destroy@PAUTNode@?$FixedMAP@PAUIDirect3DPixelShader9@@UmapMatrixCS@R_dsgraph@@Udoug_lea_allocator@@@@@?$_Normal_allocator_traits@V?$doug_lea_alloc@PAUTNode@?$FixedMAP@PAUIDirect3DPixelShader9@@UmapMatrixCS@R_dsgraph@@Udoug_lea_allocator@@@@@@@std@@SAXAAV?$doug_lea_alloc@PAUTNode@?$FixedMAP@PAUIDirect3DPixelShader9@@UmapMatrixCS@R_dsgraph@@Udoug_lea_allocator@@@@@@PAPAUTNode@?$FixedMAP@PAUIDirect3DPixelShader9@@UmapMatrixCS@R_dsgraph@@Udoug_lea_allocator@@@@@Z ; std::_Normal_allocator_traits<doug_lea_alloc<FixedMAP<IDirect3DPixelShader9 *,R_dsgraph::mapMatrixCS,doug_lea_allocator>::TNode *> >::destroy<FixedMAP<IDirect3DPixelShader9 *,R_dsgraph::mapMatrixCS,doug_lea_allocator>::TNode *>
PUBLIC	?destroy@?$doug_lea_alloc@PAUTNode@?$FixedMAP@PAUIDirect3DPixelShader9@@UmapMatrixCS@R_dsgraph@@Udoug_lea_allocator@@@@@@QAEXPAPAUTNode@?$FixedMAP@PAUIDirect3DPixelShader9@@UmapMatrixCS@R_dsgraph@@Udoug_lea_allocator@@@@@Z ; doug_lea_alloc<FixedMAP<IDirect3DPixelShader9 *,R_dsgraph::mapMatrixCS,doug_lea_allocator>::TNode *>::destroy
PUBLIC	??$_Destroy_in_place@PAPAUTNode@?$FixedMAP@PAUIDirect3DPixelShader9@@UmapMatrixCS@R_dsgraph@@Udoug_lea_allocator@@@@@std@@YAXAAPAPAUTNode@?$FixedMAP@PAUIDirect3DPixelShader9@@UmapMatrixCS@R_dsgraph@@Udoug_lea_allocator@@@@@Z ; std::_Destroy_in_place<FixedMAP<IDirect3DPixelShader9 *,R_dsgraph::mapMatrixCS,doug_lea_allocator>::TNode * *>
PUBLIC	?clear@?$xr_vector@PAUTNode@?$FixedMAP@PAUIDirect3DVertexShader9@@UmapMatrixPS@R_dsgraph@@Udoug_lea_allocator@@@@V?$doug_lea_alloc@PAUTNode@?$FixedMAP@PAUIDirect3DVertexShader9@@UmapMatrixPS@R_dsgraph@@Udoug_lea_allocator@@@@@@@@QAEXXZ ; xr_vector<FixedMAP<IDirect3DVertexShader9 *,R_dsgraph::mapMatrixPS,doug_lea_allocator>::TNode *,doug_lea_alloc<FixedMAP<IDirect3DVertexShader9 *,R_dsgraph::mapMatrixPS,doug_lea_allocator>::TNode *> >::clear
PUBLIC	?clear_and_free@?$xr_vector@PAUTNode@?$FixedMAP@PAUIDirect3DVertexShader9@@UmapMatrixPS@R_dsgraph@@Udoug_lea_allocator@@@@V?$doug_lea_alloc@PAUTNode@?$FixedMAP@PAUIDirect3DVertexShader9@@UmapMatrixPS@R_dsgraph@@Udoug_lea_allocator@@@@@@@@QAEXXZ ; xr_vector<FixedMAP<IDirect3DVertexShader9 *,R_dsgraph::mapMatrixPS,doug_lea_allocator>::TNode *,doug_lea_alloc<FixedMAP<IDirect3DVertexShader9 *,R_dsgraph::mapMatrixPS,doug_lea_allocator>::TNode *> >::clear_and_free
PUBLIC	?clear@?$vector@PAUTNode@?$FixedMAP@PAUIDirect3DVertexShader9@@UmapMatrixPS@R_dsgraph@@Udoug_lea_allocator@@@@V?$doug_lea_alloc@PAUTNode@?$FixedMAP@PAUIDirect3DVertexShader9@@UmapMatrixPS@R_dsgraph@@Udoug_lea_allocator@@@@@@@std@@QAEXXZ ; std::vector<FixedMAP<IDirect3DVertexShader9 *,R_dsgraph::mapMatrixPS,doug_lea_allocator>::TNode *,doug_lea_alloc<FixedMAP<IDirect3DVertexShader9 *,R_dsgraph::mapMatrixPS,doug_lea_allocator>::TNode *> >::clear
PUBLIC	?_Destroy@?$vector@PAUTNode@?$FixedMAP@PAUIDirect3DVertexShader9@@UmapMatrixPS@R_dsgraph@@Udoug_lea_allocator@@@@V?$doug_lea_alloc@PAUTNode@?$FixedMAP@PAUIDirect3DVertexShader9@@UmapMatrixPS@R_dsgraph@@Udoug_lea_allocator@@@@@@@std@@AAEXPAPAUTNode@?$FixedMAP@PAUIDirect3DVertexShader9@@UmapMatrixPS@R_dsgraph@@Udoug_lea_allocator@@@@0@Z ; std::vector<FixedMAP<IDirect3DVertexShader9 *,R_dsgraph::mapMatrixPS,doug_lea_allocator>::TNode *,doug_lea_alloc<FixedMAP<IDirect3DVertexShader9 *,R_dsgraph::mapMatrixPS,doug_lea_allocator>::TNode *> >::_Destroy
PUBLIC	?_Getal@?$vector@PAUTNode@?$FixedMAP@PAUIDirect3DVertexShader9@@UmapMatrixPS@R_dsgraph@@Udoug_lea_allocator@@@@V?$doug_lea_alloc@PAUTNode@?$FixedMAP@PAUIDirect3DVertexShader9@@UmapMatrixPS@R_dsgraph@@Udoug_lea_allocator@@@@@@@std@@AAEAAV?$doug_lea_alloc@PAUTNode@?$FixedMAP@PAUIDirect3DVertexShader9@@UmapMatrixPS@R_dsgraph@@Udoug_lea_allocator@@@@@@XZ ; std::vector<FixedMAP<IDirect3DVertexShader9 *,R_dsgraph::mapMatrixPS,doug_lea_allocator>::TNode *,doug_lea_alloc<FixedMAP<IDirect3DVertexShader9 *,R_dsgraph::mapMatrixPS,doug_lea_allocator>::TNode *> >::_Getal
PUBLIC	?_Get_first@?$_Compressed_pair@V?$doug_lea_alloc@PAUTNode@?$FixedMAP@PAUIDirect3DVertexShader9@@UmapMatrixPS@R_dsgraph@@Udoug_lea_allocator@@@@@@V?$_Vector_val@U?$_Simple_types@PAUTNode@?$FixedMAP@PAUIDirect3DVertexShader9@@UmapMatrixPS@R_dsgraph@@Udoug_lea_allocator@@@@@std@@@std@@$00@std@@QAEAAV?$doug_lea_alloc@PAUTNode@?$FixedMAP@PAUIDirect3DVertexShader9@@UmapMatrixPS@R_dsgraph@@Udoug_lea_allocator@@@@@@XZ ; std::_Compressed_pair<doug_lea_alloc<FixedMAP<IDirect3DVertexShader9 *,R_dsgraph::mapMatrixPS,doug_lea_allocator>::TNode *>,std::_Vector_val<std::_Simple_types<FixedMAP<IDirect3DVertexShader9 *,R_dsgraph::mapMatrixPS,doug_lea_allocator>::TNode *> >,1>::_Get_first
PUBLIC	??$_Destroy_range@V?$doug_lea_alloc@PAUTNode@?$FixedMAP@PAUIDirect3DVertexShader9@@UmapMatrixPS@R_dsgraph@@Udoug_lea_allocator@@@@@@@std@@YAXPAPAUTNode@?$FixedMAP@PAUIDirect3DVertexShader9@@UmapMatrixPS@R_dsgraph@@Udoug_lea_allocator@@@@QAPAU12@AAV?$doug_lea_alloc@PAUTNode@?$FixedMAP@PAUIDirect3DVertexShader9@@UmapMatrixPS@R_dsgraph@@Udoug_lea_allocator@@@@@@@Z ; std::_Destroy_range<doug_lea_alloc<FixedMAP<IDirect3DVertexShader9 *,R_dsgraph::mapMatrixPS,doug_lea_allocator>::TNode *> >
PUBLIC	??$_Unfancy@PAUTNode@?$FixedMAP@PAUIDirect3DVertexShader9@@UmapMatrixPS@R_dsgraph@@Udoug_lea_allocator@@@@@std@@YAPAPAUTNode@?$FixedMAP@PAUIDirect3DVertexShader9@@UmapMatrixPS@R_dsgraph@@Udoug_lea_allocator@@@@PAPAU12@@Z ; std::_Unfancy<FixedMAP<IDirect3DVertexShader9 *,R_dsgraph::mapMatrixPS,doug_lea_allocator>::TNode *>
PUBLIC	??$destroy@PAUTNode@?$FixedMAP@PAUIDirect3DVertexShader9@@UmapMatrixPS@R_dsgraph@@Udoug_lea_allocator@@@@@?$_Normal_allocator_traits@V?$doug_lea_alloc@PAUTNode@?$FixedMAP@PAUIDirect3DVertexShader9@@UmapMatrixPS@R_dsgraph@@Udoug_lea_allocator@@@@@@@std@@SAXAAV?$doug_lea_alloc@PAUTNode@?$FixedMAP@PAUIDirect3DVertexShader9@@UmapMatrixPS@R_dsgraph@@Udoug_lea_allocator@@@@@@PAPAUTNode@?$FixedMAP@PAUIDirect3DVertexShader9@@UmapMatrixPS@R_dsgraph@@Udoug_lea_allocator@@@@@Z ; std::_Normal_allocator_traits<doug_lea_alloc<FixedMAP<IDirect3DVertexShader9 *,R_dsgraph::mapMatrixPS,doug_lea_allocator>::TNode *> >::destroy<FixedMAP<IDirect3DVertexShader9 *,R_dsgraph::mapMatrixPS,doug_lea_allocator>::TNode *>
PUBLIC	?destroy@?$doug_lea_alloc@PAUTNode@?$FixedMAP@PAUIDirect3DVertexShader9@@UmapMatrixPS@R_dsgraph@@Udoug_lea_allocator@@@@@@QAEXPAPAUTNode@?$FixedMAP@PAUIDirect3DVertexShader9@@UmapMatrixPS@R_dsgraph@@Udoug_lea_allocator@@@@@Z ; doug_lea_alloc<FixedMAP<IDirect3DVertexShader9 *,R_dsgraph::mapMatrixPS,doug_lea_allocator>::TNode *>::destroy
PUBLIC	??$_Destroy_in_place@PAPAUTNode@?$FixedMAP@PAUIDirect3DVertexShader9@@UmapMatrixPS@R_dsgraph@@Udoug_lea_allocator@@@@@std@@YAXAAPAPAUTNode@?$FixedMAP@PAUIDirect3DVertexShader9@@UmapMatrixPS@R_dsgraph@@Udoug_lea_allocator@@@@@Z ; std::_Destroy_in_place<FixedMAP<IDirect3DVertexShader9 *,R_dsgraph::mapMatrixPS,doug_lea_allocator>::TNode * *>
PUBLIC	?root@CSector@@QAEPAVIRender_Visual@@XZ		; CSector::root
PUBLIC	?clear@?$xr_vector@PAVIRender_Visual@@V?$doug_lea_alloc@PAVIRender_Visual@@@@@@QAEXXZ ; xr_vector<IRender_Visual *,doug_lea_alloc<IRender_Visual *> >::clear
PUBLIC	?clear_and_free@?$xr_vector@PAVIRender_Visual@@V?$doug_lea_alloc@PAVIRender_Visual@@@@@@QAEXXZ ; xr_vector<IRender_Visual *,doug_lea_alloc<IRender_Visual *> >::clear_and_free
PUBLIC	?clear@?$vector@PAVIRender_Visual@@V?$doug_lea_alloc@PAVIRender_Visual@@@@@std@@QAEXXZ ; std::vector<IRender_Visual *,doug_lea_alloc<IRender_Visual *> >::clear
PUBLIC	?_Destroy@?$vector@PAVIRender_Visual@@V?$doug_lea_alloc@PAVIRender_Visual@@@@@std@@AAEXPAPAVIRender_Visual@@0@Z ; std::vector<IRender_Visual *,doug_lea_alloc<IRender_Visual *> >::_Destroy
PUBLIC	?_Getal@?$vector@PAVIRender_Visual@@V?$doug_lea_alloc@PAVIRender_Visual@@@@@std@@AAEAAV?$doug_lea_alloc@PAVIRender_Visual@@@@XZ ; std::vector<IRender_Visual *,doug_lea_alloc<IRender_Visual *> >::_Getal
PUBLIC	?_Get_first@?$_Compressed_pair@V?$doug_lea_alloc@PAVIRender_Visual@@@@V?$_Vector_val@U?$_Simple_types@PAVIRender_Visual@@@std@@@std@@$00@std@@QAEAAV?$doug_lea_alloc@PAVIRender_Visual@@@@XZ ; std::_Compressed_pair<doug_lea_alloc<IRender_Visual *>,std::_Vector_val<std::_Simple_types<IRender_Visual *> >,1>::_Get_first
PUBLIC	??$_Destroy_range@V?$doug_lea_alloc@PAVIRender_Visual@@@@@std@@YAXPAPAVIRender_Visual@@QAPAV1@AAV?$doug_lea_alloc@PAVIRender_Visual@@@@@Z ; std::_Destroy_range<doug_lea_alloc<IRender_Visual *> >
PUBLIC	??$destroy@PAVIRender_Visual@@@?$_Normal_allocator_traits@V?$doug_lea_alloc@PAVIRender_Visual@@@@@std@@SAXAAV?$doug_lea_alloc@PAVIRender_Visual@@@@PAPAVIRender_Visual@@@Z ; std::_Normal_allocator_traits<doug_lea_alloc<IRender_Visual *> >::destroy<IRender_Visual *>
PUBLIC	?destroy@?$doug_lea_alloc@PAVIRender_Visual@@@@QAEXPAPAVIRender_Visual@@@Z ; doug_lea_alloc<IRender_Visual *>::destroy
PUBLIC	?size@?$svector@V?$resptr_core@USPass@@V?$resptr_base@USPass@@@@@@$01@@QBEIXZ ; svector<resptr_core<SPass,resptr_base<SPass> >,2>::size
PUBLIC	?begin@?$FixedMAP@PAUIDirect3DVertexShader9@@UmapMatrixPS@R_dsgraph@@Udoug_lea_allocator@@@@QAEPAUTNode@1@XZ ; FixedMAP<IDirect3DVertexShader9 *,R_dsgraph::mapMatrixPS,doug_lea_allocator>::begin
PUBLIC	?begin@?$FixedMAP@PAUIDirect3DPixelShader9@@UmapMatrixCS@R_dsgraph@@Udoug_lea_allocator@@@@QAEPAUTNode@1@XZ ; FixedMAP<IDirect3DPixelShader9 *,R_dsgraph::mapMatrixCS,doug_lea_allocator>::begin
PUBLIC	?begin@?$FixedMAP@PAVR_constant_table@@UmapMatrixStates@R_dsgraph@@Udoug_lea_allocator@@@@QAEPAUTNode@1@XZ ; FixedMAP<R_constant_table *,R_dsgraph::mapMatrixStates,doug_lea_allocator>::begin
PUBLIC	?begin@?$FixedMAP@PAUIDirect3DStateBlock9@@UmapMatrixTextures@R_dsgraph@@Udoug_lea_allocator@@@@QAEPAUTNode@1@XZ ; FixedMAP<IDirect3DStateBlock9 *,R_dsgraph::mapMatrixTextures,doug_lea_allocator>::begin
PUBLIC	?begin@?$FixedMAP@PAUIDirect3DVertexShader9@@UmapNormalPS@R_dsgraph@@Udoug_lea_allocator@@@@QAEPAUTNode@1@XZ ; FixedMAP<IDirect3DVertexShader9 *,R_dsgraph::mapNormalPS,doug_lea_allocator>::begin
PUBLIC	?begin@?$FixedMAP@PAUIDirect3DPixelShader9@@UmapNormalCS@R_dsgraph@@Udoug_lea_allocator@@@@QAEPAUTNode@1@XZ ; FixedMAP<IDirect3DPixelShader9 *,R_dsgraph::mapNormalCS,doug_lea_allocator>::begin
PUBLIC	?begin@?$FixedMAP@PAVR_constant_table@@UmapNormalStates@R_dsgraph@@Udoug_lea_allocator@@@@QAEPAUTNode@1@XZ ; FixedMAP<R_constant_table *,R_dsgraph::mapNormalStates,doug_lea_allocator>::begin
PUBLIC	?begin@?$FixedMAP@PAUIDirect3DStateBlock9@@UmapNormalTextures@R_dsgraph@@Udoug_lea_allocator@@@@QAEPAUTNode@1@XZ ; FixedMAP<IDirect3DStateBlock9 *,R_dsgraph::mapNormalTextures,doug_lea_allocator>::begin
PUBLIC	?deallocate@?$doug_lea_alloc@PAVIRender_Visual@@@@QBEXPAPAVIRender_Visual@@I@Z ; doug_lea_alloc<IRender_Visual *>::deallocate
PUBLIC	?deallocate@?$doug_lea_alloc@PAUTNode@?$FixedMAP@PAUSTextureList@@UmapMatrixItems@R_dsgraph@@Udoug_lea_allocator@@@@@@QBEXPAPAUTNode@?$FixedMAP@PAUSTextureList@@UmapMatrixItems@R_dsgraph@@Udoug_lea_allocator@@@@I@Z ; doug_lea_alloc<FixedMAP<STextureList *,R_dsgraph::mapMatrixItems,doug_lea_allocator>::TNode *>::deallocate
PUBLIC	?deallocate@?$doug_lea_alloc@PAUTNode@?$FixedMAP@PAUSTextureList@@UmapNormalItems@R_dsgraph@@Udoug_lea_allocator@@@@@@QBEXPAPAUTNode@?$FixedMAP@PAUSTextureList@@UmapNormalItems@R_dsgraph@@Udoug_lea_allocator@@@@I@Z ; doug_lea_alloc<FixedMAP<STextureList *,R_dsgraph::mapNormalItems,doug_lea_allocator>::TNode *>::deallocate
PUBLIC	?deallocate@?$doug_lea_alloc@PAUTNode@?$FixedMAP@PAUIDirect3DStateBlock9@@UmapMatrixTextures@R_dsgraph@@Udoug_lea_allocator@@@@@@QBEXPAPAUTNode@?$FixedMAP@PAUIDirect3DStateBlock9@@UmapMatrixTextures@R_dsgraph@@Udoug_lea_allocator@@@@I@Z ; doug_lea_alloc<FixedMAP<IDirect3DStateBlock9 *,R_dsgraph::mapMatrixTextures,doug_lea_allocator>::TNode *>::deallocate
PUBLIC	?deallocate@?$doug_lea_alloc@PAUTNode@?$FixedMAP@PAVR_constant_table@@UmapMatrixStates@R_dsgraph@@Udoug_lea_allocator@@@@@@QBEXPAPAUTNode@?$FixedMAP@PAVR_constant_table@@UmapMatrixStates@R_dsgraph@@Udoug_lea_allocator@@@@I@Z ; doug_lea_alloc<FixedMAP<R_constant_table *,R_dsgraph::mapMatrixStates,doug_lea_allocator>::TNode *>::deallocate
PUBLIC	?deallocate@?$doug_lea_alloc@PAUTNode@?$FixedMAP@PAUIDirect3DPixelShader9@@UmapMatrixCS@R_dsgraph@@Udoug_lea_allocator@@@@@@QBEXPAPAUTNode@?$FixedMAP@PAUIDirect3DPixelShader9@@UmapMatrixCS@R_dsgraph@@Udoug_lea_allocator@@@@I@Z ; doug_lea_alloc<FixedMAP<IDirect3DPixelShader9 *,R_dsgraph::mapMatrixCS,doug_lea_allocator>::TNode *>::deallocate
PUBLIC	?deallocate@?$doug_lea_alloc@PAUTNode@?$FixedMAP@PAUIDirect3DVertexShader9@@UmapMatrixPS@R_dsgraph@@Udoug_lea_allocator@@@@@@QBEXPAPAUTNode@?$FixedMAP@PAUIDirect3DVertexShader9@@UmapMatrixPS@R_dsgraph@@Udoug_lea_allocator@@@@I@Z ; doug_lea_alloc<FixedMAP<IDirect3DVertexShader9 *,R_dsgraph::mapMatrixPS,doug_lea_allocator>::TNode *>::deallocate
PUBLIC	?deallocate@?$doug_lea_alloc@PAUTNode@?$FixedMAP@PAUIDirect3DStateBlock9@@UmapNormalTextures@R_dsgraph@@Udoug_lea_allocator@@@@@@QBEXPAPAUTNode@?$FixedMAP@PAUIDirect3DStateBlock9@@UmapNormalTextures@R_dsgraph@@Udoug_lea_allocator@@@@I@Z ; doug_lea_alloc<FixedMAP<IDirect3DStateBlock9 *,R_dsgraph::mapNormalTextures,doug_lea_allocator>::TNode *>::deallocate
PUBLIC	?deallocate@?$doug_lea_alloc@PAUTNode@?$FixedMAP@PAVR_constant_table@@UmapNormalStates@R_dsgraph@@Udoug_lea_allocator@@@@@@QBEXPAPAUTNode@?$FixedMAP@PAVR_constant_table@@UmapNormalStates@R_dsgraph@@Udoug_lea_allocator@@@@I@Z ; doug_lea_alloc<FixedMAP<R_constant_table *,R_dsgraph::mapNormalStates,doug_lea_allocator>::TNode *>::deallocate
PUBLIC	?deallocate@?$doug_lea_alloc@PAUTNode@?$FixedMAP@PAUIDirect3DPixelShader9@@UmapNormalCS@R_dsgraph@@Udoug_lea_allocator@@@@@@QBEXPAPAUTNode@?$FixedMAP@PAUIDirect3DPixelShader9@@UmapNormalCS@R_dsgraph@@Udoug_lea_allocator@@@@I@Z ; doug_lea_alloc<FixedMAP<IDirect3DPixelShader9 *,R_dsgraph::mapNormalCS,doug_lea_allocator>::TNode *>::deallocate
PUBLIC	?deallocate@?$doug_lea_alloc@PAUTNode@?$FixedMAP@PAUIDirect3DVertexShader9@@UmapNormalPS@R_dsgraph@@Udoug_lea_allocator@@@@@@QBEXPAPAUTNode@?$FixedMAP@PAUIDirect3DVertexShader9@@UmapNormalPS@R_dsgraph@@Udoug_lea_allocator@@@@I@Z ; doug_lea_alloc<FixedMAP<IDirect3DVertexShader9 *,R_dsgraph::mapNormalPS,doug_lea_allocator>::TNode *>::deallocate
PUBLIC	??$construct@PAUTNode@?$FixedMAP@PAUSTextureList@@UmapMatrixItems@R_dsgraph@@Udoug_lea_allocator@@@@AAPAU12@@?$_Normal_allocator_traits@V?$doug_lea_alloc@PAUTNode@?$FixedMAP@PAUSTextureList@@UmapMatrixItems@R_dsgraph@@Udoug_lea_allocator@@@@@@@std@@SAXAAV?$doug_lea_alloc@PAUTNode@?$FixedMAP@PAUSTextureList@@UmapMatrixItems@R_dsgraph@@Udoug_lea_allocator@@@@@@PAPAUTNode@?$FixedMAP@PAUSTextureList@@UmapMatrixItems@R_dsgraph@@Udoug_lea_allocator@@@@AAPAU34@@Z ; std::_Normal_allocator_traits<doug_lea_alloc<FixedMAP<STextureList *,R_dsgraph::mapMatrixItems,doug_lea_allocator>::TNode *> >::construct<FixedMAP<STextureList *,R_dsgraph::mapMatrixItems,doug_lea_allocator>::TNode *,FixedMAP<STextureList *,R_dsgraph::mapMatrixItems,doug_lea_allocator>::TNode * &>
PUBLIC	??$forward@AAPAUTNode@?$FixedMAP@PAUSTextureList@@UmapMatrixItems@R_dsgraph@@Udoug_lea_allocator@@@@@std@@YAAAPAUTNode@?$FixedMAP@PAUSTextureList@@UmapMatrixItems@R_dsgraph@@Udoug_lea_allocator@@@@AAPAU12@@Z ; std::forward<FixedMAP<STextureList *,R_dsgraph::mapMatrixItems,doug_lea_allocator>::TNode * &>
PUBLIC	??$construct@PAUTNode@?$FixedMAP@PAUSTextureList@@UmapNormalItems@R_dsgraph@@Udoug_lea_allocator@@@@AAPAU12@@?$_Normal_allocator_traits@V?$doug_lea_alloc@PAUTNode@?$FixedMAP@PAUSTextureList@@UmapNormalItems@R_dsgraph@@Udoug_lea_allocator@@@@@@@std@@SAXAAV?$doug_lea_alloc@PAUTNode@?$FixedMAP@PAUSTextureList@@UmapNormalItems@R_dsgraph@@Udoug_lea_allocator@@@@@@PAPAUTNode@?$FixedMAP@PAUSTextureList@@UmapNormalItems@R_dsgraph@@Udoug_lea_allocator@@@@AAPAU34@@Z ; std::_Normal_allocator_traits<doug_lea_alloc<FixedMAP<STextureList *,R_dsgraph::mapNormalItems,doug_lea_allocator>::TNode *> >::construct<FixedMAP<STextureList *,R_dsgraph::mapNormalItems,doug_lea_allocator>::TNode *,FixedMAP<STextureList *,R_dsgraph::mapNormalItems,doug_lea_allocator>::TNode * &>
PUBLIC	??$forward@AAPAUTNode@?$FixedMAP@PAUSTextureList@@UmapNormalItems@R_dsgraph@@Udoug_lea_allocator@@@@@std@@YAAAPAUTNode@?$FixedMAP@PAUSTextureList@@UmapNormalItems@R_dsgraph@@Udoug_lea_allocator@@@@AAPAU12@@Z ; std::forward<FixedMAP<STextureList *,R_dsgraph::mapNormalItems,doug_lea_allocator>::TNode * &>
PUBLIC	?construct@?$doug_lea_alloc@PAUTNode@?$FixedMAP@PAUIDirect3DVertexShader9@@UmapNormalPS@R_dsgraph@@Udoug_lea_allocator@@@@@@QAEXPAPAUTNode@?$FixedMAP@PAUIDirect3DVertexShader9@@UmapNormalPS@R_dsgraph@@Udoug_lea_allocator@@@@ABQAU23@@Z ; doug_lea_alloc<FixedMAP<IDirect3DVertexShader9 *,R_dsgraph::mapNormalPS,doug_lea_allocator>::TNode *>::construct
PUBLIC	?construct@?$doug_lea_alloc@PAUTNode@?$FixedMAP@PAUIDirect3DPixelShader9@@UmapNormalCS@R_dsgraph@@Udoug_lea_allocator@@@@@@QAEXPAPAUTNode@?$FixedMAP@PAUIDirect3DPixelShader9@@UmapNormalCS@R_dsgraph@@Udoug_lea_allocator@@@@ABQAU23@@Z ; doug_lea_alloc<FixedMAP<IDirect3DPixelShader9 *,R_dsgraph::mapNormalCS,doug_lea_allocator>::TNode *>::construct
PUBLIC	?construct@?$doug_lea_alloc@PAUTNode@?$FixedMAP@PAVR_constant_table@@UmapNormalStates@R_dsgraph@@Udoug_lea_allocator@@@@@@QAEXPAPAUTNode@?$FixedMAP@PAVR_constant_table@@UmapNormalStates@R_dsgraph@@Udoug_lea_allocator@@@@ABQAU23@@Z ; doug_lea_alloc<FixedMAP<R_constant_table *,R_dsgraph::mapNormalStates,doug_lea_allocator>::TNode *>::construct
PUBLIC	?construct@?$doug_lea_alloc@PAUTNode@?$FixedMAP@PAUIDirect3DStateBlock9@@UmapNormalTextures@R_dsgraph@@Udoug_lea_allocator@@@@@@QAEXPAPAUTNode@?$FixedMAP@PAUIDirect3DStateBlock9@@UmapNormalTextures@R_dsgraph@@Udoug_lea_allocator@@@@ABQAU23@@Z ; doug_lea_alloc<FixedMAP<IDirect3DStateBlock9 *,R_dsgraph::mapNormalTextures,doug_lea_allocator>::TNode *>::construct
PUBLIC	?construct@?$doug_lea_alloc@PAUTNode@?$FixedMAP@PAUIDirect3DVertexShader9@@UmapMatrixPS@R_dsgraph@@Udoug_lea_allocator@@@@@@QAEXPAPAUTNode@?$FixedMAP@PAUIDirect3DVertexShader9@@UmapMatrixPS@R_dsgraph@@Udoug_lea_allocator@@@@ABQAU23@@Z ; doug_lea_alloc<FixedMAP<IDirect3DVertexShader9 *,R_dsgraph::mapMatrixPS,doug_lea_allocator>::TNode *>::construct
PUBLIC	?construct@?$doug_lea_alloc@PAUTNode@?$FixedMAP@PAUIDirect3DPixelShader9@@UmapMatrixCS@R_dsgraph@@Udoug_lea_allocator@@@@@@QAEXPAPAUTNode@?$FixedMAP@PAUIDirect3DPixelShader9@@UmapMatrixCS@R_dsgraph@@Udoug_lea_allocator@@@@ABQAU23@@Z ; doug_lea_alloc<FixedMAP<IDirect3DPixelShader9 *,R_dsgraph::mapMatrixCS,doug_lea_allocator>::TNode *>::construct
PUBLIC	?construct@?$doug_lea_alloc@PAUTNode@?$FixedMAP@PAVR_constant_table@@UmapMatrixStates@R_dsgraph@@Udoug_lea_allocator@@@@@@QAEXPAPAUTNode@?$FixedMAP@PAVR_constant_table@@UmapMatrixStates@R_dsgraph@@Udoug_lea_allocator@@@@ABQAU23@@Z ; doug_lea_alloc<FixedMAP<R_constant_table *,R_dsgraph::mapMatrixStates,doug_lea_allocator>::TNode *>::construct
PUBLIC	?construct@?$doug_lea_alloc@PAUTNode@?$FixedMAP@PAUIDirect3DStateBlock9@@UmapMatrixTextures@R_dsgraph@@Udoug_lea_allocator@@@@@@QAEXPAPAUTNode@?$FixedMAP@PAUIDirect3DStateBlock9@@UmapMatrixTextures@R_dsgraph@@Udoug_lea_allocator@@@@ABQAU23@@Z ; doug_lea_alloc<FixedMAP<IDirect3DStateBlock9 *,R_dsgraph::mapMatrixTextures,doug_lea_allocator>::TNode *>::construct
PUBLIC	??$construct@PAUTNode@?$FixedMAP@PAUIDirect3DVertexShader9@@UmapNormalPS@R_dsgraph@@Udoug_lea_allocator@@@@PAU12@@?$_Normal_allocator_traits@V?$doug_lea_alloc@PAUTNode@?$FixedMAP@PAUIDirect3DVertexShader9@@UmapNormalPS@R_dsgraph@@Udoug_lea_allocator@@@@@@@std@@SAXAAV?$doug_lea_alloc@PAUTNode@?$FixedMAP@PAUIDirect3DVertexShader9@@UmapNormalPS@R_dsgraph@@Udoug_lea_allocator@@@@@@PAPAUTNode@?$FixedMAP@PAUIDirect3DVertexShader9@@UmapNormalPS@R_dsgraph@@Udoug_lea_allocator@@@@$$QAPAU34@@Z ; std::_Normal_allocator_traits<doug_lea_alloc<FixedMAP<IDirect3DVertexShader9 *,R_dsgraph::mapNormalPS,doug_lea_allocator>::TNode *> >::construct<FixedMAP<IDirect3DVertexShader9 *,R_dsgraph::mapNormalPS,doug_lea_allocator>::TNode *,FixedMAP<IDirect3DVertexShader9 *,R_dsgraph::mapNormalPS,doug_lea_allocator>::TNode *>
PUBLIC	??$construct@PAUTNode@?$FixedMAP@PAUIDirect3DPixelShader9@@UmapNormalCS@R_dsgraph@@Udoug_lea_allocator@@@@PAU12@@?$_Normal_allocator_traits@V?$doug_lea_alloc@PAUTNode@?$FixedMAP@PAUIDirect3DPixelShader9@@UmapNormalCS@R_dsgraph@@Udoug_lea_allocator@@@@@@@std@@SAXAAV?$doug_lea_alloc@PAUTNode@?$FixedMAP@PAUIDirect3DPixelShader9@@UmapNormalCS@R_dsgraph@@Udoug_lea_allocator@@@@@@PAPAUTNode@?$FixedMAP@PAUIDirect3DPixelShader9@@UmapNormalCS@R_dsgraph@@Udoug_lea_allocator@@@@$$QAPAU34@@Z ; std::_Normal_allocator_traits<doug_lea_alloc<FixedMAP<IDirect3DPixelShader9 *,R_dsgraph::mapNormalCS,doug_lea_allocator>::TNode *> >::construct<FixedMAP<IDirect3DPixelShader9 *,R_dsgraph::mapNormalCS,doug_lea_allocator>::TNode *,FixedMAP<IDirect3DPixelShader9 *,R_dsgraph::mapNormalCS,doug_lea_allocator>::TNode *>
PUBLIC	??$construct@PAUTNode@?$FixedMAP@PAVR_constant_table@@UmapNormalStates@R_dsgraph@@Udoug_lea_allocator@@@@PAU12@@?$_Normal_allocator_traits@V?$doug_lea_alloc@PAUTNode@?$FixedMAP@PAVR_constant_table@@UmapNormalStates@R_dsgraph@@Udoug_lea_allocator@@@@@@@std@@SAXAAV?$doug_lea_alloc@PAUTNode@?$FixedMAP@PAVR_constant_table@@UmapNormalStates@R_dsgraph@@Udoug_lea_allocator@@@@@@PAPAUTNode@?$FixedMAP@PAVR_constant_table@@UmapNormalStates@R_dsgraph@@Udoug_lea_allocator@@@@$$QAPAU34@@Z ; std::_Normal_allocator_traits<doug_lea_alloc<FixedMAP<R_constant_table *,R_dsgraph::mapNormalStates,doug_lea_allocator>::TNode *> >::construct<FixedMAP<R_constant_table *,R_dsgraph::mapNormalStates,doug_lea_allocator>::TNode *,FixedMAP<R_constant_table *,R_dsgraph::mapNormalStates,doug_lea_allocator>::TNode *>
PUBLIC	??$construct@PAUTNode@?$FixedMAP@PAUIDirect3DStateBlock9@@UmapNormalTextures@R_dsgraph@@Udoug_lea_allocator@@@@PAU12@@?$_Normal_allocator_traits@V?$doug_lea_alloc@PAUTNode@?$FixedMAP@PAUIDirect3DStateBlock9@@UmapNormalTextures@R_dsgraph@@Udoug_lea_allocator@@@@@@@std@@SAXAAV?$doug_lea_alloc@PAUTNode@?$FixedMAP@PAUIDirect3DStateBlock9@@UmapNormalTextures@R_dsgraph@@Udoug_lea_allocator@@@@@@PAPAUTNode@?$FixedMAP@PAUIDirect3DStateBlock9@@UmapNormalTextures@R_dsgraph@@Udoug_lea_allocator@@@@$$QAPAU34@@Z ; std::_Normal_allocator_traits<doug_lea_alloc<FixedMAP<IDirect3DStateBlock9 *,R_dsgraph::mapNormalTextures,doug_lea_allocator>::TNode *> >::construct<FixedMAP<IDirect3DStateBlock9 *,R_dsgraph::mapNormalTextures,doug_lea_allocator>::TNode *,FixedMAP<IDirect3DStateBlock9 *,R_dsgraph::mapNormalTextures,doug_lea_allocator>::TNode *>
PUBLIC	??$construct@PAUTNode@?$FixedMAP@PAUIDirect3DVertexShader9@@UmapMatrixPS@R_dsgraph@@Udoug_lea_allocator@@@@PAU12@@?$_Normal_allocator_traits@V?$doug_lea_alloc@PAUTNode@?$FixedMAP@PAUIDirect3DVertexShader9@@UmapMatrixPS@R_dsgraph@@Udoug_lea_allocator@@@@@@@std@@SAXAAV?$doug_lea_alloc@PAUTNode@?$FixedMAP@PAUIDirect3DVertexShader9@@UmapMatrixPS@R_dsgraph@@Udoug_lea_allocator@@@@@@PAPAUTNode@?$FixedMAP@PAUIDirect3DVertexShader9@@UmapMatrixPS@R_dsgraph@@Udoug_lea_allocator@@@@$$QAPAU34@@Z ; std::_Normal_allocator_traits<doug_lea_alloc<FixedMAP<IDirect3DVertexShader9 *,R_dsgraph::mapMatrixPS,doug_lea_allocator>::TNode *> >::construct<FixedMAP<IDirect3DVertexShader9 *,R_dsgraph::mapMatrixPS,doug_lea_allocator>::TNode *,FixedMAP<IDirect3DVertexShader9 *,R_dsgraph::mapMatrixPS,doug_lea_allocator>::TNode *>
PUBLIC	??$construct@PAUTNode@?$FixedMAP@PAUIDirect3DPixelShader9@@UmapMatrixCS@R_dsgraph@@Udoug_lea_allocator@@@@PAU12@@?$_Normal_allocator_traits@V?$doug_lea_alloc@PAUTNode@?$FixedMAP@PAUIDirect3DPixelShader9@@UmapMatrixCS@R_dsgraph@@Udoug_lea_allocator@@@@@@@std@@SAXAAV?$doug_lea_alloc@PAUTNode@?$FixedMAP@PAUIDirect3DPixelShader9@@UmapMatrixCS@R_dsgraph@@Udoug_lea_allocator@@@@@@PAPAUTNode@?$FixedMAP@PAUIDirect3DPixelShader9@@UmapMatrixCS@R_dsgraph@@Udoug_lea_allocator@@@@$$QAPAU34@@Z ; std::_Normal_allocator_traits<doug_lea_alloc<FixedMAP<IDirect3DPixelShader9 *,R_dsgraph::mapMatrixCS,doug_lea_allocator>::TNode *> >::construct<FixedMAP<IDirect3DPixelShader9 *,R_dsgraph::mapMatrixCS,doug_lea_allocator>::TNode *,FixedMAP<IDirect3DPixelShader9 *,R_dsgraph::mapMatrixCS,doug_lea_allocator>::TNode *>
PUBLIC	??$construct@PAUTNode@?$FixedMAP@PAVR_constant_table@@UmapMatrixStates@R_dsgraph@@Udoug_lea_allocator@@@@PAU12@@?$_Normal_allocator_traits@V?$doug_lea_alloc@PAUTNode@?$FixedMAP@PAVR_constant_table@@UmapMatrixStates@R_dsgraph@@Udoug_lea_allocator@@@@@@@std@@SAXAAV?$doug_lea_alloc@PAUTNode@?$FixedMAP@PAVR_constant_table@@UmapMatrixStates@R_dsgraph@@Udoug_lea_allocator@@@@@@PAPAUTNode@?$FixedMAP@PAVR_constant_table@@UmapMatrixStates@R_dsgraph@@Udoug_lea_allocator@@@@$$QAPAU34@@Z ; std::_Normal_allocator_traits<doug_lea_alloc<FixedMAP<R_constant_table *,R_dsgraph::mapMatrixStates,doug_lea_allocator>::TNode *> >::construct<FixedMAP<R_constant_table *,R_dsgraph::mapMatrixStates,doug_lea_allocator>::TNode *,FixedMAP<R_constant_table *,R_dsgraph::mapMatrixStates,doug_lea_allocator>::TNode *>
PUBLIC	??$construct@PAUTNode@?$FixedMAP@PAUIDirect3DStateBlock9@@UmapMatrixTextures@R_dsgraph@@Udoug_lea_allocator@@@@PAU12@@?$_Normal_allocator_traits@V?$doug_lea_alloc@PAUTNode@?$FixedMAP@PAUIDirect3DStateBlock9@@UmapMatrixTextures@R_dsgraph@@Udoug_lea_allocator@@@@@@@std@@SAXAAV?$doug_lea_alloc@PAUTNode@?$FixedMAP@PAUIDirect3DStateBlock9@@UmapMatrixTextures@R_dsgraph@@Udoug_lea_allocator@@@@@@PAPAUTNode@?$FixedMAP@PAUIDirect3DStateBlock9@@UmapMatrixTextures@R_dsgraph@@Udoug_lea_allocator@@@@$$QAPAU34@@Z ; std::_Normal_allocator_traits<doug_lea_alloc<FixedMAP<IDirect3DStateBlock9 *,R_dsgraph::mapMatrixTextures,doug_lea_allocator>::TNode *> >::construct<FixedMAP<IDirect3DStateBlock9 *,R_dsgraph::mapMatrixTextures,doug_lea_allocator>::TNode *,FixedMAP<IDirect3DStateBlock9 *,R_dsgraph::mapMatrixTextures,doug_lea_allocator>::TNode *>
PUBLIC	??$forward@AAPAPAUTNode@?$FixedMAP@PAUIDirect3DStateBlock9@@UmapMatrixTextures@R_dsgraph@@Udoug_lea_allocator@@@@@std@@YAAAPAPAUTNode@?$FixedMAP@PAUIDirect3DStateBlock9@@UmapMatrixTextures@R_dsgraph@@Udoug_lea_allocator@@@@AAPAPAU12@@Z ; std::forward<FixedMAP<IDirect3DStateBlock9 *,R_dsgraph::mapMatrixTextures,doug_lea_allocator>::TNode * * &>
PUBLIC	??$swap@PAUTNode@?$FixedMAP@PAUIDirect3DStateBlock9@@UmapMatrixTextures@R_dsgraph@@Udoug_lea_allocator@@@@$0A@@std@@YAXAAPAUTNode@?$FixedMAP@PAUIDirect3DStateBlock9@@UmapMatrixTextures@R_dsgraph@@Udoug_lea_allocator@@@@0@Z ; std::swap<FixedMAP<IDirect3DStateBlock9 *,R_dsgraph::mapMatrixTextures,doug_lea_allocator>::TNode *,0>
PUBLIC	??$_Med3_unchecked@PAPAUTNode@?$FixedMAP@PAUIDirect3DStateBlock9@@UmapMatrixTextures@R_dsgraph@@Udoug_lea_allocator@@@@P6A_NPAU12@0@Z@std@@YAXPAPAUTNode@?$FixedMAP@PAUIDirect3DStateBlock9@@UmapMatrixTextures@R_dsgraph@@Udoug_lea_allocator@@@@00P6A_NPAU12@1@Z@Z ; std::_Med3_unchecked<FixedMAP<IDirect3DStateBlock9 *,R_dsgraph::mapMatrixTextures,doug_lea_allocator>::TNode * *,bool (__cdecl*)(FixedMAP<IDirect3DStateBlock9 *,R_dsgraph::mapMatrixTextures,doug_lea_allocator>::TNode *,FixedMAP<IDirect3DStateBlock9 *,R_dsgraph::mapMatrixTextures,doug_lea_allocator>::TNode *)>
PUBLIC	??$_Pop_heap_hole_unchecked@PAPAUTNode@?$FixedMAP@PAUIDirect3DStateBlock9@@UmapMatrixTextures@R_dsgraph@@Udoug_lea_allocator@@@@PAU12@P6A_NPAU12@0@Z@std@@YAXPAPAUTNode@?$FixedMAP@PAUIDirect3DStateBlock9@@UmapMatrixTextures@R_dsgraph@@Udoug_lea_allocator@@@@00$$QAPAU12@P6A_NPAU12@2@Z@Z ; std::_Pop_heap_hole_unchecked<FixedMAP<IDirect3DStateBlock9 *,R_dsgraph::mapMatrixTextures,doug_lea_allocator>::TNode * *,FixedMAP<IDirect3DStateBlock9 *,R_dsgraph::mapMatrixTextures,doug_lea_allocator>::TNode *,bool (__cdecl*)(FixedMAP<IDirect3DStateBlock9 *,R_dsgraph::mapMatrixTextures,doug_lea_allocator>::TNode *,FixedMAP<IDirect3DStateBlock9 *,R_dsgraph::mapMatrixTextures,doug_lea_allocator>::TNode *)>
PUBLIC	??$_Push_heap_by_index@PAPAUTNode@?$FixedMAP@PAUIDirect3DStateBlock9@@UmapMatrixTextures@R_dsgraph@@Udoug_lea_allocator@@@@PAU12@P6A_NPAU12@0@Z@std@@YAXPAPAUTNode@?$FixedMAP@PAUIDirect3DStateBlock9@@UmapMatrixTextures@R_dsgraph@@Udoug_lea_allocator@@@@HH$$QAPAU12@P6A_NPAU12@2@Z@Z ; std::_Push_heap_by_index<FixedMAP<IDirect3DStateBlock9 *,R_dsgraph::mapMatrixTextures,doug_lea_allocator>::TNode * *,FixedMAP<IDirect3DStateBlock9 *,R_dsgraph::mapMatrixTextures,doug_lea_allocator>::TNode *,bool (__cdecl*)(FixedMAP<IDirect3DStateBlock9 *,R_dsgraph::mapMatrixTextures,doug_lea_allocator>::TNode *,FixedMAP<IDirect3DStateBlock9 *,R_dsgraph::mapMatrixTextures,doug_lea_allocator>::TNode *)>
PUBLIC	??$forward@PAUTNode@?$FixedMAP@PAUIDirect3DStateBlock9@@UmapMatrixTextures@R_dsgraph@@Udoug_lea_allocator@@@@@std@@YA$$QAPAUTNode@?$FixedMAP@PAUIDirect3DStateBlock9@@UmapMatrixTextures@R_dsgraph@@Udoug_lea_allocator@@@@AAPAU12@@Z ; std::forward<FixedMAP<IDirect3DStateBlock9 *,R_dsgraph::mapMatrixTextures,doug_lea_allocator>::TNode *>
PUBLIC	??$_Copy_backward_memmove@PAPAUTNode@?$FixedMAP@PAUIDirect3DStateBlock9@@UmapMatrixTextures@R_dsgraph@@Udoug_lea_allocator@@@@PAPAU12@@std@@YAPAPAUTNode@?$FixedMAP@PAUIDirect3DStateBlock9@@UmapMatrixTextures@R_dsgraph@@Udoug_lea_allocator@@@@PAPAU12@00@Z ; std::_Copy_backward_memmove<FixedMAP<IDirect3DStateBlock9 *,R_dsgraph::mapMatrixTextures,doug_lea_allocator>::TNode * *,FixedMAP<IDirect3DStateBlock9 *,R_dsgraph::mapMatrixTextures,doug_lea_allocator>::TNode * *>
PUBLIC	??$forward@AAPAPAUTNode@?$FixedMAP@PAVR_constant_table@@UmapMatrixStates@R_dsgraph@@Udoug_lea_allocator@@@@@std@@YAAAPAPAUTNode@?$FixedMAP@PAVR_constant_table@@UmapMatrixStates@R_dsgraph@@Udoug_lea_allocator@@@@AAPAPAU12@@Z ; std::forward<FixedMAP<R_constant_table *,R_dsgraph::mapMatrixStates,doug_lea_allocator>::TNode * * &>
PUBLIC	??$swap@PAUTNode@?$FixedMAP@PAVR_constant_table@@UmapMatrixStates@R_dsgraph@@Udoug_lea_allocator@@@@$0A@@std@@YAXAAPAUTNode@?$FixedMAP@PAVR_constant_table@@UmapMatrixStates@R_dsgraph@@Udoug_lea_allocator@@@@0@Z ; std::swap<FixedMAP<R_constant_table *,R_dsgraph::mapMatrixStates,doug_lea_allocator>::TNode *,0>
PUBLIC	??$_Med3_unchecked@PAPAUTNode@?$FixedMAP@PAVR_constant_table@@UmapMatrixStates@R_dsgraph@@Udoug_lea_allocator@@@@P6A_NPAU12@0@Z@std@@YAXPAPAUTNode@?$FixedMAP@PAVR_constant_table@@UmapMatrixStates@R_dsgraph@@Udoug_lea_allocator@@@@00P6A_NPAU12@1@Z@Z ; std::_Med3_unchecked<FixedMAP<R_constant_table *,R_dsgraph::mapMatrixStates,doug_lea_allocator>::TNode * *,bool (__cdecl*)(FixedMAP<R_constant_table *,R_dsgraph::mapMatrixStates,doug_lea_allocator>::TNode *,FixedMAP<R_constant_table *,R_dsgraph::mapMatrixStates,doug_lea_allocator>::TNode *)>
PUBLIC	??$_Pop_heap_hole_unchecked@PAPAUTNode@?$FixedMAP@PAVR_constant_table@@UmapMatrixStates@R_dsgraph@@Udoug_lea_allocator@@@@PAU12@P6A_NPAU12@0@Z@std@@YAXPAPAUTNode@?$FixedMAP@PAVR_constant_table@@UmapMatrixStates@R_dsgraph@@Udoug_lea_allocator@@@@00$$QAPAU12@P6A_NPAU12@2@Z@Z ; std::_Pop_heap_hole_unchecked<FixedMAP<R_constant_table *,R_dsgraph::mapMatrixStates,doug_lea_allocator>::TNode * *,FixedMAP<R_constant_table *,R_dsgraph::mapMatrixStates,doug_lea_allocator>::TNode *,bool (__cdecl*)(FixedMAP<R_constant_table *,R_dsgraph::mapMatrixStates,doug_lea_allocator>::TNode *,FixedMAP<R_constant_table *,R_dsgraph::mapMatrixStates,doug_lea_allocator>::TNode *)>
PUBLIC	??$_Push_heap_by_index@PAPAUTNode@?$FixedMAP@PAVR_constant_table@@UmapMatrixStates@R_dsgraph@@Udoug_lea_allocator@@@@PAU12@P6A_NPAU12@0@Z@std@@YAXPAPAUTNode@?$FixedMAP@PAVR_constant_table@@UmapMatrixStates@R_dsgraph@@Udoug_lea_allocator@@@@HH$$QAPAU12@P6A_NPAU12@2@Z@Z ; std::_Push_heap_by_index<FixedMAP<R_constant_table *,R_dsgraph::mapMatrixStates,doug_lea_allocator>::TNode * *,FixedMAP<R_constant_table *,R_dsgraph::mapMatrixStates,doug_lea_allocator>::TNode *,bool (__cdecl*)(FixedMAP<R_constant_table *,R_dsgraph::mapMatrixStates,doug_lea_allocator>::TNode *,FixedMAP<R_constant_table *,R_dsgraph::mapMatrixStates,doug_lea_allocator>::TNode *)>
PUBLIC	??$forward@PAUTNode@?$FixedMAP@PAVR_constant_table@@UmapMatrixStates@R_dsgraph@@Udoug_lea_allocator@@@@@std@@YA$$QAPAUTNode@?$FixedMAP@PAVR_constant_table@@UmapMatrixStates@R_dsgraph@@Udoug_lea_allocator@@@@AAPAU12@@Z ; std::forward<FixedMAP<R_constant_table *,R_dsgraph::mapMatrixStates,doug_lea_allocator>::TNode *>
PUBLIC	??$_Copy_backward_memmove@PAPAUTNode@?$FixedMAP@PAVR_constant_table@@UmapMatrixStates@R_dsgraph@@Udoug_lea_allocator@@@@PAPAU12@@std@@YAPAPAUTNode@?$FixedMAP@PAVR_constant_table@@UmapMatrixStates@R_dsgraph@@Udoug_lea_allocator@@@@PAPAU12@00@Z ; std::_Copy_backward_memmove<FixedMAP<R_constant_table *,R_dsgraph::mapMatrixStates,doug_lea_allocator>::TNode * *,FixedMAP<R_constant_table *,R_dsgraph::mapMatrixStates,doug_lea_allocator>::TNode * *>
PUBLIC	??$forward@AAPAPAUTNode@?$FixedMAP@PAUIDirect3DPixelShader9@@UmapMatrixCS@R_dsgraph@@Udoug_lea_allocator@@@@@std@@YAAAPAPAUTNode@?$FixedMAP@PAUIDirect3DPixelShader9@@UmapMatrixCS@R_dsgraph@@Udoug_lea_allocator@@@@AAPAPAU12@@Z ; std::forward<FixedMAP<IDirect3DPixelShader9 *,R_dsgraph::mapMatrixCS,doug_lea_allocator>::TNode * * &>
PUBLIC	??$swap@PAUTNode@?$FixedMAP@PAUIDirect3DPixelShader9@@UmapMatrixCS@R_dsgraph@@Udoug_lea_allocator@@@@$0A@@std@@YAXAAPAUTNode@?$FixedMAP@PAUIDirect3DPixelShader9@@UmapMatrixCS@R_dsgraph@@Udoug_lea_allocator@@@@0@Z ; std::swap<FixedMAP<IDirect3DPixelShader9 *,R_dsgraph::mapMatrixCS,doug_lea_allocator>::TNode *,0>
PUBLIC	??$_Med3_unchecked@PAPAUTNode@?$FixedMAP@PAUIDirect3DPixelShader9@@UmapMatrixCS@R_dsgraph@@Udoug_lea_allocator@@@@P6A_NPAU12@0@Z@std@@YAXPAPAUTNode@?$FixedMAP@PAUIDirect3DPixelShader9@@UmapMatrixCS@R_dsgraph@@Udoug_lea_allocator@@@@00P6A_NPAU12@1@Z@Z ; std::_Med3_unchecked<FixedMAP<IDirect3DPixelShader9 *,R_dsgraph::mapMatrixCS,doug_lea_allocator>::TNode * *,bool (__cdecl*)(FixedMAP<IDirect3DPixelShader9 *,R_dsgraph::mapMatrixCS,doug_lea_allocator>::TNode *,FixedMAP<IDirect3DPixelShader9 *,R_dsgraph::mapMatrixCS,doug_lea_allocator>::TNode *)>
PUBLIC	??$_Pop_heap_hole_unchecked@PAPAUTNode@?$FixedMAP@PAUIDirect3DPixelShader9@@UmapMatrixCS@R_dsgraph@@Udoug_lea_allocator@@@@PAU12@P6A_NPAU12@0@Z@std@@YAXPAPAUTNode@?$FixedMAP@PAUIDirect3DPixelShader9@@UmapMatrixCS@R_dsgraph@@Udoug_lea_allocator@@@@00$$QAPAU12@P6A_NPAU12@2@Z@Z ; std::_Pop_heap_hole_unchecked<FixedMAP<IDirect3DPixelShader9 *,R_dsgraph::mapMatrixCS,doug_lea_allocator>::TNode * *,FixedMAP<IDirect3DPixelShader9 *,R_dsgraph::mapMatrixCS,doug_lea_allocator>::TNode *,bool (__cdecl*)(FixedMAP<IDirect3DPixelShader9 *,R_dsgraph::mapMatrixCS,doug_lea_allocator>::TNode *,FixedMAP<IDirect3DPixelShader9 *,R_dsgraph::mapMatrixCS,doug_lea_allocator>::TNode *)>
PUBLIC	??$_Push_heap_by_index@PAPAUTNode@?$FixedMAP@PAUIDirect3DPixelShader9@@UmapMatrixCS@R_dsgraph@@Udoug_lea_allocator@@@@PAU12@P6A_NPAU12@0@Z@std@@YAXPAPAUTNode@?$FixedMAP@PAUIDirect3DPixelShader9@@UmapMatrixCS@R_dsgraph@@Udoug_lea_allocator@@@@HH$$QAPAU12@P6A_NPAU12@2@Z@Z ; std::_Push_heap_by_index<FixedMAP<IDirect3DPixelShader9 *,R_dsgraph::mapMatrixCS,doug_lea_allocator>::TNode * *,FixedMAP<IDirect3DPixelShader9 *,R_dsgraph::mapMatrixCS,doug_lea_allocator>::TNode *,bool (__cdecl*)(FixedMAP<IDirect3DPixelShader9 *,R_dsgraph::mapMatrixCS,doug_lea_allocator>::TNode *,FixedMAP<IDirect3DPixelShader9 *,R_dsgraph::mapMatrixCS,doug_lea_allocator>::TNode *)>
PUBLIC	??$forward@PAUTNode@?$FixedMAP@PAUIDirect3DPixelShader9@@UmapMatrixCS@R_dsgraph@@Udoug_lea_allocator@@@@@std@@YA$$QAPAUTNode@?$FixedMAP@PAUIDirect3DPixelShader9@@UmapMatrixCS@R_dsgraph@@Udoug_lea_allocator@@@@AAPAU12@@Z ; std::forward<FixedMAP<IDirect3DPixelShader9 *,R_dsgraph::mapMatrixCS,doug_lea_allocator>::TNode *>
PUBLIC	??$_Copy_backward_memmove@PAPAUTNode@?$FixedMAP@PAUIDirect3DPixelShader9@@UmapMatrixCS@R_dsgraph@@Udoug_lea_allocator@@@@PAPAU12@@std@@YAPAPAUTNode@?$FixedMAP@PAUIDirect3DPixelShader9@@UmapMatrixCS@R_dsgraph@@Udoug_lea_allocator@@@@PAPAU12@00@Z ; std::_Copy_backward_memmove<FixedMAP<IDirect3DPixelShader9 *,R_dsgraph::mapMatrixCS,doug_lea_allocator>::TNode * *,FixedMAP<IDirect3DPixelShader9 *,R_dsgraph::mapMatrixCS,doug_lea_allocator>::TNode * *>
PUBLIC	??$forward@AAPAPAUTNode@?$FixedMAP@PAUIDirect3DVertexShader9@@UmapMatrixPS@R_dsgraph@@Udoug_lea_allocator@@@@@std@@YAAAPAPAUTNode@?$FixedMAP@PAUIDirect3DVertexShader9@@UmapMatrixPS@R_dsgraph@@Udoug_lea_allocator@@@@AAPAPAU12@@Z ; std::forward<FixedMAP<IDirect3DVertexShader9 *,R_dsgraph::mapMatrixPS,doug_lea_allocator>::TNode * * &>
PUBLIC	??$swap@PAUTNode@?$FixedMAP@PAUIDirect3DVertexShader9@@UmapMatrixPS@R_dsgraph@@Udoug_lea_allocator@@@@$0A@@std@@YAXAAPAUTNode@?$FixedMAP@PAUIDirect3DVertexShader9@@UmapMatrixPS@R_dsgraph@@Udoug_lea_allocator@@@@0@Z ; std::swap<FixedMAP<IDirect3DVertexShader9 *,R_dsgraph::mapMatrixPS,doug_lea_allocator>::TNode *,0>
PUBLIC	??$_Med3_unchecked@PAPAUTNode@?$FixedMAP@PAUIDirect3DVertexShader9@@UmapMatrixPS@R_dsgraph@@Udoug_lea_allocator@@@@P6A_NPAU12@0@Z@std@@YAXPAPAUTNode@?$FixedMAP@PAUIDirect3DVertexShader9@@UmapMatrixPS@R_dsgraph@@Udoug_lea_allocator@@@@00P6A_NPAU12@1@Z@Z ; std::_Med3_unchecked<FixedMAP<IDirect3DVertexShader9 *,R_dsgraph::mapMatrixPS,doug_lea_allocator>::TNode * *,bool (__cdecl*)(FixedMAP<IDirect3DVertexShader9 *,R_dsgraph::mapMatrixPS,doug_lea_allocator>::TNode *,FixedMAP<IDirect3DVertexShader9 *,R_dsgraph::mapMatrixPS,doug_lea_allocator>::TNode *)>
PUBLIC	??$_Pop_heap_hole_unchecked@PAPAUTNode@?$FixedMAP@PAUIDirect3DVertexShader9@@UmapMatrixPS@R_dsgraph@@Udoug_lea_allocator@@@@PAU12@P6A_NPAU12@0@Z@std@@YAXPAPAUTNode@?$FixedMAP@PAUIDirect3DVertexShader9@@UmapMatrixPS@R_dsgraph@@Udoug_lea_allocator@@@@00$$QAPAU12@P6A_NPAU12@2@Z@Z ; std::_Pop_heap_hole_unchecked<FixedMAP<IDirect3DVertexShader9 *,R_dsgraph::mapMatrixPS,doug_lea_allocator>::TNode * *,FixedMAP<IDirect3DVertexShader9 *,R_dsgraph::mapMatrixPS,doug_lea_allocator>::TNode *,bool (__cdecl*)(FixedMAP<IDirect3DVertexShader9 *,R_dsgraph::mapMatrixPS,doug_lea_allocator>::TNode *,FixedMAP<IDirect3DVertexShader9 *,R_dsgraph::mapMatrixPS,doug_lea_allocator>::TNode *)>
PUBLIC	??$_Push_heap_by_index@PAPAUTNode@?$FixedMAP@PAUIDirect3DVertexShader9@@UmapMatrixPS@R_dsgraph@@Udoug_lea_allocator@@@@PAU12@P6A_NPAU12@0@Z@std@@YAXPAPAUTNode@?$FixedMAP@PAUIDirect3DVertexShader9@@UmapMatrixPS@R_dsgraph@@Udoug_lea_allocator@@@@HH$$QAPAU12@P6A_NPAU12@2@Z@Z ; std::_Push_heap_by_index<FixedMAP<IDirect3DVertexShader9 *,R_dsgraph::mapMatrixPS,doug_lea_allocator>::TNode * *,FixedMAP<IDirect3DVertexShader9 *,R_dsgraph::mapMatrixPS,doug_lea_allocator>::TNode *,bool (__cdecl*)(FixedMAP<IDirect3DVertexShader9 *,R_dsgraph::mapMatrixPS,doug_lea_allocator>::TNode *,FixedMAP<IDirect3DVertexShader9 *,R_dsgraph::mapMatrixPS,doug_lea_allocator>::TNode *)>
PUBLIC	??$forward@PAUTNode@?$FixedMAP@PAUIDirect3DVertexShader9@@UmapMatrixPS@R_dsgraph@@Udoug_lea_allocator@@@@@std@@YA$$QAPAUTNode@?$FixedMAP@PAUIDirect3DVertexShader9@@UmapMatrixPS@R_dsgraph@@Udoug_lea_allocator@@@@AAPAU12@@Z ; std::forward<FixedMAP<IDirect3DVertexShader9 *,R_dsgraph::mapMatrixPS,doug_lea_allocator>::TNode *>
PUBLIC	??$_Copy_backward_memmove@PAPAUTNode@?$FixedMAP@PAUIDirect3DVertexShader9@@UmapMatrixPS@R_dsgraph@@Udoug_lea_allocator@@@@PAPAU12@@std@@YAPAPAUTNode@?$FixedMAP@PAUIDirect3DVertexShader9@@UmapMatrixPS@R_dsgraph@@Udoug_lea_allocator@@@@PAPAU12@00@Z ; std::_Copy_backward_memmove<FixedMAP<IDirect3DVertexShader9 *,R_dsgraph::mapMatrixPS,doug_lea_allocator>::TNode * *,FixedMAP<IDirect3DVertexShader9 *,R_dsgraph::mapMatrixPS,doug_lea_allocator>::TNode * *>
PUBLIC	??$forward@AAPAPAUTNode@?$FixedMAP@PAUIDirect3DStateBlock9@@UmapNormalTextures@R_dsgraph@@Udoug_lea_allocator@@@@@std@@YAAAPAPAUTNode@?$FixedMAP@PAUIDirect3DStateBlock9@@UmapNormalTextures@R_dsgraph@@Udoug_lea_allocator@@@@AAPAPAU12@@Z ; std::forward<FixedMAP<IDirect3DStateBlock9 *,R_dsgraph::mapNormalTextures,doug_lea_allocator>::TNode * * &>
PUBLIC	??$swap@PAUTNode@?$FixedMAP@PAUIDirect3DStateBlock9@@UmapNormalTextures@R_dsgraph@@Udoug_lea_allocator@@@@$0A@@std@@YAXAAPAUTNode@?$FixedMAP@PAUIDirect3DStateBlock9@@UmapNormalTextures@R_dsgraph@@Udoug_lea_allocator@@@@0@Z ; std::swap<FixedMAP<IDirect3DStateBlock9 *,R_dsgraph::mapNormalTextures,doug_lea_allocator>::TNode *,0>
PUBLIC	??$_Med3_unchecked@PAPAUTNode@?$FixedMAP@PAUIDirect3DStateBlock9@@UmapNormalTextures@R_dsgraph@@Udoug_lea_allocator@@@@P6A_NPAU12@0@Z@std@@YAXPAPAUTNode@?$FixedMAP@PAUIDirect3DStateBlock9@@UmapNormalTextures@R_dsgraph@@Udoug_lea_allocator@@@@00P6A_NPAU12@1@Z@Z ; std::_Med3_unchecked<FixedMAP<IDirect3DStateBlock9 *,R_dsgraph::mapNormalTextures,doug_lea_allocator>::TNode * *,bool (__cdecl*)(FixedMAP<IDirect3DStateBlock9 *,R_dsgraph::mapNormalTextures,doug_lea_allocator>::TNode *,FixedMAP<IDirect3DStateBlock9 *,R_dsgraph::mapNormalTextures,doug_lea_allocator>::TNode *)>
PUBLIC	??$_Pop_heap_hole_unchecked@PAPAUTNode@?$FixedMAP@PAUIDirect3DStateBlock9@@UmapNormalTextures@R_dsgraph@@Udoug_lea_allocator@@@@PAU12@P6A_NPAU12@0@Z@std@@YAXPAPAUTNode@?$FixedMAP@PAUIDirect3DStateBlock9@@UmapNormalTextures@R_dsgraph@@Udoug_lea_allocator@@@@00$$QAPAU12@P6A_NPAU12@2@Z@Z ; std::_Pop_heap_hole_unchecked<FixedMAP<IDirect3DStateBlock9 *,R_dsgraph::mapNormalTextures,doug_lea_allocator>::TNode * *,FixedMAP<IDirect3DStateBlock9 *,R_dsgraph::mapNormalTextures,doug_lea_allocator>::TNode *,bool (__cdecl*)(FixedMAP<IDirect3DStateBlock9 *,R_dsgraph::mapNormalTextures,doug_lea_allocator>::TNode *,FixedMAP<IDirect3DStateBlock9 *,R_dsgraph::mapNormalTextures,doug_lea_allocator>::TNode *)>
PUBLIC	??$_Push_heap_by_index@PAPAUTNode@?$FixedMAP@PAUIDirect3DStateBlock9@@UmapNormalTextures@R_dsgraph@@Udoug_lea_allocator@@@@PAU12@P6A_NPAU12@0@Z@std@@YAXPAPAUTNode@?$FixedMAP@PAUIDirect3DStateBlock9@@UmapNormalTextures@R_dsgraph@@Udoug_lea_allocator@@@@HH$$QAPAU12@P6A_NPAU12@2@Z@Z ; std::_Push_heap_by_index<FixedMAP<IDirect3DStateBlock9 *,R_dsgraph::mapNormalTextures,doug_lea_allocator>::TNode * *,FixedMAP<IDirect3DStateBlock9 *,R_dsgraph::mapNormalTextures,doug_lea_allocator>::TNode *,bool (__cdecl*)(FixedMAP<IDirect3DStateBlock9 *,R_dsgraph::mapNormalTextures,doug_lea_allocator>::TNode *,FixedMAP<IDirect3DStateBlock9 *,R_dsgraph::mapNormalTextures,doug_lea_allocator>::TNode *)>
PUBLIC	??$forward@PAUTNode@?$FixedMAP@PAUIDirect3DStateBlock9@@UmapNormalTextures@R_dsgraph@@Udoug_lea_allocator@@@@@std@@YA$$QAPAUTNode@?$FixedMAP@PAUIDirect3DStateBlock9@@UmapNormalTextures@R_dsgraph@@Udoug_lea_allocator@@@@AAPAU12@@Z ; std::forward<FixedMAP<IDirect3DStateBlock9 *,R_dsgraph::mapNormalTextures,doug_lea_allocator>::TNode *>
PUBLIC	??$_Copy_backward_memmove@PAPAUTNode@?$FixedMAP@PAUIDirect3DStateBlock9@@UmapNormalTextures@R_dsgraph@@Udoug_lea_allocator@@@@PAPAU12@@std@@YAPAPAUTNode@?$FixedMAP@PAUIDirect3DStateBlock9@@UmapNormalTextures@R_dsgraph@@Udoug_lea_allocator@@@@PAPAU12@00@Z ; std::_Copy_backward_memmove<FixedMAP<IDirect3DStateBlock9 *,R_dsgraph::mapNormalTextures,doug_lea_allocator>::TNode * *,FixedMAP<IDirect3DStateBlock9 *,R_dsgraph::mapNormalTextures,doug_lea_allocator>::TNode * *>
PUBLIC	??$forward@AAPAPAUTNode@?$FixedMAP@PAVR_constant_table@@UmapNormalStates@R_dsgraph@@Udoug_lea_allocator@@@@@std@@YAAAPAPAUTNode@?$FixedMAP@PAVR_constant_table@@UmapNormalStates@R_dsgraph@@Udoug_lea_allocator@@@@AAPAPAU12@@Z ; std::forward<FixedMAP<R_constant_table *,R_dsgraph::mapNormalStates,doug_lea_allocator>::TNode * * &>
PUBLIC	??$swap@PAUTNode@?$FixedMAP@PAVR_constant_table@@UmapNormalStates@R_dsgraph@@Udoug_lea_allocator@@@@$0A@@std@@YAXAAPAUTNode@?$FixedMAP@PAVR_constant_table@@UmapNormalStates@R_dsgraph@@Udoug_lea_allocator@@@@0@Z ; std::swap<FixedMAP<R_constant_table *,R_dsgraph::mapNormalStates,doug_lea_allocator>::TNode *,0>
PUBLIC	??$_Med3_unchecked@PAPAUTNode@?$FixedMAP@PAVR_constant_table@@UmapNormalStates@R_dsgraph@@Udoug_lea_allocator@@@@P6A_NPAU12@0@Z@std@@YAXPAPAUTNode@?$FixedMAP@PAVR_constant_table@@UmapNormalStates@R_dsgraph@@Udoug_lea_allocator@@@@00P6A_NPAU12@1@Z@Z ; std::_Med3_unchecked<FixedMAP<R_constant_table *,R_dsgraph::mapNormalStates,doug_lea_allocator>::TNode * *,bool (__cdecl*)(FixedMAP<R_constant_table *,R_dsgraph::mapNormalStates,doug_lea_allocator>::TNode *,FixedMAP<R_constant_table *,R_dsgraph::mapNormalStates,doug_lea_allocator>::TNode *)>
PUBLIC	??$_Pop_heap_hole_unchecked@PAPAUTNode@?$FixedMAP@PAVR_constant_table@@UmapNormalStates@R_dsgraph@@Udoug_lea_allocator@@@@PAU12@P6A_NPAU12@0@Z@std@@YAXPAPAUTNode@?$FixedMAP@PAVR_constant_table@@UmapNormalStates@R_dsgraph@@Udoug_lea_allocator@@@@00$$QAPAU12@P6A_NPAU12@2@Z@Z ; std::_Pop_heap_hole_unchecked<FixedMAP<R_constant_table *,R_dsgraph::mapNormalStates,doug_lea_allocator>::TNode * *,FixedMAP<R_constant_table *,R_dsgraph::mapNormalStates,doug_lea_allocator>::TNode *,bool (__cdecl*)(FixedMAP<R_constant_table *,R_dsgraph::mapNormalStates,doug_lea_allocator>::TNode *,FixedMAP<R_constant_table *,R_dsgraph::mapNormalStates,doug_lea_allocator>::TNode *)>
PUBLIC	??$_Push_heap_by_index@PAPAUTNode@?$FixedMAP@PAVR_constant_table@@UmapNormalStates@R_dsgraph@@Udoug_lea_allocator@@@@PAU12@P6A_NPAU12@0@Z@std@@YAXPAPAUTNode@?$FixedMAP@PAVR_constant_table@@UmapNormalStates@R_dsgraph@@Udoug_lea_allocator@@@@HH$$QAPAU12@P6A_NPAU12@2@Z@Z ; std::_Push_heap_by_index<FixedMAP<R_constant_table *,R_dsgraph::mapNormalStates,doug_lea_allocator>::TNode * *,FixedMAP<R_constant_table *,R_dsgraph::mapNormalStates,doug_lea_allocator>::TNode *,bool (__cdecl*)(FixedMAP<R_constant_table *,R_dsgraph::mapNormalStates,doug_lea_allocator>::TNode *,FixedMAP<R_constant_table *,R_dsgraph::mapNormalStates,doug_lea_allocator>::TNode *)>
PUBLIC	??$forward@PAUTNode@?$FixedMAP@PAVR_constant_table@@UmapNormalStates@R_dsgraph@@Udoug_lea_allocator@@@@@std@@YA$$QAPAUTNode@?$FixedMAP@PAVR_constant_table@@UmapNormalStates@R_dsgraph@@Udoug_lea_allocator@@@@AAPAU12@@Z ; std::forward<FixedMAP<R_constant_table *,R_dsgraph::mapNormalStates,doug_lea_allocator>::TNode *>
PUBLIC	??$_Copy_backward_memmove@PAPAUTNode@?$FixedMAP@PAVR_constant_table@@UmapNormalStates@R_dsgraph@@Udoug_lea_allocator@@@@PAPAU12@@std@@YAPAPAUTNode@?$FixedMAP@PAVR_constant_table@@UmapNormalStates@R_dsgraph@@Udoug_lea_allocator@@@@PAPAU12@00@Z ; std::_Copy_backward_memmove<FixedMAP<R_constant_table *,R_dsgraph::mapNormalStates,doug_lea_allocator>::TNode * *,FixedMAP<R_constant_table *,R_dsgraph::mapNormalStates,doug_lea_allocator>::TNode * *>
PUBLIC	??$forward@AAPAPAUTNode@?$FixedMAP@PAUIDirect3DPixelShader9@@UmapNormalCS@R_dsgraph@@Udoug_lea_allocator@@@@@std@@YAAAPAPAUTNode@?$FixedMAP@PAUIDirect3DPixelShader9@@UmapNormalCS@R_dsgraph@@Udoug_lea_allocator@@@@AAPAPAU12@@Z ; std::forward<FixedMAP<IDirect3DPixelShader9 *,R_dsgraph::mapNormalCS,doug_lea_allocator>::TNode * * &>
PUBLIC	??$swap@PAUTNode@?$FixedMAP@PAUIDirect3DPixelShader9@@UmapNormalCS@R_dsgraph@@Udoug_lea_allocator@@@@$0A@@std@@YAXAAPAUTNode@?$FixedMAP@PAUIDirect3DPixelShader9@@UmapNormalCS@R_dsgraph@@Udoug_lea_allocator@@@@0@Z ; std::swap<FixedMAP<IDirect3DPixelShader9 *,R_dsgraph::mapNormalCS,doug_lea_allocator>::TNode *,0>
PUBLIC	??$_Med3_unchecked@PAPAUTNode@?$FixedMAP@PAUIDirect3DPixelShader9@@UmapNormalCS@R_dsgraph@@Udoug_lea_allocator@@@@P6A_NPAU12@0@Z@std@@YAXPAPAUTNode@?$FixedMAP@PAUIDirect3DPixelShader9@@UmapNormalCS@R_dsgraph@@Udoug_lea_allocator@@@@00P6A_NPAU12@1@Z@Z ; std::_Med3_unchecked<FixedMAP<IDirect3DPixelShader9 *,R_dsgraph::mapNormalCS,doug_lea_allocator>::TNode * *,bool (__cdecl*)(FixedMAP<IDirect3DPixelShader9 *,R_dsgraph::mapNormalCS,doug_lea_allocator>::TNode *,FixedMAP<IDirect3DPixelShader9 *,R_dsgraph::mapNormalCS,doug_lea_allocator>::TNode *)>
PUBLIC	??$_Pop_heap_hole_unchecked@PAPAUTNode@?$FixedMAP@PAUIDirect3DPixelShader9@@UmapNormalCS@R_dsgraph@@Udoug_lea_allocator@@@@PAU12@P6A_NPAU12@0@Z@std@@YAXPAPAUTNode@?$FixedMAP@PAUIDirect3DPixelShader9@@UmapNormalCS@R_dsgraph@@Udoug_lea_allocator@@@@00$$QAPAU12@P6A_NPAU12@2@Z@Z ; std::_Pop_heap_hole_unchecked<FixedMAP<IDirect3DPixelShader9 *,R_dsgraph::mapNormalCS,doug_lea_allocator>::TNode * *,FixedMAP<IDirect3DPixelShader9 *,R_dsgraph::mapNormalCS,doug_lea_allocator>::TNode *,bool (__cdecl*)(FixedMAP<IDirect3DPixelShader9 *,R_dsgraph::mapNormalCS,doug_lea_allocator>::TNode *,FixedMAP<IDirect3DPixelShader9 *,R_dsgraph::mapNormalCS,doug_lea_allocator>::TNode *)>
PUBLIC	??$_Push_heap_by_index@PAPAUTNode@?$FixedMAP@PAUIDirect3DPixelShader9@@UmapNormalCS@R_dsgraph@@Udoug_lea_allocator@@@@PAU12@P6A_NPAU12@0@Z@std@@YAXPAPAUTNode@?$FixedMAP@PAUIDirect3DPixelShader9@@UmapNormalCS@R_dsgraph@@Udoug_lea_allocator@@@@HH$$QAPAU12@P6A_NPAU12@2@Z@Z ; std::_Push_heap_by_index<FixedMAP<IDirect3DPixelShader9 *,R_dsgraph::mapNormalCS,doug_lea_allocator>::TNode * *,FixedMAP<IDirect3DPixelShader9 *,R_dsgraph::mapNormalCS,doug_lea_allocator>::TNode *,bool (__cdecl*)(FixedMAP<IDirect3DPixelShader9 *,R_dsgraph::mapNormalCS,doug_lea_allocator>::TNode *,FixedMAP<IDirect3DPixelShader9 *,R_dsgraph::mapNormalCS,doug_lea_allocator>::TNode *)>
PUBLIC	??$forward@PAUTNode@?$FixedMAP@PAUIDirect3DPixelShader9@@UmapNormalCS@R_dsgraph@@Udoug_lea_allocator@@@@@std@@YA$$QAPAUTNode@?$FixedMAP@PAUIDirect3DPixelShader9@@UmapNormalCS@R_dsgraph@@Udoug_lea_allocator@@@@AAPAU12@@Z ; std::forward<FixedMAP<IDirect3DPixelShader9 *,R_dsgraph::mapNormalCS,doug_lea_allocator>::TNode *>
PUBLIC	??$_Copy_backward_memmove@PAPAUTNode@?$FixedMAP@PAUIDirect3DPixelShader9@@UmapNormalCS@R_dsgraph@@Udoug_lea_allocator@@@@PAPAU12@@std@@YAPAPAUTNode@?$FixedMAP@PAUIDirect3DPixelShader9@@UmapNormalCS@R_dsgraph@@Udoug_lea_allocator@@@@PAPAU12@00@Z ; std::_Copy_backward_memmove<FixedMAP<IDirect3DPixelShader9 *,R_dsgraph::mapNormalCS,doug_lea_allocator>::TNode * *,FixedMAP<IDirect3DPixelShader9 *,R_dsgraph::mapNormalCS,doug_lea_allocator>::TNode * *>
PUBLIC	??$forward@AAPAPAUTNode@?$FixedMAP@PAUIDirect3DVertexShader9@@UmapNormalPS@R_dsgraph@@Udoug_lea_allocator@@@@@std@@YAAAPAPAUTNode@?$FixedMAP@PAUIDirect3DVertexShader9@@UmapNormalPS@R_dsgraph@@Udoug_lea_allocator@@@@AAPAPAU12@@Z ; std::forward<FixedMAP<IDirect3DVertexShader9 *,R_dsgraph::mapNormalPS,doug_lea_allocator>::TNode * * &>
PUBLIC	??$swap@PAUTNode@?$FixedMAP@PAUIDirect3DVertexShader9@@UmapNormalPS@R_dsgraph@@Udoug_lea_allocator@@@@$0A@@std@@YAXAAPAUTNode@?$FixedMAP@PAUIDirect3DVertexShader9@@UmapNormalPS@R_dsgraph@@Udoug_lea_allocator@@@@0@Z ; std::swap<FixedMAP<IDirect3DVertexShader9 *,R_dsgraph::mapNormalPS,doug_lea_allocator>::TNode *,0>
PUBLIC	??$_Med3_unchecked@PAPAUTNode@?$FixedMAP@PAUIDirect3DVertexShader9@@UmapNormalPS@R_dsgraph@@Udoug_lea_allocator@@@@P6A_NPAU12@0@Z@std@@YAXPAPAUTNode@?$FixedMAP@PAUIDirect3DVertexShader9@@UmapNormalPS@R_dsgraph@@Udoug_lea_allocator@@@@00P6A_NPAU12@1@Z@Z ; std::_Med3_unchecked<FixedMAP<IDirect3DVertexShader9 *,R_dsgraph::mapNormalPS,doug_lea_allocator>::TNode * *,bool (__cdecl*)(FixedMAP<IDirect3DVertexShader9 *,R_dsgraph::mapNormalPS,doug_lea_allocator>::TNode *,FixedMAP<IDirect3DVertexShader9 *,R_dsgraph::mapNormalPS,doug_lea_allocator>::TNode *)>
PUBLIC	??$_Pop_heap_hole_unchecked@PAPAUTNode@?$FixedMAP@PAUIDirect3DVertexShader9@@UmapNormalPS@R_dsgraph@@Udoug_lea_allocator@@@@PAU12@P6A_NPAU12@0@Z@std@@YAXPAPAUTNode@?$FixedMAP@PAUIDirect3DVertexShader9@@UmapNormalPS@R_dsgraph@@Udoug_lea_allocator@@@@00$$QAPAU12@P6A_NPAU12@2@Z@Z ; std::_Pop_heap_hole_unchecked<FixedMAP<IDirect3DVertexShader9 *,R_dsgraph::mapNormalPS,doug_lea_allocator>::TNode * *,FixedMAP<IDirect3DVertexShader9 *,R_dsgraph::mapNormalPS,doug_lea_allocator>::TNode *,bool (__cdecl*)(FixedMAP<IDirect3DVertexShader9 *,R_dsgraph::mapNormalPS,doug_lea_allocator>::TNode *,FixedMAP<IDirect3DVertexShader9 *,R_dsgraph::mapNormalPS,doug_lea_allocator>::TNode *)>
PUBLIC	??$_Push_heap_by_index@PAPAUTNode@?$FixedMAP@PAUIDirect3DVertexShader9@@UmapNormalPS@R_dsgraph@@Udoug_lea_allocator@@@@PAU12@P6A_NPAU12@0@Z@std@@YAXPAPAUTNode@?$FixedMAP@PAUIDirect3DVertexShader9@@UmapNormalPS@R_dsgraph@@Udoug_lea_allocator@@@@HH$$QAPAU12@P6A_NPAU12@2@Z@Z ; std::_Push_heap_by_index<FixedMAP<IDirect3DVertexShader9 *,R_dsgraph::mapNormalPS,doug_lea_allocator>::TNode * *,FixedMAP<IDirect3DVertexShader9 *,R_dsgraph::mapNormalPS,doug_lea_allocator>::TNode *,bool (__cdecl*)(FixedMAP<IDirect3DVertexShader9 *,R_dsgraph::mapNormalPS,doug_lea_allocator>::TNode *,FixedMAP<IDirect3DVertexShader9 *,R_dsgraph::mapNormalPS,doug_lea_allocator>::TNode *)>
PUBLIC	??$forward@PAUTNode@?$FixedMAP@PAUIDirect3DVertexShader9@@UmapNormalPS@R_dsgraph@@Udoug_lea_allocator@@@@@std@@YA$$QAPAUTNode@?$FixedMAP@PAUIDirect3DVertexShader9@@UmapNormalPS@R_dsgraph@@Udoug_lea_allocator@@@@AAPAU12@@Z ; std::forward<FixedMAP<IDirect3DVertexShader9 *,R_dsgraph::mapNormalPS,doug_lea_allocator>::TNode *>
PUBLIC	??$_Copy_backward_memmove@PAPAUTNode@?$FixedMAP@PAUIDirect3DVertexShader9@@UmapNormalPS@R_dsgraph@@Udoug_lea_allocator@@@@PAPAU12@@std@@YAPAPAUTNode@?$FixedMAP@PAUIDirect3DVertexShader9@@UmapNormalPS@R_dsgraph@@Udoug_lea_allocator@@@@PAPAU12@00@Z ; std::_Copy_backward_memmove<FixedMAP<IDirect3DVertexShader9 *,R_dsgraph::mapNormalPS,doug_lea_allocator>::TNode * *,FixedMAP<IDirect3DVertexShader9 *,R_dsgraph::mapNormalPS,doug_lea_allocator>::TNode * *>
PUBLIC	??$_Emplace_back@AAPAUTNode@?$FixedMAP@PAUSTextureList@@UmapMatrixItems@R_dsgraph@@Udoug_lea_allocator@@@@@?$_Uninitialized_backout_al@V?$doug_lea_alloc@PAUTNode@?$FixedMAP@PAUSTextureList@@UmapMatrixItems@R_dsgraph@@Udoug_lea_allocator@@@@@@@std@@QAEXAAPAUTNode@?$FixedMAP@PAUSTextureList@@UmapMatrixItems@R_dsgraph@@Udoug_lea_allocator@@@@@Z ; std::_Uninitialized_backout_al<doug_lea_alloc<FixedMAP<STextureList *,R_dsgraph::mapMatrixItems,doug_lea_allocator>::TNode *> >::_Emplace_back<FixedMAP<STextureList *,R_dsgraph::mapMatrixItems,doug_lea_allocator>::TNode * &>
PUBLIC	??$forward@AAPAPAUTNode@?$FixedMAP@PAUSTextureList@@UmapMatrixItems@R_dsgraph@@Udoug_lea_allocator@@@@@std@@YAAAPAPAUTNode@?$FixedMAP@PAUSTextureList@@UmapMatrixItems@R_dsgraph@@Udoug_lea_allocator@@@@AAPAPAU12@@Z ; std::forward<FixedMAP<STextureList *,R_dsgraph::mapMatrixItems,doug_lea_allocator>::TNode * * &>
PUBLIC	??$swap@PAUTNode@?$FixedMAP@PAUSTextureList@@UmapMatrixItems@R_dsgraph@@Udoug_lea_allocator@@@@$0A@@std@@YAXAAPAUTNode@?$FixedMAP@PAUSTextureList@@UmapMatrixItems@R_dsgraph@@Udoug_lea_allocator@@@@0@Z ; std::swap<FixedMAP<STextureList *,R_dsgraph::mapMatrixItems,doug_lea_allocator>::TNode *,0>
PUBLIC	??$_Med3_unchecked@PAPAUTNode@?$FixedMAP@PAUSTextureList@@UmapMatrixItems@R_dsgraph@@Udoug_lea_allocator@@@@P6A_NPAU12@0@Z@std@@YAXPAPAUTNode@?$FixedMAP@PAUSTextureList@@UmapMatrixItems@R_dsgraph@@Udoug_lea_allocator@@@@00P6A_NPAU12@1@Z@Z ; std::_Med3_unchecked<FixedMAP<STextureList *,R_dsgraph::mapMatrixItems,doug_lea_allocator>::TNode * *,bool (__cdecl*)(FixedMAP<STextureList *,R_dsgraph::mapMatrixItems,doug_lea_allocator>::TNode *,FixedMAP<STextureList *,R_dsgraph::mapMatrixItems,doug_lea_allocator>::TNode *)>
PUBLIC	??$_Pop_heap_hole_unchecked@PAPAUTNode@?$FixedMAP@PAUSTextureList@@UmapMatrixItems@R_dsgraph@@Udoug_lea_allocator@@@@PAU12@P6A_NPAU12@0@Z@std@@YAXPAPAUTNode@?$FixedMAP@PAUSTextureList@@UmapMatrixItems@R_dsgraph@@Udoug_lea_allocator@@@@00$$QAPAU12@P6A_NPAU12@2@Z@Z ; std::_Pop_heap_hole_unchecked<FixedMAP<STextureList *,R_dsgraph::mapMatrixItems,doug_lea_allocator>::TNode * *,FixedMAP<STextureList *,R_dsgraph::mapMatrixItems,doug_lea_allocator>::TNode *,bool (__cdecl*)(FixedMAP<STextureList *,R_dsgraph::mapMatrixItems,doug_lea_allocator>::TNode *,FixedMAP<STextureList *,R_dsgraph::mapMatrixItems,doug_lea_allocator>::TNode *)>
PUBLIC	??$_Push_heap_by_index@PAPAUTNode@?$FixedMAP@PAUSTextureList@@UmapMatrixItems@R_dsgraph@@Udoug_lea_allocator@@@@PAU12@P6A_NPAU12@0@Z@std@@YAXPAPAUTNode@?$FixedMAP@PAUSTextureList@@UmapMatrixItems@R_dsgraph@@Udoug_lea_allocator@@@@HH$$QAPAU12@P6A_NPAU12@2@Z@Z ; std::_Push_heap_by_index<FixedMAP<STextureList *,R_dsgraph::mapMatrixItems,doug_lea_allocator>::TNode * *,FixedMAP<STextureList *,R_dsgraph::mapMatrixItems,doug_lea_allocator>::TNode *,bool (__cdecl*)(FixedMAP<STextureList *,R_dsgraph::mapMatrixItems,doug_lea_allocator>::TNode *,FixedMAP<STextureList *,R_dsgraph::mapMatrixItems,doug_lea_allocator>::TNode *)>
PUBLIC	??$_Emplace_back@AAPAUTNode@?$FixedMAP@PAUSTextureList@@UmapNormalItems@R_dsgraph@@Udoug_lea_allocator@@@@@?$_Uninitialized_backout_al@V?$doug_lea_alloc@PAUTNode@?$FixedMAP@PAUSTextureList@@UmapNormalItems@R_dsgraph@@Udoug_lea_allocator@@@@@@@std@@QAEXAAPAUTNode@?$FixedMAP@PAUSTextureList@@UmapNormalItems@R_dsgraph@@Udoug_lea_allocator@@@@@Z ; std::_Uninitialized_backout_al<doug_lea_alloc<FixedMAP<STextureList *,R_dsgraph::mapNormalItems,doug_lea_allocator>::TNode *> >::_Emplace_back<FixedMAP<STextureList *,R_dsgraph::mapNormalItems,doug_lea_allocator>::TNode * &>
PUBLIC	??$forward@AAPAPAUTNode@?$FixedMAP@PAUSTextureList@@UmapNormalItems@R_dsgraph@@Udoug_lea_allocator@@@@@std@@YAAAPAPAUTNode@?$FixedMAP@PAUSTextureList@@UmapNormalItems@R_dsgraph@@Udoug_lea_allocator@@@@AAPAPAU12@@Z ; std::forward<FixedMAP<STextureList *,R_dsgraph::mapNormalItems,doug_lea_allocator>::TNode * * &>
PUBLIC	??$swap@PAUTNode@?$FixedMAP@PAUSTextureList@@UmapNormalItems@R_dsgraph@@Udoug_lea_allocator@@@@$0A@@std@@YAXAAPAUTNode@?$FixedMAP@PAUSTextureList@@UmapNormalItems@R_dsgraph@@Udoug_lea_allocator@@@@0@Z ; std::swap<FixedMAP<STextureList *,R_dsgraph::mapNormalItems,doug_lea_allocator>::TNode *,0>
PUBLIC	??$_Med3_unchecked@PAPAUTNode@?$FixedMAP@PAUSTextureList@@UmapNormalItems@R_dsgraph@@Udoug_lea_allocator@@@@P6A_NPAU12@0@Z@std@@YAXPAPAUTNode@?$FixedMAP@PAUSTextureList@@UmapNormalItems@R_dsgraph@@Udoug_lea_allocator@@@@00P6A_NPAU12@1@Z@Z ; std::_Med3_unchecked<FixedMAP<STextureList *,R_dsgraph::mapNormalItems,doug_lea_allocator>::TNode * *,bool (__cdecl*)(FixedMAP<STextureList *,R_dsgraph::mapNormalItems,doug_lea_allocator>::TNode *,FixedMAP<STextureList *,R_dsgraph::mapNormalItems,doug_lea_allocator>::TNode *)>
PUBLIC	??$_Pop_heap_hole_unchecked@PAPAUTNode@?$FixedMAP@PAUSTextureList@@UmapNormalItems@R_dsgraph@@Udoug_lea_allocator@@@@PAU12@P6A_NPAU12@0@Z@std@@YAXPAPAUTNode@?$FixedMAP@PAUSTextureList@@UmapNormalItems@R_dsgraph@@Udoug_lea_allocator@@@@00$$QAPAU12@P6A_NPAU12@2@Z@Z ; std::_Pop_heap_hole_unchecked<FixedMAP<STextureList *,R_dsgraph::mapNormalItems,doug_lea_allocator>::TNode * *,FixedMAP<STextureList *,R_dsgraph::mapNormalItems,doug_lea_allocator>::TNode *,bool (__cdecl*)(FixedMAP<STextureList *,R_dsgraph::mapNormalItems,doug_lea_allocator>::TNode *,FixedMAP<STextureList *,R_dsgraph::mapNormalItems,doug_lea_allocator>::TNode *)>
PUBLIC	??$_Push_heap_by_index@PAPAUTNode@?$FixedMAP@PAUSTextureList@@UmapNormalItems@R_dsgraph@@Udoug_lea_allocator@@@@PAU12@P6A_NPAU12@0@Z@std@@YAXPAPAUTNode@?$FixedMAP@PAUSTextureList@@UmapNormalItems@R_dsgraph@@Udoug_lea_allocator@@@@HH$$QAPAU12@P6A_NPAU12@2@Z@Z ; std::_Push_heap_by_index<FixedMAP<STextureList *,R_dsgraph::mapNormalItems,doug_lea_allocator>::TNode * *,FixedMAP<STextureList *,R_dsgraph::mapNormalItems,doug_lea_allocator>::TNode *,bool (__cdecl*)(FixedMAP<STextureList *,R_dsgraph::mapNormalItems,doug_lea_allocator>::TNode *,FixedMAP<STextureList *,R_dsgraph::mapNormalItems,doug_lea_allocator>::TNode *)>
PUBLIC	??$forward@AAPAU_MatrixItem@R_dsgraph@@@std@@YAAAPAU_MatrixItem@R_dsgraph@@AAPAU12@@Z ; std::forward<R_dsgraph::_MatrixItem * &>
PUBLIC	??$swap@U_MatrixItem@R_dsgraph@@$0A@@std@@YAXAAU_MatrixItem@R_dsgraph@@0@Z ; std::swap<R_dsgraph::_MatrixItem,0>
PUBLIC	??$_Med3_unchecked@PAU_MatrixItem@R_dsgraph@@P6A_NABU12@0@Z@std@@YAXPAU_MatrixItem@R_dsgraph@@00P6A_NABU12@1@Z@Z ; std::_Med3_unchecked<R_dsgraph::_MatrixItem *,bool (__cdecl*)(R_dsgraph::_MatrixItem const &,R_dsgraph::_MatrixItem const &)>
PUBLIC	??$_Pop_heap_hole_unchecked@PAU_MatrixItem@R_dsgraph@@U12@P6A_NABU12@0@Z@std@@YAXPAU_MatrixItem@R_dsgraph@@00$$QAU12@P6A_NABU12@2@Z@Z ; std::_Pop_heap_hole_unchecked<R_dsgraph::_MatrixItem *,R_dsgraph::_MatrixItem,bool (__cdecl*)(R_dsgraph::_MatrixItem const &,R_dsgraph::_MatrixItem const &)>
PUBLIC	??$_Push_heap_by_index@PAU_MatrixItem@R_dsgraph@@U12@P6A_NABU12@0@Z@std@@YAXPAU_MatrixItem@R_dsgraph@@HH$$QAU12@P6A_NABU12@2@Z@Z ; std::_Push_heap_by_index<R_dsgraph::_MatrixItem *,R_dsgraph::_MatrixItem,bool (__cdecl*)(R_dsgraph::_MatrixItem const &,R_dsgraph::_MatrixItem const &)>
PUBLIC	??$_To_address@PAU_MatrixItem@R_dsgraph@@@std@@YA?A_PABQAU_MatrixItem@R_dsgraph@@@Z ; std::_To_address<R_dsgraph::_MatrixItem *>
PUBLIC	??$_Copy_backward_memmove@PAU_MatrixItem@R_dsgraph@@PAU12@@std@@YAPAU_MatrixItem@R_dsgraph@@PAU12@00@Z ; std::_Copy_backward_memmove<R_dsgraph::_MatrixItem *,R_dsgraph::_MatrixItem *>
PUBLIC	??$forward@AAPAU_NormalItem@R_dsgraph@@@std@@YAAAPAU_NormalItem@R_dsgraph@@AAPAU12@@Z ; std::forward<R_dsgraph::_NormalItem * &>
PUBLIC	??$swap@U_NormalItem@R_dsgraph@@$0A@@std@@YAXAAU_NormalItem@R_dsgraph@@0@Z ; std::swap<R_dsgraph::_NormalItem,0>
PUBLIC	??$_Med3_unchecked@PAU_NormalItem@R_dsgraph@@P6A_NABU12@0@Z@std@@YAXPAU_NormalItem@R_dsgraph@@00P6A_NABU12@1@Z@Z ; std::_Med3_unchecked<R_dsgraph::_NormalItem *,bool (__cdecl*)(R_dsgraph::_NormalItem const &,R_dsgraph::_NormalItem const &)>
PUBLIC	??$_Pop_heap_hole_unchecked@PAU_NormalItem@R_dsgraph@@U12@P6A_NABU12@0@Z@std@@YAXPAU_NormalItem@R_dsgraph@@00$$QAU12@P6A_NABU12@2@Z@Z ; std::_Pop_heap_hole_unchecked<R_dsgraph::_NormalItem *,R_dsgraph::_NormalItem,bool (__cdecl*)(R_dsgraph::_NormalItem const &,R_dsgraph::_NormalItem const &)>
PUBLIC	??$_Push_heap_by_index@PAU_NormalItem@R_dsgraph@@U12@P6A_NABU12@0@Z@std@@YAXPAU_NormalItem@R_dsgraph@@HH$$QAU12@P6A_NABU12@2@Z@Z ; std::_Push_heap_by_index<R_dsgraph::_NormalItem *,R_dsgraph::_NormalItem,bool (__cdecl*)(R_dsgraph::_NormalItem const &,R_dsgraph::_NormalItem const &)>
PUBLIC	??$_To_address@PAU_NormalItem@R_dsgraph@@@std@@YA?A_PABQAU_NormalItem@R_dsgraph@@@Z ; std::_To_address<R_dsgraph::_NormalItem *>
PUBLIC	??$_Copy_backward_memmove@PAU_NormalItem@R_dsgraph@@PAU12@@std@@YAPAU_NormalItem@R_dsgraph@@PAU12@00@Z ; std::_Copy_backward_memmove<R_dsgraph::_NormalItem *,R_dsgraph::_NormalItem *>
PUBLIC	??$_Emplace_back@PAUTNode@?$FixedMAP@PAUIDirect3DVertexShader9@@UmapNormalPS@R_dsgraph@@Udoug_lea_allocator@@@@@?$_Uninitialized_backout_al@V?$doug_lea_alloc@PAUTNode@?$FixedMAP@PAUIDirect3DVertexShader9@@UmapNormalPS@R_dsgraph@@Udoug_lea_allocator@@@@@@@std@@QAEX$$QAPAUTNode@?$FixedMAP@PAUIDirect3DVertexShader9@@UmapNormalPS@R_dsgraph@@Udoug_lea_allocator@@@@@Z ; std::_Uninitialized_backout_al<doug_lea_alloc<FixedMAP<IDirect3DVertexShader9 *,R_dsgraph::mapNormalPS,doug_lea_allocator>::TNode *> >::_Emplace_back<FixedMAP<IDirect3DVertexShader9 *,R_dsgraph::mapNormalPS,doug_lea_allocator>::TNode *>
PUBLIC	??$_Emplace_back@PAUTNode@?$FixedMAP@PAUIDirect3DPixelShader9@@UmapNormalCS@R_dsgraph@@Udoug_lea_allocator@@@@@?$_Uninitialized_backout_al@V?$doug_lea_alloc@PAUTNode@?$FixedMAP@PAUIDirect3DPixelShader9@@UmapNormalCS@R_dsgraph@@Udoug_lea_allocator@@@@@@@std@@QAEX$$QAPAUTNode@?$FixedMAP@PAUIDirect3DPixelShader9@@UmapNormalCS@R_dsgraph@@Udoug_lea_allocator@@@@@Z ; std::_Uninitialized_backout_al<doug_lea_alloc<FixedMAP<IDirect3DPixelShader9 *,R_dsgraph::mapNormalCS,doug_lea_allocator>::TNode *> >::_Emplace_back<FixedMAP<IDirect3DPixelShader9 *,R_dsgraph::mapNormalCS,doug_lea_allocator>::TNode *>
PUBLIC	??$_Emplace_back@PAUTNode@?$FixedMAP@PAVR_constant_table@@UmapNormalStates@R_dsgraph@@Udoug_lea_allocator@@@@@?$_Uninitialized_backout_al@V?$doug_lea_alloc@PAUTNode@?$FixedMAP@PAVR_constant_table@@UmapNormalStates@R_dsgraph@@Udoug_lea_allocator@@@@@@@std@@QAEX$$QAPAUTNode@?$FixedMAP@PAVR_constant_table@@UmapNormalStates@R_dsgraph@@Udoug_lea_allocator@@@@@Z ; std::_Uninitialized_backout_al<doug_lea_alloc<FixedMAP<R_constant_table *,R_dsgraph::mapNormalStates,doug_lea_allocator>::TNode *> >::_Emplace_back<FixedMAP<R_constant_table *,R_dsgraph::mapNormalStates,doug_lea_allocator>::TNode *>
PUBLIC	??$_Emplace_back@PAUTNode@?$FixedMAP@PAUIDirect3DStateBlock9@@UmapNormalTextures@R_dsgraph@@Udoug_lea_allocator@@@@@?$_Uninitialized_backout_al@V?$doug_lea_alloc@PAUTNode@?$FixedMAP@PAUIDirect3DStateBlock9@@UmapNormalTextures@R_dsgraph@@Udoug_lea_allocator@@@@@@@std@@QAEX$$QAPAUTNode@?$FixedMAP@PAUIDirect3DStateBlock9@@UmapNormalTextures@R_dsgraph@@Udoug_lea_allocator@@@@@Z ; std::_Uninitialized_backout_al<doug_lea_alloc<FixedMAP<IDirect3DStateBlock9 *,R_dsgraph::mapNormalTextures,doug_lea_allocator>::TNode *> >::_Emplace_back<FixedMAP<IDirect3DStateBlock9 *,R_dsgraph::mapNormalTextures,doug_lea_allocator>::TNode *>
PUBLIC	??$_Emplace_back@PAUTNode@?$FixedMAP@PAUIDirect3DVertexShader9@@UmapMatrixPS@R_dsgraph@@Udoug_lea_allocator@@@@@?$_Uninitialized_backout_al@V?$doug_lea_alloc@PAUTNode@?$FixedMAP@PAUIDirect3DVertexShader9@@UmapMatrixPS@R_dsgraph@@Udoug_lea_allocator@@@@@@@std@@QAEX$$QAPAUTNode@?$FixedMAP@PAUIDirect3DVertexShader9@@UmapMatrixPS@R_dsgraph@@Udoug_lea_allocator@@@@@Z ; std::_Uninitialized_backout_al<doug_lea_alloc<FixedMAP<IDirect3DVertexShader9 *,R_dsgraph::mapMatrixPS,doug_lea_allocator>::TNode *> >::_Emplace_back<FixedMAP<IDirect3DVertexShader9 *,R_dsgraph::mapMatrixPS,doug_lea_allocator>::TNode *>
PUBLIC	??$_Emplace_back@PAUTNode@?$FixedMAP@PAUIDirect3DPixelShader9@@UmapMatrixCS@R_dsgraph@@Udoug_lea_allocator@@@@@?$_Uninitialized_backout_al@V?$doug_lea_alloc@PAUTNode@?$FixedMAP@PAUIDirect3DPixelShader9@@UmapMatrixCS@R_dsgraph@@Udoug_lea_allocator@@@@@@@std@@QAEX$$QAPAUTNode@?$FixedMAP@PAUIDirect3DPixelShader9@@UmapMatrixCS@R_dsgraph@@Udoug_lea_allocator@@@@@Z ; std::_Uninitialized_backout_al<doug_lea_alloc<FixedMAP<IDirect3DPixelShader9 *,R_dsgraph::mapMatrixCS,doug_lea_allocator>::TNode *> >::_Emplace_back<FixedMAP<IDirect3DPixelShader9 *,R_dsgraph::mapMatrixCS,doug_lea_allocator>::TNode *>
PUBLIC	??$_Emplace_back@PAUTNode@?$FixedMAP@PAVR_constant_table@@UmapMatrixStates@R_dsgraph@@Udoug_lea_allocator@@@@@?$_Uninitialized_backout_al@V?$doug_lea_alloc@PAUTNode@?$FixedMAP@PAVR_constant_table@@UmapMatrixStates@R_dsgraph@@Udoug_lea_allocator@@@@@@@std@@QAEX$$QAPAUTNode@?$FixedMAP@PAVR_constant_table@@UmapMatrixStates@R_dsgraph@@Udoug_lea_allocator@@@@@Z ; std::_Uninitialized_backout_al<doug_lea_alloc<FixedMAP<R_constant_table *,R_dsgraph::mapMatrixStates,doug_lea_allocator>::TNode *> >::_Emplace_back<FixedMAP<R_constant_table *,R_dsgraph::mapMatrixStates,doug_lea_allocator>::TNode *>
PUBLIC	??$_Emplace_back@PAUTNode@?$FixedMAP@PAUIDirect3DStateBlock9@@UmapMatrixTextures@R_dsgraph@@Udoug_lea_allocator@@@@@?$_Uninitialized_backout_al@V?$doug_lea_alloc@PAUTNode@?$FixedMAP@PAUIDirect3DStateBlock9@@UmapMatrixTextures@R_dsgraph@@Udoug_lea_allocator@@@@@@@std@@QAEX$$QAPAUTNode@?$FixedMAP@PAUIDirect3DStateBlock9@@UmapMatrixTextures@R_dsgraph@@Udoug_lea_allocator@@@@@Z ; std::_Uninitialized_backout_al<doug_lea_alloc<FixedMAP<IDirect3DStateBlock9 *,R_dsgraph::mapMatrixTextures,doug_lea_allocator>::TNode *> >::_Emplace_back<FixedMAP<IDirect3DStateBlock9 *,R_dsgraph::mapMatrixTextures,doug_lea_allocator>::TNode *>
PUBLIC	??$construct@PAUTNode@?$FixedMAP@PAUIDirect3DVertexShader9@@UmapNormalPS@R_dsgraph@@Udoug_lea_allocator@@@@$$V@?$_Normal_allocator_traits@V?$doug_lea_alloc@PAUTNode@?$FixedMAP@PAUIDirect3DVertexShader9@@UmapNormalPS@R_dsgraph@@Udoug_lea_allocator@@@@@@@std@@SAXAAV?$doug_lea_alloc@PAUTNode@?$FixedMAP@PAUIDirect3DVertexShader9@@UmapNormalPS@R_dsgraph@@Udoug_lea_allocator@@@@@@PAPAUTNode@?$FixedMAP@PAUIDirect3DVertexShader9@@UmapNormalPS@R_dsgraph@@Udoug_lea_allocator@@@@@Z ; std::_Normal_allocator_traits<doug_lea_alloc<FixedMAP<IDirect3DVertexShader9 *,R_dsgraph::mapNormalPS,doug_lea_allocator>::TNode *> >::construct<FixedMAP<IDirect3DVertexShader9 *,R_dsgraph::mapNormalPS,doug_lea_allocator>::TNode *>
PUBLIC	??$construct@PAUTNode@?$FixedMAP@PAUIDirect3DPixelShader9@@UmapNormalCS@R_dsgraph@@Udoug_lea_allocator@@@@$$V@?$_Normal_allocator_traits@V?$doug_lea_alloc@PAUTNode@?$FixedMAP@PAUIDirect3DPixelShader9@@UmapNormalCS@R_dsgraph@@Udoug_lea_allocator@@@@@@@std@@SAXAAV?$doug_lea_alloc@PAUTNode@?$FixedMAP@PAUIDirect3DPixelShader9@@UmapNormalCS@R_dsgraph@@Udoug_lea_allocator@@@@@@PAPAUTNode@?$FixedMAP@PAUIDirect3DPixelShader9@@UmapNormalCS@R_dsgraph@@Udoug_lea_allocator@@@@@Z ; std::_Normal_allocator_traits<doug_lea_alloc<FixedMAP<IDirect3DPixelShader9 *,R_dsgraph::mapNormalCS,doug_lea_allocator>::TNode *> >::construct<FixedMAP<IDirect3DPixelShader9 *,R_dsgraph::mapNormalCS,doug_lea_allocator>::TNode *>
PUBLIC	??$construct@PAUTNode@?$FixedMAP@PAVR_constant_table@@UmapNormalStates@R_dsgraph@@Udoug_lea_allocator@@@@$$V@?$_Normal_allocator_traits@V?$doug_lea_alloc@PAUTNode@?$FixedMAP@PAVR_constant_table@@UmapNormalStates@R_dsgraph@@Udoug_lea_allocator@@@@@@@std@@SAXAAV?$doug_lea_alloc@PAUTNode@?$FixedMAP@PAVR_constant_table@@UmapNormalStates@R_dsgraph@@Udoug_lea_allocator@@@@@@PAPAUTNode@?$FixedMAP@PAVR_constant_table@@UmapNormalStates@R_dsgraph@@Udoug_lea_allocator@@@@@Z ; std::_Normal_allocator_traits<doug_lea_alloc<FixedMAP<R_constant_table *,R_dsgraph::mapNormalStates,doug_lea_allocator>::TNode *> >::construct<FixedMAP<R_constant_table *,R_dsgraph::mapNormalStates,doug_lea_allocator>::TNode *>
PUBLIC	??$construct@PAUTNode@?$FixedMAP@PAUIDirect3DStateBlock9@@UmapNormalTextures@R_dsgraph@@Udoug_lea_allocator@@@@$$V@?$_Normal_allocator_traits@V?$doug_lea_alloc@PAUTNode@?$FixedMAP@PAUIDirect3DStateBlock9@@UmapNormalTextures@R_dsgraph@@Udoug_lea_allocator@@@@@@@std@@SAXAAV?$doug_lea_alloc@PAUTNode@?$FixedMAP@PAUIDirect3DStateBlock9@@UmapNormalTextures@R_dsgraph@@Udoug_lea_allocator@@@@@@PAPAUTNode@?$FixedMAP@PAUIDirect3DStateBlock9@@UmapNormalTextures@R_dsgraph@@Udoug_lea_allocator@@@@@Z ; std::_Normal_allocator_traits<doug_lea_alloc<FixedMAP<IDirect3DStateBlock9 *,R_dsgraph::mapNormalTextures,doug_lea_allocator>::TNode *> >::construct<FixedMAP<IDirect3DStateBlock9 *,R_dsgraph::mapNormalTextures,doug_lea_allocator>::TNode *>
PUBLIC	??$construct@PAUTNode@?$FixedMAP@PAUSTextureList@@UmapNormalItems@R_dsgraph@@Udoug_lea_allocator@@@@$$V@?$_Normal_allocator_traits@V?$doug_lea_alloc@PAUTNode@?$FixedMAP@PAUSTextureList@@UmapNormalItems@R_dsgraph@@Udoug_lea_allocator@@@@@@@std@@SAXAAV?$doug_lea_alloc@PAUTNode@?$FixedMAP@PAUSTextureList@@UmapNormalItems@R_dsgraph@@Udoug_lea_allocator@@@@@@PAPAUTNode@?$FixedMAP@PAUSTextureList@@UmapNormalItems@R_dsgraph@@Udoug_lea_allocator@@@@@Z ; std::_Normal_allocator_traits<doug_lea_alloc<FixedMAP<STextureList *,R_dsgraph::mapNormalItems,doug_lea_allocator>::TNode *> >::construct<FixedMAP<STextureList *,R_dsgraph::mapNormalItems,doug_lea_allocator>::TNode *>
PUBLIC	??$construct@PAUTNode@?$FixedMAP@PAUSTextureList@@UmapNormalItems@R_dsgraph@@Udoug_lea_allocator@@@@PAU12@@?$_Normal_allocator_traits@V?$doug_lea_alloc@PAUTNode@?$FixedMAP@PAUSTextureList@@UmapNormalItems@R_dsgraph@@Udoug_lea_allocator@@@@@@@std@@SAXAAV?$doug_lea_alloc@PAUTNode@?$FixedMAP@PAUSTextureList@@UmapNormalItems@R_dsgraph@@Udoug_lea_allocator@@@@@@PAPAUTNode@?$FixedMAP@PAUSTextureList@@UmapNormalItems@R_dsgraph@@Udoug_lea_allocator@@@@$$QAPAU34@@Z ; std::_Normal_allocator_traits<doug_lea_alloc<FixedMAP<STextureList *,R_dsgraph::mapNormalItems,doug_lea_allocator>::TNode *> >::construct<FixedMAP<STextureList *,R_dsgraph::mapNormalItems,doug_lea_allocator>::TNode *,FixedMAP<STextureList *,R_dsgraph::mapNormalItems,doug_lea_allocator>::TNode *>
PUBLIC	??$forward@PAUTNode@?$FixedMAP@PAUSTextureList@@UmapNormalItems@R_dsgraph@@Udoug_lea_allocator@@@@@std@@YA$$QAPAUTNode@?$FixedMAP@PAUSTextureList@@UmapNormalItems@R_dsgraph@@Udoug_lea_allocator@@@@AAPAU12@@Z ; std::forward<FixedMAP<STextureList *,R_dsgraph::mapNormalItems,doug_lea_allocator>::TNode *>
PUBLIC	??$construct@PAUTNode@?$FixedMAP@PAUIDirect3DVertexShader9@@UmapMatrixPS@R_dsgraph@@Udoug_lea_allocator@@@@$$V@?$_Normal_allocator_traits@V?$doug_lea_alloc@PAUTNode@?$FixedMAP@PAUIDirect3DVertexShader9@@UmapMatrixPS@R_dsgraph@@Udoug_lea_allocator@@@@@@@std@@SAXAAV?$doug_lea_alloc@PAUTNode@?$FixedMAP@PAUIDirect3DVertexShader9@@UmapMatrixPS@R_dsgraph@@Udoug_lea_allocator@@@@@@PAPAUTNode@?$FixedMAP@PAUIDirect3DVertexShader9@@UmapMatrixPS@R_dsgraph@@Udoug_lea_allocator@@@@@Z ; std::_Normal_allocator_traits<doug_lea_alloc<FixedMAP<IDirect3DVertexShader9 *,R_dsgraph::mapMatrixPS,doug_lea_allocator>::TNode *> >::construct<FixedMAP<IDirect3DVertexShader9 *,R_dsgraph::mapMatrixPS,doug_lea_allocator>::TNode *>
PUBLIC	??$construct@PAUTNode@?$FixedMAP@PAUIDirect3DPixelShader9@@UmapMatrixCS@R_dsgraph@@Udoug_lea_allocator@@@@$$V@?$_Normal_allocator_traits@V?$doug_lea_alloc@PAUTNode@?$FixedMAP@PAUIDirect3DPixelShader9@@UmapMatrixCS@R_dsgraph@@Udoug_lea_allocator@@@@@@@std@@SAXAAV?$doug_lea_alloc@PAUTNode@?$FixedMAP@PAUIDirect3DPixelShader9@@UmapMatrixCS@R_dsgraph@@Udoug_lea_allocator@@@@@@PAPAUTNode@?$FixedMAP@PAUIDirect3DPixelShader9@@UmapMatrixCS@R_dsgraph@@Udoug_lea_allocator@@@@@Z ; std::_Normal_allocator_traits<doug_lea_alloc<FixedMAP<IDirect3DPixelShader9 *,R_dsgraph::mapMatrixCS,doug_lea_allocator>::TNode *> >::construct<FixedMAP<IDirect3DPixelShader9 *,R_dsgraph::mapMatrixCS,doug_lea_allocator>::TNode *>
PUBLIC	??$construct@PAUTNode@?$FixedMAP@PAVR_constant_table@@UmapMatrixStates@R_dsgraph@@Udoug_lea_allocator@@@@$$V@?$_Normal_allocator_traits@V?$doug_lea_alloc@PAUTNode@?$FixedMAP@PAVR_constant_table@@UmapMatrixStates@R_dsgraph@@Udoug_lea_allocator@@@@@@@std@@SAXAAV?$doug_lea_alloc@PAUTNode@?$FixedMAP@PAVR_constant_table@@UmapMatrixStates@R_dsgraph@@Udoug_lea_allocator@@@@@@PAPAUTNode@?$FixedMAP@PAVR_constant_table@@UmapMatrixStates@R_dsgraph@@Udoug_lea_allocator@@@@@Z ; std::_Normal_allocator_traits<doug_lea_alloc<FixedMAP<R_constant_table *,R_dsgraph::mapMatrixStates,doug_lea_allocator>::TNode *> >::construct<FixedMAP<R_constant_table *,R_dsgraph::mapMatrixStates,doug_lea_allocator>::TNode *>
PUBLIC	??$construct@PAUTNode@?$FixedMAP@PAUIDirect3DStateBlock9@@UmapMatrixTextures@R_dsgraph@@Udoug_lea_allocator@@@@$$V@?$_Normal_allocator_traits@V?$doug_lea_alloc@PAUTNode@?$FixedMAP@PAUIDirect3DStateBlock9@@UmapMatrixTextures@R_dsgraph@@Udoug_lea_allocator@@@@@@@std@@SAXAAV?$doug_lea_alloc@PAUTNode@?$FixedMAP@PAUIDirect3DStateBlock9@@UmapMatrixTextures@R_dsgraph@@Udoug_lea_allocator@@@@@@PAPAUTNode@?$FixedMAP@PAUIDirect3DStateBlock9@@UmapMatrixTextures@R_dsgraph@@Udoug_lea_allocator@@@@@Z ; std::_Normal_allocator_traits<doug_lea_alloc<FixedMAP<IDirect3DStateBlock9 *,R_dsgraph::mapMatrixTextures,doug_lea_allocator>::TNode *> >::construct<FixedMAP<IDirect3DStateBlock9 *,R_dsgraph::mapMatrixTextures,doug_lea_allocator>::TNode *>
PUBLIC	??$construct@PAUTNode@?$FixedMAP@PAUSTextureList@@UmapMatrixItems@R_dsgraph@@Udoug_lea_allocator@@@@$$V@?$_Normal_allocator_traits@V?$doug_lea_alloc@PAUTNode@?$FixedMAP@PAUSTextureList@@UmapMatrixItems@R_dsgraph@@Udoug_lea_allocator@@@@@@@std@@SAXAAV?$doug_lea_alloc@PAUTNode@?$FixedMAP@PAUSTextureList@@UmapMatrixItems@R_dsgraph@@Udoug_lea_allocator@@@@@@PAPAUTNode@?$FixedMAP@PAUSTextureList@@UmapMatrixItems@R_dsgraph@@Udoug_lea_allocator@@@@@Z ; std::_Normal_allocator_traits<doug_lea_alloc<FixedMAP<STextureList *,R_dsgraph::mapMatrixItems,doug_lea_allocator>::TNode *> >::construct<FixedMAP<STextureList *,R_dsgraph::mapMatrixItems,doug_lea_allocator>::TNode *>
PUBLIC	??$construct@PAUTNode@?$FixedMAP@PAUSTextureList@@UmapMatrixItems@R_dsgraph@@Udoug_lea_allocator@@@@PAU12@@?$_Normal_allocator_traits@V?$doug_lea_alloc@PAUTNode@?$FixedMAP@PAUSTextureList@@UmapMatrixItems@R_dsgraph@@Udoug_lea_allocator@@@@@@@std@@SAXAAV?$doug_lea_alloc@PAUTNode@?$FixedMAP@PAUSTextureList@@UmapMatrixItems@R_dsgraph@@Udoug_lea_allocator@@@@@@PAPAUTNode@?$FixedMAP@PAUSTextureList@@UmapMatrixItems@R_dsgraph@@Udoug_lea_allocator@@@@$$QAPAU34@@Z ; std::_Normal_allocator_traits<doug_lea_alloc<FixedMAP<STextureList *,R_dsgraph::mapMatrixItems,doug_lea_allocator>::TNode *> >::construct<FixedMAP<STextureList *,R_dsgraph::mapMatrixItems,doug_lea_allocator>::TNode *,FixedMAP<STextureList *,R_dsgraph::mapMatrixItems,doug_lea_allocator>::TNode *>
PUBLIC	??$forward@PAUTNode@?$FixedMAP@PAUSTextureList@@UmapMatrixItems@R_dsgraph@@Udoug_lea_allocator@@@@@std@@YA$$QAPAUTNode@?$FixedMAP@PAUSTextureList@@UmapMatrixItems@R_dsgraph@@Udoug_lea_allocator@@@@AAPAU12@@Z ; std::forward<FixedMAP<STextureList *,R_dsgraph::mapMatrixItems,doug_lea_allocator>::TNode *>
PUBLIC	??$?0AAPAPAUTNode@?$FixedMAP@PAUIDirect3DStateBlock9@@UmapMatrixTextures@R_dsgraph@@Udoug_lea_allocator@@@@AAPAPAU01@$0A@@?$pair@PAPAUTNode@?$FixedMAP@PAUIDirect3DStateBlock9@@UmapMatrixTextures@R_dsgraph@@Udoug_lea_allocator@@@@PAPAU12@@std@@QAE@AAPAPAUTNode@?$FixedMAP@PAUIDirect3DStateBlock9@@UmapMatrixTextures@R_dsgraph@@Udoug_lea_allocator@@@@0@Z ; std::pair<FixedMAP<IDirect3DStateBlock9 *,R_dsgraph::mapMatrixTextures,doug_lea_allocator>::TNode * *,FixedMAP<IDirect3DStateBlock9 *,R_dsgraph::mapMatrixTextures,doug_lea_allocator>::TNode * *>::pair<FixedMAP<IDirect3DStateBlock9 *,R_dsgraph::mapMatrixTextures,doug_lea_allocator>::TNode * *,FixedMAP<IDirect3DStateBlock9 *,R_dsgraph::mapMatrixTextures,doug_lea_allocator>::TNode * *><FixedMAP<IDirect3DStateBlock9 *,R_dsgraph::mapMatrixTextures,doug_lea_allocator>::TNode * * &,FixedMAP<IDirect3DStateBlock9 *,R_dsgraph::mapMatrixTextures,doug_lea_allocator>::TNode * * &,0>
PUBLIC	??$iter_swap@PAPAUTNode@?$FixedMAP@PAUIDirect3DStateBlock9@@UmapMatrixTextures@R_dsgraph@@Udoug_lea_allocator@@@@PAPAU12@@std@@YAXPAPAUTNode@?$FixedMAP@PAUIDirect3DStateBlock9@@UmapMatrixTextures@R_dsgraph@@Udoug_lea_allocator@@@@0@Z ; std::iter_swap<FixedMAP<IDirect3DStateBlock9 *,R_dsgraph::mapMatrixTextures,doug_lea_allocator>::TNode * *,FixedMAP<IDirect3DStateBlock9 *,R_dsgraph::mapMatrixTextures,doug_lea_allocator>::TNode * *>
PUBLIC	??$_Next_iter@PAPAUTNode@?$FixedMAP@PAUIDirect3DStateBlock9@@UmapMatrixTextures@R_dsgraph@@Udoug_lea_allocator@@@@@std@@YAPAPAUTNode@?$FixedMAP@PAUIDirect3DStateBlock9@@UmapMatrixTextures@R_dsgraph@@Udoug_lea_allocator@@@@PAPAU12@@Z ; std::_Next_iter<FixedMAP<IDirect3DStateBlock9 *,R_dsgraph::mapMatrixTextures,doug_lea_allocator>::TNode * *>
PUBLIC	??$_Guess_median_unchecked@PAPAUTNode@?$FixedMAP@PAUIDirect3DStateBlock9@@UmapMatrixTextures@R_dsgraph@@Udoug_lea_allocator@@@@P6A_NPAU12@0@Z@std@@YAXPAPAUTNode@?$FixedMAP@PAUIDirect3DStateBlock9@@UmapMatrixTextures@R_dsgraph@@Udoug_lea_allocator@@@@00P6A_NPAU12@1@Z@Z ; std::_Guess_median_unchecked<FixedMAP<IDirect3DStateBlock9 *,R_dsgraph::mapMatrixTextures,doug_lea_allocator>::TNode * *,bool (__cdecl*)(FixedMAP<IDirect3DStateBlock9 *,R_dsgraph::mapMatrixTextures,doug_lea_allocator>::TNode *,FixedMAP<IDirect3DStateBlock9 *,R_dsgraph::mapMatrixTextures,doug_lea_allocator>::TNode *)>
PUBLIC	??$_Prev_iter@PAPAUTNode@?$FixedMAP@PAUIDirect3DStateBlock9@@UmapMatrixTextures@R_dsgraph@@Udoug_lea_allocator@@@@@std@@YAPAPAUTNode@?$FixedMAP@PAUIDirect3DStateBlock9@@UmapMatrixTextures@R_dsgraph@@Udoug_lea_allocator@@@@PAPAU12@@Z ; std::_Prev_iter<FixedMAP<IDirect3DStateBlock9 *,R_dsgraph::mapMatrixTextures,doug_lea_allocator>::TNode * *>
PUBLIC	??$_Pop_heap_unchecked@PAPAUTNode@?$FixedMAP@PAUIDirect3DStateBlock9@@UmapMatrixTextures@R_dsgraph@@Udoug_lea_allocator@@@@P6A_NPAU12@0@Z@std@@YAXPAPAUTNode@?$FixedMAP@PAUIDirect3DStateBlock9@@UmapMatrixTextures@R_dsgraph@@Udoug_lea_allocator@@@@0P6A_NPAU12@1@Z@Z ; std::_Pop_heap_unchecked<FixedMAP<IDirect3DStateBlock9 *,R_dsgraph::mapMatrixTextures,doug_lea_allocator>::TNode * *,bool (__cdecl*)(FixedMAP<IDirect3DStateBlock9 *,R_dsgraph::mapMatrixTextures,doug_lea_allocator>::TNode *,FixedMAP<IDirect3DStateBlock9 *,R_dsgraph::mapMatrixTextures,doug_lea_allocator>::TNode *)>
PUBLIC	??$_Pop_heap_hole_by_index@PAPAUTNode@?$FixedMAP@PAUIDirect3DStateBlock9@@UmapMatrixTextures@R_dsgraph@@Udoug_lea_allocator@@@@PAU12@P6A_NPAU12@0@Z@std@@YAXPAPAUTNode@?$FixedMAP@PAUIDirect3DStateBlock9@@UmapMatrixTextures@R_dsgraph@@Udoug_lea_allocator@@@@HH$$QAPAU12@P6A_NPAU12@2@Z@Z ; std::_Pop_heap_hole_by_index<FixedMAP<IDirect3DStateBlock9 *,R_dsgraph::mapMatrixTextures,doug_lea_allocator>::TNode * *,FixedMAP<IDirect3DStateBlock9 *,R_dsgraph::mapMatrixTextures,doug_lea_allocator>::TNode *,bool (__cdecl*)(FixedMAP<IDirect3DStateBlock9 *,R_dsgraph::mapMatrixTextures,doug_lea_allocator>::TNode *,FixedMAP<IDirect3DStateBlock9 *,R_dsgraph::mapMatrixTextures,doug_lea_allocator>::TNode *)>
PUBLIC	??$_Move_backward_unchecked@PAPAUTNode@?$FixedMAP@PAUIDirect3DStateBlock9@@UmapMatrixTextures@R_dsgraph@@Udoug_lea_allocator@@@@PAPAU12@@std@@YAPAPAUTNode@?$FixedMAP@PAUIDirect3DStateBlock9@@UmapMatrixTextures@R_dsgraph@@Udoug_lea_allocator@@@@PAPAU12@00@Z ; std::_Move_backward_unchecked<FixedMAP<IDirect3DStateBlock9 *,R_dsgraph::mapMatrixTextures,doug_lea_allocator>::TNode * *,FixedMAP<IDirect3DStateBlock9 *,R_dsgraph::mapMatrixTextures,doug_lea_allocator>::TNode * *>
PUBLIC	??$move@AAPAUTNode@?$FixedMAP@PAUIDirect3DStateBlock9@@UmapMatrixTextures@R_dsgraph@@Udoug_lea_allocator@@@@@std@@YA$$QAPAUTNode@?$FixedMAP@PAUIDirect3DStateBlock9@@UmapMatrixTextures@R_dsgraph@@Udoug_lea_allocator@@@@AAPAU12@@Z ; std::move<FixedMAP<IDirect3DStateBlock9 *,R_dsgraph::mapMatrixTextures,doug_lea_allocator>::TNode * &>
PUBLIC	??$?0AAPAPAUTNode@?$FixedMAP@PAVR_constant_table@@UmapMatrixStates@R_dsgraph@@Udoug_lea_allocator@@@@AAPAPAU01@$0A@@?$pair@PAPAUTNode@?$FixedMAP@PAVR_constant_table@@UmapMatrixStates@R_dsgraph@@Udoug_lea_allocator@@@@PAPAU12@@std@@QAE@AAPAPAUTNode@?$FixedMAP@PAVR_constant_table@@UmapMatrixStates@R_dsgraph@@Udoug_lea_allocator@@@@0@Z ; std::pair<FixedMAP<R_constant_table *,R_dsgraph::mapMatrixStates,doug_lea_allocator>::TNode * *,FixedMAP<R_constant_table *,R_dsgraph::mapMatrixStates,doug_lea_allocator>::TNode * *>::pair<FixedMAP<R_constant_table *,R_dsgraph::mapMatrixStates,doug_lea_allocator>::TNode * *,FixedMAP<R_constant_table *,R_dsgraph::mapMatrixStates,doug_lea_allocator>::TNode * *><FixedMAP<R_constant_table *,R_dsgraph::mapMatrixStates,doug_lea_allocator>::TNode * * &,FixedMAP<R_constant_table *,R_dsgraph::mapMatrixStates,doug_lea_allocator>::TNode * * &,0>
PUBLIC	??$iter_swap@PAPAUTNode@?$FixedMAP@PAVR_constant_table@@UmapMatrixStates@R_dsgraph@@Udoug_lea_allocator@@@@PAPAU12@@std@@YAXPAPAUTNode@?$FixedMAP@PAVR_constant_table@@UmapMatrixStates@R_dsgraph@@Udoug_lea_allocator@@@@0@Z ; std::iter_swap<FixedMAP<R_constant_table *,R_dsgraph::mapMatrixStates,doug_lea_allocator>::TNode * *,FixedMAP<R_constant_table *,R_dsgraph::mapMatrixStates,doug_lea_allocator>::TNode * *>
PUBLIC	??$_Next_iter@PAPAUTNode@?$FixedMAP@PAVR_constant_table@@UmapMatrixStates@R_dsgraph@@Udoug_lea_allocator@@@@@std@@YAPAPAUTNode@?$FixedMAP@PAVR_constant_table@@UmapMatrixStates@R_dsgraph@@Udoug_lea_allocator@@@@PAPAU12@@Z ; std::_Next_iter<FixedMAP<R_constant_table *,R_dsgraph::mapMatrixStates,doug_lea_allocator>::TNode * *>
PUBLIC	??$_Guess_median_unchecked@PAPAUTNode@?$FixedMAP@PAVR_constant_table@@UmapMatrixStates@R_dsgraph@@Udoug_lea_allocator@@@@P6A_NPAU12@0@Z@std@@YAXPAPAUTNode@?$FixedMAP@PAVR_constant_table@@UmapMatrixStates@R_dsgraph@@Udoug_lea_allocator@@@@00P6A_NPAU12@1@Z@Z ; std::_Guess_median_unchecked<FixedMAP<R_constant_table *,R_dsgraph::mapMatrixStates,doug_lea_allocator>::TNode * *,bool (__cdecl*)(FixedMAP<R_constant_table *,R_dsgraph::mapMatrixStates,doug_lea_allocator>::TNode *,FixedMAP<R_constant_table *,R_dsgraph::mapMatrixStates,doug_lea_allocator>::TNode *)>
PUBLIC	??$_Prev_iter@PAPAUTNode@?$FixedMAP@PAVR_constant_table@@UmapMatrixStates@R_dsgraph@@Udoug_lea_allocator@@@@@std@@YAPAPAUTNode@?$FixedMAP@PAVR_constant_table@@UmapMatrixStates@R_dsgraph@@Udoug_lea_allocator@@@@PAPAU12@@Z ; std::_Prev_iter<FixedMAP<R_constant_table *,R_dsgraph::mapMatrixStates,doug_lea_allocator>::TNode * *>
PUBLIC	??$_Pop_heap_unchecked@PAPAUTNode@?$FixedMAP@PAVR_constant_table@@UmapMatrixStates@R_dsgraph@@Udoug_lea_allocator@@@@P6A_NPAU12@0@Z@std@@YAXPAPAUTNode@?$FixedMAP@PAVR_constant_table@@UmapMatrixStates@R_dsgraph@@Udoug_lea_allocator@@@@0P6A_NPAU12@1@Z@Z ; std::_Pop_heap_unchecked<FixedMAP<R_constant_table *,R_dsgraph::mapMatrixStates,doug_lea_allocator>::TNode * *,bool (__cdecl*)(FixedMAP<R_constant_table *,R_dsgraph::mapMatrixStates,doug_lea_allocator>::TNode *,FixedMAP<R_constant_table *,R_dsgraph::mapMatrixStates,doug_lea_allocator>::TNode *)>
PUBLIC	??$_Pop_heap_hole_by_index@PAPAUTNode@?$FixedMAP@PAVR_constant_table@@UmapMatrixStates@R_dsgraph@@Udoug_lea_allocator@@@@PAU12@P6A_NPAU12@0@Z@std@@YAXPAPAUTNode@?$FixedMAP@PAVR_constant_table@@UmapMatrixStates@R_dsgraph@@Udoug_lea_allocator@@@@HH$$QAPAU12@P6A_NPAU12@2@Z@Z ; std::_Pop_heap_hole_by_index<FixedMAP<R_constant_table *,R_dsgraph::mapMatrixStates,doug_lea_allocator>::TNode * *,FixedMAP<R_constant_table *,R_dsgraph::mapMatrixStates,doug_lea_allocator>::TNode *,bool (__cdecl*)(FixedMAP<R_constant_table *,R_dsgraph::mapMatrixStates,doug_lea_allocator>::TNode *,FixedMAP<R_constant_table *,R_dsgraph::mapMatrixStates,doug_lea_allocator>::TNode *)>
PUBLIC	??$_Move_backward_unchecked@PAPAUTNode@?$FixedMAP@PAVR_constant_table@@UmapMatrixStates@R_dsgraph@@Udoug_lea_allocator@@@@PAPAU12@@std@@YAPAPAUTNode@?$FixedMAP@PAVR_constant_table@@UmapMatrixStates@R_dsgraph@@Udoug_lea_allocator@@@@PAPAU12@00@Z ; std::_Move_backward_unchecked<FixedMAP<R_constant_table *,R_dsgraph::mapMatrixStates,doug_lea_allocator>::TNode * *,FixedMAP<R_constant_table *,R_dsgraph::mapMatrixStates,doug_lea_allocator>::TNode * *>
PUBLIC	??$move@AAPAUTNode@?$FixedMAP@PAVR_constant_table@@UmapMatrixStates@R_dsgraph@@Udoug_lea_allocator@@@@@std@@YA$$QAPAUTNode@?$FixedMAP@PAVR_constant_table@@UmapMatrixStates@R_dsgraph@@Udoug_lea_allocator@@@@AAPAU12@@Z ; std::move<FixedMAP<R_constant_table *,R_dsgraph::mapMatrixStates,doug_lea_allocator>::TNode * &>
PUBLIC	??$?0AAPAPAUTNode@?$FixedMAP@PAUIDirect3DPixelShader9@@UmapMatrixCS@R_dsgraph@@Udoug_lea_allocator@@@@AAPAPAU01@$0A@@?$pair@PAPAUTNode@?$FixedMAP@PAUIDirect3DPixelShader9@@UmapMatrixCS@R_dsgraph@@Udoug_lea_allocator@@@@PAPAU12@@std@@QAE@AAPAPAUTNode@?$FixedMAP@PAUIDirect3DPixelShader9@@UmapMatrixCS@R_dsgraph@@Udoug_lea_allocator@@@@0@Z ; std::pair<FixedMAP<IDirect3DPixelShader9 *,R_dsgraph::mapMatrixCS,doug_lea_allocator>::TNode * *,FixedMAP<IDirect3DPixelShader9 *,R_dsgraph::mapMatrixCS,doug_lea_allocator>::TNode * *>::pair<FixedMAP<IDirect3DPixelShader9 *,R_dsgraph::mapMatrixCS,doug_lea_allocator>::TNode * *,FixedMAP<IDirect3DPixelShader9 *,R_dsgraph::mapMatrixCS,doug_lea_allocator>::TNode * *><FixedMAP<IDirect3DPixelShader9 *,R_dsgraph::mapMatrixCS,doug_lea_allocator>::TNode * * &,FixedMAP<IDirect3DPixelShader9 *,R_dsgraph::mapMatrixCS,doug_lea_allocator>::TNode * * &,0>
PUBLIC	??$iter_swap@PAPAUTNode@?$FixedMAP@PAUIDirect3DPixelShader9@@UmapMatrixCS@R_dsgraph@@Udoug_lea_allocator@@@@PAPAU12@@std@@YAXPAPAUTNode@?$FixedMAP@PAUIDirect3DPixelShader9@@UmapMatrixCS@R_dsgraph@@Udoug_lea_allocator@@@@0@Z ; std::iter_swap<FixedMAP<IDirect3DPixelShader9 *,R_dsgraph::mapMatrixCS,doug_lea_allocator>::TNode * *,FixedMAP<IDirect3DPixelShader9 *,R_dsgraph::mapMatrixCS,doug_lea_allocator>::TNode * *>
PUBLIC	??$_Next_iter@PAPAUTNode@?$FixedMAP@PAUIDirect3DPixelShader9@@UmapMatrixCS@R_dsgraph@@Udoug_lea_allocator@@@@@std@@YAPAPAUTNode@?$FixedMAP@PAUIDirect3DPixelShader9@@UmapMatrixCS@R_dsgraph@@Udoug_lea_allocator@@@@PAPAU12@@Z ; std::_Next_iter<FixedMAP<IDirect3DPixelShader9 *,R_dsgraph::mapMatrixCS,doug_lea_allocator>::TNode * *>
PUBLIC	??$_Guess_median_unchecked@PAPAUTNode@?$FixedMAP@PAUIDirect3DPixelShader9@@UmapMatrixCS@R_dsgraph@@Udoug_lea_allocator@@@@P6A_NPAU12@0@Z@std@@YAXPAPAUTNode@?$FixedMAP@PAUIDirect3DPixelShader9@@UmapMatrixCS@R_dsgraph@@Udoug_lea_allocator@@@@00P6A_NPAU12@1@Z@Z ; std::_Guess_median_unchecked<FixedMAP<IDirect3DPixelShader9 *,R_dsgraph::mapMatrixCS,doug_lea_allocator>::TNode * *,bool (__cdecl*)(FixedMAP<IDirect3DPixelShader9 *,R_dsgraph::mapMatrixCS,doug_lea_allocator>::TNode *,FixedMAP<IDirect3DPixelShader9 *,R_dsgraph::mapMatrixCS,doug_lea_allocator>::TNode *)>
PUBLIC	??$_Prev_iter@PAPAUTNode@?$FixedMAP@PAUIDirect3DPixelShader9@@UmapMatrixCS@R_dsgraph@@Udoug_lea_allocator@@@@@std@@YAPAPAUTNode@?$FixedMAP@PAUIDirect3DPixelShader9@@UmapMatrixCS@R_dsgraph@@Udoug_lea_allocator@@@@PAPAU12@@Z ; std::_Prev_iter<FixedMAP<IDirect3DPixelShader9 *,R_dsgraph::mapMatrixCS,doug_lea_allocator>::TNode * *>
PUBLIC	??$_Pop_heap_unchecked@PAPAUTNode@?$FixedMAP@PAUIDirect3DPixelShader9@@UmapMatrixCS@R_dsgraph@@Udoug_lea_allocator@@@@P6A_NPAU12@0@Z@std@@YAXPAPAUTNode@?$FixedMAP@PAUIDirect3DPixelShader9@@UmapMatrixCS@R_dsgraph@@Udoug_lea_allocator@@@@0P6A_NPAU12@1@Z@Z ; std::_Pop_heap_unchecked<FixedMAP<IDirect3DPixelShader9 *,R_dsgraph::mapMatrixCS,doug_lea_allocator>::TNode * *,bool (__cdecl*)(FixedMAP<IDirect3DPixelShader9 *,R_dsgraph::mapMatrixCS,doug_lea_allocator>::TNode *,FixedMAP<IDirect3DPixelShader9 *,R_dsgraph::mapMatrixCS,doug_lea_allocator>::TNode *)>
PUBLIC	??$_Pop_heap_hole_by_index@PAPAUTNode@?$FixedMAP@PAUIDirect3DPixelShader9@@UmapMatrixCS@R_dsgraph@@Udoug_lea_allocator@@@@PAU12@P6A_NPAU12@0@Z@std@@YAXPAPAUTNode@?$FixedMAP@PAUIDirect3DPixelShader9@@UmapMatrixCS@R_dsgraph@@Udoug_lea_allocator@@@@HH$$QAPAU12@P6A_NPAU12@2@Z@Z ; std::_Pop_heap_hole_by_index<FixedMAP<IDirect3DPixelShader9 *,R_dsgraph::mapMatrixCS,doug_lea_allocator>::TNode * *,FixedMAP<IDirect3DPixelShader9 *,R_dsgraph::mapMatrixCS,doug_lea_allocator>::TNode *,bool (__cdecl*)(FixedMAP<IDirect3DPixelShader9 *,R_dsgraph::mapMatrixCS,doug_lea_allocator>::TNode *,FixedMAP<IDirect3DPixelShader9 *,R_dsgraph::mapMatrixCS,doug_lea_allocator>::TNode *)>
PUBLIC	??$_Move_backward_unchecked@PAPAUTNode@?$FixedMAP@PAUIDirect3DPixelShader9@@UmapMatrixCS@R_dsgraph@@Udoug_lea_allocator@@@@PAPAU12@@std@@YAPAPAUTNode@?$FixedMAP@PAUIDirect3DPixelShader9@@UmapMatrixCS@R_dsgraph@@Udoug_lea_allocator@@@@PAPAU12@00@Z ; std::_Move_backward_unchecked<FixedMAP<IDirect3DPixelShader9 *,R_dsgraph::mapMatrixCS,doug_lea_allocator>::TNode * *,FixedMAP<IDirect3DPixelShader9 *,R_dsgraph::mapMatrixCS,doug_lea_allocator>::TNode * *>
PUBLIC	??$move@AAPAUTNode@?$FixedMAP@PAUIDirect3DPixelShader9@@UmapMatrixCS@R_dsgraph@@Udoug_lea_allocator@@@@@std@@YA$$QAPAUTNode@?$FixedMAP@PAUIDirect3DPixelShader9@@UmapMatrixCS@R_dsgraph@@Udoug_lea_allocator@@@@AAPAU12@@Z ; std::move<FixedMAP<IDirect3DPixelShader9 *,R_dsgraph::mapMatrixCS,doug_lea_allocator>::TNode * &>
PUBLIC	??$?0AAPAPAUTNode@?$FixedMAP@PAUIDirect3DVertexShader9@@UmapMatrixPS@R_dsgraph@@Udoug_lea_allocator@@@@AAPAPAU01@$0A@@?$pair@PAPAUTNode@?$FixedMAP@PAUIDirect3DVertexShader9@@UmapMatrixPS@R_dsgraph@@Udoug_lea_allocator@@@@PAPAU12@@std@@QAE@AAPAPAUTNode@?$FixedMAP@PAUIDirect3DVertexShader9@@UmapMatrixPS@R_dsgraph@@Udoug_lea_allocator@@@@0@Z ; std::pair<FixedMAP<IDirect3DVertexShader9 *,R_dsgraph::mapMatrixPS,doug_lea_allocator>::TNode * *,FixedMAP<IDirect3DVertexShader9 *,R_dsgraph::mapMatrixPS,doug_lea_allocator>::TNode * *>::pair<FixedMAP<IDirect3DVertexShader9 *,R_dsgraph::mapMatrixPS,doug_lea_allocator>::TNode * *,FixedMAP<IDirect3DVertexShader9 *,R_dsgraph::mapMatrixPS,doug_lea_allocator>::TNode * *><FixedMAP<IDirect3DVertexShader9 *,R_dsgraph::mapMatrixPS,doug_lea_allocator>::TNode * * &,FixedMAP<IDirect3DVertexShader9 *,R_dsgraph::mapMatrixPS,doug_lea_allocator>::TNode * * &,0>
PUBLIC	??$iter_swap@PAPAUTNode@?$FixedMAP@PAUIDirect3DVertexShader9@@UmapMatrixPS@R_dsgraph@@Udoug_lea_allocator@@@@PAPAU12@@std@@YAXPAPAUTNode@?$FixedMAP@PAUIDirect3DVertexShader9@@UmapMatrixPS@R_dsgraph@@Udoug_lea_allocator@@@@0@Z ; std::iter_swap<FixedMAP<IDirect3DVertexShader9 *,R_dsgraph::mapMatrixPS,doug_lea_allocator>::TNode * *,FixedMAP<IDirect3DVertexShader9 *,R_dsgraph::mapMatrixPS,doug_lea_allocator>::TNode * *>
PUBLIC	??$_Next_iter@PAPAUTNode@?$FixedMAP@PAUIDirect3DVertexShader9@@UmapMatrixPS@R_dsgraph@@Udoug_lea_allocator@@@@@std@@YAPAPAUTNode@?$FixedMAP@PAUIDirect3DVertexShader9@@UmapMatrixPS@R_dsgraph@@Udoug_lea_allocator@@@@PAPAU12@@Z ; std::_Next_iter<FixedMAP<IDirect3DVertexShader9 *,R_dsgraph::mapMatrixPS,doug_lea_allocator>::TNode * *>
PUBLIC	??$_Guess_median_unchecked@PAPAUTNode@?$FixedMAP@PAUIDirect3DVertexShader9@@UmapMatrixPS@R_dsgraph@@Udoug_lea_allocator@@@@P6A_NPAU12@0@Z@std@@YAXPAPAUTNode@?$FixedMAP@PAUIDirect3DVertexShader9@@UmapMatrixPS@R_dsgraph@@Udoug_lea_allocator@@@@00P6A_NPAU12@1@Z@Z ; std::_Guess_median_unchecked<FixedMAP<IDirect3DVertexShader9 *,R_dsgraph::mapMatrixPS,doug_lea_allocator>::TNode * *,bool (__cdecl*)(FixedMAP<IDirect3DVertexShader9 *,R_dsgraph::mapMatrixPS,doug_lea_allocator>::TNode *,FixedMAP<IDirect3DVertexShader9 *,R_dsgraph::mapMatrixPS,doug_lea_allocator>::TNode *)>
PUBLIC	??$_Prev_iter@PAPAUTNode@?$FixedMAP@PAUIDirect3DVertexShader9@@UmapMatrixPS@R_dsgraph@@Udoug_lea_allocator@@@@@std@@YAPAPAUTNode@?$FixedMAP@PAUIDirect3DVertexShader9@@UmapMatrixPS@R_dsgraph@@Udoug_lea_allocator@@@@PAPAU12@@Z ; std::_Prev_iter<FixedMAP<IDirect3DVertexShader9 *,R_dsgraph::mapMatrixPS,doug_lea_allocator>::TNode * *>
PUBLIC	??$_Pop_heap_unchecked@PAPAUTNode@?$FixedMAP@PAUIDirect3DVertexShader9@@UmapMatrixPS@R_dsgraph@@Udoug_lea_allocator@@@@P6A_NPAU12@0@Z@std@@YAXPAPAUTNode@?$FixedMAP@PAUIDirect3DVertexShader9@@UmapMatrixPS@R_dsgraph@@Udoug_lea_allocator@@@@0P6A_NPAU12@1@Z@Z ; std::_Pop_heap_unchecked<FixedMAP<IDirect3DVertexShader9 *,R_dsgraph::mapMatrixPS,doug_lea_allocator>::TNode * *,bool (__cdecl*)(FixedMAP<IDirect3DVertexShader9 *,R_dsgraph::mapMatrixPS,doug_lea_allocator>::TNode *,FixedMAP<IDirect3DVertexShader9 *,R_dsgraph::mapMatrixPS,doug_lea_allocator>::TNode *)>
PUBLIC	??$_Pop_heap_hole_by_index@PAPAUTNode@?$FixedMAP@PAUIDirect3DVertexShader9@@UmapMatrixPS@R_dsgraph@@Udoug_lea_allocator@@@@PAU12@P6A_NPAU12@0@Z@std@@YAXPAPAUTNode@?$FixedMAP@PAUIDirect3DVertexShader9@@UmapMatrixPS@R_dsgraph@@Udoug_lea_allocator@@@@HH$$QAPAU12@P6A_NPAU12@2@Z@Z ; std::_Pop_heap_hole_by_index<FixedMAP<IDirect3DVertexShader9 *,R_dsgraph::mapMatrixPS,doug_lea_allocator>::TNode * *,FixedMAP<IDirect3DVertexShader9 *,R_dsgraph::mapMatrixPS,doug_lea_allocator>::TNode *,bool (__cdecl*)(FixedMAP<IDirect3DVertexShader9 *,R_dsgraph::mapMatrixPS,doug_lea_allocator>::TNode *,FixedMAP<IDirect3DVertexShader9 *,R_dsgraph::mapMatrixPS,doug_lea_allocator>::TNode *)>
PUBLIC	??$_Move_backward_unchecked@PAPAUTNode@?$FixedMAP@PAUIDirect3DVertexShader9@@UmapMatrixPS@R_dsgraph@@Udoug_lea_allocator@@@@PAPAU12@@std@@YAPAPAUTNode@?$FixedMAP@PAUIDirect3DVertexShader9@@UmapMatrixPS@R_dsgraph@@Udoug_lea_allocator@@@@PAPAU12@00@Z ; std::_Move_backward_unchecked<FixedMAP<IDirect3DVertexShader9 *,R_dsgraph::mapMatrixPS,doug_lea_allocator>::TNode * *,FixedMAP<IDirect3DVertexShader9 *,R_dsgraph::mapMatrixPS,doug_lea_allocator>::TNode * *>
PUBLIC	??$move@AAPAUTNode@?$FixedMAP@PAUIDirect3DVertexShader9@@UmapMatrixPS@R_dsgraph@@Udoug_lea_allocator@@@@@std@@YA$$QAPAUTNode@?$FixedMAP@PAUIDirect3DVertexShader9@@UmapMatrixPS@R_dsgraph@@Udoug_lea_allocator@@@@AAPAU12@@Z ; std::move<FixedMAP<IDirect3DVertexShader9 *,R_dsgraph::mapMatrixPS,doug_lea_allocator>::TNode * &>
PUBLIC	??$?0AAPAPAUTNode@?$FixedMAP@PAUIDirect3DStateBlock9@@UmapNormalTextures@R_dsgraph@@Udoug_lea_allocator@@@@AAPAPAU01@$0A@@?$pair@PAPAUTNode@?$FixedMAP@PAUIDirect3DStateBlock9@@UmapNormalTextures@R_dsgraph@@Udoug_lea_allocator@@@@PAPAU12@@std@@QAE@AAPAPAUTNode@?$FixedMAP@PAUIDirect3DStateBlock9@@UmapNormalTextures@R_dsgraph@@Udoug_lea_allocator@@@@0@Z ; std::pair<FixedMAP<IDirect3DStateBlock9 *,R_dsgraph::mapNormalTextures,doug_lea_allocator>::TNode * *,FixedMAP<IDirect3DStateBlock9 *,R_dsgraph::mapNormalTextures,doug_lea_allocator>::TNode * *>::pair<FixedMAP<IDirect3DStateBlock9 *,R_dsgraph::mapNormalTextures,doug_lea_allocator>::TNode * *,FixedMAP<IDirect3DStateBlock9 *,R_dsgraph::mapNormalTextures,doug_lea_allocator>::TNode * *><FixedMAP<IDirect3DStateBlock9 *,R_dsgraph::mapNormalTextures,doug_lea_allocator>::TNode * * &,FixedMAP<IDirect3DStateBlock9 *,R_dsgraph::mapNormalTextures,doug_lea_allocator>::TNode * * &,0>
PUBLIC	??$iter_swap@PAPAUTNode@?$FixedMAP@PAUIDirect3DStateBlock9@@UmapNormalTextures@R_dsgraph@@Udoug_lea_allocator@@@@PAPAU12@@std@@YAXPAPAUTNode@?$FixedMAP@PAUIDirect3DStateBlock9@@UmapNormalTextures@R_dsgraph@@Udoug_lea_allocator@@@@0@Z ; std::iter_swap<FixedMAP<IDirect3DStateBlock9 *,R_dsgraph::mapNormalTextures,doug_lea_allocator>::TNode * *,FixedMAP<IDirect3DStateBlock9 *,R_dsgraph::mapNormalTextures,doug_lea_allocator>::TNode * *>
PUBLIC	??$_Next_iter@PAPAUTNode@?$FixedMAP@PAUIDirect3DStateBlock9@@UmapNormalTextures@R_dsgraph@@Udoug_lea_allocator@@@@@std@@YAPAPAUTNode@?$FixedMAP@PAUIDirect3DStateBlock9@@UmapNormalTextures@R_dsgraph@@Udoug_lea_allocator@@@@PAPAU12@@Z ; std::_Next_iter<FixedMAP<IDirect3DStateBlock9 *,R_dsgraph::mapNormalTextures,doug_lea_allocator>::TNode * *>
PUBLIC	??$_Guess_median_unchecked@PAPAUTNode@?$FixedMAP@PAUIDirect3DStateBlock9@@UmapNormalTextures@R_dsgraph@@Udoug_lea_allocator@@@@P6A_NPAU12@0@Z@std@@YAXPAPAUTNode@?$FixedMAP@PAUIDirect3DStateBlock9@@UmapNormalTextures@R_dsgraph@@Udoug_lea_allocator@@@@00P6A_NPAU12@1@Z@Z ; std::_Guess_median_unchecked<FixedMAP<IDirect3DStateBlock9 *,R_dsgraph::mapNormalTextures,doug_lea_allocator>::TNode * *,bool (__cdecl*)(FixedMAP<IDirect3DStateBlock9 *,R_dsgraph::mapNormalTextures,doug_lea_allocator>::TNode *,FixedMAP<IDirect3DStateBlock9 *,R_dsgraph::mapNormalTextures,doug_lea_allocator>::TNode *)>
PUBLIC	??$_Prev_iter@PAPAUTNode@?$FixedMAP@PAUIDirect3DStateBlock9@@UmapNormalTextures@R_dsgraph@@Udoug_lea_allocator@@@@@std@@YAPAPAUTNode@?$FixedMAP@PAUIDirect3DStateBlock9@@UmapNormalTextures@R_dsgraph@@Udoug_lea_allocator@@@@PAPAU12@@Z ; std::_Prev_iter<FixedMAP<IDirect3DStateBlock9 *,R_dsgraph::mapNormalTextures,doug_lea_allocator>::TNode * *>
PUBLIC	??$_Pop_heap_unchecked@PAPAUTNode@?$FixedMAP@PAUIDirect3DStateBlock9@@UmapNormalTextures@R_dsgraph@@Udoug_lea_allocator@@@@P6A_NPAU12@0@Z@std@@YAXPAPAUTNode@?$FixedMAP@PAUIDirect3DStateBlock9@@UmapNormalTextures@R_dsgraph@@Udoug_lea_allocator@@@@0P6A_NPAU12@1@Z@Z ; std::_Pop_heap_unchecked<FixedMAP<IDirect3DStateBlock9 *,R_dsgraph::mapNormalTextures,doug_lea_allocator>::TNode * *,bool (__cdecl*)(FixedMAP<IDirect3DStateBlock9 *,R_dsgraph::mapNormalTextures,doug_lea_allocator>::TNode *,FixedMAP<IDirect3DStateBlock9 *,R_dsgraph::mapNormalTextures,doug_lea_allocator>::TNode *)>
PUBLIC	??$_Pop_heap_hole_by_index@PAPAUTNode@?$FixedMAP@PAUIDirect3DStateBlock9@@UmapNormalTextures@R_dsgraph@@Udoug_lea_allocator@@@@PAU12@P6A_NPAU12@0@Z@std@@YAXPAPAUTNode@?$FixedMAP@PAUIDirect3DStateBlock9@@UmapNormalTextures@R_dsgraph@@Udoug_lea_allocator@@@@HH$$QAPAU12@P6A_NPAU12@2@Z@Z ; std::_Pop_heap_hole_by_index<FixedMAP<IDirect3DStateBlock9 *,R_dsgraph::mapNormalTextures,doug_lea_allocator>::TNode * *,FixedMAP<IDirect3DStateBlock9 *,R_dsgraph::mapNormalTextures,doug_lea_allocator>::TNode *,bool (__cdecl*)(FixedMAP<IDirect3DStateBlock9 *,R_dsgraph::mapNormalTextures,doug_lea_allocator>::TNode *,FixedMAP<IDirect3DStateBlock9 *,R_dsgraph::mapNormalTextures,doug_lea_allocator>::TNode *)>
PUBLIC	??$_Move_backward_unchecked@PAPAUTNode@?$FixedMAP@PAUIDirect3DStateBlock9@@UmapNormalTextures@R_dsgraph@@Udoug_lea_allocator@@@@PAPAU12@@std@@YAPAPAUTNode@?$FixedMAP@PAUIDirect3DStateBlock9@@UmapNormalTextures@R_dsgraph@@Udoug_lea_allocator@@@@PAPAU12@00@Z ; std::_Move_backward_unchecked<FixedMAP<IDirect3DStateBlock9 *,R_dsgraph::mapNormalTextures,doug_lea_allocator>::TNode * *,FixedMAP<IDirect3DStateBlock9 *,R_dsgraph::mapNormalTextures,doug_lea_allocator>::TNode * *>
PUBLIC	??$move@AAPAUTNode@?$FixedMAP@PAUIDirect3DStateBlock9@@UmapNormalTextures@R_dsgraph@@Udoug_lea_allocator@@@@@std@@YA$$QAPAUTNode@?$FixedMAP@PAUIDirect3DStateBlock9@@UmapNormalTextures@R_dsgraph@@Udoug_lea_allocator@@@@AAPAU12@@Z ; std::move<FixedMAP<IDirect3DStateBlock9 *,R_dsgraph::mapNormalTextures,doug_lea_allocator>::TNode * &>
PUBLIC	??$?0AAPAPAUTNode@?$FixedMAP@PAVR_constant_table@@UmapNormalStates@R_dsgraph@@Udoug_lea_allocator@@@@AAPAPAU01@$0A@@?$pair@PAPAUTNode@?$FixedMAP@PAVR_constant_table@@UmapNormalStates@R_dsgraph@@Udoug_lea_allocator@@@@PAPAU12@@std@@QAE@AAPAPAUTNode@?$FixedMAP@PAVR_constant_table@@UmapNormalStates@R_dsgraph@@Udoug_lea_allocator@@@@0@Z ; std::pair<FixedMAP<R_constant_table *,R_dsgraph::mapNormalStates,doug_lea_allocator>::TNode * *,FixedMAP<R_constant_table *,R_dsgraph::mapNormalStates,doug_lea_allocator>::TNode * *>::pair<FixedMAP<R_constant_table *,R_dsgraph::mapNormalStates,doug_lea_allocator>::TNode * *,FixedMAP<R_constant_table *,R_dsgraph::mapNormalStates,doug_lea_allocator>::TNode * *><FixedMAP<R_constant_table *,R_dsgraph::mapNormalStates,doug_lea_allocator>::TNode * * &,FixedMAP<R_constant_table *,R_dsgraph::mapNormalStates,doug_lea_allocator>::TNode * * &,0>
PUBLIC	??$iter_swap@PAPAUTNode@?$FixedMAP@PAVR_constant_table@@UmapNormalStates@R_dsgraph@@Udoug_lea_allocator@@@@PAPAU12@@std@@YAXPAPAUTNode@?$FixedMAP@PAVR_constant_table@@UmapNormalStates@R_dsgraph@@Udoug_lea_allocator@@@@0@Z ; std::iter_swap<FixedMAP<R_constant_table *,R_dsgraph::mapNormalStates,doug_lea_allocator>::TNode * *,FixedMAP<R_constant_table *,R_dsgraph::mapNormalStates,doug_lea_allocator>::TNode * *>
PUBLIC	??$_Next_iter@PAPAUTNode@?$FixedMAP@PAVR_constant_table@@UmapNormalStates@R_dsgraph@@Udoug_lea_allocator@@@@@std@@YAPAPAUTNode@?$FixedMAP@PAVR_constant_table@@UmapNormalStates@R_dsgraph@@Udoug_lea_allocator@@@@PAPAU12@@Z ; std::_Next_iter<FixedMAP<R_constant_table *,R_dsgraph::mapNormalStates,doug_lea_allocator>::TNode * *>
PUBLIC	??$_Guess_median_unchecked@PAPAUTNode@?$FixedMAP@PAVR_constant_table@@UmapNormalStates@R_dsgraph@@Udoug_lea_allocator@@@@P6A_NPAU12@0@Z@std@@YAXPAPAUTNode@?$FixedMAP@PAVR_constant_table@@UmapNormalStates@R_dsgraph@@Udoug_lea_allocator@@@@00P6A_NPAU12@1@Z@Z ; std::_Guess_median_unchecked<FixedMAP<R_constant_table *,R_dsgraph::mapNormalStates,doug_lea_allocator>::TNode * *,bool (__cdecl*)(FixedMAP<R_constant_table *,R_dsgraph::mapNormalStates,doug_lea_allocator>::TNode *,FixedMAP<R_constant_table *,R_dsgraph::mapNormalStates,doug_lea_allocator>::TNode *)>
PUBLIC	??$_Prev_iter@PAPAUTNode@?$FixedMAP@PAVR_constant_table@@UmapNormalStates@R_dsgraph@@Udoug_lea_allocator@@@@@std@@YAPAPAUTNode@?$FixedMAP@PAVR_constant_table@@UmapNormalStates@R_dsgraph@@Udoug_lea_allocator@@@@PAPAU12@@Z ; std::_Prev_iter<FixedMAP<R_constant_table *,R_dsgraph::mapNormalStates,doug_lea_allocator>::TNode * *>
PUBLIC	??$_Pop_heap_unchecked@PAPAUTNode@?$FixedMAP@PAVR_constant_table@@UmapNormalStates@R_dsgraph@@Udoug_lea_allocator@@@@P6A_NPAU12@0@Z@std@@YAXPAPAUTNode@?$FixedMAP@PAVR_constant_table@@UmapNormalStates@R_dsgraph@@Udoug_lea_allocator@@@@0P6A_NPAU12@1@Z@Z ; std::_Pop_heap_unchecked<FixedMAP<R_constant_table *,R_dsgraph::mapNormalStates,doug_lea_allocator>::TNode * *,bool (__cdecl*)(FixedMAP<R_constant_table *,R_dsgraph::mapNormalStates,doug_lea_allocator>::TNode *,FixedMAP<R_constant_table *,R_dsgraph::mapNormalStates,doug_lea_allocator>::TNode *)>
PUBLIC	??$_Pop_heap_hole_by_index@PAPAUTNode@?$FixedMAP@PAVR_constant_table@@UmapNormalStates@R_dsgraph@@Udoug_lea_allocator@@@@PAU12@P6A_NPAU12@0@Z@std@@YAXPAPAUTNode@?$FixedMAP@PAVR_constant_table@@UmapNormalStates@R_dsgraph@@Udoug_lea_allocator@@@@HH$$QAPAU12@P6A_NPAU12@2@Z@Z ; std::_Pop_heap_hole_by_index<FixedMAP<R_constant_table *,R_dsgraph::mapNormalStates,doug_lea_allocator>::TNode * *,FixedMAP<R_constant_table *,R_dsgraph::mapNormalStates,doug_lea_allocator>::TNode *,bool (__cdecl*)(FixedMAP<R_constant_table *,R_dsgraph::mapNormalStates,doug_lea_allocator>::TNode *,FixedMAP<R_constant_table *,R_dsgraph::mapNormalStates,doug_lea_allocator>::TNode *)>
PUBLIC	??$_Move_backward_unchecked@PAPAUTNode@?$FixedMAP@PAVR_constant_table@@UmapNormalStates@R_dsgraph@@Udoug_lea_allocator@@@@PAPAU12@@std@@YAPAPAUTNode@?$FixedMAP@PAVR_constant_table@@UmapNormalStates@R_dsgraph@@Udoug_lea_allocator@@@@PAPAU12@00@Z ; std::_Move_backward_unchecked<FixedMAP<R_constant_table *,R_dsgraph::mapNormalStates,doug_lea_allocator>::TNode * *,FixedMAP<R_constant_table *,R_dsgraph::mapNormalStates,doug_lea_allocator>::TNode * *>
PUBLIC	??$move@AAPAUTNode@?$FixedMAP@PAVR_constant_table@@UmapNormalStates@R_dsgraph@@Udoug_lea_allocator@@@@@std@@YA$$QAPAUTNode@?$FixedMAP@PAVR_constant_table@@UmapNormalStates@R_dsgraph@@Udoug_lea_allocator@@@@AAPAU12@@Z ; std::move<FixedMAP<R_constant_table *,R_dsgraph::mapNormalStates,doug_lea_allocator>::TNode * &>
PUBLIC	??$?0AAPAPAUTNode@?$FixedMAP@PAUIDirect3DPixelShader9@@UmapNormalCS@R_dsgraph@@Udoug_lea_allocator@@@@AAPAPAU01@$0A@@?$pair@PAPAUTNode@?$FixedMAP@PAUIDirect3DPixelShader9@@UmapNormalCS@R_dsgraph@@Udoug_lea_allocator@@@@PAPAU12@@std@@QAE@AAPAPAUTNode@?$FixedMAP@PAUIDirect3DPixelShader9@@UmapNormalCS@R_dsgraph@@Udoug_lea_allocator@@@@0@Z ; std::pair<FixedMAP<IDirect3DPixelShader9 *,R_dsgraph::mapNormalCS,doug_lea_allocator>::TNode * *,FixedMAP<IDirect3DPixelShader9 *,R_dsgraph::mapNormalCS,doug_lea_allocator>::TNode * *>::pair<FixedMAP<IDirect3DPixelShader9 *,R_dsgraph::mapNormalCS,doug_lea_allocator>::TNode * *,FixedMAP<IDirect3DPixelShader9 *,R_dsgraph::mapNormalCS,doug_lea_allocator>::TNode * *><FixedMAP<IDirect3DPixelShader9 *,R_dsgraph::mapNormalCS,doug_lea_allocator>::TNode * * &,FixedMAP<IDirect3DPixelShader9 *,R_dsgraph::mapNormalCS,doug_lea_allocator>::TNode * * &,0>
PUBLIC	??$iter_swap@PAPAUTNode@?$FixedMAP@PAUIDirect3DPixelShader9@@UmapNormalCS@R_dsgraph@@Udoug_lea_allocator@@@@PAPAU12@@std@@YAXPAPAUTNode@?$FixedMAP@PAUIDirect3DPixelShader9@@UmapNormalCS@R_dsgraph@@Udoug_lea_allocator@@@@0@Z ; std::iter_swap<FixedMAP<IDirect3DPixelShader9 *,R_dsgraph::mapNormalCS,doug_lea_allocator>::TNode * *,FixedMAP<IDirect3DPixelShader9 *,R_dsgraph::mapNormalCS,doug_lea_allocator>::TNode * *>
PUBLIC	??$_Next_iter@PAPAUTNode@?$FixedMAP@PAUIDirect3DPixelShader9@@UmapNormalCS@R_dsgraph@@Udoug_lea_allocator@@@@@std@@YAPAPAUTNode@?$FixedMAP@PAUIDirect3DPixelShader9@@UmapNormalCS@R_dsgraph@@Udoug_lea_allocator@@@@PAPAU12@@Z ; std::_Next_iter<FixedMAP<IDirect3DPixelShader9 *,R_dsgraph::mapNormalCS,doug_lea_allocator>::TNode * *>
PUBLIC	??$_Guess_median_unchecked@PAPAUTNode@?$FixedMAP@PAUIDirect3DPixelShader9@@UmapNormalCS@R_dsgraph@@Udoug_lea_allocator@@@@P6A_NPAU12@0@Z@std@@YAXPAPAUTNode@?$FixedMAP@PAUIDirect3DPixelShader9@@UmapNormalCS@R_dsgraph@@Udoug_lea_allocator@@@@00P6A_NPAU12@1@Z@Z ; std::_Guess_median_unchecked<FixedMAP<IDirect3DPixelShader9 *,R_dsgraph::mapNormalCS,doug_lea_allocator>::TNode * *,bool (__cdecl*)(FixedMAP<IDirect3DPixelShader9 *,R_dsgraph::mapNormalCS,doug_lea_allocator>::TNode *,FixedMAP<IDirect3DPixelShader9 *,R_dsgraph::mapNormalCS,doug_lea_allocator>::TNode *)>
PUBLIC	??$_Prev_iter@PAPAUTNode@?$FixedMAP@PAUIDirect3DPixelShader9@@UmapNormalCS@R_dsgraph@@Udoug_lea_allocator@@@@@std@@YAPAPAUTNode@?$FixedMAP@PAUIDirect3DPixelShader9@@UmapNormalCS@R_dsgraph@@Udoug_lea_allocator@@@@PAPAU12@@Z ; std::_Prev_iter<FixedMAP<IDirect3DPixelShader9 *,R_dsgraph::mapNormalCS,doug_lea_allocator>::TNode * *>
PUBLIC	??$_Pop_heap_unchecked@PAPAUTNode@?$FixedMAP@PAUIDirect3DPixelShader9@@UmapNormalCS@R_dsgraph@@Udoug_lea_allocator@@@@P6A_NPAU12@0@Z@std@@YAXPAPAUTNode@?$FixedMAP@PAUIDirect3DPixelShader9@@UmapNormalCS@R_dsgraph@@Udoug_lea_allocator@@@@0P6A_NPAU12@1@Z@Z ; std::_Pop_heap_unchecked<FixedMAP<IDirect3DPixelShader9 *,R_dsgraph::mapNormalCS,doug_lea_allocator>::TNode * *,bool (__cdecl*)(FixedMAP<IDirect3DPixelShader9 *,R_dsgraph::mapNormalCS,doug_lea_allocator>::TNode *,FixedMAP<IDirect3DPixelShader9 *,R_dsgraph::mapNormalCS,doug_lea_allocator>::TNode *)>
PUBLIC	??$_Pop_heap_hole_by_index@PAPAUTNode@?$FixedMAP@PAUIDirect3DPixelShader9@@UmapNormalCS@R_dsgraph@@Udoug_lea_allocator@@@@PAU12@P6A_NPAU12@0@Z@std@@YAXPAPAUTNode@?$FixedMAP@PAUIDirect3DPixelShader9@@UmapNormalCS@R_dsgraph@@Udoug_lea_allocator@@@@HH$$QAPAU12@P6A_NPAU12@2@Z@Z ; std::_Pop_heap_hole_by_index<FixedMAP<IDirect3DPixelShader9 *,R_dsgraph::mapNormalCS,doug_lea_allocator>::TNode * *,FixedMAP<IDirect3DPixelShader9 *,R_dsgraph::mapNormalCS,doug_lea_allocator>::TNode *,bool (__cdecl*)(FixedMAP<IDirect3DPixelShader9 *,R_dsgraph::mapNormalCS,doug_lea_allocator>::TNode *,FixedMAP<IDirect3DPixelShader9 *,R_dsgraph::mapNormalCS,doug_lea_allocator>::TNode *)>
PUBLIC	??$_Move_backward_unchecked@PAPAUTNode@?$FixedMAP@PAUIDirect3DPixelShader9@@UmapNormalCS@R_dsgraph@@Udoug_lea_allocator@@@@PAPAU12@@std@@YAPAPAUTNode@?$FixedMAP@PAUIDirect3DPixelShader9@@UmapNormalCS@R_dsgraph@@Udoug_lea_allocator@@@@PAPAU12@00@Z ; std::_Move_backward_unchecked<FixedMAP<IDirect3DPixelShader9 *,R_dsgraph::mapNormalCS,doug_lea_allocator>::TNode * *,FixedMAP<IDirect3DPixelShader9 *,R_dsgraph::mapNormalCS,doug_lea_allocator>::TNode * *>
PUBLIC	??$move@AAPAUTNode@?$FixedMAP@PAUIDirect3DPixelShader9@@UmapNormalCS@R_dsgraph@@Udoug_lea_allocator@@@@@std@@YA$$QAPAUTNode@?$FixedMAP@PAUIDirect3DPixelShader9@@UmapNormalCS@R_dsgraph@@Udoug_lea_allocator@@@@AAPAU12@@Z ; std::move<FixedMAP<IDirect3DPixelShader9 *,R_dsgraph::mapNormalCS,doug_lea_allocator>::TNode * &>
PUBLIC	??$?0AAPAPAUTNode@?$FixedMAP@PAUIDirect3DVertexShader9@@UmapNormalPS@R_dsgraph@@Udoug_lea_allocator@@@@AAPAPAU01@$0A@@?$pair@PAPAUTNode@?$FixedMAP@PAUIDirect3DVertexShader9@@UmapNormalPS@R_dsgraph@@Udoug_lea_allocator@@@@PAPAU12@@std@@QAE@AAPAPAUTNode@?$FixedMAP@PAUIDirect3DVertexShader9@@UmapNormalPS@R_dsgraph@@Udoug_lea_allocator@@@@0@Z ; std::pair<FixedMAP<IDirect3DVertexShader9 *,R_dsgraph::mapNormalPS,doug_lea_allocator>::TNode * *,FixedMAP<IDirect3DVertexShader9 *,R_dsgraph::mapNormalPS,doug_lea_allocator>::TNode * *>::pair<FixedMAP<IDirect3DVertexShader9 *,R_dsgraph::mapNormalPS,doug_lea_allocator>::TNode * *,FixedMAP<IDirect3DVertexShader9 *,R_dsgraph::mapNormalPS,doug_lea_allocator>::TNode * *><FixedMAP<IDirect3DVertexShader9 *,R_dsgraph::mapNormalPS,doug_lea_allocator>::TNode * * &,FixedMAP<IDirect3DVertexShader9 *,R_dsgraph::mapNormalPS,doug_lea_allocator>::TNode * * &,0>
PUBLIC	??$iter_swap@PAPAUTNode@?$FixedMAP@PAUIDirect3DVertexShader9@@UmapNormalPS@R_dsgraph@@Udoug_lea_allocator@@@@PAPAU12@@std@@YAXPAPAUTNode@?$FixedMAP@PAUIDirect3DVertexShader9@@UmapNormalPS@R_dsgraph@@Udoug_lea_allocator@@@@0@Z ; std::iter_swap<FixedMAP<IDirect3DVertexShader9 *,R_dsgraph::mapNormalPS,doug_lea_allocator>::TNode * *,FixedMAP<IDirect3DVertexShader9 *,R_dsgraph::mapNormalPS,doug_lea_allocator>::TNode * *>
PUBLIC	??$_Next_iter@PAPAUTNode@?$FixedMAP@PAUIDirect3DVertexShader9@@UmapNormalPS@R_dsgraph@@Udoug_lea_allocator@@@@@std@@YAPAPAUTNode@?$FixedMAP@PAUIDirect3DVertexShader9@@UmapNormalPS@R_dsgraph@@Udoug_lea_allocator@@@@PAPAU12@@Z ; std::_Next_iter<FixedMAP<IDirect3DVertexShader9 *,R_dsgraph::mapNormalPS,doug_lea_allocator>::TNode * *>
PUBLIC	??$_Guess_median_unchecked@PAPAUTNode@?$FixedMAP@PAUIDirect3DVertexShader9@@UmapNormalPS@R_dsgraph@@Udoug_lea_allocator@@@@P6A_NPAU12@0@Z@std@@YAXPAPAUTNode@?$FixedMAP@PAUIDirect3DVertexShader9@@UmapNormalPS@R_dsgraph@@Udoug_lea_allocator@@@@00P6A_NPAU12@1@Z@Z ; std::_Guess_median_unchecked<FixedMAP<IDirect3DVertexShader9 *,R_dsgraph::mapNormalPS,doug_lea_allocator>::TNode * *,bool (__cdecl*)(FixedMAP<IDirect3DVertexShader9 *,R_dsgraph::mapNormalPS,doug_lea_allocator>::TNode *,FixedMAP<IDirect3DVertexShader9 *,R_dsgraph::mapNormalPS,doug_lea_allocator>::TNode *)>
PUBLIC	??$_Prev_iter@PAPAUTNode@?$FixedMAP@PAUIDirect3DVertexShader9@@UmapNormalPS@R_dsgraph@@Udoug_lea_allocator@@@@@std@@YAPAPAUTNode@?$FixedMAP@PAUIDirect3DVertexShader9@@UmapNormalPS@R_dsgraph@@Udoug_lea_allocator@@@@PAPAU12@@Z ; std::_Prev_iter<FixedMAP<IDirect3DVertexShader9 *,R_dsgraph::mapNormalPS,doug_lea_allocator>::TNode * *>
PUBLIC	??$_Pop_heap_unchecked@PAPAUTNode@?$FixedMAP@PAUIDirect3DVertexShader9@@UmapNormalPS@R_dsgraph@@Udoug_lea_allocator@@@@P6A_NPAU12@0@Z@std@@YAXPAPAUTNode@?$FixedMAP@PAUIDirect3DVertexShader9@@UmapNormalPS@R_dsgraph@@Udoug_lea_allocator@@@@0P6A_NPAU12@1@Z@Z ; std::_Pop_heap_unchecked<FixedMAP<IDirect3DVertexShader9 *,R_dsgraph::mapNormalPS,doug_lea_allocator>::TNode * *,bool (__cdecl*)(FixedMAP<IDirect3DVertexShader9 *,R_dsgraph::mapNormalPS,doug_lea_allocator>::TNode *,FixedMAP<IDirect3DVertexShader9 *,R_dsgraph::mapNormalPS,doug_lea_allocator>::TNode *)>
PUBLIC	??$_Pop_heap_hole_by_index@PAPAUTNode@?$FixedMAP@PAUIDirect3DVertexShader9@@UmapNormalPS@R_dsgraph@@Udoug_lea_allocator@@@@PAU12@P6A_NPAU12@0@Z@std@@YAXPAPAUTNode@?$FixedMAP@PAUIDirect3DVertexShader9@@UmapNormalPS@R_dsgraph@@Udoug_lea_allocator@@@@HH$$QAPAU12@P6A_NPAU12@2@Z@Z ; std::_Pop_heap_hole_by_index<FixedMAP<IDirect3DVertexShader9 *,R_dsgraph::mapNormalPS,doug_lea_allocator>::TNode * *,FixedMAP<IDirect3DVertexShader9 *,R_dsgraph::mapNormalPS,doug_lea_allocator>::TNode *,bool (__cdecl*)(FixedMAP<IDirect3DVertexShader9 *,R_dsgraph::mapNormalPS,doug_lea_allocator>::TNode *,FixedMAP<IDirect3DVertexShader9 *,R_dsgraph::mapNormalPS,doug_lea_allocator>::TNode *)>
PUBLIC	??$_Move_backward_unchecked@PAPAUTNode@?$FixedMAP@PAUIDirect3DVertexShader9@@UmapNormalPS@R_dsgraph@@Udoug_lea_allocator@@@@PAPAU12@@std@@YAPAPAUTNode@?$FixedMAP@PAUIDirect3DVertexShader9@@UmapNormalPS@R_dsgraph@@Udoug_lea_allocator@@@@PAPAU12@00@Z ; std::_Move_backward_unchecked<FixedMAP<IDirect3DVertexShader9 *,R_dsgraph::mapNormalPS,doug_lea_allocator>::TNode * *,FixedMAP<IDirect3DVertexShader9 *,R_dsgraph::mapNormalPS,doug_lea_allocator>::TNode * *>
PUBLIC	??$move@AAPAUTNode@?$FixedMAP@PAUIDirect3DVertexShader9@@UmapNormalPS@R_dsgraph@@Udoug_lea_allocator@@@@@std@@YA$$QAPAUTNode@?$FixedMAP@PAUIDirect3DVertexShader9@@UmapNormalPS@R_dsgraph@@Udoug_lea_allocator@@@@AAPAU12@@Z ; std::move<FixedMAP<IDirect3DVertexShader9 *,R_dsgraph::mapNormalPS,doug_lea_allocator>::TNode * &>
PUBLIC	??$_Copy_memmove@PAPAUTNode@?$FixedMAP@PAUSTextureList@@UmapMatrixItems@R_dsgraph@@Udoug_lea_allocator@@@@PAPAU12@@std@@YAPAPAUTNode@?$FixedMAP@PAUSTextureList@@UmapMatrixItems@R_dsgraph@@Udoug_lea_allocator@@@@PAPAU12@00@Z ; std::_Copy_memmove<FixedMAP<STextureList *,R_dsgraph::mapMatrixItems,doug_lea_allocator>::TNode * *,FixedMAP<STextureList *,R_dsgraph::mapMatrixItems,doug_lea_allocator>::TNode * *>
PUBLIC	??$_Copy_backward_memmove@PAPAUTNode@?$FixedMAP@PAUSTextureList@@UmapMatrixItems@R_dsgraph@@Udoug_lea_allocator@@@@PAPAU12@@std@@YAPAPAUTNode@?$FixedMAP@PAUSTextureList@@UmapMatrixItems@R_dsgraph@@Udoug_lea_allocator@@@@PAPAU12@00@Z ; std::_Copy_backward_memmove<FixedMAP<STextureList *,R_dsgraph::mapMatrixItems,doug_lea_allocator>::TNode * *,FixedMAP<STextureList *,R_dsgraph::mapMatrixItems,doug_lea_allocator>::TNode * *>
PUBLIC	??$_Uninitialized_copy@PAPAUTNode@?$FixedMAP@PAUSTextureList@@UmapMatrixItems@R_dsgraph@@Udoug_lea_allocator@@@@V?$doug_lea_alloc@PAUTNode@?$FixedMAP@PAUSTextureList@@UmapMatrixItems@R_dsgraph@@Udoug_lea_allocator@@@@@@@std@@YAPAPAUTNode@?$FixedMAP@PAUSTextureList@@UmapMatrixItems@R_dsgraph@@Udoug_lea_allocator@@@@QAPAU12@0PAPAU12@AAV?$doug_lea_alloc@PAUTNode@?$FixedMAP@PAUSTextureList@@UmapMatrixItems@R_dsgraph@@Udoug_lea_allocator@@@@@@@Z ; std::_Uninitialized_copy<FixedMAP<STextureList *,R_dsgraph::mapMatrixItems,doug_lea_allocator>::TNode * *,doug_lea_alloc<FixedMAP<STextureList *,R_dsgraph::mapMatrixItems,doug_lea_allocator>::TNode *> >
PUBLIC	??$?0AAPAPAUTNode@?$FixedMAP@PAUSTextureList@@UmapMatrixItems@R_dsgraph@@Udoug_lea_allocator@@@@AAPAPAU01@$0A@@?$pair@PAPAUTNode@?$FixedMAP@PAUSTextureList@@UmapMatrixItems@R_dsgraph@@Udoug_lea_allocator@@@@PAPAU12@@std@@QAE@AAPAPAUTNode@?$FixedMAP@PAUSTextureList@@UmapMatrixItems@R_dsgraph@@Udoug_lea_allocator@@@@0@Z ; std::pair<FixedMAP<STextureList *,R_dsgraph::mapMatrixItems,doug_lea_allocator>::TNode * *,FixedMAP<STextureList *,R_dsgraph::mapMatrixItems,doug_lea_allocator>::TNode * *>::pair<FixedMAP<STextureList *,R_dsgraph::mapMatrixItems,doug_lea_allocator>::TNode * *,FixedMAP<STextureList *,R_dsgraph::mapMatrixItems,doug_lea_allocator>::TNode * *><FixedMAP<STextureList *,R_dsgraph::mapMatrixItems,doug_lea_allocator>::TNode * * &,FixedMAP<STextureList *,R_dsgraph::mapMatrixItems,doug_lea_allocator>::TNode * * &,0>
PUBLIC	??$iter_swap@PAPAUTNode@?$FixedMAP@PAUSTextureList@@UmapMatrixItems@R_dsgraph@@Udoug_lea_allocator@@@@PAPAU12@@std@@YAXPAPAUTNode@?$FixedMAP@PAUSTextureList@@UmapMatrixItems@R_dsgraph@@Udoug_lea_allocator@@@@0@Z ; std::iter_swap<FixedMAP<STextureList *,R_dsgraph::mapMatrixItems,doug_lea_allocator>::TNode * *,FixedMAP<STextureList *,R_dsgraph::mapMatrixItems,doug_lea_allocator>::TNode * *>
PUBLIC	??$_Next_iter@PAPAUTNode@?$FixedMAP@PAUSTextureList@@UmapMatrixItems@R_dsgraph@@Udoug_lea_allocator@@@@@std@@YAPAPAUTNode@?$FixedMAP@PAUSTextureList@@UmapMatrixItems@R_dsgraph@@Udoug_lea_allocator@@@@PAPAU12@@Z ; std::_Next_iter<FixedMAP<STextureList *,R_dsgraph::mapMatrixItems,doug_lea_allocator>::TNode * *>
PUBLIC	??$_Guess_median_unchecked@PAPAUTNode@?$FixedMAP@PAUSTextureList@@UmapMatrixItems@R_dsgraph@@Udoug_lea_allocator@@@@P6A_NPAU12@0@Z@std@@YAXPAPAUTNode@?$FixedMAP@PAUSTextureList@@UmapMatrixItems@R_dsgraph@@Udoug_lea_allocator@@@@00P6A_NPAU12@1@Z@Z ; std::_Guess_median_unchecked<FixedMAP<STextureList *,R_dsgraph::mapMatrixItems,doug_lea_allocator>::TNode * *,bool (__cdecl*)(FixedMAP<STextureList *,R_dsgraph::mapMatrixItems,doug_lea_allocator>::TNode *,FixedMAP<STextureList *,R_dsgraph::mapMatrixItems,doug_lea_allocator>::TNode *)>
PUBLIC	??$_Prev_iter@PAPAUTNode@?$FixedMAP@PAUSTextureList@@UmapMatrixItems@R_dsgraph@@Udoug_lea_allocator@@@@@std@@YAPAPAUTNode@?$FixedMAP@PAUSTextureList@@UmapMatrixItems@R_dsgraph@@Udoug_lea_allocator@@@@PAPAU12@@Z ; std::_Prev_iter<FixedMAP<STextureList *,R_dsgraph::mapMatrixItems,doug_lea_allocator>::TNode * *>
PUBLIC	??$_Pop_heap_unchecked@PAPAUTNode@?$FixedMAP@PAUSTextureList@@UmapMatrixItems@R_dsgraph@@Udoug_lea_allocator@@@@P6A_NPAU12@0@Z@std@@YAXPAPAUTNode@?$FixedMAP@PAUSTextureList@@UmapMatrixItems@R_dsgraph@@Udoug_lea_allocator@@@@0P6A_NPAU12@1@Z@Z ; std::_Pop_heap_unchecked<FixedMAP<STextureList *,R_dsgraph::mapMatrixItems,doug_lea_allocator>::TNode * *,bool (__cdecl*)(FixedMAP<STextureList *,R_dsgraph::mapMatrixItems,doug_lea_allocator>::TNode *,FixedMAP<STextureList *,R_dsgraph::mapMatrixItems,doug_lea_allocator>::TNode *)>
PUBLIC	??$_Pop_heap_hole_by_index@PAPAUTNode@?$FixedMAP@PAUSTextureList@@UmapMatrixItems@R_dsgraph@@Udoug_lea_allocator@@@@PAU12@P6A_NPAU12@0@Z@std@@YAXPAPAUTNode@?$FixedMAP@PAUSTextureList@@UmapMatrixItems@R_dsgraph@@Udoug_lea_allocator@@@@HH$$QAPAU12@P6A_NPAU12@2@Z@Z ; std::_Pop_heap_hole_by_index<FixedMAP<STextureList *,R_dsgraph::mapMatrixItems,doug_lea_allocator>::TNode * *,FixedMAP<STextureList *,R_dsgraph::mapMatrixItems,doug_lea_allocator>::TNode *,bool (__cdecl*)(FixedMAP<STextureList *,R_dsgraph::mapMatrixItems,doug_lea_allocator>::TNode *,FixedMAP<STextureList *,R_dsgraph::mapMatrixItems,doug_lea_allocator>::TNode *)>
PUBLIC	??$_Copy_memmove@PAPAUTNode@?$FixedMAP@PAUSTextureList@@UmapNormalItems@R_dsgraph@@Udoug_lea_allocator@@@@PAPAU12@@std@@YAPAPAUTNode@?$FixedMAP@PAUSTextureList@@UmapNormalItems@R_dsgraph@@Udoug_lea_allocator@@@@PAPAU12@00@Z ; std::_Copy_memmove<FixedMAP<STextureList *,R_dsgraph::mapNormalItems,doug_lea_allocator>::TNode * *,FixedMAP<STextureList *,R_dsgraph::mapNormalItems,doug_lea_allocator>::TNode * *>
PUBLIC	??$_Copy_backward_memmove@PAPAUTNode@?$FixedMAP@PAUSTextureList@@UmapNormalItems@R_dsgraph@@Udoug_lea_allocator@@@@PAPAU12@@std@@YAPAPAUTNode@?$FixedMAP@PAUSTextureList@@UmapNormalItems@R_dsgraph@@Udoug_lea_allocator@@@@PAPAU12@00@Z ; std::_Copy_backward_memmove<FixedMAP<STextureList *,R_dsgraph::mapNormalItems,doug_lea_allocator>::TNode * *,FixedMAP<STextureList *,R_dsgraph::mapNormalItems,doug_lea_allocator>::TNode * *>
PUBLIC	??$_Uninitialized_copy@PAPAUTNode@?$FixedMAP@PAUSTextureList@@UmapNormalItems@R_dsgraph@@Udoug_lea_allocator@@@@V?$doug_lea_alloc@PAUTNode@?$FixedMAP@PAUSTextureList@@UmapNormalItems@R_dsgraph@@Udoug_lea_allocator@@@@@@@std@@YAPAPAUTNode@?$FixedMAP@PAUSTextureList@@UmapNormalItems@R_dsgraph@@Udoug_lea_allocator@@@@QAPAU12@0PAPAU12@AAV?$doug_lea_alloc@PAUTNode@?$FixedMAP@PAUSTextureList@@UmapNormalItems@R_dsgraph@@Udoug_lea_allocator@@@@@@@Z ; std::_Uninitialized_copy<FixedMAP<STextureList *,R_dsgraph::mapNormalItems,doug_lea_allocator>::TNode * *,doug_lea_alloc<FixedMAP<STextureList *,R_dsgraph::mapNormalItems,doug_lea_allocator>::TNode *> >
PUBLIC	??$?0AAPAPAUTNode@?$FixedMAP@PAUSTextureList@@UmapNormalItems@R_dsgraph@@Udoug_lea_allocator@@@@AAPAPAU01@$0A@@?$pair@PAPAUTNode@?$FixedMAP@PAUSTextureList@@UmapNormalItems@R_dsgraph@@Udoug_lea_allocator@@@@PAPAU12@@std@@QAE@AAPAPAUTNode@?$FixedMAP@PAUSTextureList@@UmapNormalItems@R_dsgraph@@Udoug_lea_allocator@@@@0@Z ; std::pair<FixedMAP<STextureList *,R_dsgraph::mapNormalItems,doug_lea_allocator>::TNode * *,FixedMAP<STextureList *,R_dsgraph::mapNormalItems,doug_lea_allocator>::TNode * *>::pair<FixedMAP<STextureList *,R_dsgraph::mapNormalItems,doug_lea_allocator>::TNode * *,FixedMAP<STextureList *,R_dsgraph::mapNormalItems,doug_lea_allocator>::TNode * *><FixedMAP<STextureList *,R_dsgraph::mapNormalItems,doug_lea_allocator>::TNode * * &,FixedMAP<STextureList *,R_dsgraph::mapNormalItems,doug_lea_allocator>::TNode * * &,0>
PUBLIC	??$iter_swap@PAPAUTNode@?$FixedMAP@PAUSTextureList@@UmapNormalItems@R_dsgraph@@Udoug_lea_allocator@@@@PAPAU12@@std@@YAXPAPAUTNode@?$FixedMAP@PAUSTextureList@@UmapNormalItems@R_dsgraph@@Udoug_lea_allocator@@@@0@Z ; std::iter_swap<FixedMAP<STextureList *,R_dsgraph::mapNormalItems,doug_lea_allocator>::TNode * *,FixedMAP<STextureList *,R_dsgraph::mapNormalItems,doug_lea_allocator>::TNode * *>
PUBLIC	??$_Next_iter@PAPAUTNode@?$FixedMAP@PAUSTextureList@@UmapNormalItems@R_dsgraph@@Udoug_lea_allocator@@@@@std@@YAPAPAUTNode@?$FixedMAP@PAUSTextureList@@UmapNormalItems@R_dsgraph@@Udoug_lea_allocator@@@@PAPAU12@@Z ; std::_Next_iter<FixedMAP<STextureList *,R_dsgraph::mapNormalItems,doug_lea_allocator>::TNode * *>
PUBLIC	??$_Guess_median_unchecked@PAPAUTNode@?$FixedMAP@PAUSTextureList@@UmapNormalItems@R_dsgraph@@Udoug_lea_allocator@@@@P6A_NPAU12@0@Z@std@@YAXPAPAUTNode@?$FixedMAP@PAUSTextureList@@UmapNormalItems@R_dsgraph@@Udoug_lea_allocator@@@@00P6A_NPAU12@1@Z@Z ; std::_Guess_median_unchecked<FixedMAP<STextureList *,R_dsgraph::mapNormalItems,doug_lea_allocator>::TNode * *,bool (__cdecl*)(FixedMAP<STextureList *,R_dsgraph::mapNormalItems,doug_lea_allocator>::TNode *,FixedMAP<STextureList *,R_dsgraph::mapNormalItems,doug_lea_allocator>::TNode *)>
PUBLIC	??$_Prev_iter@PAPAUTNode@?$FixedMAP@PAUSTextureList@@UmapNormalItems@R_dsgraph@@Udoug_lea_allocator@@@@@std@@YAPAPAUTNode@?$FixedMAP@PAUSTextureList@@UmapNormalItems@R_dsgraph@@Udoug_lea_allocator@@@@PAPAU12@@Z ; std::_Prev_iter<FixedMAP<STextureList *,R_dsgraph::mapNormalItems,doug_lea_allocator>::TNode * *>
PUBLIC	??$_Pop_heap_unchecked@PAPAUTNode@?$FixedMAP@PAUSTextureList@@UmapNormalItems@R_dsgraph@@Udoug_lea_allocator@@@@P6A_NPAU12@0@Z@std@@YAXPAPAUTNode@?$FixedMAP@PAUSTextureList@@UmapNormalItems@R_dsgraph@@Udoug_lea_allocator@@@@0P6A_NPAU12@1@Z@Z ; std::_Pop_heap_unchecked<FixedMAP<STextureList *,R_dsgraph::mapNormalItems,doug_lea_allocator>::TNode * *,bool (__cdecl*)(FixedMAP<STextureList *,R_dsgraph::mapNormalItems,doug_lea_allocator>::TNode *,FixedMAP<STextureList *,R_dsgraph::mapNormalItems,doug_lea_allocator>::TNode *)>
PUBLIC	??$_Pop_heap_hole_by_index@PAPAUTNode@?$FixedMAP@PAUSTextureList@@UmapNormalItems@R_dsgraph@@Udoug_lea_allocator@@@@PAU12@P6A_NPAU12@0@Z@std@@YAXPAPAUTNode@?$FixedMAP@PAUSTextureList@@UmapNormalItems@R_dsgraph@@Udoug_lea_allocator@@@@HH$$QAPAU12@P6A_NPAU12@2@Z@Z ; std::_Pop_heap_hole_by_index<FixedMAP<STextureList *,R_dsgraph::mapNormalItems,doug_lea_allocator>::TNode * *,FixedMAP<STextureList *,R_dsgraph::mapNormalItems,doug_lea_allocator>::TNode *,bool (__cdecl*)(FixedMAP<STextureList *,R_dsgraph::mapNormalItems,doug_lea_allocator>::TNode *,FixedMAP<STextureList *,R_dsgraph::mapNormalItems,doug_lea_allocator>::TNode *)>
PUBLIC	??$?RAAU?$pair@IV?$resptr_core@VCTexture@@Uresptrcode_texture@@@@@std@@AAU01@@?$less@X@std@@QBE_NAAU?$pair@IV?$resptr_core@VCTexture@@Uresptrcode_texture@@@@@1@0@Z ; std::less<void>::operator()<std::pair<unsigned int,resptr_core<CTexture,resptrcode_texture> > &,std::pair<unsigned int,resptr_core<CTexture,resptrcode_texture> > &>
PUBLIC	??$?0AAPAU_MatrixItem@R_dsgraph@@AAPAU01@$0A@@?$pair@PAU_MatrixItem@R_dsgraph@@PAU12@@std@@QAE@AAPAU_MatrixItem@R_dsgraph@@0@Z ; std::pair<R_dsgraph::_MatrixItem *,R_dsgraph::_MatrixItem *>::pair<R_dsgraph::_MatrixItem *,R_dsgraph::_MatrixItem *><R_dsgraph::_MatrixItem * &,R_dsgraph::_MatrixItem * &,0>
PUBLIC	??$iter_swap@PAU_MatrixItem@R_dsgraph@@PAU12@@std@@YAXPAU_MatrixItem@R_dsgraph@@0@Z ; std::iter_swap<R_dsgraph::_MatrixItem *,R_dsgraph::_MatrixItem *>
PUBLIC	??$_Next_iter@PAU_MatrixItem@R_dsgraph@@@std@@YAPAU_MatrixItem@R_dsgraph@@PAU12@@Z ; std::_Next_iter<R_dsgraph::_MatrixItem *>
PUBLIC	??$_Guess_median_unchecked@PAU_MatrixItem@R_dsgraph@@P6A_NABU12@0@Z@std@@YAXPAU_MatrixItem@R_dsgraph@@00P6A_NABU12@1@Z@Z ; std::_Guess_median_unchecked<R_dsgraph::_MatrixItem *,bool (__cdecl*)(R_dsgraph::_MatrixItem const &,R_dsgraph::_MatrixItem const &)>
PUBLIC	??$_Prev_iter@PAU_MatrixItem@R_dsgraph@@@std@@YAPAU_MatrixItem@R_dsgraph@@PAU12@@Z ; std::_Prev_iter<R_dsgraph::_MatrixItem *>
PUBLIC	??$_Pop_heap_unchecked@PAU_MatrixItem@R_dsgraph@@P6A_NABU12@0@Z@std@@YAXPAU_MatrixItem@R_dsgraph@@0P6A_NABU12@1@Z@Z ; std::_Pop_heap_unchecked<R_dsgraph::_MatrixItem *,bool (__cdecl*)(R_dsgraph::_MatrixItem const &,R_dsgraph::_MatrixItem const &)>
PUBLIC	??$_Pop_heap_hole_by_index@PAU_MatrixItem@R_dsgraph@@U12@P6A_NABU12@0@Z@std@@YAXPAU_MatrixItem@R_dsgraph@@HH$$QAU12@P6A_NABU12@2@Z@Z ; std::_Pop_heap_hole_by_index<R_dsgraph::_MatrixItem *,R_dsgraph::_MatrixItem,bool (__cdecl*)(R_dsgraph::_MatrixItem const &,R_dsgraph::_MatrixItem const &)>
PUBLIC	??$_Move_backward_unchecked@PAU_MatrixItem@R_dsgraph@@PAU12@@std@@YAPAU_MatrixItem@R_dsgraph@@PAU12@00@Z ; std::_Move_backward_unchecked<R_dsgraph::_MatrixItem *,R_dsgraph::_MatrixItem *>
PUBLIC	??$?0AAPAU_NormalItem@R_dsgraph@@AAPAU01@$0A@@?$pair@PAU_NormalItem@R_dsgraph@@PAU12@@std@@QAE@AAPAU_NormalItem@R_dsgraph@@0@Z ; std::pair<R_dsgraph::_NormalItem *,R_dsgraph::_NormalItem *>::pair<R_dsgraph::_NormalItem *,R_dsgraph::_NormalItem *><R_dsgraph::_NormalItem * &,R_dsgraph::_NormalItem * &,0>
PUBLIC	??$iter_swap@PAU_NormalItem@R_dsgraph@@PAU12@@std@@YAXPAU_NormalItem@R_dsgraph@@0@Z ; std::iter_swap<R_dsgraph::_NormalItem *,R_dsgraph::_NormalItem *>
PUBLIC	??$_Next_iter@PAU_NormalItem@R_dsgraph@@@std@@YAPAU_NormalItem@R_dsgraph@@PAU12@@Z ; std::_Next_iter<R_dsgraph::_NormalItem *>
PUBLIC	??$_Guess_median_unchecked@PAU_NormalItem@R_dsgraph@@P6A_NABU12@0@Z@std@@YAXPAU_NormalItem@R_dsgraph@@00P6A_NABU12@1@Z@Z ; std::_Guess_median_unchecked<R_dsgraph::_NormalItem *,bool (__cdecl*)(R_dsgraph::_NormalItem const &,R_dsgraph::_NormalItem const &)>
PUBLIC	??$_Prev_iter@PAU_NormalItem@R_dsgraph@@@std@@YAPAU_NormalItem@R_dsgraph@@PAU12@@Z ; std::_Prev_iter<R_dsgraph::_NormalItem *>
PUBLIC	??$_Pop_heap_unchecked@PAU_NormalItem@R_dsgraph@@P6A_NABU12@0@Z@std@@YAXPAU_NormalItem@R_dsgraph@@0P6A_NABU12@1@Z@Z ; std::_Pop_heap_unchecked<R_dsgraph::_NormalItem *,bool (__cdecl*)(R_dsgraph::_NormalItem const &,R_dsgraph::_NormalItem const &)>
PUBLIC	??$_Pop_heap_hole_by_index@PAU_NormalItem@R_dsgraph@@U12@P6A_NABU12@0@Z@std@@YAXPAU_NormalItem@R_dsgraph@@HH$$QAU12@P6A_NABU12@2@Z@Z ; std::_Pop_heap_hole_by_index<R_dsgraph::_NormalItem *,R_dsgraph::_NormalItem,bool (__cdecl*)(R_dsgraph::_NormalItem const &,R_dsgraph::_NormalItem const &)>
PUBLIC	??$_Move_backward_unchecked@PAU_NormalItem@R_dsgraph@@PAU12@@std@@YAPAU_NormalItem@R_dsgraph@@PAU12@00@Z ; std::_Move_backward_unchecked<R_dsgraph::_NormalItem *,R_dsgraph::_NormalItem *>
PUBLIC	??$_Get_unwrapped@ABQAPAUTNode@?$FixedMAP@PAUIDirect3DVertexShader9@@UmapNormalPS@R_dsgraph@@Udoug_lea_allocator@@@@@std@@YA?A_TABQAPAUTNode@?$FixedMAP@PAUIDirect3DVertexShader9@@UmapNormalPS@R_dsgraph@@Udoug_lea_allocator@@@@@Z ; std::_Get_unwrapped<FixedMAP<IDirect3DVertexShader9 *,R_dsgraph::mapNormalPS,doug_lea_allocator>::TNode * * const &>
PUBLIC	??$_Uninitialized_move@PAPAUTNode@?$FixedMAP@PAUIDirect3DVertexShader9@@UmapNormalPS@R_dsgraph@@Udoug_lea_allocator@@@@V?$doug_lea_alloc@PAUTNode@?$FixedMAP@PAUIDirect3DVertexShader9@@UmapNormalPS@R_dsgraph@@Udoug_lea_allocator@@@@@@@std@@YAPAPAUTNode@?$FixedMAP@PAUIDirect3DVertexShader9@@UmapNormalPS@R_dsgraph@@Udoug_lea_allocator@@@@QAPAU12@0PAPAU12@AAV?$doug_lea_alloc@PAUTNode@?$FixedMAP@PAUIDirect3DVertexShader9@@UmapNormalPS@R_dsgraph@@Udoug_lea_allocator@@@@@@@Z ; std::_Uninitialized_move<FixedMAP<IDirect3DVertexShader9 *,R_dsgraph::mapNormalPS,doug_lea_allocator>::TNode * *,doug_lea_alloc<FixedMAP<IDirect3DVertexShader9 *,R_dsgraph::mapNormalPS,doug_lea_allocator>::TNode *> >
PUBLIC	??$_Get_unwrapped@ABQAPAUTNode@?$FixedMAP@PAUIDirect3DPixelShader9@@UmapNormalCS@R_dsgraph@@Udoug_lea_allocator@@@@@std@@YA?A_TABQAPAUTNode@?$FixedMAP@PAUIDirect3DPixelShader9@@UmapNormalCS@R_dsgraph@@Udoug_lea_allocator@@@@@Z ; std::_Get_unwrapped<FixedMAP<IDirect3DPixelShader9 *,R_dsgraph::mapNormalCS,doug_lea_allocator>::TNode * * const &>
PUBLIC	??$_Uninitialized_move@PAPAUTNode@?$FixedMAP@PAUIDirect3DPixelShader9@@UmapNormalCS@R_dsgraph@@Udoug_lea_allocator@@@@V?$doug_lea_alloc@PAUTNode@?$FixedMAP@PAUIDirect3DPixelShader9@@UmapNormalCS@R_dsgraph@@Udoug_lea_allocator@@@@@@@std@@YAPAPAUTNode@?$FixedMAP@PAUIDirect3DPixelShader9@@UmapNormalCS@R_dsgraph@@Udoug_lea_allocator@@@@QAPAU12@0PAPAU12@AAV?$doug_lea_alloc@PAUTNode@?$FixedMAP@PAUIDirect3DPixelShader9@@UmapNormalCS@R_dsgraph@@Udoug_lea_allocator@@@@@@@Z ; std::_Uninitialized_move<FixedMAP<IDirect3DPixelShader9 *,R_dsgraph::mapNormalCS,doug_lea_allocator>::TNode * *,doug_lea_alloc<FixedMAP<IDirect3DPixelShader9 *,R_dsgraph::mapNormalCS,doug_lea_allocator>::TNode *> >
PUBLIC	??$_Get_unwrapped@ABQAPAUTNode@?$FixedMAP@PAVR_constant_table@@UmapNormalStates@R_dsgraph@@Udoug_lea_allocator@@@@@std@@YA?A_TABQAPAUTNode@?$FixedMAP@PAVR_constant_table@@UmapNormalStates@R_dsgraph@@Udoug_lea_allocator@@@@@Z ; std::_Get_unwrapped<FixedMAP<R_constant_table *,R_dsgraph::mapNormalStates,doug_lea_allocator>::TNode * * const &>
PUBLIC	??$_Uninitialized_move@PAPAUTNode@?$FixedMAP@PAVR_constant_table@@UmapNormalStates@R_dsgraph@@Udoug_lea_allocator@@@@V?$doug_lea_alloc@PAUTNode@?$FixedMAP@PAVR_constant_table@@UmapNormalStates@R_dsgraph@@Udoug_lea_allocator@@@@@@@std@@YAPAPAUTNode@?$FixedMAP@PAVR_constant_table@@UmapNormalStates@R_dsgraph@@Udoug_lea_allocator@@@@QAPAU12@0PAPAU12@AAV?$doug_lea_alloc@PAUTNode@?$FixedMAP@PAVR_constant_table@@UmapNormalStates@R_dsgraph@@Udoug_lea_allocator@@@@@@@Z ; std::_Uninitialized_move<FixedMAP<R_constant_table *,R_dsgraph::mapNormalStates,doug_lea_allocator>::TNode * *,doug_lea_alloc<FixedMAP<R_constant_table *,R_dsgraph::mapNormalStates,doug_lea_allocator>::TNode *> >
PUBLIC	??$_Get_unwrapped@ABQAPAUTNode@?$FixedMAP@PAUIDirect3DStateBlock9@@UmapNormalTextures@R_dsgraph@@Udoug_lea_allocator@@@@@std@@YA?A_TABQAPAUTNode@?$FixedMAP@PAUIDirect3DStateBlock9@@UmapNormalTextures@R_dsgraph@@Udoug_lea_allocator@@@@@Z ; std::_Get_unwrapped<FixedMAP<IDirect3DStateBlock9 *,R_dsgraph::mapNormalTextures,doug_lea_allocator>::TNode * * const &>
PUBLIC	??$_Uninitialized_move@PAPAUTNode@?$FixedMAP@PAUIDirect3DStateBlock9@@UmapNormalTextures@R_dsgraph@@Udoug_lea_allocator@@@@V?$doug_lea_alloc@PAUTNode@?$FixedMAP@PAUIDirect3DStateBlock9@@UmapNormalTextures@R_dsgraph@@Udoug_lea_allocator@@@@@@@std@@YAPAPAUTNode@?$FixedMAP@PAUIDirect3DStateBlock9@@UmapNormalTextures@R_dsgraph@@Udoug_lea_allocator@@@@QAPAU12@0PAPAU12@AAV?$doug_lea_alloc@PAUTNode@?$FixedMAP@PAUIDirect3DStateBlock9@@UmapNormalTextures@R_dsgraph@@Udoug_lea_allocator@@@@@@@Z ; std::_Uninitialized_move<FixedMAP<IDirect3DStateBlock9 *,R_dsgraph::mapNormalTextures,doug_lea_allocator>::TNode * *,doug_lea_alloc<FixedMAP<IDirect3DStateBlock9 *,R_dsgraph::mapNormalTextures,doug_lea_allocator>::TNode *> >
PUBLIC	??$_Get_unwrapped@ABQAPAUTNode@?$FixedMAP@PAUIDirect3DVertexShader9@@UmapMatrixPS@R_dsgraph@@Udoug_lea_allocator@@@@@std@@YA?A_TABQAPAUTNode@?$FixedMAP@PAUIDirect3DVertexShader9@@UmapMatrixPS@R_dsgraph@@Udoug_lea_allocator@@@@@Z ; std::_Get_unwrapped<FixedMAP<IDirect3DVertexShader9 *,R_dsgraph::mapMatrixPS,doug_lea_allocator>::TNode * * const &>
PUBLIC	??$_Uninitialized_move@PAPAUTNode@?$FixedMAP@PAUIDirect3DVertexShader9@@UmapMatrixPS@R_dsgraph@@Udoug_lea_allocator@@@@V?$doug_lea_alloc@PAUTNode@?$FixedMAP@PAUIDirect3DVertexShader9@@UmapMatrixPS@R_dsgraph@@Udoug_lea_allocator@@@@@@@std@@YAPAPAUTNode@?$FixedMAP@PAUIDirect3DVertexShader9@@UmapMatrixPS@R_dsgraph@@Udoug_lea_allocator@@@@QAPAU12@0PAPAU12@AAV?$doug_lea_alloc@PAUTNode@?$FixedMAP@PAUIDirect3DVertexShader9@@UmapMatrixPS@R_dsgraph@@Udoug_lea_allocator@@@@@@@Z ; std::_Uninitialized_move<FixedMAP<IDirect3DVertexShader9 *,R_dsgraph::mapMatrixPS,doug_lea_allocator>::TNode * *,doug_lea_alloc<FixedMAP<IDirect3DVertexShader9 *,R_dsgraph::mapMatrixPS,doug_lea_allocator>::TNode *> >
PUBLIC	??$_Get_unwrapped@ABQAPAUTNode@?$FixedMAP@PAUIDirect3DPixelShader9@@UmapMatrixCS@R_dsgraph@@Udoug_lea_allocator@@@@@std@@YA?A_TABQAPAUTNode@?$FixedMAP@PAUIDirect3DPixelShader9@@UmapMatrixCS@R_dsgraph@@Udoug_lea_allocator@@@@@Z ; std::_Get_unwrapped<FixedMAP<IDirect3DPixelShader9 *,R_dsgraph::mapMatrixCS,doug_lea_allocator>::TNode * * const &>
PUBLIC	??$_Uninitialized_move@PAPAUTNode@?$FixedMAP@PAUIDirect3DPixelShader9@@UmapMatrixCS@R_dsgraph@@Udoug_lea_allocator@@@@V?$doug_lea_alloc@PAUTNode@?$FixedMAP@PAUIDirect3DPixelShader9@@UmapMatrixCS@R_dsgraph@@Udoug_lea_allocator@@@@@@@std@@YAPAPAUTNode@?$FixedMAP@PAUIDirect3DPixelShader9@@UmapMatrixCS@R_dsgraph@@Udoug_lea_allocator@@@@QAPAU12@0PAPAU12@AAV?$doug_lea_alloc@PAUTNode@?$FixedMAP@PAUIDirect3DPixelShader9@@UmapMatrixCS@R_dsgraph@@Udoug_lea_allocator@@@@@@@Z ; std::_Uninitialized_move<FixedMAP<IDirect3DPixelShader9 *,R_dsgraph::mapMatrixCS,doug_lea_allocator>::TNode * *,doug_lea_alloc<FixedMAP<IDirect3DPixelShader9 *,R_dsgraph::mapMatrixCS,doug_lea_allocator>::TNode *> >
PUBLIC	??$_Get_unwrapped@ABQAPAUTNode@?$FixedMAP@PAVR_constant_table@@UmapMatrixStates@R_dsgraph@@Udoug_lea_allocator@@@@@std@@YA?A_TABQAPAUTNode@?$FixedMAP@PAVR_constant_table@@UmapMatrixStates@R_dsgraph@@Udoug_lea_allocator@@@@@Z ; std::_Get_unwrapped<FixedMAP<R_constant_table *,R_dsgraph::mapMatrixStates,doug_lea_allocator>::TNode * * const &>
PUBLIC	??$_Uninitialized_move@PAPAUTNode@?$FixedMAP@PAVR_constant_table@@UmapMatrixStates@R_dsgraph@@Udoug_lea_allocator@@@@V?$doug_lea_alloc@PAUTNode@?$FixedMAP@PAVR_constant_table@@UmapMatrixStates@R_dsgraph@@Udoug_lea_allocator@@@@@@@std@@YAPAPAUTNode@?$FixedMAP@PAVR_constant_table@@UmapMatrixStates@R_dsgraph@@Udoug_lea_allocator@@@@QAPAU12@0PAPAU12@AAV?$doug_lea_alloc@PAUTNode@?$FixedMAP@PAVR_constant_table@@UmapMatrixStates@R_dsgraph@@Udoug_lea_allocator@@@@@@@Z ; std::_Uninitialized_move<FixedMAP<R_constant_table *,R_dsgraph::mapMatrixStates,doug_lea_allocator>::TNode * *,doug_lea_alloc<FixedMAP<R_constant_table *,R_dsgraph::mapMatrixStates,doug_lea_allocator>::TNode *> >
PUBLIC	??$_Get_unwrapped@ABQAPAUTNode@?$FixedMAP@PAUIDirect3DStateBlock9@@UmapMatrixTextures@R_dsgraph@@Udoug_lea_allocator@@@@@std@@YA?A_TABQAPAUTNode@?$FixedMAP@PAUIDirect3DStateBlock9@@UmapMatrixTextures@R_dsgraph@@Udoug_lea_allocator@@@@@Z ; std::_Get_unwrapped<FixedMAP<IDirect3DStateBlock9 *,R_dsgraph::mapMatrixTextures,doug_lea_allocator>::TNode * * const &>
PUBLIC	??$_Uninitialized_move@PAPAUTNode@?$FixedMAP@PAUIDirect3DStateBlock9@@UmapMatrixTextures@R_dsgraph@@Udoug_lea_allocator@@@@V?$doug_lea_alloc@PAUTNode@?$FixedMAP@PAUIDirect3DStateBlock9@@UmapMatrixTextures@R_dsgraph@@Udoug_lea_allocator@@@@@@@std@@YAPAPAUTNode@?$FixedMAP@PAUIDirect3DStateBlock9@@UmapMatrixTextures@R_dsgraph@@Udoug_lea_allocator@@@@QAPAU12@0PAPAU12@AAV?$doug_lea_alloc@PAUTNode@?$FixedMAP@PAUIDirect3DStateBlock9@@UmapMatrixTextures@R_dsgraph@@Udoug_lea_allocator@@@@@@@Z ; std::_Uninitialized_move<FixedMAP<IDirect3DStateBlock9 *,R_dsgraph::mapMatrixTextures,doug_lea_allocator>::TNode * *,doug_lea_alloc<FixedMAP<IDirect3DStateBlock9 *,R_dsgraph::mapMatrixTextures,doug_lea_allocator>::TNode *> >
PUBLIC	??$_Unfancy@U?$pair@IV?$resptr_core@VCTexture@@Uresptrcode_texture@@@@@std@@@std@@YAPAU?$pair@IV?$resptr_core@VCTexture@@Uresptrcode_texture@@@@@0@PAU10@@Z ; std::_Unfancy<std::pair<unsigned int,resptr_core<CTexture,resptrcode_texture> > >
PUBLIC	??$_Emplace_back@$$V@?$_Uninitialized_backout_al@V?$doug_lea_alloc@PAUTNode@?$FixedMAP@PAUIDirect3DVertexShader9@@UmapNormalPS@R_dsgraph@@Udoug_lea_allocator@@@@@@@std@@QAEXXZ ; std::_Uninitialized_backout_al<doug_lea_alloc<FixedMAP<IDirect3DVertexShader9 *,R_dsgraph::mapNormalPS,doug_lea_allocator>::TNode *> >::_Emplace_back<>
PUBLIC	??$_To_address@PAPAUTNode@?$FixedMAP@PAUIDirect3DVertexShader9@@UmapNormalPS@R_dsgraph@@Udoug_lea_allocator@@@@@std@@YA?A_PABQAPAUTNode@?$FixedMAP@PAUIDirect3DVertexShader9@@UmapNormalPS@R_dsgraph@@Udoug_lea_allocator@@@@@Z ; std::_To_address<FixedMAP<IDirect3DVertexShader9 *,R_dsgraph::mapNormalPS,doug_lea_allocator>::TNode * *>
PUBLIC	??$_Zero_range@PAPAUTNode@?$FixedMAP@PAUIDirect3DVertexShader9@@UmapNormalPS@R_dsgraph@@Udoug_lea_allocator@@@@@std@@YAPAPAUTNode@?$FixedMAP@PAUIDirect3DVertexShader9@@UmapNormalPS@R_dsgraph@@Udoug_lea_allocator@@@@QAPAU12@0@Z ; std::_Zero_range<FixedMAP<IDirect3DVertexShader9 *,R_dsgraph::mapNormalPS,doug_lea_allocator>::TNode * *>
PUBLIC	??$_Emplace_back@$$V@?$_Uninitialized_backout_al@V?$doug_lea_alloc@PAUTNode@?$FixedMAP@PAUIDirect3DPixelShader9@@UmapNormalCS@R_dsgraph@@Udoug_lea_allocator@@@@@@@std@@QAEXXZ ; std::_Uninitialized_backout_al<doug_lea_alloc<FixedMAP<IDirect3DPixelShader9 *,R_dsgraph::mapNormalCS,doug_lea_allocator>::TNode *> >::_Emplace_back<>
PUBLIC	??$_To_address@PAPAUTNode@?$FixedMAP@PAUIDirect3DPixelShader9@@UmapNormalCS@R_dsgraph@@Udoug_lea_allocator@@@@@std@@YA?A_PABQAPAUTNode@?$FixedMAP@PAUIDirect3DPixelShader9@@UmapNormalCS@R_dsgraph@@Udoug_lea_allocator@@@@@Z ; std::_To_address<FixedMAP<IDirect3DPixelShader9 *,R_dsgraph::mapNormalCS,doug_lea_allocator>::TNode * *>
PUBLIC	??$_Zero_range@PAPAUTNode@?$FixedMAP@PAUIDirect3DPixelShader9@@UmapNormalCS@R_dsgraph@@Udoug_lea_allocator@@@@@std@@YAPAPAUTNode@?$FixedMAP@PAUIDirect3DPixelShader9@@UmapNormalCS@R_dsgraph@@Udoug_lea_allocator@@@@QAPAU12@0@Z ; std::_Zero_range<FixedMAP<IDirect3DPixelShader9 *,R_dsgraph::mapNormalCS,doug_lea_allocator>::TNode * *>
PUBLIC	??$_Emplace_back@$$V@?$_Uninitialized_backout_al@V?$doug_lea_alloc@PAUTNode@?$FixedMAP@PAVR_constant_table@@UmapNormalStates@R_dsgraph@@Udoug_lea_allocator@@@@@@@std@@QAEXXZ ; std::_Uninitialized_backout_al<doug_lea_alloc<FixedMAP<R_constant_table *,R_dsgraph::mapNormalStates,doug_lea_allocator>::TNode *> >::_Emplace_back<>
PUBLIC	??$_To_address@PAPAUTNode@?$FixedMAP@PAVR_constant_table@@UmapNormalStates@R_dsgraph@@Udoug_lea_allocator@@@@@std@@YA?A_PABQAPAUTNode@?$FixedMAP@PAVR_constant_table@@UmapNormalStates@R_dsgraph@@Udoug_lea_allocator@@@@@Z ; std::_To_address<FixedMAP<R_constant_table *,R_dsgraph::mapNormalStates,doug_lea_allocator>::TNode * *>
PUBLIC	??$_Zero_range@PAPAUTNode@?$FixedMAP@PAVR_constant_table@@UmapNormalStates@R_dsgraph@@Udoug_lea_allocator@@@@@std@@YAPAPAUTNode@?$FixedMAP@PAVR_constant_table@@UmapNormalStates@R_dsgraph@@Udoug_lea_allocator@@@@QAPAU12@0@Z ; std::_Zero_range<FixedMAP<R_constant_table *,R_dsgraph::mapNormalStates,doug_lea_allocator>::TNode * *>
PUBLIC	??$_Emplace_back@$$V@?$_Uninitialized_backout_al@V?$doug_lea_alloc@PAUTNode@?$FixedMAP@PAUIDirect3DStateBlock9@@UmapNormalTextures@R_dsgraph@@Udoug_lea_allocator@@@@@@@std@@QAEXXZ ; std::_Uninitialized_backout_al<doug_lea_alloc<FixedMAP<IDirect3DStateBlock9 *,R_dsgraph::mapNormalTextures,doug_lea_allocator>::TNode *> >::_Emplace_back<>
PUBLIC	??$_To_address@PAPAUTNode@?$FixedMAP@PAUIDirect3DStateBlock9@@UmapNormalTextures@R_dsgraph@@Udoug_lea_allocator@@@@@std@@YA?A_PABQAPAUTNode@?$FixedMAP@PAUIDirect3DStateBlock9@@UmapNormalTextures@R_dsgraph@@Udoug_lea_allocator@@@@@Z ; std::_To_address<FixedMAP<IDirect3DStateBlock9 *,R_dsgraph::mapNormalTextures,doug_lea_allocator>::TNode * *>
PUBLIC	??$_Zero_range@PAPAUTNode@?$FixedMAP@PAUIDirect3DStateBlock9@@UmapNormalTextures@R_dsgraph@@Udoug_lea_allocator@@@@@std@@YAPAPAUTNode@?$FixedMAP@PAUIDirect3DStateBlock9@@UmapNormalTextures@R_dsgraph@@Udoug_lea_allocator@@@@QAPAU12@0@Z ; std::_Zero_range<FixedMAP<IDirect3DStateBlock9 *,R_dsgraph::mapNormalTextures,doug_lea_allocator>::TNode * *>
PUBLIC	??$_Emplace_back@$$V@?$_Uninitialized_backout_al@V?$doug_lea_alloc@PAUTNode@?$FixedMAP@PAUSTextureList@@UmapNormalItems@R_dsgraph@@Udoug_lea_allocator@@@@@@@std@@QAEXXZ ; std::_Uninitialized_backout_al<doug_lea_alloc<FixedMAP<STextureList *,R_dsgraph::mapNormalItems,doug_lea_allocator>::TNode *> >::_Emplace_back<>
PUBLIC	??$_To_address@PAPAUTNode@?$FixedMAP@PAUSTextureList@@UmapNormalItems@R_dsgraph@@Udoug_lea_allocator@@@@@std@@YA?A_PABQAPAUTNode@?$FixedMAP@PAUSTextureList@@UmapNormalItems@R_dsgraph@@Udoug_lea_allocator@@@@@Z ; std::_To_address<FixedMAP<STextureList *,R_dsgraph::mapNormalItems,doug_lea_allocator>::TNode * *>
PUBLIC	??$_Zero_range@PAPAUTNode@?$FixedMAP@PAUSTextureList@@UmapNormalItems@R_dsgraph@@Udoug_lea_allocator@@@@@std@@YAPAPAUTNode@?$FixedMAP@PAUSTextureList@@UmapNormalItems@R_dsgraph@@Udoug_lea_allocator@@@@QAPAU12@0@Z ; std::_Zero_range<FixedMAP<STextureList *,R_dsgraph::mapNormalItems,doug_lea_allocator>::TNode * *>
PUBLIC	??$_Emplace_back@PAUTNode@?$FixedMAP@PAUSTextureList@@UmapNormalItems@R_dsgraph@@Udoug_lea_allocator@@@@@?$_Uninitialized_backout_al@V?$doug_lea_alloc@PAUTNode@?$FixedMAP@PAUSTextureList@@UmapNormalItems@R_dsgraph@@Udoug_lea_allocator@@@@@@@std@@QAEX$$QAPAUTNode@?$FixedMAP@PAUSTextureList@@UmapNormalItems@R_dsgraph@@Udoug_lea_allocator@@@@@Z ; std::_Uninitialized_backout_al<doug_lea_alloc<FixedMAP<STextureList *,R_dsgraph::mapNormalItems,doug_lea_allocator>::TNode *> >::_Emplace_back<FixedMAP<STextureList *,R_dsgraph::mapNormalItems,doug_lea_allocator>::TNode *>
PUBLIC	??$move@AAPAUTNode@?$FixedMAP@PAUSTextureList@@UmapNormalItems@R_dsgraph@@Udoug_lea_allocator@@@@@std@@YA$$QAPAUTNode@?$FixedMAP@PAUSTextureList@@UmapNormalItems@R_dsgraph@@Udoug_lea_allocator@@@@AAPAU12@@Z ; std::move<FixedMAP<STextureList *,R_dsgraph::mapNormalItems,doug_lea_allocator>::TNode * &>
PUBLIC	??$_Emplace_back@$$V@?$_Uninitialized_backout_al@V?$doug_lea_alloc@PAUTNode@?$FixedMAP@PAUIDirect3DVertexShader9@@UmapMatrixPS@R_dsgraph@@Udoug_lea_allocator@@@@@@@std@@QAEXXZ ; std::_Uninitialized_backout_al<doug_lea_alloc<FixedMAP<IDirect3DVertexShader9 *,R_dsgraph::mapMatrixPS,doug_lea_allocator>::TNode *> >::_Emplace_back<>
PUBLIC	??$_To_address@PAPAUTNode@?$FixedMAP@PAUIDirect3DVertexShader9@@UmapMatrixPS@R_dsgraph@@Udoug_lea_allocator@@@@@std@@YA?A_PABQAPAUTNode@?$FixedMAP@PAUIDirect3DVertexShader9@@UmapMatrixPS@R_dsgraph@@Udoug_lea_allocator@@@@@Z ; std::_To_address<FixedMAP<IDirect3DVertexShader9 *,R_dsgraph::mapMatrixPS,doug_lea_allocator>::TNode * *>
PUBLIC	??$_Zero_range@PAPAUTNode@?$FixedMAP@PAUIDirect3DVertexShader9@@UmapMatrixPS@R_dsgraph@@Udoug_lea_allocator@@@@@std@@YAPAPAUTNode@?$FixedMAP@PAUIDirect3DVertexShader9@@UmapMatrixPS@R_dsgraph@@Udoug_lea_allocator@@@@QAPAU12@0@Z ; std::_Zero_range<FixedMAP<IDirect3DVertexShader9 *,R_dsgraph::mapMatrixPS,doug_lea_allocator>::TNode * *>
PUBLIC	??$_Emplace_back@$$V@?$_Uninitialized_backout_al@V?$doug_lea_alloc@PAUTNode@?$FixedMAP@PAUIDirect3DPixelShader9@@UmapMatrixCS@R_dsgraph@@Udoug_lea_allocator@@@@@@@std@@QAEXXZ ; std::_Uninitialized_backout_al<doug_lea_alloc<FixedMAP<IDirect3DPixelShader9 *,R_dsgraph::mapMatrixCS,doug_lea_allocator>::TNode *> >::_Emplace_back<>
PUBLIC	??$_To_address@PAPAUTNode@?$FixedMAP@PAUIDirect3DPixelShader9@@UmapMatrixCS@R_dsgraph@@Udoug_lea_allocator@@@@@std@@YA?A_PABQAPAUTNode@?$FixedMAP@PAUIDirect3DPixelShader9@@UmapMatrixCS@R_dsgraph@@Udoug_lea_allocator@@@@@Z ; std::_To_address<FixedMAP<IDirect3DPixelShader9 *,R_dsgraph::mapMatrixCS,doug_lea_allocator>::TNode * *>
PUBLIC	??$_Zero_range@PAPAUTNode@?$FixedMAP@PAUIDirect3DPixelShader9@@UmapMatrixCS@R_dsgraph@@Udoug_lea_allocator@@@@@std@@YAPAPAUTNode@?$FixedMAP@PAUIDirect3DPixelShader9@@UmapMatrixCS@R_dsgraph@@Udoug_lea_allocator@@@@QAPAU12@0@Z ; std::_Zero_range<FixedMAP<IDirect3DPixelShader9 *,R_dsgraph::mapMatrixCS,doug_lea_allocator>::TNode * *>
PUBLIC	??$_Emplace_back@$$V@?$_Uninitialized_backout_al@V?$doug_lea_alloc@PAUTNode@?$FixedMAP@PAVR_constant_table@@UmapMatrixStates@R_dsgraph@@Udoug_lea_allocator@@@@@@@std@@QAEXXZ ; std::_Uninitialized_backout_al<doug_lea_alloc<FixedMAP<R_constant_table *,R_dsgraph::mapMatrixStates,doug_lea_allocator>::TNode *> >::_Emplace_back<>
PUBLIC	??$_To_address@PAPAUTNode@?$FixedMAP@PAVR_constant_table@@UmapMatrixStates@R_dsgraph@@Udoug_lea_allocator@@@@@std@@YA?A_PABQAPAUTNode@?$FixedMAP@PAVR_constant_table@@UmapMatrixStates@R_dsgraph@@Udoug_lea_allocator@@@@@Z ; std::_To_address<FixedMAP<R_constant_table *,R_dsgraph::mapMatrixStates,doug_lea_allocator>::TNode * *>
PUBLIC	??$_Zero_range@PAPAUTNode@?$FixedMAP@PAVR_constant_table@@UmapMatrixStates@R_dsgraph@@Udoug_lea_allocator@@@@@std@@YAPAPAUTNode@?$FixedMAP@PAVR_constant_table@@UmapMatrixStates@R_dsgraph@@Udoug_lea_allocator@@@@QAPAU12@0@Z ; std::_Zero_range<FixedMAP<R_constant_table *,R_dsgraph::mapMatrixStates,doug_lea_allocator>::TNode * *>
PUBLIC	??$_Emplace_back@$$V@?$_Uninitialized_backout_al@V?$doug_lea_alloc@PAUTNode@?$FixedMAP@PAUIDirect3DStateBlock9@@UmapMatrixTextures@R_dsgraph@@Udoug_lea_allocator@@@@@@@std@@QAEXXZ ; std::_Uninitialized_backout_al<doug_lea_alloc<FixedMAP<IDirect3DStateBlock9 *,R_dsgraph::mapMatrixTextures,doug_lea_allocator>::TNode *> >::_Emplace_back<>
PUBLIC	??$_To_address@PAPAUTNode@?$FixedMAP@PAUIDirect3DStateBlock9@@UmapMatrixTextures@R_dsgraph@@Udoug_lea_allocator@@@@@std@@YA?A_PABQAPAUTNode@?$FixedMAP@PAUIDirect3DStateBlock9@@UmapMatrixTextures@R_dsgraph@@Udoug_lea_allocator@@@@@Z ; std::_To_address<FixedMAP<IDirect3DStateBlock9 *,R_dsgraph::mapMatrixTextures,doug_lea_allocator>::TNode * *>
PUBLIC	??$_Zero_range@PAPAUTNode@?$FixedMAP@PAUIDirect3DStateBlock9@@UmapMatrixTextures@R_dsgraph@@Udoug_lea_allocator@@@@@std@@YAPAPAUTNode@?$FixedMAP@PAUIDirect3DStateBlock9@@UmapMatrixTextures@R_dsgraph@@Udoug_lea_allocator@@@@QAPAU12@0@Z ; std::_Zero_range<FixedMAP<IDirect3DStateBlock9 *,R_dsgraph::mapMatrixTextures,doug_lea_allocator>::TNode * *>
PUBLIC	??$_Emplace_back@$$V@?$_Uninitialized_backout_al@V?$doug_lea_alloc@PAUTNode@?$FixedMAP@PAUSTextureList@@UmapMatrixItems@R_dsgraph@@Udoug_lea_allocator@@@@@@@std@@QAEXXZ ; std::_Uninitialized_backout_al<doug_lea_alloc<FixedMAP<STextureList *,R_dsgraph::mapMatrixItems,doug_lea_allocator>::TNode *> >::_Emplace_back<>
PUBLIC	??$_To_address@PAPAUTNode@?$FixedMAP@PAUSTextureList@@UmapMatrixItems@R_dsgraph@@Udoug_lea_allocator@@@@@std@@YA?A_PABQAPAUTNode@?$FixedMAP@PAUSTextureList@@UmapMatrixItems@R_dsgraph@@Udoug_lea_allocator@@@@@Z ; std::_To_address<FixedMAP<STextureList *,R_dsgraph::mapMatrixItems,doug_lea_allocator>::TNode * *>
PUBLIC	??$_Zero_range@PAPAUTNode@?$FixedMAP@PAUSTextureList@@UmapMatrixItems@R_dsgraph@@Udoug_lea_allocator@@@@@std@@YAPAPAUTNode@?$FixedMAP@PAUSTextureList@@UmapMatrixItems@R_dsgraph@@Udoug_lea_allocator@@@@QAPAU12@0@Z ; std::_Zero_range<FixedMAP<STextureList *,R_dsgraph::mapMatrixItems,doug_lea_allocator>::TNode * *>
PUBLIC	??$_Emplace_back@PAUTNode@?$FixedMAP@PAUSTextureList@@UmapMatrixItems@R_dsgraph@@Udoug_lea_allocator@@@@@?$_Uninitialized_backout_al@V?$doug_lea_alloc@PAUTNode@?$FixedMAP@PAUSTextureList@@UmapMatrixItems@R_dsgraph@@Udoug_lea_allocator@@@@@@@std@@QAEX$$QAPAUTNode@?$FixedMAP@PAUSTextureList@@UmapMatrixItems@R_dsgraph@@Udoug_lea_allocator@@@@@Z ; std::_Uninitialized_backout_al<doug_lea_alloc<FixedMAP<STextureList *,R_dsgraph::mapMatrixItems,doug_lea_allocator>::TNode *> >::_Emplace_back<FixedMAP<STextureList *,R_dsgraph::mapMatrixItems,doug_lea_allocator>::TNode *>
PUBLIC	??$move@AAPAUTNode@?$FixedMAP@PAUSTextureList@@UmapMatrixItems@R_dsgraph@@Udoug_lea_allocator@@@@@std@@YA$$QAPAUTNode@?$FixedMAP@PAUSTextureList@@UmapMatrixItems@R_dsgraph@@Udoug_lea_allocator@@@@AAPAU12@@Z ; std::move<FixedMAP<STextureList *,R_dsgraph::mapMatrixItems,doug_lea_allocator>::TNode * &>
PUBLIC	??$_Emplace_back@PAVIRender_Visual@@@?$_Uninitialized_backout_al@V?$doug_lea_alloc@PAVIRender_Visual@@@@@std@@QAEX$$QAPAVIRender_Visual@@@Z ; std::_Uninitialized_backout_al<doug_lea_alloc<IRender_Visual *> >::_Emplace_back<IRender_Visual *>
PUBLIC	??$_Partition_by_median_guess_unchecked@PAPAUTNode@?$FixedMAP@PAUIDirect3DStateBlock9@@UmapMatrixTextures@R_dsgraph@@Udoug_lea_allocator@@@@P6A_NPAU12@0@Z@std@@YA?AU?$pair@PAPAUTNode@?$FixedMAP@PAUIDirect3DStateBlock9@@UmapMatrixTextures@R_dsgraph@@Udoug_lea_allocator@@@@PAPAU12@@0@PAPAUTNode@?$FixedMAP@PAUIDirect3DStateBlock9@@UmapMatrixTextures@R_dsgraph@@Udoug_lea_allocator@@@@0P6A_NPAU23@1@Z@Z ; std::_Partition_by_median_guess_unchecked<FixedMAP<IDirect3DStateBlock9 *,R_dsgraph::mapMatrixTextures,doug_lea_allocator>::TNode * *,bool (__cdecl*)(FixedMAP<IDirect3DStateBlock9 *,R_dsgraph::mapMatrixTextures,doug_lea_allocator>::TNode *,FixedMAP<IDirect3DStateBlock9 *,R_dsgraph::mapMatrixTextures,doug_lea_allocator>::TNode *)>
PUBLIC	??$_Sort_heap_unchecked@PAPAUTNode@?$FixedMAP@PAUIDirect3DStateBlock9@@UmapMatrixTextures@R_dsgraph@@Udoug_lea_allocator@@@@P6A_NPAU12@0@Z@std@@YAXPAPAUTNode@?$FixedMAP@PAUIDirect3DStateBlock9@@UmapMatrixTextures@R_dsgraph@@Udoug_lea_allocator@@@@0P6A_NPAU12@1@Z@Z ; std::_Sort_heap_unchecked<FixedMAP<IDirect3DStateBlock9 *,R_dsgraph::mapMatrixTextures,doug_lea_allocator>::TNode * *,bool (__cdecl*)(FixedMAP<IDirect3DStateBlock9 *,R_dsgraph::mapMatrixTextures,doug_lea_allocator>::TNode *,FixedMAP<IDirect3DStateBlock9 *,R_dsgraph::mapMatrixTextures,doug_lea_allocator>::TNode *)>
PUBLIC	??$_Make_heap_unchecked@PAPAUTNode@?$FixedMAP@PAUIDirect3DStateBlock9@@UmapMatrixTextures@R_dsgraph@@Udoug_lea_allocator@@@@P6A_NPAU12@0@Z@std@@YAXPAPAUTNode@?$FixedMAP@PAUIDirect3DStateBlock9@@UmapMatrixTextures@R_dsgraph@@Udoug_lea_allocator@@@@0P6A_NPAU12@1@Z@Z ; std::_Make_heap_unchecked<FixedMAP<IDirect3DStateBlock9 *,R_dsgraph::mapMatrixTextures,doug_lea_allocator>::TNode * *,bool (__cdecl*)(FixedMAP<IDirect3DStateBlock9 *,R_dsgraph::mapMatrixTextures,doug_lea_allocator>::TNode *,FixedMAP<IDirect3DStateBlock9 *,R_dsgraph::mapMatrixTextures,doug_lea_allocator>::TNode *)>
PUBLIC	??$_Insertion_sort_unchecked@PAPAUTNode@?$FixedMAP@PAUIDirect3DStateBlock9@@UmapMatrixTextures@R_dsgraph@@Udoug_lea_allocator@@@@P6A_NPAU12@0@Z@std@@YAPAPAUTNode@?$FixedMAP@PAUIDirect3DStateBlock9@@UmapMatrixTextures@R_dsgraph@@Udoug_lea_allocator@@@@QAPAU12@0P6A_NPAU12@1@Z@Z ; std::_Insertion_sort_unchecked<FixedMAP<IDirect3DStateBlock9 *,R_dsgraph::mapMatrixTextures,doug_lea_allocator>::TNode * *,bool (__cdecl*)(FixedMAP<IDirect3DStateBlock9 *,R_dsgraph::mapMatrixTextures,doug_lea_allocator>::TNode *,FixedMAP<IDirect3DStateBlock9 *,R_dsgraph::mapMatrixTextures,doug_lea_allocator>::TNode *)>
PUBLIC	??$_Partition_by_median_guess_unchecked@PAPAUTNode@?$FixedMAP@PAVR_constant_table@@UmapMatrixStates@R_dsgraph@@Udoug_lea_allocator@@@@P6A_NPAU12@0@Z@std@@YA?AU?$pair@PAPAUTNode@?$FixedMAP@PAVR_constant_table@@UmapMatrixStates@R_dsgraph@@Udoug_lea_allocator@@@@PAPAU12@@0@PAPAUTNode@?$FixedMAP@PAVR_constant_table@@UmapMatrixStates@R_dsgraph@@Udoug_lea_allocator@@@@0P6A_NPAU23@1@Z@Z ; std::_Partition_by_median_guess_unchecked<FixedMAP<R_constant_table *,R_dsgraph::mapMatrixStates,doug_lea_allocator>::TNode * *,bool (__cdecl*)(FixedMAP<R_constant_table *,R_dsgraph::mapMatrixStates,doug_lea_allocator>::TNode *,FixedMAP<R_constant_table *,R_dsgraph::mapMatrixStates,doug_lea_allocator>::TNode *)>
PUBLIC	??$_Sort_heap_unchecked@PAPAUTNode@?$FixedMAP@PAVR_constant_table@@UmapMatrixStates@R_dsgraph@@Udoug_lea_allocator@@@@P6A_NPAU12@0@Z@std@@YAXPAPAUTNode@?$FixedMAP@PAVR_constant_table@@UmapMatrixStates@R_dsgraph@@Udoug_lea_allocator@@@@0P6A_NPAU12@1@Z@Z ; std::_Sort_heap_unchecked<FixedMAP<R_constant_table *,R_dsgraph::mapMatrixStates,doug_lea_allocator>::TNode * *,bool (__cdecl*)(FixedMAP<R_constant_table *,R_dsgraph::mapMatrixStates,doug_lea_allocator>::TNode *,FixedMAP<R_constant_table *,R_dsgraph::mapMatrixStates,doug_lea_allocator>::TNode *)>
PUBLIC	??$_Make_heap_unchecked@PAPAUTNode@?$FixedMAP@PAVR_constant_table@@UmapMatrixStates@R_dsgraph@@Udoug_lea_allocator@@@@P6A_NPAU12@0@Z@std@@YAXPAPAUTNode@?$FixedMAP@PAVR_constant_table@@UmapMatrixStates@R_dsgraph@@Udoug_lea_allocator@@@@0P6A_NPAU12@1@Z@Z ; std::_Make_heap_unchecked<FixedMAP<R_constant_table *,R_dsgraph::mapMatrixStates,doug_lea_allocator>::TNode * *,bool (__cdecl*)(FixedMAP<R_constant_table *,R_dsgraph::mapMatrixStates,doug_lea_allocator>::TNode *,FixedMAP<R_constant_table *,R_dsgraph::mapMatrixStates,doug_lea_allocator>::TNode *)>
PUBLIC	??$_Insertion_sort_unchecked@PAPAUTNode@?$FixedMAP@PAVR_constant_table@@UmapMatrixStates@R_dsgraph@@Udoug_lea_allocator@@@@P6A_NPAU12@0@Z@std@@YAPAPAUTNode@?$FixedMAP@PAVR_constant_table@@UmapMatrixStates@R_dsgraph@@Udoug_lea_allocator@@@@QAPAU12@0P6A_NPAU12@1@Z@Z ; std::_Insertion_sort_unchecked<FixedMAP<R_constant_table *,R_dsgraph::mapMatrixStates,doug_lea_allocator>::TNode * *,bool (__cdecl*)(FixedMAP<R_constant_table *,R_dsgraph::mapMatrixStates,doug_lea_allocator>::TNode *,FixedMAP<R_constant_table *,R_dsgraph::mapMatrixStates,doug_lea_allocator>::TNode *)>
PUBLIC	??$_Partition_by_median_guess_unchecked@PAPAUTNode@?$FixedMAP@PAUIDirect3DPixelShader9@@UmapMatrixCS@R_dsgraph@@Udoug_lea_allocator@@@@P6A_NPAU12@0@Z@std@@YA?AU?$pair@PAPAUTNode@?$FixedMAP@PAUIDirect3DPixelShader9@@UmapMatrixCS@R_dsgraph@@Udoug_lea_allocator@@@@PAPAU12@@0@PAPAUTNode@?$FixedMAP@PAUIDirect3DPixelShader9@@UmapMatrixCS@R_dsgraph@@Udoug_lea_allocator@@@@0P6A_NPAU23@1@Z@Z ; std::_Partition_by_median_guess_unchecked<FixedMAP<IDirect3DPixelShader9 *,R_dsgraph::mapMatrixCS,doug_lea_allocator>::TNode * *,bool (__cdecl*)(FixedMAP<IDirect3DPixelShader9 *,R_dsgraph::mapMatrixCS,doug_lea_allocator>::TNode *,FixedMAP<IDirect3DPixelShader9 *,R_dsgraph::mapMatrixCS,doug_lea_allocator>::TNode *)>
PUBLIC	??$_Sort_heap_unchecked@PAPAUTNode@?$FixedMAP@PAUIDirect3DPixelShader9@@UmapMatrixCS@R_dsgraph@@Udoug_lea_allocator@@@@P6A_NPAU12@0@Z@std@@YAXPAPAUTNode@?$FixedMAP@PAUIDirect3DPixelShader9@@UmapMatrixCS@R_dsgraph@@Udoug_lea_allocator@@@@0P6A_NPAU12@1@Z@Z ; std::_Sort_heap_unchecked<FixedMAP<IDirect3DPixelShader9 *,R_dsgraph::mapMatrixCS,doug_lea_allocator>::TNode * *,bool (__cdecl*)(FixedMAP<IDirect3DPixelShader9 *,R_dsgraph::mapMatrixCS,doug_lea_allocator>::TNode *,FixedMAP<IDirect3DPixelShader9 *,R_dsgraph::mapMatrixCS,doug_lea_allocator>::TNode *)>
PUBLIC	??$_Make_heap_unchecked@PAPAUTNode@?$FixedMAP@PAUIDirect3DPixelShader9@@UmapMatrixCS@R_dsgraph@@Udoug_lea_allocator@@@@P6A_NPAU12@0@Z@std@@YAXPAPAUTNode@?$FixedMAP@PAUIDirect3DPixelShader9@@UmapMatrixCS@R_dsgraph@@Udoug_lea_allocator@@@@0P6A_NPAU12@1@Z@Z ; std::_Make_heap_unchecked<FixedMAP<IDirect3DPixelShader9 *,R_dsgraph::mapMatrixCS,doug_lea_allocator>::TNode * *,bool (__cdecl*)(FixedMAP<IDirect3DPixelShader9 *,R_dsgraph::mapMatrixCS,doug_lea_allocator>::TNode *,FixedMAP<IDirect3DPixelShader9 *,R_dsgraph::mapMatrixCS,doug_lea_allocator>::TNode *)>
PUBLIC	??$_Insertion_sort_unchecked@PAPAUTNode@?$FixedMAP@PAUIDirect3DPixelShader9@@UmapMatrixCS@R_dsgraph@@Udoug_lea_allocator@@@@P6A_NPAU12@0@Z@std@@YAPAPAUTNode@?$FixedMAP@PAUIDirect3DPixelShader9@@UmapMatrixCS@R_dsgraph@@Udoug_lea_allocator@@@@QAPAU12@0P6A_NPAU12@1@Z@Z ; std::_Insertion_sort_unchecked<FixedMAP<IDirect3DPixelShader9 *,R_dsgraph::mapMatrixCS,doug_lea_allocator>::TNode * *,bool (__cdecl*)(FixedMAP<IDirect3DPixelShader9 *,R_dsgraph::mapMatrixCS,doug_lea_allocator>::TNode *,FixedMAP<IDirect3DPixelShader9 *,R_dsgraph::mapMatrixCS,doug_lea_allocator>::TNode *)>
PUBLIC	??$_Partition_by_median_guess_unchecked@PAPAUTNode@?$FixedMAP@PAUIDirect3DVertexShader9@@UmapMatrixPS@R_dsgraph@@Udoug_lea_allocator@@@@P6A_NPAU12@0@Z@std@@YA?AU?$pair@PAPAUTNode@?$FixedMAP@PAUIDirect3DVertexShader9@@UmapMatrixPS@R_dsgraph@@Udoug_lea_allocator@@@@PAPAU12@@0@PAPAUTNode@?$FixedMAP@PAUIDirect3DVertexShader9@@UmapMatrixPS@R_dsgraph@@Udoug_lea_allocator@@@@0P6A_NPAU23@1@Z@Z ; std::_Partition_by_median_guess_unchecked<FixedMAP<IDirect3DVertexShader9 *,R_dsgraph::mapMatrixPS,doug_lea_allocator>::TNode * *,bool (__cdecl*)(FixedMAP<IDirect3DVertexShader9 *,R_dsgraph::mapMatrixPS,doug_lea_allocator>::TNode *,FixedMAP<IDirect3DVertexShader9 *,R_dsgraph::mapMatrixPS,doug_lea_allocator>::TNode *)>
PUBLIC	??$_Sort_heap_unchecked@PAPAUTNode@?$FixedMAP@PAUIDirect3DVertexShader9@@UmapMatrixPS@R_dsgraph@@Udoug_lea_allocator@@@@P6A_NPAU12@0@Z@std@@YAXPAPAUTNode@?$FixedMAP@PAUIDirect3DVertexShader9@@UmapMatrixPS@R_dsgraph@@Udoug_lea_allocator@@@@0P6A_NPAU12@1@Z@Z ; std::_Sort_heap_unchecked<FixedMAP<IDirect3DVertexShader9 *,R_dsgraph::mapMatrixPS,doug_lea_allocator>::TNode * *,bool (__cdecl*)(FixedMAP<IDirect3DVertexShader9 *,R_dsgraph::mapMatrixPS,doug_lea_allocator>::TNode *,FixedMAP<IDirect3DVertexShader9 *,R_dsgraph::mapMatrixPS,doug_lea_allocator>::TNode *)>
PUBLIC	??$_Make_heap_unchecked@PAPAUTNode@?$FixedMAP@PAUIDirect3DVertexShader9@@UmapMatrixPS@R_dsgraph@@Udoug_lea_allocator@@@@P6A_NPAU12@0@Z@std@@YAXPAPAUTNode@?$FixedMAP@PAUIDirect3DVertexShader9@@UmapMatrixPS@R_dsgraph@@Udoug_lea_allocator@@@@0P6A_NPAU12@1@Z@Z ; std::_Make_heap_unchecked<FixedMAP<IDirect3DVertexShader9 *,R_dsgraph::mapMatrixPS,doug_lea_allocator>::TNode * *,bool (__cdecl*)(FixedMAP<IDirect3DVertexShader9 *,R_dsgraph::mapMatrixPS,doug_lea_allocator>::TNode *,FixedMAP<IDirect3DVertexShader9 *,R_dsgraph::mapMatrixPS,doug_lea_allocator>::TNode *)>
PUBLIC	??$_Insertion_sort_unchecked@PAPAUTNode@?$FixedMAP@PAUIDirect3DVertexShader9@@UmapMatrixPS@R_dsgraph@@Udoug_lea_allocator@@@@P6A_NPAU12@0@Z@std@@YAPAPAUTNode@?$FixedMAP@PAUIDirect3DVertexShader9@@UmapMatrixPS@R_dsgraph@@Udoug_lea_allocator@@@@QAPAU12@0P6A_NPAU12@1@Z@Z ; std::_Insertion_sort_unchecked<FixedMAP<IDirect3DVertexShader9 *,R_dsgraph::mapMatrixPS,doug_lea_allocator>::TNode * *,bool (__cdecl*)(FixedMAP<IDirect3DVertexShader9 *,R_dsgraph::mapMatrixPS,doug_lea_allocator>::TNode *,FixedMAP<IDirect3DVertexShader9 *,R_dsgraph::mapMatrixPS,doug_lea_allocator>::TNode *)>
PUBLIC	??$_Partition_by_median_guess_unchecked@PAPAUTNode@?$FixedMAP@PAUIDirect3DStateBlock9@@UmapNormalTextures@R_dsgraph@@Udoug_lea_allocator@@@@P6A_NPAU12@0@Z@std@@YA?AU?$pair@PAPAUTNode@?$FixedMAP@PAUIDirect3DStateBlock9@@UmapNormalTextures@R_dsgraph@@Udoug_lea_allocator@@@@PAPAU12@@0@PAPAUTNode@?$FixedMAP@PAUIDirect3DStateBlock9@@UmapNormalTextures@R_dsgraph@@Udoug_lea_allocator@@@@0P6A_NPAU23@1@Z@Z ; std::_Partition_by_median_guess_unchecked<FixedMAP<IDirect3DStateBlock9 *,R_dsgraph::mapNormalTextures,doug_lea_allocator>::TNode * *,bool (__cdecl*)(FixedMAP<IDirect3DStateBlock9 *,R_dsgraph::mapNormalTextures,doug_lea_allocator>::TNode *,FixedMAP<IDirect3DStateBlock9 *,R_dsgraph::mapNormalTextures,doug_lea_allocator>::TNode *)>
PUBLIC	??$_Sort_heap_unchecked@PAPAUTNode@?$FixedMAP@PAUIDirect3DStateBlock9@@UmapNormalTextures@R_dsgraph@@Udoug_lea_allocator@@@@P6A_NPAU12@0@Z@std@@YAXPAPAUTNode@?$FixedMAP@PAUIDirect3DStateBlock9@@UmapNormalTextures@R_dsgraph@@Udoug_lea_allocator@@@@0P6A_NPAU12@1@Z@Z ; std::_Sort_heap_unchecked<FixedMAP<IDirect3DStateBlock9 *,R_dsgraph::mapNormalTextures,doug_lea_allocator>::TNode * *,bool (__cdecl*)(FixedMAP<IDirect3DStateBlock9 *,R_dsgraph::mapNormalTextures,doug_lea_allocator>::TNode *,FixedMAP<IDirect3DStateBlock9 *,R_dsgraph::mapNormalTextures,doug_lea_allocator>::TNode *)>
PUBLIC	??$_Make_heap_unchecked@PAPAUTNode@?$FixedMAP@PAUIDirect3DStateBlock9@@UmapNormalTextures@R_dsgraph@@Udoug_lea_allocator@@@@P6A_NPAU12@0@Z@std@@YAXPAPAUTNode@?$FixedMAP@PAUIDirect3DStateBlock9@@UmapNormalTextures@R_dsgraph@@Udoug_lea_allocator@@@@0P6A_NPAU12@1@Z@Z ; std::_Make_heap_unchecked<FixedMAP<IDirect3DStateBlock9 *,R_dsgraph::mapNormalTextures,doug_lea_allocator>::TNode * *,bool (__cdecl*)(FixedMAP<IDirect3DStateBlock9 *,R_dsgraph::mapNormalTextures,doug_lea_allocator>::TNode *,FixedMAP<IDirect3DStateBlock9 *,R_dsgraph::mapNormalTextures,doug_lea_allocator>::TNode *)>
PUBLIC	??$_Insertion_sort_unchecked@PAPAUTNode@?$FixedMAP@PAUIDirect3DStateBlock9@@UmapNormalTextures@R_dsgraph@@Udoug_lea_allocator@@@@P6A_NPAU12@0@Z@std@@YAPAPAUTNode@?$FixedMAP@PAUIDirect3DStateBlock9@@UmapNormalTextures@R_dsgraph@@Udoug_lea_allocator@@@@QAPAU12@0P6A_NPAU12@1@Z@Z ; std::_Insertion_sort_unchecked<FixedMAP<IDirect3DStateBlock9 *,R_dsgraph::mapNormalTextures,doug_lea_allocator>::TNode * *,bool (__cdecl*)(FixedMAP<IDirect3DStateBlock9 *,R_dsgraph::mapNormalTextures,doug_lea_allocator>::TNode *,FixedMAP<IDirect3DStateBlock9 *,R_dsgraph::mapNormalTextures,doug_lea_allocator>::TNode *)>
PUBLIC	??$_Partition_by_median_guess_unchecked@PAPAUTNode@?$FixedMAP@PAVR_constant_table@@UmapNormalStates@R_dsgraph@@Udoug_lea_allocator@@@@P6A_NPAU12@0@Z@std@@YA?AU?$pair@PAPAUTNode@?$FixedMAP@PAVR_constant_table@@UmapNormalStates@R_dsgraph@@Udoug_lea_allocator@@@@PAPAU12@@0@PAPAUTNode@?$FixedMAP@PAVR_constant_table@@UmapNormalStates@R_dsgraph@@Udoug_lea_allocator@@@@0P6A_NPAU23@1@Z@Z ; std::_Partition_by_median_guess_unchecked<FixedMAP<R_constant_table *,R_dsgraph::mapNormalStates,doug_lea_allocator>::TNode * *,bool (__cdecl*)(FixedMAP<R_constant_table *,R_dsgraph::mapNormalStates,doug_lea_allocator>::TNode *,FixedMAP<R_constant_table *,R_dsgraph::mapNormalStates,doug_lea_allocator>::TNode *)>
PUBLIC	??$_Sort_heap_unchecked@PAPAUTNode@?$FixedMAP@PAVR_constant_table@@UmapNormalStates@R_dsgraph@@Udoug_lea_allocator@@@@P6A_NPAU12@0@Z@std@@YAXPAPAUTNode@?$FixedMAP@PAVR_constant_table@@UmapNormalStates@R_dsgraph@@Udoug_lea_allocator@@@@0P6A_NPAU12@1@Z@Z ; std::_Sort_heap_unchecked<FixedMAP<R_constant_table *,R_dsgraph::mapNormalStates,doug_lea_allocator>::TNode * *,bool (__cdecl*)(FixedMAP<R_constant_table *,R_dsgraph::mapNormalStates,doug_lea_allocator>::TNode *,FixedMAP<R_constant_table *,R_dsgraph::mapNormalStates,doug_lea_allocator>::TNode *)>
PUBLIC	??$_Make_heap_unchecked@PAPAUTNode@?$FixedMAP@PAVR_constant_table@@UmapNormalStates@R_dsgraph@@Udoug_lea_allocator@@@@P6A_NPAU12@0@Z@std@@YAXPAPAUTNode@?$FixedMAP@PAVR_constant_table@@UmapNormalStates@R_dsgraph@@Udoug_lea_allocator@@@@0P6A_NPAU12@1@Z@Z ; std::_Make_heap_unchecked<FixedMAP<R_constant_table *,R_dsgraph::mapNormalStates,doug_lea_allocator>::TNode * *,bool (__cdecl*)(FixedMAP<R_constant_table *,R_dsgraph::mapNormalStates,doug_lea_allocator>::TNode *,FixedMAP<R_constant_table *,R_dsgraph::mapNormalStates,doug_lea_allocator>::TNode *)>
PUBLIC	??$_Insertion_sort_unchecked@PAPAUTNode@?$FixedMAP@PAVR_constant_table@@UmapNormalStates@R_dsgraph@@Udoug_lea_allocator@@@@P6A_NPAU12@0@Z@std@@YAPAPAUTNode@?$FixedMAP@PAVR_constant_table@@UmapNormalStates@R_dsgraph@@Udoug_lea_allocator@@@@QAPAU12@0P6A_NPAU12@1@Z@Z ; std::_Insertion_sort_unchecked<FixedMAP<R_constant_table *,R_dsgraph::mapNormalStates,doug_lea_allocator>::TNode * *,bool (__cdecl*)(FixedMAP<R_constant_table *,R_dsgraph::mapNormalStates,doug_lea_allocator>::TNode *,FixedMAP<R_constant_table *,R_dsgraph::mapNormalStates,doug_lea_allocator>::TNode *)>
PUBLIC	??$_Partition_by_median_guess_unchecked@PAPAUTNode@?$FixedMAP@PAUIDirect3DPixelShader9@@UmapNormalCS@R_dsgraph@@Udoug_lea_allocator@@@@P6A_NPAU12@0@Z@std@@YA?AU?$pair@PAPAUTNode@?$FixedMAP@PAUIDirect3DPixelShader9@@UmapNormalCS@R_dsgraph@@Udoug_lea_allocator@@@@PAPAU12@@0@PAPAUTNode@?$FixedMAP@PAUIDirect3DPixelShader9@@UmapNormalCS@R_dsgraph@@Udoug_lea_allocator@@@@0P6A_NPAU23@1@Z@Z ; std::_Partition_by_median_guess_unchecked<FixedMAP<IDirect3DPixelShader9 *,R_dsgraph::mapNormalCS,doug_lea_allocator>::TNode * *,bool (__cdecl*)(FixedMAP<IDirect3DPixelShader9 *,R_dsgraph::mapNormalCS,doug_lea_allocator>::TNode *,FixedMAP<IDirect3DPixelShader9 *,R_dsgraph::mapNormalCS,doug_lea_allocator>::TNode *)>
PUBLIC	??$_Sort_heap_unchecked@PAPAUTNode@?$FixedMAP@PAUIDirect3DPixelShader9@@UmapNormalCS@R_dsgraph@@Udoug_lea_allocator@@@@P6A_NPAU12@0@Z@std@@YAXPAPAUTNode@?$FixedMAP@PAUIDirect3DPixelShader9@@UmapNormalCS@R_dsgraph@@Udoug_lea_allocator@@@@0P6A_NPAU12@1@Z@Z ; std::_Sort_heap_unchecked<FixedMAP<IDirect3DPixelShader9 *,R_dsgraph::mapNormalCS,doug_lea_allocator>::TNode * *,bool (__cdecl*)(FixedMAP<IDirect3DPixelShader9 *,R_dsgraph::mapNormalCS,doug_lea_allocator>::TNode *,FixedMAP<IDirect3DPixelShader9 *,R_dsgraph::mapNormalCS,doug_lea_allocator>::TNode *)>
PUBLIC	??$_Make_heap_unchecked@PAPAUTNode@?$FixedMAP@PAUIDirect3DPixelShader9@@UmapNormalCS@R_dsgraph@@Udoug_lea_allocator@@@@P6A_NPAU12@0@Z@std@@YAXPAPAUTNode@?$FixedMAP@PAUIDirect3DPixelShader9@@UmapNormalCS@R_dsgraph@@Udoug_lea_allocator@@@@0P6A_NPAU12@1@Z@Z ; std::_Make_heap_unchecked<FixedMAP<IDirect3DPixelShader9 *,R_dsgraph::mapNormalCS,doug_lea_allocator>::TNode * *,bool (__cdecl*)(FixedMAP<IDirect3DPixelShader9 *,R_dsgraph::mapNormalCS,doug_lea_allocator>::TNode *,FixedMAP<IDirect3DPixelShader9 *,R_dsgraph::mapNormalCS,doug_lea_allocator>::TNode *)>
PUBLIC	??$_Insertion_sort_unchecked@PAPAUTNode@?$FixedMAP@PAUIDirect3DPixelShader9@@UmapNormalCS@R_dsgraph@@Udoug_lea_allocator@@@@P6A_NPAU12@0@Z@std@@YAPAPAUTNode@?$FixedMAP@PAUIDirect3DPixelShader9@@UmapNormalCS@R_dsgraph@@Udoug_lea_allocator@@@@QAPAU12@0P6A_NPAU12@1@Z@Z ; std::_Insertion_sort_unchecked<FixedMAP<IDirect3DPixelShader9 *,R_dsgraph::mapNormalCS,doug_lea_allocator>::TNode * *,bool (__cdecl*)(FixedMAP<IDirect3DPixelShader9 *,R_dsgraph::mapNormalCS,doug_lea_allocator>::TNode *,FixedMAP<IDirect3DPixelShader9 *,R_dsgraph::mapNormalCS,doug_lea_allocator>::TNode *)>
PUBLIC	??$_Partition_by_median_guess_unchecked@PAPAUTNode@?$FixedMAP@PAUIDirect3DVertexShader9@@UmapNormalPS@R_dsgraph@@Udoug_lea_allocator@@@@P6A_NPAU12@0@Z@std@@YA?AU?$pair@PAPAUTNode@?$FixedMAP@PAUIDirect3DVertexShader9@@UmapNormalPS@R_dsgraph@@Udoug_lea_allocator@@@@PAPAU12@@0@PAPAUTNode@?$FixedMAP@PAUIDirect3DVertexShader9@@UmapNormalPS@R_dsgraph@@Udoug_lea_allocator@@@@0P6A_NPAU23@1@Z@Z ; std::_Partition_by_median_guess_unchecked<FixedMAP<IDirect3DVertexShader9 *,R_dsgraph::mapNormalPS,doug_lea_allocator>::TNode * *,bool (__cdecl*)(FixedMAP<IDirect3DVertexShader9 *,R_dsgraph::mapNormalPS,doug_lea_allocator>::TNode *,FixedMAP<IDirect3DVertexShader9 *,R_dsgraph::mapNormalPS,doug_lea_allocator>::TNode *)>
PUBLIC	??$_Sort_heap_unchecked@PAPAUTNode@?$FixedMAP@PAUIDirect3DVertexShader9@@UmapNormalPS@R_dsgraph@@Udoug_lea_allocator@@@@P6A_NPAU12@0@Z@std@@YAXPAPAUTNode@?$FixedMAP@PAUIDirect3DVertexShader9@@UmapNormalPS@R_dsgraph@@Udoug_lea_allocator@@@@0P6A_NPAU12@1@Z@Z ; std::_Sort_heap_unchecked<FixedMAP<IDirect3DVertexShader9 *,R_dsgraph::mapNormalPS,doug_lea_allocator>::TNode * *,bool (__cdecl*)(FixedMAP<IDirect3DVertexShader9 *,R_dsgraph::mapNormalPS,doug_lea_allocator>::TNode *,FixedMAP<IDirect3DVertexShader9 *,R_dsgraph::mapNormalPS,doug_lea_allocator>::TNode *)>
PUBLIC	??$_Make_heap_unchecked@PAPAUTNode@?$FixedMAP@PAUIDirect3DVertexShader9@@UmapNormalPS@R_dsgraph@@Udoug_lea_allocator@@@@P6A_NPAU12@0@Z@std@@YAXPAPAUTNode@?$FixedMAP@PAUIDirect3DVertexShader9@@UmapNormalPS@R_dsgraph@@Udoug_lea_allocator@@@@0P6A_NPAU12@1@Z@Z ; std::_Make_heap_unchecked<FixedMAP<IDirect3DVertexShader9 *,R_dsgraph::mapNormalPS,doug_lea_allocator>::TNode * *,bool (__cdecl*)(FixedMAP<IDirect3DVertexShader9 *,R_dsgraph::mapNormalPS,doug_lea_allocator>::TNode *,FixedMAP<IDirect3DVertexShader9 *,R_dsgraph::mapNormalPS,doug_lea_allocator>::TNode *)>
PUBLIC	??$_Insertion_sort_unchecked@PAPAUTNode@?$FixedMAP@PAUIDirect3DVertexShader9@@UmapNormalPS@R_dsgraph@@Udoug_lea_allocator@@@@P6A_NPAU12@0@Z@std@@YAPAPAUTNode@?$FixedMAP@PAUIDirect3DVertexShader9@@UmapNormalPS@R_dsgraph@@Udoug_lea_allocator@@@@QAPAU12@0P6A_NPAU12@1@Z@Z ; std::_Insertion_sort_unchecked<FixedMAP<IDirect3DVertexShader9 *,R_dsgraph::mapNormalPS,doug_lea_allocator>::TNode * *,bool (__cdecl*)(FixedMAP<IDirect3DVertexShader9 *,R_dsgraph::mapNormalPS,doug_lea_allocator>::TNode *,FixedMAP<IDirect3DVertexShader9 *,R_dsgraph::mapNormalPS,doug_lea_allocator>::TNode *)>
PUBLIC	??$_Move_unchecked@PAPAUTNode@?$FixedMAP@PAUSTextureList@@UmapMatrixItems@R_dsgraph@@Udoug_lea_allocator@@@@PAPAU12@@std@@YAPAPAUTNode@?$FixedMAP@PAUSTextureList@@UmapMatrixItems@R_dsgraph@@Udoug_lea_allocator@@@@PAPAU12@00@Z ; std::_Move_unchecked<FixedMAP<STextureList *,R_dsgraph::mapMatrixItems,doug_lea_allocator>::TNode * *,FixedMAP<STextureList *,R_dsgraph::mapMatrixItems,doug_lea_allocator>::TNode * *>
PUBLIC	??$_Move_backward_unchecked@PAPAUTNode@?$FixedMAP@PAUSTextureList@@UmapMatrixItems@R_dsgraph@@Udoug_lea_allocator@@@@PAPAU12@@std@@YAPAPAUTNode@?$FixedMAP@PAUSTextureList@@UmapMatrixItems@R_dsgraph@@Udoug_lea_allocator@@@@PAPAU12@00@Z ; std::_Move_backward_unchecked<FixedMAP<STextureList *,R_dsgraph::mapMatrixItems,doug_lea_allocator>::TNode * *,FixedMAP<STextureList *,R_dsgraph::mapMatrixItems,doug_lea_allocator>::TNode * *>
PUBLIC	??$_Ucopy@PAPAUTNode@?$FixedMAP@PAUSTextureList@@UmapMatrixItems@R_dsgraph@@Udoug_lea_allocator@@@@@?$vector@PAUTNode@?$FixedMAP@PAUSTextureList@@UmapMatrixItems@R_dsgraph@@Udoug_lea_allocator@@@@V?$doug_lea_alloc@PAUTNode@?$FixedMAP@PAUSTextureList@@UmapMatrixItems@R_dsgraph@@Udoug_lea_allocator@@@@@@@std@@AAEPAPAUTNode@?$FixedMAP@PAUSTextureList@@UmapMatrixItems@R_dsgraph@@Udoug_lea_allocator@@@@PAPAU23@00@Z ; std::vector<FixedMAP<STextureList *,R_dsgraph::mapMatrixItems,doug_lea_allocator>::TNode *,doug_lea_alloc<FixedMAP<STextureList *,R_dsgraph::mapMatrixItems,doug_lea_allocator>::TNode *> >::_Ucopy<FixedMAP<STextureList *,R_dsgraph::mapMatrixItems,doug_lea_allocator>::TNode * *>
PUBLIC	??$distance@PAPAUTNode@?$FixedMAP@PAUSTextureList@@UmapMatrixItems@R_dsgraph@@Udoug_lea_allocator@@@@@std@@YAHPAPAUTNode@?$FixedMAP@PAUSTextureList@@UmapMatrixItems@R_dsgraph@@Udoug_lea_allocator@@@@0@Z ; std::distance<FixedMAP<STextureList *,R_dsgraph::mapMatrixItems,doug_lea_allocator>::TNode * *>
PUBLIC	??$_Partition_by_median_guess_unchecked@PAPAUTNode@?$FixedMAP@PAUSTextureList@@UmapMatrixItems@R_dsgraph@@Udoug_lea_allocator@@@@P6A_NPAU12@0@Z@std@@YA?AU?$pair@PAPAUTNode@?$FixedMAP@PAUSTextureList@@UmapMatrixItems@R_dsgraph@@Udoug_lea_allocator@@@@PAPAU12@@0@PAPAUTNode@?$FixedMAP@PAUSTextureList@@UmapMatrixItems@R_dsgraph@@Udoug_lea_allocator@@@@0P6A_NPAU23@1@Z@Z ; std::_Partition_by_median_guess_unchecked<FixedMAP<STextureList *,R_dsgraph::mapMatrixItems,doug_lea_allocator>::TNode * *,bool (__cdecl*)(FixedMAP<STextureList *,R_dsgraph::mapMatrixItems,doug_lea_allocator>::TNode *,FixedMAP<STextureList *,R_dsgraph::mapMatrixItems,doug_lea_allocator>::TNode *)>
PUBLIC	??$_Sort_heap_unchecked@PAPAUTNode@?$FixedMAP@PAUSTextureList@@UmapMatrixItems@R_dsgraph@@Udoug_lea_allocator@@@@P6A_NPAU12@0@Z@std@@YAXPAPAUTNode@?$FixedMAP@PAUSTextureList@@UmapMatrixItems@R_dsgraph@@Udoug_lea_allocator@@@@0P6A_NPAU12@1@Z@Z ; std::_Sort_heap_unchecked<FixedMAP<STextureList *,R_dsgraph::mapMatrixItems,doug_lea_allocator>::TNode * *,bool (__cdecl*)(FixedMAP<STextureList *,R_dsgraph::mapMatrixItems,doug_lea_allocator>::TNode *,FixedMAP<STextureList *,R_dsgraph::mapMatrixItems,doug_lea_allocator>::TNode *)>
PUBLIC	??$_Make_heap_unchecked@PAPAUTNode@?$FixedMAP@PAUSTextureList@@UmapMatrixItems@R_dsgraph@@Udoug_lea_allocator@@@@P6A_NPAU12@0@Z@std@@YAXPAPAUTNode@?$FixedMAP@PAUSTextureList@@UmapMatrixItems@R_dsgraph@@Udoug_lea_allocator@@@@0P6A_NPAU12@1@Z@Z ; std::_Make_heap_unchecked<FixedMAP<STextureList *,R_dsgraph::mapMatrixItems,doug_lea_allocator>::TNode * *,bool (__cdecl*)(FixedMAP<STextureList *,R_dsgraph::mapMatrixItems,doug_lea_allocator>::TNode *,FixedMAP<STextureList *,R_dsgraph::mapMatrixItems,doug_lea_allocator>::TNode *)>
PUBLIC	??$_Insertion_sort_unchecked@PAPAUTNode@?$FixedMAP@PAUSTextureList@@UmapMatrixItems@R_dsgraph@@Udoug_lea_allocator@@@@P6A_NPAU12@0@Z@std@@YAPAPAUTNode@?$FixedMAP@PAUSTextureList@@UmapMatrixItems@R_dsgraph@@Udoug_lea_allocator@@@@QAPAU12@0P6A_NPAU12@1@Z@Z ; std::_Insertion_sort_unchecked<FixedMAP<STextureList *,R_dsgraph::mapMatrixItems,doug_lea_allocator>::TNode * *,bool (__cdecl*)(FixedMAP<STextureList *,R_dsgraph::mapMatrixItems,doug_lea_allocator>::TNode *,FixedMAP<STextureList *,R_dsgraph::mapMatrixItems,doug_lea_allocator>::TNode *)>
PUBLIC	??$_Move_unchecked@PAPAUTNode@?$FixedMAP@PAUSTextureList@@UmapNormalItems@R_dsgraph@@Udoug_lea_allocator@@@@PAPAU12@@std@@YAPAPAUTNode@?$FixedMAP@PAUSTextureList@@UmapNormalItems@R_dsgraph@@Udoug_lea_allocator@@@@PAPAU12@00@Z ; std::_Move_unchecked<FixedMAP<STextureList *,R_dsgraph::mapNormalItems,doug_lea_allocator>::TNode * *,FixedMAP<STextureList *,R_dsgraph::mapNormalItems,doug_lea_allocator>::TNode * *>
PUBLIC	??$_Move_backward_unchecked@PAPAUTNode@?$FixedMAP@PAUSTextureList@@UmapNormalItems@R_dsgraph@@Udoug_lea_allocator@@@@PAPAU12@@std@@YAPAPAUTNode@?$FixedMAP@PAUSTextureList@@UmapNormalItems@R_dsgraph@@Udoug_lea_allocator@@@@PAPAU12@00@Z ; std::_Move_backward_unchecked<FixedMAP<STextureList *,R_dsgraph::mapNormalItems,doug_lea_allocator>::TNode * *,FixedMAP<STextureList *,R_dsgraph::mapNormalItems,doug_lea_allocator>::TNode * *>
PUBLIC	??$_Ucopy@PAPAUTNode@?$FixedMAP@PAUSTextureList@@UmapNormalItems@R_dsgraph@@Udoug_lea_allocator@@@@@?$vector@PAUTNode@?$FixedMAP@PAUSTextureList@@UmapNormalItems@R_dsgraph@@Udoug_lea_allocator@@@@V?$doug_lea_alloc@PAUTNode@?$FixedMAP@PAUSTextureList@@UmapNormalItems@R_dsgraph@@Udoug_lea_allocator@@@@@@@std@@AAEPAPAUTNode@?$FixedMAP@PAUSTextureList@@UmapNormalItems@R_dsgraph@@Udoug_lea_allocator@@@@PAPAU23@00@Z ; std::vector<FixedMAP<STextureList *,R_dsgraph::mapNormalItems,doug_lea_allocator>::TNode *,doug_lea_alloc<FixedMAP<STextureList *,R_dsgraph::mapNormalItems,doug_lea_allocator>::TNode *> >::_Ucopy<FixedMAP<STextureList *,R_dsgraph::mapNormalItems,doug_lea_allocator>::TNode * *>
PUBLIC	??$distance@PAPAUTNode@?$FixedMAP@PAUSTextureList@@UmapNormalItems@R_dsgraph@@Udoug_lea_allocator@@@@@std@@YAHPAPAUTNode@?$FixedMAP@PAUSTextureList@@UmapNormalItems@R_dsgraph@@Udoug_lea_allocator@@@@0@Z ; std::distance<FixedMAP<STextureList *,R_dsgraph::mapNormalItems,doug_lea_allocator>::TNode * *>
PUBLIC	??$_Partition_by_median_guess_unchecked@PAPAUTNode@?$FixedMAP@PAUSTextureList@@UmapNormalItems@R_dsgraph@@Udoug_lea_allocator@@@@P6A_NPAU12@0@Z@std@@YA?AU?$pair@PAPAUTNode@?$FixedMAP@PAUSTextureList@@UmapNormalItems@R_dsgraph@@Udoug_lea_allocator@@@@PAPAU12@@0@PAPAUTNode@?$FixedMAP@PAUSTextureList@@UmapNormalItems@R_dsgraph@@Udoug_lea_allocator@@@@0P6A_NPAU23@1@Z@Z ; std::_Partition_by_median_guess_unchecked<FixedMAP<STextureList *,R_dsgraph::mapNormalItems,doug_lea_allocator>::TNode * *,bool (__cdecl*)(FixedMAP<STextureList *,R_dsgraph::mapNormalItems,doug_lea_allocator>::TNode *,FixedMAP<STextureList *,R_dsgraph::mapNormalItems,doug_lea_allocator>::TNode *)>
PUBLIC	??$_Sort_heap_unchecked@PAPAUTNode@?$FixedMAP@PAUSTextureList@@UmapNormalItems@R_dsgraph@@Udoug_lea_allocator@@@@P6A_NPAU12@0@Z@std@@YAXPAPAUTNode@?$FixedMAP@PAUSTextureList@@UmapNormalItems@R_dsgraph@@Udoug_lea_allocator@@@@0P6A_NPAU12@1@Z@Z ; std::_Sort_heap_unchecked<FixedMAP<STextureList *,R_dsgraph::mapNormalItems,doug_lea_allocator>::TNode * *,bool (__cdecl*)(FixedMAP<STextureList *,R_dsgraph::mapNormalItems,doug_lea_allocator>::TNode *,FixedMAP<STextureList *,R_dsgraph::mapNormalItems,doug_lea_allocator>::TNode *)>
PUBLIC	??$_Make_heap_unchecked@PAPAUTNode@?$FixedMAP@PAUSTextureList@@UmapNormalItems@R_dsgraph@@Udoug_lea_allocator@@@@P6A_NPAU12@0@Z@std@@YAXPAPAUTNode@?$FixedMAP@PAUSTextureList@@UmapNormalItems@R_dsgraph@@Udoug_lea_allocator@@@@0P6A_NPAU12@1@Z@Z ; std::_Make_heap_unchecked<FixedMAP<STextureList *,R_dsgraph::mapNormalItems,doug_lea_allocator>::TNode * *,bool (__cdecl*)(FixedMAP<STextureList *,R_dsgraph::mapNormalItems,doug_lea_allocator>::TNode *,FixedMAP<STextureList *,R_dsgraph::mapNormalItems,doug_lea_allocator>::TNode *)>
PUBLIC	??$_Insertion_sort_unchecked@PAPAUTNode@?$FixedMAP@PAUSTextureList@@UmapNormalItems@R_dsgraph@@Udoug_lea_allocator@@@@P6A_NPAU12@0@Z@std@@YAPAPAUTNode@?$FixedMAP@PAUSTextureList@@UmapNormalItems@R_dsgraph@@Udoug_lea_allocator@@@@QAPAU12@0P6A_NPAU12@1@Z@Z ; std::_Insertion_sort_unchecked<FixedMAP<STextureList *,R_dsgraph::mapNormalItems,doug_lea_allocator>::TNode * *,bool (__cdecl*)(FixedMAP<STextureList *,R_dsgraph::mapNormalItems,doug_lea_allocator>::TNode *,FixedMAP<STextureList *,R_dsgraph::mapNormalItems,doug_lea_allocator>::TNode *)>
PUBLIC	??$_Lex_compare_unchecked@PAU?$pair@IV?$resptr_core@VCTexture@@Uresptrcode_texture@@@@@std@@PAU12@U?$less@X@2@@std@@YA_NPAU?$pair@IV?$resptr_core@VCTexture@@Uresptrcode_texture@@@@@0@000U?$less@X@0@U?$_Lex_compare_optimize@X@0@@Z ; std::_Lex_compare_unchecked<std::pair<unsigned int,resptr_core<CTexture,resptrcode_texture> > *,std::pair<unsigned int,resptr_core<CTexture,resptrcode_texture> > *,std::less<void> >
PUBLIC	??$_Adl_verify_range@V?$_Vector_iterator@V?$_Vector_val@U?$_Simple_types@U?$pair@IV?$resptr_core@VCTexture@@Uresptrcode_texture@@@@@std@@@std@@@std@@@std@@V12@@std@@YAXABV?$_Vector_iterator@V?$_Vector_val@U?$_Simple_types@U?$pair@IV?$resptr_core@VCTexture@@Uresptrcode_texture@@@@@std@@@std@@@std@@@0@0@Z ; std::_Adl_verify_range<std::_Vector_iterator<std::_Vector_val<std::_Simple_types<std::pair<unsigned int,resptr_core<CTexture,resptrcode_texture> > > > >,std::_Vector_iterator<std::_Vector_val<std::_Simple_types<std::pair<unsigned int,resptr_core<CTexture,resptrcode_texture> > > > > >
PUBLIC	??$_Partition_by_median_guess_unchecked@PAU_MatrixItem@R_dsgraph@@P6A_NABU12@0@Z@std@@YA?AU?$pair@PAU_MatrixItem@R_dsgraph@@PAU12@@0@PAU_MatrixItem@R_dsgraph@@0P6A_NABU23@1@Z@Z ; std::_Partition_by_median_guess_unchecked<R_dsgraph::_MatrixItem *,bool (__cdecl*)(R_dsgraph::_MatrixItem const &,R_dsgraph::_MatrixItem const &)>
PUBLIC	??$_Sort_heap_unchecked@PAU_MatrixItem@R_dsgraph@@P6A_NABU12@0@Z@std@@YAXPAU_MatrixItem@R_dsgraph@@0P6A_NABU12@1@Z@Z ; std::_Sort_heap_unchecked<R_dsgraph::_MatrixItem *,bool (__cdecl*)(R_dsgraph::_MatrixItem const &,R_dsgraph::_MatrixItem const &)>
PUBLIC	??$_Make_heap_unchecked@PAU_MatrixItem@R_dsgraph@@P6A_NABU12@0@Z@std@@YAXPAU_MatrixItem@R_dsgraph@@0P6A_NABU12@1@Z@Z ; std::_Make_heap_unchecked<R_dsgraph::_MatrixItem *,bool (__cdecl*)(R_dsgraph::_MatrixItem const &,R_dsgraph::_MatrixItem const &)>
PUBLIC	??$_Insertion_sort_unchecked@PAU_MatrixItem@R_dsgraph@@P6A_NABU12@0@Z@std@@YAPAU_MatrixItem@R_dsgraph@@QAU12@0P6A_NABU12@1@Z@Z ; std::_Insertion_sort_unchecked<R_dsgraph::_MatrixItem *,bool (__cdecl*)(R_dsgraph::_MatrixItem const &,R_dsgraph::_MatrixItem const &)>
PUBLIC	??$_Partition_by_median_guess_unchecked@PAU_NormalItem@R_dsgraph@@P6A_NABU12@0@Z@std@@YA?AU?$pair@PAU_NormalItem@R_dsgraph@@PAU12@@0@PAU_NormalItem@R_dsgraph@@0P6A_NABU23@1@Z@Z ; std::_Partition_by_median_guess_unchecked<R_dsgraph::_NormalItem *,bool (__cdecl*)(R_dsgraph::_NormalItem const &,R_dsgraph::_NormalItem const &)>
PUBLIC	??$_Sort_heap_unchecked@PAU_NormalItem@R_dsgraph@@P6A_NABU12@0@Z@std@@YAXPAU_NormalItem@R_dsgraph@@0P6A_NABU12@1@Z@Z ; std::_Sort_heap_unchecked<R_dsgraph::_NormalItem *,bool (__cdecl*)(R_dsgraph::_NormalItem const &,R_dsgraph::_NormalItem const &)>
PUBLIC	??$_Make_heap_unchecked@PAU_NormalItem@R_dsgraph@@P6A_NABU12@0@Z@std@@YAXPAU_NormalItem@R_dsgraph@@0P6A_NABU12@1@Z@Z ; std::_Make_heap_unchecked<R_dsgraph::_NormalItem *,bool (__cdecl*)(R_dsgraph::_NormalItem const &,R_dsgraph::_NormalItem const &)>
PUBLIC	??$_Insertion_sort_unchecked@PAU_NormalItem@R_dsgraph@@P6A_NABU12@0@Z@std@@YAPAU_NormalItem@R_dsgraph@@QAU12@0P6A_NABU12@1@Z@Z ; std::_Insertion_sort_unchecked<R_dsgraph::_NormalItem *,bool (__cdecl*)(R_dsgraph::_NormalItem const &,R_dsgraph::_NormalItem const &)>
PUBLIC	?max_size@?$doug_lea_alloc@PAUTNode@?$FixedMAP@PAUIDirect3DVertexShader9@@UmapNormalPS@R_dsgraph@@Udoug_lea_allocator@@@@@@QBEIXZ ; doug_lea_alloc<FixedMAP<IDirect3DVertexShader9 *,R_dsgraph::mapNormalPS,doug_lea_allocator>::TNode *>::max_size
PUBLIC	?_Get_first@?$_Compressed_pair@V?$doug_lea_alloc@PAUTNode@?$FixedMAP@PAUIDirect3DVertexShader9@@UmapNormalPS@R_dsgraph@@Udoug_lea_allocator@@@@@@V?$_Vector_val@U?$_Simple_types@PAUTNode@?$FixedMAP@PAUIDirect3DVertexShader9@@UmapNormalPS@R_dsgraph@@Udoug_lea_allocator@@@@@std@@@std@@$00@std@@QBEABV?$doug_lea_alloc@PAUTNode@?$FixedMAP@PAUIDirect3DVertexShader9@@UmapNormalPS@R_dsgraph@@Udoug_lea_allocator@@@@@@XZ ; std::_Compressed_pair<doug_lea_alloc<FixedMAP<IDirect3DVertexShader9 *,R_dsgraph::mapNormalPS,doug_lea_allocator>::TNode *>,std::_Vector_val<std::_Simple_types<FixedMAP<IDirect3DVertexShader9 *,R_dsgraph::mapNormalPS,doug_lea_allocator>::TNode *> >,1>::_Get_first
PUBLIC	?max_size@?$doug_lea_alloc@PAUTNode@?$FixedMAP@PAUIDirect3DPixelShader9@@UmapNormalCS@R_dsgraph@@Udoug_lea_allocator@@@@@@QBEIXZ ; doug_lea_alloc<FixedMAP<IDirect3DPixelShader9 *,R_dsgraph::mapNormalCS,doug_lea_allocator>::TNode *>::max_size
PUBLIC	?_Get_first@?$_Compressed_pair@V?$doug_lea_alloc@PAUTNode@?$FixedMAP@PAUIDirect3DPixelShader9@@UmapNormalCS@R_dsgraph@@Udoug_lea_allocator@@@@@@V?$_Vector_val@U?$_Simple_types@PAUTNode@?$FixedMAP@PAUIDirect3DPixelShader9@@UmapNormalCS@R_dsgraph@@Udoug_lea_allocator@@@@@std@@@std@@$00@std@@QBEABV?$doug_lea_alloc@PAUTNode@?$FixedMAP@PAUIDirect3DPixelShader9@@UmapNormalCS@R_dsgraph@@Udoug_lea_allocator@@@@@@XZ ; std::_Compressed_pair<doug_lea_alloc<FixedMAP<IDirect3DPixelShader9 *,R_dsgraph::mapNormalCS,doug_lea_allocator>::TNode *>,std::_Vector_val<std::_Simple_types<FixedMAP<IDirect3DPixelShader9 *,R_dsgraph::mapNormalCS,doug_lea_allocator>::TNode *> >,1>::_Get_first
PUBLIC	?max_size@?$doug_lea_alloc@PAUTNode@?$FixedMAP@PAVR_constant_table@@UmapNormalStates@R_dsgraph@@Udoug_lea_allocator@@@@@@QBEIXZ ; doug_lea_alloc<FixedMAP<R_constant_table *,R_dsgraph::mapNormalStates,doug_lea_allocator>::TNode *>::max_size
PUBLIC	?_Get_first@?$_Compressed_pair@V?$doug_lea_alloc@PAUTNode@?$FixedMAP@PAVR_constant_table@@UmapNormalStates@R_dsgraph@@Udoug_lea_allocator@@@@@@V?$_Vector_val@U?$_Simple_types@PAUTNode@?$FixedMAP@PAVR_constant_table@@UmapNormalStates@R_dsgraph@@Udoug_lea_allocator@@@@@std@@@std@@$00@std@@QBEABV?$doug_lea_alloc@PAUTNode@?$FixedMAP@PAVR_constant_table@@UmapNormalStates@R_dsgraph@@Udoug_lea_allocator@@@@@@XZ ; std::_Compressed_pair<doug_lea_alloc<FixedMAP<R_constant_table *,R_dsgraph::mapNormalStates,doug_lea_allocator>::TNode *>,std::_Vector_val<std::_Simple_types<FixedMAP<R_constant_table *,R_dsgraph::mapNormalStates,doug_lea_allocator>::TNode *> >,1>::_Get_first
PUBLIC	?max_size@?$doug_lea_alloc@PAUTNode@?$FixedMAP@PAUIDirect3DStateBlock9@@UmapNormalTextures@R_dsgraph@@Udoug_lea_allocator@@@@@@QBEIXZ ; doug_lea_alloc<FixedMAP<IDirect3DStateBlock9 *,R_dsgraph::mapNormalTextures,doug_lea_allocator>::TNode *>::max_size
PUBLIC	?_Get_first@?$_Compressed_pair@V?$doug_lea_alloc@PAUTNode@?$FixedMAP@PAUIDirect3DStateBlock9@@UmapNormalTextures@R_dsgraph@@Udoug_lea_allocator@@@@@@V?$_Vector_val@U?$_Simple_types@PAUTNode@?$FixedMAP@PAUIDirect3DStateBlock9@@UmapNormalTextures@R_dsgraph@@Udoug_lea_allocator@@@@@std@@@std@@$00@std@@QBEABV?$doug_lea_alloc@PAUTNode@?$FixedMAP@PAUIDirect3DStateBlock9@@UmapNormalTextures@R_dsgraph@@Udoug_lea_allocator@@@@@@XZ ; std::_Compressed_pair<doug_lea_alloc<FixedMAP<IDirect3DStateBlock9 *,R_dsgraph::mapNormalTextures,doug_lea_allocator>::TNode *>,std::_Vector_val<std::_Simple_types<FixedMAP<IDirect3DStateBlock9 *,R_dsgraph::mapNormalTextures,doug_lea_allocator>::TNode *> >,1>::_Get_first
PUBLIC	?max_size@?$doug_lea_alloc@PAUTNode@?$FixedMAP@PAUIDirect3DVertexShader9@@UmapMatrixPS@R_dsgraph@@Udoug_lea_allocator@@@@@@QBEIXZ ; doug_lea_alloc<FixedMAP<IDirect3DVertexShader9 *,R_dsgraph::mapMatrixPS,doug_lea_allocator>::TNode *>::max_size
PUBLIC	?_Get_first@?$_Compressed_pair@V?$doug_lea_alloc@PAUTNode@?$FixedMAP@PAUIDirect3DVertexShader9@@UmapMatrixPS@R_dsgraph@@Udoug_lea_allocator@@@@@@V?$_Vector_val@U?$_Simple_types@PAUTNode@?$FixedMAP@PAUIDirect3DVertexShader9@@UmapMatrixPS@R_dsgraph@@Udoug_lea_allocator@@@@@std@@@std@@$00@std@@QBEABV?$doug_lea_alloc@PAUTNode@?$FixedMAP@PAUIDirect3DVertexShader9@@UmapMatrixPS@R_dsgraph@@Udoug_lea_allocator@@@@@@XZ ; std::_Compressed_pair<doug_lea_alloc<FixedMAP<IDirect3DVertexShader9 *,R_dsgraph::mapMatrixPS,doug_lea_allocator>::TNode *>,std::_Vector_val<std::_Simple_types<FixedMAP<IDirect3DVertexShader9 *,R_dsgraph::mapMatrixPS,doug_lea_allocator>::TNode *> >,1>::_Get_first
PUBLIC	?max_size@?$doug_lea_alloc@PAUTNode@?$FixedMAP@PAUIDirect3DPixelShader9@@UmapMatrixCS@R_dsgraph@@Udoug_lea_allocator@@@@@@QBEIXZ ; doug_lea_alloc<FixedMAP<IDirect3DPixelShader9 *,R_dsgraph::mapMatrixCS,doug_lea_allocator>::TNode *>::max_size
PUBLIC	?_Get_first@?$_Compressed_pair@V?$doug_lea_alloc@PAUTNode@?$FixedMAP@PAUIDirect3DPixelShader9@@UmapMatrixCS@R_dsgraph@@Udoug_lea_allocator@@@@@@V?$_Vector_val@U?$_Simple_types@PAUTNode@?$FixedMAP@PAUIDirect3DPixelShader9@@UmapMatrixCS@R_dsgraph@@Udoug_lea_allocator@@@@@std@@@std@@$00@std@@QBEABV?$doug_lea_alloc@PAUTNode@?$FixedMAP@PAUIDirect3DPixelShader9@@UmapMatrixCS@R_dsgraph@@Udoug_lea_allocator@@@@@@XZ ; std::_Compressed_pair<doug_lea_alloc<FixedMAP<IDirect3DPixelShader9 *,R_dsgraph::mapMatrixCS,doug_lea_allocator>::TNode *>,std::_Vector_val<std::_Simple_types<FixedMAP<IDirect3DPixelShader9 *,R_dsgraph::mapMatrixCS,doug_lea_allocator>::TNode *> >,1>::_Get_first
PUBLIC	?max_size@?$doug_lea_alloc@PAUTNode@?$FixedMAP@PAVR_constant_table@@UmapMatrixStates@R_dsgraph@@Udoug_lea_allocator@@@@@@QBEIXZ ; doug_lea_alloc<FixedMAP<R_constant_table *,R_dsgraph::mapMatrixStates,doug_lea_allocator>::TNode *>::max_size
PUBLIC	?_Get_first@?$_Compressed_pair@V?$doug_lea_alloc@PAUTNode@?$FixedMAP@PAVR_constant_table@@UmapMatrixStates@R_dsgraph@@Udoug_lea_allocator@@@@@@V?$_Vector_val@U?$_Simple_types@PAUTNode@?$FixedMAP@PAVR_constant_table@@UmapMatrixStates@R_dsgraph@@Udoug_lea_allocator@@@@@std@@@std@@$00@std@@QBEABV?$doug_lea_alloc@PAUTNode@?$FixedMAP@PAVR_constant_table@@UmapMatrixStates@R_dsgraph@@Udoug_lea_allocator@@@@@@XZ ; std::_Compressed_pair<doug_lea_alloc<FixedMAP<R_constant_table *,R_dsgraph::mapMatrixStates,doug_lea_allocator>::TNode *>,std::_Vector_val<std::_Simple_types<FixedMAP<R_constant_table *,R_dsgraph::mapMatrixStates,doug_lea_allocator>::TNode *> >,1>::_Get_first
PUBLIC	?max_size@?$doug_lea_alloc@PAUTNode@?$FixedMAP@PAUIDirect3DStateBlock9@@UmapMatrixTextures@R_dsgraph@@Udoug_lea_allocator@@@@@@QBEIXZ ; doug_lea_alloc<FixedMAP<IDirect3DStateBlock9 *,R_dsgraph::mapMatrixTextures,doug_lea_allocator>::TNode *>::max_size
PUBLIC	?_Get_first@?$_Compressed_pair@V?$doug_lea_alloc@PAUTNode@?$FixedMAP@PAUIDirect3DStateBlock9@@UmapMatrixTextures@R_dsgraph@@Udoug_lea_allocator@@@@@@V?$_Vector_val@U?$_Simple_types@PAUTNode@?$FixedMAP@PAUIDirect3DStateBlock9@@UmapMatrixTextures@R_dsgraph@@Udoug_lea_allocator@@@@@std@@@std@@$00@std@@QBEABV?$doug_lea_alloc@PAUTNode@?$FixedMAP@PAUIDirect3DStateBlock9@@UmapMatrixTextures@R_dsgraph@@Udoug_lea_allocator@@@@@@XZ ; std::_Compressed_pair<doug_lea_alloc<FixedMAP<IDirect3DStateBlock9 *,R_dsgraph::mapMatrixTextures,doug_lea_allocator>::TNode *>,std::_Vector_val<std::_Simple_types<FixedMAP<IDirect3DStateBlock9 *,R_dsgraph::mapMatrixTextures,doug_lea_allocator>::TNode *> >,1>::_Get_first
PUBLIC	?max_size@?$_Normal_allocator_traits@V?$doug_lea_alloc@PAUTNode@?$FixedMAP@PAUIDirect3DVertexShader9@@UmapNormalPS@R_dsgraph@@Udoug_lea_allocator@@@@@@@std@@SAIABV?$doug_lea_alloc@PAUTNode@?$FixedMAP@PAUIDirect3DVertexShader9@@UmapNormalPS@R_dsgraph@@Udoug_lea_allocator@@@@@@@Z ; std::_Normal_allocator_traits<doug_lea_alloc<FixedMAP<IDirect3DVertexShader9 *,R_dsgraph::mapNormalPS,doug_lea_allocator>::TNode *> >::max_size
PUBLIC	?capacity@?$vector@PAUTNode@?$FixedMAP@PAUIDirect3DVertexShader9@@UmapNormalPS@R_dsgraph@@Udoug_lea_allocator@@@@V?$doug_lea_alloc@PAUTNode@?$FixedMAP@PAUIDirect3DVertexShader9@@UmapNormalPS@R_dsgraph@@Udoug_lea_allocator@@@@@@@std@@QBEIXZ ; std::vector<FixedMAP<IDirect3DVertexShader9 *,R_dsgraph::mapNormalPS,doug_lea_allocator>::TNode *,doug_lea_alloc<FixedMAP<IDirect3DVertexShader9 *,R_dsgraph::mapNormalPS,doug_lea_allocator>::TNode *> >::capacity
PUBLIC	?_Umove_if_noexcept1@?$vector@PAUTNode@?$FixedMAP@PAUIDirect3DVertexShader9@@UmapNormalPS@R_dsgraph@@Udoug_lea_allocator@@@@V?$doug_lea_alloc@PAUTNode@?$FixedMAP@PAUIDirect3DVertexShader9@@UmapNormalPS@R_dsgraph@@Udoug_lea_allocator@@@@@@@std@@AAEXPAPAUTNode@?$FixedMAP@PAUIDirect3DVertexShader9@@UmapNormalPS@R_dsgraph@@Udoug_lea_allocator@@@@00U?$integral_constant@_N$00@2@@Z ; std::vector<FixedMAP<IDirect3DVertexShader9 *,R_dsgraph::mapNormalPS,doug_lea_allocator>::TNode *,doug_lea_alloc<FixedMAP<IDirect3DVertexShader9 *,R_dsgraph::mapNormalPS,doug_lea_allocator>::TNode *> >::_Umove_if_noexcept1
PUBLIC	?_Getal@?$vector@PAUTNode@?$FixedMAP@PAUIDirect3DVertexShader9@@UmapNormalPS@R_dsgraph@@Udoug_lea_allocator@@@@V?$doug_lea_alloc@PAUTNode@?$FixedMAP@PAUIDirect3DVertexShader9@@UmapNormalPS@R_dsgraph@@Udoug_lea_allocator@@@@@@@std@@ABEABV?$doug_lea_alloc@PAUTNode@?$FixedMAP@PAUIDirect3DVertexShader9@@UmapNormalPS@R_dsgraph@@Udoug_lea_allocator@@@@@@XZ ; std::vector<FixedMAP<IDirect3DVertexShader9 *,R_dsgraph::mapNormalPS,doug_lea_allocator>::TNode *,doug_lea_alloc<FixedMAP<IDirect3DVertexShader9 *,R_dsgraph::mapNormalPS,doug_lea_allocator>::TNode *> >::_Getal
PUBLIC	?max_size@?$_Normal_allocator_traits@V?$doug_lea_alloc@PAUTNode@?$FixedMAP@PAUIDirect3DPixelShader9@@UmapNormalCS@R_dsgraph@@Udoug_lea_allocator@@@@@@@std@@SAIABV?$doug_lea_alloc@PAUTNode@?$FixedMAP@PAUIDirect3DPixelShader9@@UmapNormalCS@R_dsgraph@@Udoug_lea_allocator@@@@@@@Z ; std::_Normal_allocator_traits<doug_lea_alloc<FixedMAP<IDirect3DPixelShader9 *,R_dsgraph::mapNormalCS,doug_lea_allocator>::TNode *> >::max_size
PUBLIC	?capacity@?$vector@PAUTNode@?$FixedMAP@PAUIDirect3DPixelShader9@@UmapNormalCS@R_dsgraph@@Udoug_lea_allocator@@@@V?$doug_lea_alloc@PAUTNode@?$FixedMAP@PAUIDirect3DPixelShader9@@UmapNormalCS@R_dsgraph@@Udoug_lea_allocator@@@@@@@std@@QBEIXZ ; std::vector<FixedMAP<IDirect3DPixelShader9 *,R_dsgraph::mapNormalCS,doug_lea_allocator>::TNode *,doug_lea_alloc<FixedMAP<IDirect3DPixelShader9 *,R_dsgraph::mapNormalCS,doug_lea_allocator>::TNode *> >::capacity
PUBLIC	?_Umove_if_noexcept1@?$vector@PAUTNode@?$FixedMAP@PAUIDirect3DPixelShader9@@UmapNormalCS@R_dsgraph@@Udoug_lea_allocator@@@@V?$doug_lea_alloc@PAUTNode@?$FixedMAP@PAUIDirect3DPixelShader9@@UmapNormalCS@R_dsgraph@@Udoug_lea_allocator@@@@@@@std@@AAEXPAPAUTNode@?$FixedMAP@PAUIDirect3DPixelShader9@@UmapNormalCS@R_dsgraph@@Udoug_lea_allocator@@@@00U?$integral_constant@_N$00@2@@Z ; std::vector<FixedMAP<IDirect3DPixelShader9 *,R_dsgraph::mapNormalCS,doug_lea_allocator>::TNode *,doug_lea_alloc<FixedMAP<IDirect3DPixelShader9 *,R_dsgraph::mapNormalCS,doug_lea_allocator>::TNode *> >::_Umove_if_noexcept1
PUBLIC	?_Getal@?$vector@PAUTNode@?$FixedMAP@PAUIDirect3DPixelShader9@@UmapNormalCS@R_dsgraph@@Udoug_lea_allocator@@@@V?$doug_lea_alloc@PAUTNode@?$FixedMAP@PAUIDirect3DPixelShader9@@UmapNormalCS@R_dsgraph@@Udoug_lea_allocator@@@@@@@std@@ABEABV?$doug_lea_alloc@PAUTNode@?$FixedMAP@PAUIDirect3DPixelShader9@@UmapNormalCS@R_dsgraph@@Udoug_lea_allocator@@@@@@XZ ; std::vector<FixedMAP<IDirect3DPixelShader9 *,R_dsgraph::mapNormalCS,doug_lea_allocator>::TNode *,doug_lea_alloc<FixedMAP<IDirect3DPixelShader9 *,R_dsgraph::mapNormalCS,doug_lea_allocator>::TNode *> >::_Getal
PUBLIC	?max_size@?$_Normal_allocator_traits@V?$doug_lea_alloc@PAUTNode@?$FixedMAP@PAVR_constant_table@@UmapNormalStates@R_dsgraph@@Udoug_lea_allocator@@@@@@@std@@SAIABV?$doug_lea_alloc@PAUTNode@?$FixedMAP@PAVR_constant_table@@UmapNormalStates@R_dsgraph@@Udoug_lea_allocator@@@@@@@Z ; std::_Normal_allocator_traits<doug_lea_alloc<FixedMAP<R_constant_table *,R_dsgraph::mapNormalStates,doug_lea_allocator>::TNode *> >::max_size
PUBLIC	?capacity@?$vector@PAUTNode@?$FixedMAP@PAVR_constant_table@@UmapNormalStates@R_dsgraph@@Udoug_lea_allocator@@@@V?$doug_lea_alloc@PAUTNode@?$FixedMAP@PAVR_constant_table@@UmapNormalStates@R_dsgraph@@Udoug_lea_allocator@@@@@@@std@@QBEIXZ ; std::vector<FixedMAP<R_constant_table *,R_dsgraph::mapNormalStates,doug_lea_allocator>::TNode *,doug_lea_alloc<FixedMAP<R_constant_table *,R_dsgraph::mapNormalStates,doug_lea_allocator>::TNode *> >::capacity
PUBLIC	?_Umove_if_noexcept1@?$vector@PAUTNode@?$FixedMAP@PAVR_constant_table@@UmapNormalStates@R_dsgraph@@Udoug_lea_allocator@@@@V?$doug_lea_alloc@PAUTNode@?$FixedMAP@PAVR_constant_table@@UmapNormalStates@R_dsgraph@@Udoug_lea_allocator@@@@@@@std@@AAEXPAPAUTNode@?$FixedMAP@PAVR_constant_table@@UmapNormalStates@R_dsgraph@@Udoug_lea_allocator@@@@00U?$integral_constant@_N$00@2@@Z ; std::vector<FixedMAP<R_constant_table *,R_dsgraph::mapNormalStates,doug_lea_allocator>::TNode *,doug_lea_alloc<FixedMAP<R_constant_table *,R_dsgraph::mapNormalStates,doug_lea_allocator>::TNode *> >::_Umove_if_noexcept1
PUBLIC	?_Getal@?$vector@PAUTNode@?$FixedMAP@PAVR_constant_table@@UmapNormalStates@R_dsgraph@@Udoug_lea_allocator@@@@V?$doug_lea_alloc@PAUTNode@?$FixedMAP@PAVR_constant_table@@UmapNormalStates@R_dsgraph@@Udoug_lea_allocator@@@@@@@std@@ABEABV?$doug_lea_alloc@PAUTNode@?$FixedMAP@PAVR_constant_table@@UmapNormalStates@R_dsgraph@@Udoug_lea_allocator@@@@@@XZ ; std::vector<FixedMAP<R_constant_table *,R_dsgraph::mapNormalStates,doug_lea_allocator>::TNode *,doug_lea_alloc<FixedMAP<R_constant_table *,R_dsgraph::mapNormalStates,doug_lea_allocator>::TNode *> >::_Getal
PUBLIC	?max_size@?$_Normal_allocator_traits@V?$doug_lea_alloc@PAUTNode@?$FixedMAP@PAUIDirect3DStateBlock9@@UmapNormalTextures@R_dsgraph@@Udoug_lea_allocator@@@@@@@std@@SAIABV?$doug_lea_alloc@PAUTNode@?$FixedMAP@PAUIDirect3DStateBlock9@@UmapNormalTextures@R_dsgraph@@Udoug_lea_allocator@@@@@@@Z ; std::_Normal_allocator_traits<doug_lea_alloc<FixedMAP<IDirect3DStateBlock9 *,R_dsgraph::mapNormalTextures,doug_lea_allocator>::TNode *> >::max_size
PUBLIC	?capacity@?$vector@PAUTNode@?$FixedMAP@PAUIDirect3DStateBlock9@@UmapNormalTextures@R_dsgraph@@Udoug_lea_allocator@@@@V?$doug_lea_alloc@PAUTNode@?$FixedMAP@PAUIDirect3DStateBlock9@@UmapNormalTextures@R_dsgraph@@Udoug_lea_allocator@@@@@@@std@@QBEIXZ ; std::vector<FixedMAP<IDirect3DStateBlock9 *,R_dsgraph::mapNormalTextures,doug_lea_allocator>::TNode *,doug_lea_alloc<FixedMAP<IDirect3DStateBlock9 *,R_dsgraph::mapNormalTextures,doug_lea_allocator>::TNode *> >::capacity
PUBLIC	?_Umove_if_noexcept1@?$vector@PAUTNode@?$FixedMAP@PAUIDirect3DStateBlock9@@UmapNormalTextures@R_dsgraph@@Udoug_lea_allocator@@@@V?$doug_lea_alloc@PAUTNode@?$FixedMAP@PAUIDirect3DStateBlock9@@UmapNormalTextures@R_dsgraph@@Udoug_lea_allocator@@@@@@@std@@AAEXPAPAUTNode@?$FixedMAP@PAUIDirect3DStateBlock9@@UmapNormalTextures@R_dsgraph@@Udoug_lea_allocator@@@@00U?$integral_constant@_N$00@2@@Z ; std::vector<FixedMAP<IDirect3DStateBlock9 *,R_dsgraph::mapNormalTextures,doug_lea_allocator>::TNode *,doug_lea_alloc<FixedMAP<IDirect3DStateBlock9 *,R_dsgraph::mapNormalTextures,doug_lea_allocator>::TNode *> >::_Umove_if_noexcept1
PUBLIC	?_Getal@?$vector@PAUTNode@?$FixedMAP@PAUIDirect3DStateBlock9@@UmapNormalTextures@R_dsgraph@@Udoug_lea_allocator@@@@V?$doug_lea_alloc@PAUTNode@?$FixedMAP@PAUIDirect3DStateBlock9@@UmapNormalTextures@R_dsgraph@@Udoug_lea_allocator@@@@@@@std@@ABEABV?$doug_lea_alloc@PAUTNode@?$FixedMAP@PAUIDirect3DStateBlock9@@UmapNormalTextures@R_dsgraph@@Udoug_lea_allocator@@@@@@XZ ; std::vector<FixedMAP<IDirect3DStateBlock9 *,R_dsgraph::mapNormalTextures,doug_lea_allocator>::TNode *,doug_lea_alloc<FixedMAP<IDirect3DStateBlock9 *,R_dsgraph::mapNormalTextures,doug_lea_allocator>::TNode *> >::_Getal
PUBLIC	?max_size@?$_Normal_allocator_traits@V?$doug_lea_alloc@PAUTNode@?$FixedMAP@PAUIDirect3DVertexShader9@@UmapMatrixPS@R_dsgraph@@Udoug_lea_allocator@@@@@@@std@@SAIABV?$doug_lea_alloc@PAUTNode@?$FixedMAP@PAUIDirect3DVertexShader9@@UmapMatrixPS@R_dsgraph@@Udoug_lea_allocator@@@@@@@Z ; std::_Normal_allocator_traits<doug_lea_alloc<FixedMAP<IDirect3DVertexShader9 *,R_dsgraph::mapMatrixPS,doug_lea_allocator>::TNode *> >::max_size
PUBLIC	?capacity@?$vector@PAUTNode@?$FixedMAP@PAUIDirect3DVertexShader9@@UmapMatrixPS@R_dsgraph@@Udoug_lea_allocator@@@@V?$doug_lea_alloc@PAUTNode@?$FixedMAP@PAUIDirect3DVertexShader9@@UmapMatrixPS@R_dsgraph@@Udoug_lea_allocator@@@@@@@std@@QBEIXZ ; std::vector<FixedMAP<IDirect3DVertexShader9 *,R_dsgraph::mapMatrixPS,doug_lea_allocator>::TNode *,doug_lea_alloc<FixedMAP<IDirect3DVertexShader9 *,R_dsgraph::mapMatrixPS,doug_lea_allocator>::TNode *> >::capacity
PUBLIC	?_Umove_if_noexcept1@?$vector@PAUTNode@?$FixedMAP@PAUIDirect3DVertexShader9@@UmapMatrixPS@R_dsgraph@@Udoug_lea_allocator@@@@V?$doug_lea_alloc@PAUTNode@?$FixedMAP@PAUIDirect3DVertexShader9@@UmapMatrixPS@R_dsgraph@@Udoug_lea_allocator@@@@@@@std@@AAEXPAPAUTNode@?$FixedMAP@PAUIDirect3DVertexShader9@@UmapMatrixPS@R_dsgraph@@Udoug_lea_allocator@@@@00U?$integral_constant@_N$00@2@@Z ; std::vector<FixedMAP<IDirect3DVertexShader9 *,R_dsgraph::mapMatrixPS,doug_lea_allocator>::TNode *,doug_lea_alloc<FixedMAP<IDirect3DVertexShader9 *,R_dsgraph::mapMatrixPS,doug_lea_allocator>::TNode *> >::_Umove_if_noexcept1
PUBLIC	?_Getal@?$vector@PAUTNode@?$FixedMAP@PAUIDirect3DVertexShader9@@UmapMatrixPS@R_dsgraph@@Udoug_lea_allocator@@@@V?$doug_lea_alloc@PAUTNode@?$FixedMAP@PAUIDirect3DVertexShader9@@UmapMatrixPS@R_dsgraph@@Udoug_lea_allocator@@@@@@@std@@ABEABV?$doug_lea_alloc@PAUTNode@?$FixedMAP@PAUIDirect3DVertexShader9@@UmapMatrixPS@R_dsgraph@@Udoug_lea_allocator@@@@@@XZ ; std::vector<FixedMAP<IDirect3DVertexShader9 *,R_dsgraph::mapMatrixPS,doug_lea_allocator>::TNode *,doug_lea_alloc<FixedMAP<IDirect3DVertexShader9 *,R_dsgraph::mapMatrixPS,doug_lea_allocator>::TNode *> >::_Getal
PUBLIC	?max_size@?$_Normal_allocator_traits@V?$doug_lea_alloc@PAUTNode@?$FixedMAP@PAUIDirect3DPixelShader9@@UmapMatrixCS@R_dsgraph@@Udoug_lea_allocator@@@@@@@std@@SAIABV?$doug_lea_alloc@PAUTNode@?$FixedMAP@PAUIDirect3DPixelShader9@@UmapMatrixCS@R_dsgraph@@Udoug_lea_allocator@@@@@@@Z ; std::_Normal_allocator_traits<doug_lea_alloc<FixedMAP<IDirect3DPixelShader9 *,R_dsgraph::mapMatrixCS,doug_lea_allocator>::TNode *> >::max_size
PUBLIC	?capacity@?$vector@PAUTNode@?$FixedMAP@PAUIDirect3DPixelShader9@@UmapMatrixCS@R_dsgraph@@Udoug_lea_allocator@@@@V?$doug_lea_alloc@PAUTNode@?$FixedMAP@PAUIDirect3DPixelShader9@@UmapMatrixCS@R_dsgraph@@Udoug_lea_allocator@@@@@@@std@@QBEIXZ ; std::vector<FixedMAP<IDirect3DPixelShader9 *,R_dsgraph::mapMatrixCS,doug_lea_allocator>::TNode *,doug_lea_alloc<FixedMAP<IDirect3DPixelShader9 *,R_dsgraph::mapMatrixCS,doug_lea_allocator>::TNode *> >::capacity
PUBLIC	?_Umove_if_noexcept1@?$vector@PAUTNode@?$FixedMAP@PAUIDirect3DPixelShader9@@UmapMatrixCS@R_dsgraph@@Udoug_lea_allocator@@@@V?$doug_lea_alloc@PAUTNode@?$FixedMAP@PAUIDirect3DPixelShader9@@UmapMatrixCS@R_dsgraph@@Udoug_lea_allocator@@@@@@@std@@AAEXPAPAUTNode@?$FixedMAP@PAUIDirect3DPixelShader9@@UmapMatrixCS@R_dsgraph@@Udoug_lea_allocator@@@@00U?$integral_constant@_N$00@2@@Z ; std::vector<FixedMAP<IDirect3DPixelShader9 *,R_dsgraph::mapMatrixCS,doug_lea_allocator>::TNode *,doug_lea_alloc<FixedMAP<IDirect3DPixelShader9 *,R_dsgraph::mapMatrixCS,doug_lea_allocator>::TNode *> >::_Umove_if_noexcept1
PUBLIC	?_Getal@?$vector@PAUTNode@?$FixedMAP@PAUIDirect3DPixelShader9@@UmapMatrixCS@R_dsgraph@@Udoug_lea_allocator@@@@V?$doug_lea_alloc@PAUTNode@?$FixedMAP@PAUIDirect3DPixelShader9@@UmapMatrixCS@R_dsgraph@@Udoug_lea_allocator@@@@@@@std@@ABEABV?$doug_lea_alloc@PAUTNode@?$FixedMAP@PAUIDirect3DPixelShader9@@UmapMatrixCS@R_dsgraph@@Udoug_lea_allocator@@@@@@XZ ; std::vector<FixedMAP<IDirect3DPixelShader9 *,R_dsgraph::mapMatrixCS,doug_lea_allocator>::TNode *,doug_lea_alloc<FixedMAP<IDirect3DPixelShader9 *,R_dsgraph::mapMatrixCS,doug_lea_allocator>::TNode *> >::_Getal
PUBLIC	?max_size@?$_Normal_allocator_traits@V?$doug_lea_alloc@PAUTNode@?$FixedMAP@PAVR_constant_table@@UmapMatrixStates@R_dsgraph@@Udoug_lea_allocator@@@@@@@std@@SAIABV?$doug_lea_alloc@PAUTNode@?$FixedMAP@PAVR_constant_table@@UmapMatrixStates@R_dsgraph@@Udoug_lea_allocator@@@@@@@Z ; std::_Normal_allocator_traits<doug_lea_alloc<FixedMAP<R_constant_table *,R_dsgraph::mapMatrixStates,doug_lea_allocator>::TNode *> >::max_size
PUBLIC	?capacity@?$vector@PAUTNode@?$FixedMAP@PAVR_constant_table@@UmapMatrixStates@R_dsgraph@@Udoug_lea_allocator@@@@V?$doug_lea_alloc@PAUTNode@?$FixedMAP@PAVR_constant_table@@UmapMatrixStates@R_dsgraph@@Udoug_lea_allocator@@@@@@@std@@QBEIXZ ; std::vector<FixedMAP<R_constant_table *,R_dsgraph::mapMatrixStates,doug_lea_allocator>::TNode *,doug_lea_alloc<FixedMAP<R_constant_table *,R_dsgraph::mapMatrixStates,doug_lea_allocator>::TNode *> >::capacity
PUBLIC	?_Umove_if_noexcept1@?$vector@PAUTNode@?$FixedMAP@PAVR_constant_table@@UmapMatrixStates@R_dsgraph@@Udoug_lea_allocator@@@@V?$doug_lea_alloc@PAUTNode@?$FixedMAP@PAVR_constant_table@@UmapMatrixStates@R_dsgraph@@Udoug_lea_allocator@@@@@@@std@@AAEXPAPAUTNode@?$FixedMAP@PAVR_constant_table@@UmapMatrixStates@R_dsgraph@@Udoug_lea_allocator@@@@00U?$integral_constant@_N$00@2@@Z ; std::vector<FixedMAP<R_constant_table *,R_dsgraph::mapMatrixStates,doug_lea_allocator>::TNode *,doug_lea_alloc<FixedMAP<R_constant_table *,R_dsgraph::mapMatrixStates,doug_lea_allocator>::TNode *> >::_Umove_if_noexcept1
