; Listing generated by Microsoft (R) Optimizing Compiler Version 19.29.30146.0 

	TITLE	i:\vitalya\mine\nsprojectx\nspx_build\intermediate\release-win32\xrrender_r1\r__dsgraph_build.obj
	.686P
	.XMM
	include listing.inc
	.model	flat

INCLUDELIB OLDNAMES

PUBLIC	?r_ssaDISCARD@@3MA				; r_ssaDISCARD
PUBLIC	?r_ssaGLOD_start@@3MA				; r_ssaGLOD_start
PUBLIC	?r_ssaGLOD_end@@3MA				; r_ssaGLOD_end
PUBLIC	?r_ssaHZBvsTEX@@3MA				; r_ssaHZBvsTEX
PUBLIC	?r_ssaLOD_B@@3MA				; r_ssaLOD_B
PUBLIC	?r_ssaLOD_A@@3MA				; r_ssaLOD_A
EXTRN	__imp_?testSphere@CFrustum@@QBE?AW4EFC_Visible@@AAU?$_vector3@M@@MAAI@Z:PROC
EXTRN	__imp_?CalculateWallmarks@CKinematics@@QAEXXZ:PROC
?r_ssaDISCARD@@3MA DD 01H DUP (?)			; r_ssaDISCARD
?r_ssaGLOD_start@@3MA DD 01H DUP (?)			; r_ssaGLOD_start
?r_ssaGLOD_end@@3MA DD 01H DUP (?)			; r_ssaGLOD_end
?r_ssaHZBvsTEX@@3MA DD 01H DUP (?)			; r_ssaHZBvsTEX
?r_ssaLOD_B@@3MA DD 01H DUP (?)				; r_ssaLOD_B
?r_ssaLOD_A@@3MA DD 01H DUP (?)				; r_ssaLOD_A
_BSS	ENDS
?_Fake_alloc@std@@3U_Fake_allocator@1@B	ORG $+1		; std::_Fake_alloc
PUBLIC	??D?$resptr_core@UShaderElement@@V?$resptr_base@UShaderElement@@@@@@QBEAAUShaderElement@@XZ ; resptr_core<ShaderElement,resptr_base<ShaderElement> >::operator*
PUBLIC	??D?$resptr_core@USPass@@V?$resptr_base@USPass@@@@@@QBEAAUSPass@@XZ ; resptr_core<SPass,resptr_base<SPass> >::operator*
PUBLIC	??C?$resptr_core@USVS@@V?$resptr_base@USVS@@@@@@QBEPAUSVS@@XZ ; resptr_core<SVS,resptr_base<SVS> >::operator->
PUBLIC	??C?$resptr_core@USPS@@V?$resptr_base@USPS@@@@@@QBEPAUSPS@@XZ ; resptr_core<SPS,resptr_base<SPS> >::operator->
PUBLIC	??C?$resptr_core@USState@@V?$resptr_base@USState@@@@@@QBEPAUSState@@XZ ; resptr_core<SState,resptr_base<SState> >::operator->
PUBLIC	??$_Unfancy@U_MatrixItem@R_dsgraph@@@std@@YAPAU_MatrixItem@R_dsgraph@@PAU12@@Z ; std::_Unfancy<R_dsgraph::_MatrixItem>
PUBLIC	?_Getal@?$vector@U_MatrixItem@R_dsgraph@@V?$doug_lea_alloc@U_MatrixItem@R_dsgraph@@@@@std@@AAEAAV?$doug_lea_alloc@U_MatrixItem@R_dsgraph@@@@XZ ; std::vector<R_dsgraph::_MatrixItem,doug_lea_alloc<R_dsgraph::_MatrixItem> >::_Getal
PUBLIC	?_Get_first@?$_Compressed_pair@V?$doug_lea_alloc@U_MatrixItem@R_dsgraph@@@@V?$_Vector_val@U?$_Simple_types@U_MatrixItem@R_dsgraph@@@std@@@std@@$00@std@@QAEAAV?$doug_lea_alloc@U_MatrixItem@R_dsgraph@@@@XZ ; std::_Compressed_pair<doug_lea_alloc<R_dsgraph::_MatrixItem>,std::_Vector_val<std::_Simple_types<R_dsgraph::_MatrixItem> >,1>::_Get_first
PUBLIC	??$_Unfancy@U_NormalItem@R_dsgraph@@@std@@YAPAU_NormalItem@R_dsgraph@@PAU12@@Z ; std::_Unfancy<R_dsgraph::_NormalItem>
PUBLIC	?_Getal@?$vector@U_NormalItem@R_dsgraph@@V?$doug_lea_alloc@U_NormalItem@R_dsgraph@@@@@std@@AAEAAV?$doug_lea_alloc@U_NormalItem@R_dsgraph@@@@XZ ; std::vector<R_dsgraph::_NormalItem,doug_lea_alloc<R_dsgraph::_NormalItem> >::_Getal
PUBLIC	?_Get_first@?$_Compressed_pair@V?$doug_lea_alloc@U_NormalItem@R_dsgraph@@@@V?$_Vector_val@U?$_Simple_types@U_NormalItem@R_dsgraph@@@std@@@std@@$00@std@@QAEAAV?$doug_lea_alloc@U_NormalItem@R_dsgraph@@@@XZ ; std::_Compressed_pair<doug_lea_alloc<R_dsgraph::_NormalItem>,std::_Vector_val<std::_Simple_types<R_dsgraph::_NormalItem> >,1>::_Get_first
PUBLIC	?alloc@doug_lea_allocator@@SAPAXABI@Z		; doug_lea_allocator::alloc
PUBLIC	??$dealloc@UTNode@?$FixedMAP@MU_LodItem@R_dsgraph@@Udoug_lea_allocator@@@@@doug_lea_allocator@@SAXAAPAUTNode@?$FixedMAP@MU_LodItem@R_dsgraph@@Udoug_lea_allocator@@@@@Z ; doug_lea_allocator::dealloc<FixedMAP<float,R_dsgraph::_LodItem,doug_lea_allocator>::TNode>
PUBLIC	??$dealloc@UTNode@?$FixedMAP@MU_MatrixItemS@R_dsgraph@@Udoug_lea_allocator@@@@@doug_lea_allocator@@SAXAAPAUTNode@?$FixedMAP@MU_MatrixItemS@R_dsgraph@@Udoug_lea_allocator@@@@@Z ; doug_lea_allocator::dealloc<FixedMAP<float,R_dsgraph::_MatrixItemS,doug_lea_allocator>::TNode>
PUBLIC	??$dealloc@UTNode@?$FixedMAP@PAUIDirect3DVertexShader9@@UmapMatrixPS@R_dsgraph@@Udoug_lea_allocator@@@@@doug_lea_allocator@@SAXAAPAUTNode@?$FixedMAP@PAUIDirect3DVertexShader9@@UmapMatrixPS@R_dsgraph@@Udoug_lea_allocator@@@@@Z ; doug_lea_allocator::dealloc<FixedMAP<IDirect3DVertexShader9 *,R_dsgraph::mapMatrixPS,doug_lea_allocator>::TNode>
PUBLIC	??$dealloc@UTNode@?$FixedMAP@PAUIDirect3DPixelShader9@@UmapMatrixCS@R_dsgraph@@Udoug_lea_allocator@@@@@doug_lea_allocator@@SAXAAPAUTNode@?$FixedMAP@PAUIDirect3DPixelShader9@@UmapMatrixCS@R_dsgraph@@Udoug_lea_allocator@@@@@Z ; doug_lea_allocator::dealloc<FixedMAP<IDirect3DPixelShader9 *,R_dsgraph::mapMatrixCS,doug_lea_allocator>::TNode>
PUBLIC	??$dealloc@UTNode@?$FixedMAP@PAVR_constant_table@@UmapMatrixStates@R_dsgraph@@Udoug_lea_allocator@@@@@doug_lea_allocator@@SAXAAPAUTNode@?$FixedMAP@PAVR_constant_table@@UmapMatrixStates@R_dsgraph@@Udoug_lea_allocator@@@@@Z ; doug_lea_allocator::dealloc<FixedMAP<R_constant_table *,R_dsgraph::mapMatrixStates,doug_lea_allocator>::TNode>
PUBLIC	??$dealloc@UTNode@?$FixedMAP@PAUIDirect3DStateBlock9@@UmapMatrixTextures@R_dsgraph@@Udoug_lea_allocator@@@@@doug_lea_allocator@@SAXAAPAUTNode@?$FixedMAP@PAUIDirect3DStateBlock9@@UmapMatrixTextures@R_dsgraph@@Udoug_lea_allocator@@@@@Z ; doug_lea_allocator::dealloc<FixedMAP<IDirect3DStateBlock9 *,R_dsgraph::mapMatrixTextures,doug_lea_allocator>::TNode>
PUBLIC	??$dealloc@UTNode@?$FixedMAP@PAUSTextureList@@UmapMatrixItems@R_dsgraph@@Udoug_lea_allocator@@@@@doug_lea_allocator@@SAXAAPAUTNode@?$FixedMAP@PAUSTextureList@@UmapMatrixItems@R_dsgraph@@Udoug_lea_allocator@@@@@Z ; doug_lea_allocator::dealloc<FixedMAP<STextureList *,R_dsgraph::mapMatrixItems,doug_lea_allocator>::TNode>
PUBLIC	??$dealloc@UTNode@?$FixedMAP@PAUIDirect3DVertexShader9@@UmapNormalPS@R_dsgraph@@Udoug_lea_allocator@@@@@doug_lea_allocator@@SAXAAPAUTNode@?$FixedMAP@PAUIDirect3DVertexShader9@@UmapNormalPS@R_dsgraph@@Udoug_lea_allocator@@@@@Z ; doug_lea_allocator::dealloc<FixedMAP<IDirect3DVertexShader9 *,R_dsgraph::mapNormalPS,doug_lea_allocator>::TNode>
PUBLIC	??$dealloc@UTNode@?$FixedMAP@PAUIDirect3DPixelShader9@@UmapNormalCS@R_dsgraph@@Udoug_lea_allocator@@@@@doug_lea_allocator@@SAXAAPAUTNode@?$FixedMAP@PAUIDirect3DPixelShader9@@UmapNormalCS@R_dsgraph@@Udoug_lea_allocator@@@@@Z ; doug_lea_allocator::dealloc<FixedMAP<IDirect3DPixelShader9 *,R_dsgraph::mapNormalCS,doug_lea_allocator>::TNode>
PUBLIC	??$dealloc@UTNode@?$FixedMAP@PAVR_constant_table@@UmapNormalStates@R_dsgraph@@Udoug_lea_allocator@@@@@doug_lea_allocator@@SAXAAPAUTNode@?$FixedMAP@PAVR_constant_table@@UmapNormalStates@R_dsgraph@@Udoug_lea_allocator@@@@@Z ; doug_lea_allocator::dealloc<FixedMAP<R_constant_table *,R_dsgraph::mapNormalStates,doug_lea_allocator>::TNode>
PUBLIC	??$dealloc@UTNode@?$FixedMAP@PAUIDirect3DStateBlock9@@UmapNormalTextures@R_dsgraph@@Udoug_lea_allocator@@@@@doug_lea_allocator@@SAXAAPAUTNode@?$FixedMAP@PAUIDirect3DStateBlock9@@UmapNormalTextures@R_dsgraph@@Udoug_lea_allocator@@@@@Z ; doug_lea_allocator::dealloc<FixedMAP<IDirect3DStateBlock9 *,R_dsgraph::mapNormalTextures,doug_lea_allocator>::TNode>
PUBLIC	??$dealloc@UTNode@?$FixedMAP@PAUSTextureList@@UmapNormalItems@R_dsgraph@@Udoug_lea_allocator@@@@@doug_lea_allocator@@SAXAAPAUTNode@?$FixedMAP@PAUSTextureList@@UmapNormalItems@R_dsgraph@@Udoug_lea_allocator@@@@@Z ; doug_lea_allocator::dealloc<FixedMAP<STextureList *,R_dsgraph::mapNormalItems,doug_lea_allocator>::TNode>
PUBLIC	?_Destroy@?$vector@U_MatrixItem@R_dsgraph@@V?$doug_lea_alloc@U_MatrixItem@R_dsgraph@@@@@std@@AAEXPAU_MatrixItem@R_dsgraph@@0@Z ; std::vector<R_dsgraph::_MatrixItem,doug_lea_alloc<R_dsgraph::_MatrixItem> >::_Destroy
PUBLIC	??$_Destroy_range@V?$doug_lea_alloc@U_MatrixItem@R_dsgraph@@@@@std@@YAXPAU_MatrixItem@R_dsgraph@@QAU12@AAV?$doug_lea_alloc@U_MatrixItem@R_dsgraph@@@@@Z ; std::_Destroy_range<doug_lea_alloc<R_dsgraph::_MatrixItem> >
PUBLIC	??$destroy@U_MatrixItem@R_dsgraph@@@?$_Normal_allocator_traits@V?$doug_lea_alloc@U_MatrixItem@R_dsgraph@@@@@std@@SAXAAV?$doug_lea_alloc@U_MatrixItem@R_dsgraph@@@@PAU_MatrixItem@R_dsgraph@@@Z ; std::_Normal_allocator_traits<doug_lea_alloc<R_dsgraph::_MatrixItem> >::destroy<R_dsgraph::_MatrixItem>
PUBLIC	?destroy@?$doug_lea_alloc@U_MatrixItem@R_dsgraph@@@@QAEXPAU_MatrixItem@R_dsgraph@@@Z ; doug_lea_alloc<R_dsgraph::_MatrixItem>::destroy
PUBLIC	??$_Destroy_in_place@PAU_MatrixItem@R_dsgraph@@@std@@YAXAAPAU_MatrixItem@R_dsgraph@@@Z ; std::_Destroy_in_place<R_dsgraph::_MatrixItem *>
PUBLIC	?deallocate@?$doug_lea_alloc@U_MatrixItem@R_dsgraph@@@@QBEXPAU_MatrixItem@R_dsgraph@@I@Z ; doug_lea_alloc<R_dsgraph::_MatrixItem>::deallocate
PUBLIC	?_Destroy@?$vector@U_NormalItem@R_dsgraph@@V?$doug_lea_alloc@U_NormalItem@R_dsgraph@@@@@std@@AAEXPAU_NormalItem@R_dsgraph@@0@Z ; std::vector<R_dsgraph::_NormalItem,doug_lea_alloc<R_dsgraph::_NormalItem> >::_Destroy
PUBLIC	??$_Destroy_range@V?$doug_lea_alloc@U_NormalItem@R_dsgraph@@@@@std@@YAXPAU_NormalItem@R_dsgraph@@QAU12@AAV?$doug_lea_alloc@U_NormalItem@R_dsgraph@@@@@Z ; std::_Destroy_range<doug_lea_alloc<R_dsgraph::_NormalItem> >
PUBLIC	??$destroy@U_NormalItem@R_dsgraph@@@?$_Normal_allocator_traits@V?$doug_lea_alloc@U_NormalItem@R_dsgraph@@@@@std@@SAXAAV?$doug_lea_alloc@U_NormalItem@R_dsgraph@@@@PAU_NormalItem@R_dsgraph@@@Z ; std::_Normal_allocator_traits<doug_lea_alloc<R_dsgraph::_NormalItem> >::destroy<R_dsgraph::_NormalItem>
PUBLIC	?destroy@?$doug_lea_alloc@U_NormalItem@R_dsgraph@@@@QAEXPAU_NormalItem@R_dsgraph@@@Z ; doug_lea_alloc<R_dsgraph::_NormalItem>::destroy
PUBLIC	??$_Destroy_in_place@PAU_NormalItem@R_dsgraph@@@std@@YAXAAPAU_NormalItem@R_dsgraph@@@Z ; std::_Destroy_in_place<R_dsgraph::_NormalItem *>
PUBLIC	?deallocate@?$doug_lea_alloc@U_NormalItem@R_dsgraph@@@@QBEXPAU_NormalItem@R_dsgraph@@I@Z ; doug_lea_alloc<R_dsgraph::_NormalItem>::deallocate
PUBLIC	??$construct@U_NormalItem@R_dsgraph@@U12@@?$_Normal_allocator_traits@V?$doug_lea_alloc@U_NormalItem@R_dsgraph@@@@@std@@SAXAAV?$doug_lea_alloc@U_NormalItem@R_dsgraph@@@@PAU_NormalItem@R_dsgraph@@$$QAU34@@Z ; std::_Normal_allocator_traits<doug_lea_alloc<R_dsgraph::_NormalItem> >::construct<R_dsgraph::_NormalItem,R_dsgraph::_NormalItem>
PUBLIC	??$forward@U_NormalItem@R_dsgraph@@@std@@YA$$QAU_NormalItem@R_dsgraph@@AAU12@@Z ; std::forward<R_dsgraph::_NormalItem>
PUBLIC	??$construct@U_MatrixItem@R_dsgraph@@U12@@?$_Normal_allocator_traits@V?$doug_lea_alloc@U_MatrixItem@R_dsgraph@@@@@std@@SAXAAV?$doug_lea_alloc@U_MatrixItem@R_dsgraph@@@@PAU_MatrixItem@R_dsgraph@@$$QAU34@@Z ; std::_Normal_allocator_traits<doug_lea_alloc<R_dsgraph::_MatrixItem> >::construct<R_dsgraph::_MatrixItem,R_dsgraph::_MatrixItem>
PUBLIC	??$forward@U_MatrixItem@R_dsgraph@@@std@@YA$$QAU_MatrixItem@R_dsgraph@@AAU12@@Z ; std::forward<R_dsgraph::_MatrixItem>
PUBLIC	??$_Emplace_back@U_NormalItem@R_dsgraph@@@?$_Uninitialized_backout_al@V?$doug_lea_alloc@U_NormalItem@R_dsgraph@@@@@std@@QAEX$$QAU_NormalItem@R_dsgraph@@@Z ; std::_Uninitialized_backout_al<doug_lea_alloc<R_dsgraph::_NormalItem> >::_Emplace_back<R_dsgraph::_NormalItem>
PUBLIC	??$move@AAU_NormalItem@R_dsgraph@@@std@@YA$$QAU_NormalItem@R_dsgraph@@AAU12@@Z ; std::move<R_dsgraph::_NormalItem &>
PUBLIC	??$_Emplace_back@U_MatrixItem@R_dsgraph@@@?$_Uninitialized_backout_al@V?$doug_lea_alloc@U_MatrixItem@R_dsgraph@@@@@std@@QAEX$$QAU_MatrixItem@R_dsgraph@@@Z ; std::_Uninitialized_backout_al<doug_lea_alloc<R_dsgraph::_MatrixItem> >::_Emplace_back<R_dsgraph::_MatrixItem>
PUBLIC	??$move@AAU_MatrixItem@R_dsgraph@@@std@@YA$$QAU_MatrixItem@R_dsgraph@@AAU12@@Z ; std::move<R_dsgraph::_MatrixItem &>
PUBLIC	??0?$_Uninitialized_backout_al@V?$doug_lea_alloc@U_MatrixItem@R_dsgraph@@@@@std@@QAE@PAU_MatrixItem@R_dsgraph@@AAV?$doug_lea_alloc@U_MatrixItem@R_dsgraph@@@@@Z ; std::_Uninitialized_backout_al<doug_lea_alloc<R_dsgraph::_MatrixItem> >::_Uninitialized_backout_al<doug_lea_alloc<R_dsgraph::_MatrixItem> >
PUBLIC	??1?$_Uninitialized_backout_al@V?$doug_lea_alloc@U_MatrixItem@R_dsgraph@@@@@std@@QAE@XZ ; std::_Uninitialized_backout_al<doug_lea_alloc<R_dsgraph::_MatrixItem> >::~_Uninitialized_backout_al<doug_lea_alloc<R_dsgraph::_MatrixItem> >
PUBLIC	?_Release@?$_Uninitialized_backout_al@V?$doug_lea_alloc@U_MatrixItem@R_dsgraph@@@@@std@@QAEPAU_MatrixItem@R_dsgraph@@XZ ; std::_Uninitialized_backout_al<doug_lea_alloc<R_dsgraph::_MatrixItem> >::_Release
PUBLIC	??0?$_Uninitialized_backout_al@V?$doug_lea_alloc@U_NormalItem@R_dsgraph@@@@@std@@QAE@PAU_NormalItem@R_dsgraph@@AAV?$doug_lea_alloc@U_NormalItem@R_dsgraph@@@@@Z ; std::_Uninitialized_backout_al<doug_lea_alloc<R_dsgraph::_NormalItem> >::_Uninitialized_backout_al<doug_lea_alloc<R_dsgraph::_NormalItem> >
PUBLIC	??1?$_Uninitialized_backout_al@V?$doug_lea_alloc@U_NormalItem@R_dsgraph@@@@@std@@QAE@XZ ; std::_Uninitialized_backout_al<doug_lea_alloc<R_dsgraph::_NormalItem> >::~_Uninitialized_backout_al<doug_lea_alloc<R_dsgraph::_NormalItem> >
PUBLIC	?_Release@?$_Uninitialized_backout_al@V?$doug_lea_alloc@U_NormalItem@R_dsgraph@@@@@std@@QAEPAU_NormalItem@R_dsgraph@@XZ ; std::_Uninitialized_backout_al<doug_lea_alloc<R_dsgraph::_NormalItem> >::_Release
PUBLIC	??$_Get_unwrapped@ABQAU_NormalItem@R_dsgraph@@@std@@YA?A_TABQAU_NormalItem@R_dsgraph@@@Z ; std::_Get_unwrapped<R_dsgraph::_NormalItem * const &>
PUBLIC	??$_Uninitialized_move@PAU_NormalItem@R_dsgraph@@V?$doug_lea_alloc@U_NormalItem@R_dsgraph@@@@@std@@YAPAU_NormalItem@R_dsgraph@@QAU12@0PAU12@AAV?$doug_lea_alloc@U_NormalItem@R_dsgraph@@@@@Z ; std::_Uninitialized_move<R_dsgraph::_NormalItem *,doug_lea_alloc<R_dsgraph::_NormalItem> >
PUBLIC	??$_Get_unwrapped@ABQAU_MatrixItem@R_dsgraph@@@std@@YA?A_TABQAU_MatrixItem@R_dsgraph@@@Z ; std::_Get_unwrapped<R_dsgraph::_MatrixItem * const &>
PUBLIC	??$_Uninitialized_move@PAU_MatrixItem@R_dsgraph@@V?$doug_lea_alloc@U_MatrixItem@R_dsgraph@@@@@std@@YAPAU_MatrixItem@R_dsgraph@@QAU12@0PAU12@AAV?$doug_lea_alloc@U_MatrixItem@R_dsgraph@@@@@Z ; std::_Uninitialized_move<R_dsgraph::_MatrixItem *,doug_lea_alloc<R_dsgraph::_MatrixItem> >
PUBLIC	?max_size@?$doug_lea_alloc@U_NormalItem@R_dsgraph@@@@QBEIXZ ; doug_lea_alloc<R_dsgraph::_NormalItem>::max_size
PUBLIC	?_Get_first@?$_Compressed_pair@V?$doug_lea_alloc@U_NormalItem@R_dsgraph@@@@V?$_Vector_val@U?$_Simple_types@U_NormalItem@R_dsgraph@@@std@@@std@@$00@std@@QBEABV?$doug_lea_alloc@U_NormalItem@R_dsgraph@@@@XZ ; std::_Compressed_pair<doug_lea_alloc<R_dsgraph::_NormalItem>,std::_Vector_val<std::_Simple_types<R_dsgraph::_NormalItem> >,1>::_Get_first
PUBLIC	?max_size@?$doug_lea_alloc@U_MatrixItem@R_dsgraph@@@@QBEIXZ ; doug_lea_alloc<R_dsgraph::_MatrixItem>::max_size
PUBLIC	?_Get_first@?$_Compressed_pair@V?$doug_lea_alloc@U_MatrixItem@R_dsgraph@@@@V?$_Vector_val@U?$_Simple_types@U_MatrixItem@R_dsgraph@@@std@@@std@@$00@std@@QBEABV?$doug_lea_alloc@U_MatrixItem@R_dsgraph@@@@XZ ; std::_Compressed_pair<doug_lea_alloc<R_dsgraph::_MatrixItem>,std::_Vector_val<std::_Simple_types<R_dsgraph::_MatrixItem> >,1>::_Get_first
PUBLIC	?max_size@?$_Normal_allocator_traits@V?$doug_lea_alloc@U_NormalItem@R_dsgraph@@@@@std@@SAIABV?$doug_lea_alloc@U_NormalItem@R_dsgraph@@@@@Z ; std::_Normal_allocator_traits<doug_lea_alloc<R_dsgraph::_NormalItem> >::max_size
PUBLIC	?capacity@?$vector@U_NormalItem@R_dsgraph@@V?$doug_lea_alloc@U_NormalItem@R_dsgraph@@@@@std@@QBEIXZ ; std::vector<R_dsgraph::_NormalItem,doug_lea_alloc<R_dsgraph::_NormalItem> >::capacity
PUBLIC	?_Umove_if_noexcept1@?$vector@U_NormalItem@R_dsgraph@@V?$doug_lea_alloc@U_NormalItem@R_dsgraph@@@@@std@@AAEXPAU_NormalItem@R_dsgraph@@00U?$integral_constant@_N$00@2@@Z ; std::vector<R_dsgraph::_NormalItem,doug_lea_alloc<R_dsgraph::_NormalItem> >::_Umove_if_noexcept1
PUBLIC	?_Getal@?$vector@U_NormalItem@R_dsgraph@@V?$doug_lea_alloc@U_NormalItem@R_dsgraph@@@@@std@@ABEABV?$doug_lea_alloc@U_NormalItem@R_dsgraph@@@@XZ ; std::vector<R_dsgraph::_NormalItem,doug_lea_alloc<R_dsgraph::_NormalItem> >::_Getal
PUBLIC	?max_size@?$_Normal_allocator_traits@V?$doug_lea_alloc@U_MatrixItem@R_dsgraph@@@@@std@@SAIABV?$doug_lea_alloc@U_MatrixItem@R_dsgraph@@@@@Z ; std::_Normal_allocator_traits<doug_lea_alloc<R_dsgraph::_MatrixItem> >::max_size
PUBLIC	?capacity@?$vector@U_MatrixItem@R_dsgraph@@V?$doug_lea_alloc@U_MatrixItem@R_dsgraph@@@@@std@@QBEIXZ ; std::vector<R_dsgraph::_MatrixItem,doug_lea_alloc<R_dsgraph::_MatrixItem> >::capacity
PUBLIC	?_Umove_if_noexcept1@?$vector@U_MatrixItem@R_dsgraph@@V?$doug_lea_alloc@U_MatrixItem@R_dsgraph@@@@@std@@AAEXPAU_MatrixItem@R_dsgraph@@00U?$integral_constant@_N$00@2@@Z ; std::vector<R_dsgraph::_MatrixItem,doug_lea_alloc<R_dsgraph::_MatrixItem> >::_Umove_if_noexcept1
PUBLIC	?_Getal@?$vector@U_MatrixItem@R_dsgraph@@V?$doug_lea_alloc@U_MatrixItem@R_dsgraph@@@@@std@@ABEABV?$doug_lea_alloc@U_MatrixItem@R_dsgraph@@@@XZ ; std::vector<R_dsgraph::_MatrixItem,doug_lea_alloc<R_dsgraph::_MatrixItem> >::_Getal
PUBLIC	?allocate@?$doug_lea_alloc@U_NormalItem@R_dsgraph@@@@QBEPAU_NormalItem@R_dsgraph@@IPBX@Z ; doug_lea_alloc<R_dsgraph::_NormalItem>::allocate
PUBLIC	?construct@?$doug_lea_alloc@U_NormalItem@R_dsgraph@@@@QAEXPAU_NormalItem@R_dsgraph@@ABU23@@Z ; doug_lea_alloc<R_dsgraph::_NormalItem>::construct
PUBLIC	?max_size@?$vector@U_NormalItem@R_dsgraph@@V?$doug_lea_alloc@U_NormalItem@R_dsgraph@@@@@std@@QBEIXZ ; std::vector<R_dsgraph::_NormalItem,doug_lea_alloc<R_dsgraph::_NormalItem> >::max_size
PUBLIC	?_Umove@?$vector@U_NormalItem@R_dsgraph@@V?$doug_lea_alloc@U_NormalItem@R_dsgraph@@@@@std@@AAEPAU_NormalItem@R_dsgraph@@PAU34@00@Z ; std::vector<R_dsgraph::_NormalItem,doug_lea_alloc<R_dsgraph::_NormalItem> >::_Umove
PUBLIC	?_Umove_if_noexcept@?$vector@U_NormalItem@R_dsgraph@@V?$doug_lea_alloc@U_NormalItem@R_dsgraph@@@@@std@@AAEXPAU_NormalItem@R_dsgraph@@00@Z ; std::vector<R_dsgraph::_NormalItem,doug_lea_alloc<R_dsgraph::_NormalItem> >::_Umove_if_noexcept
PUBLIC	?_Calculate_growth@?$vector@U_NormalItem@R_dsgraph@@V?$doug_lea_alloc@U_NormalItem@R_dsgraph@@@@@std@@ABEII@Z ; std::vector<R_dsgraph::_NormalItem,doug_lea_alloc<R_dsgraph::_NormalItem> >::_Calculate_growth
PUBLIC	?_Change_array@?$vector@U_NormalItem@R_dsgraph@@V?$doug_lea_alloc@U_NormalItem@R_dsgraph@@@@@std@@AAEXQAU_NormalItem@R_dsgraph@@II@Z ; std::vector<R_dsgraph::_NormalItem,doug_lea_alloc<R_dsgraph::_NormalItem> >::_Change_array
PUBLIC	?_Xlength@?$vector@U_NormalItem@R_dsgraph@@V?$doug_lea_alloc@U_NormalItem@R_dsgraph@@@@@std@@CAXXZ ; std::vector<R_dsgraph::_NormalItem,doug_lea_alloc<R_dsgraph::_NormalItem> >::_Xlength
PUBLIC	?allocate@?$doug_lea_alloc@U_MatrixItem@R_dsgraph@@@@QBEPAU_MatrixItem@R_dsgraph@@IPBX@Z ; doug_lea_alloc<R_dsgraph::_MatrixItem>::allocate
PUBLIC	?construct@?$doug_lea_alloc@U_MatrixItem@R_dsgraph@@@@QAEXPAU_MatrixItem@R_dsgraph@@ABU23@@Z ; doug_lea_alloc<R_dsgraph::_MatrixItem>::construct
PUBLIC	?max_size@?$vector@U_MatrixItem@R_dsgraph@@V?$doug_lea_alloc@U_MatrixItem@R_dsgraph@@@@@std@@QBEIXZ ; std::vector<R_dsgraph::_MatrixItem,doug_lea_alloc<R_dsgraph::_MatrixItem> >::max_size
PUBLIC	?_Umove@?$vector@U_MatrixItem@R_dsgraph@@V?$doug_lea_alloc@U_MatrixItem@R_dsgraph@@@@@std@@AAEPAU_MatrixItem@R_dsgraph@@PAU34@00@Z ; std::vector<R_dsgraph::_MatrixItem,doug_lea_alloc<R_dsgraph::_MatrixItem> >::_Umove
PUBLIC	?_Umove_if_noexcept@?$vector@U_MatrixItem@R_dsgraph@@V?$doug_lea_alloc@U_MatrixItem@R_dsgraph@@@@@std@@AAEXPAU_MatrixItem@R_dsgraph@@00@Z ; std::vector<R_dsgraph::_MatrixItem,doug_lea_alloc<R_dsgraph::_MatrixItem> >::_Umove_if_noexcept
PUBLIC	?_Calculate_growth@?$vector@U_MatrixItem@R_dsgraph@@V?$doug_lea_alloc@U_MatrixItem@R_dsgraph@@@@@std@@ABEII@Z ; std::vector<R_dsgraph::_MatrixItem,doug_lea_alloc<R_dsgraph::_MatrixItem> >::_Calculate_growth
PUBLIC	?_Change_array@?$vector@U_MatrixItem@R_dsgraph@@V?$doug_lea_alloc@U_MatrixItem@R_dsgraph@@@@@std@@AAEXQAU_MatrixItem@R_dsgraph@@II@Z ; std::vector<R_dsgraph::_MatrixItem,doug_lea_alloc<R_dsgraph::_MatrixItem> >::_Change_array
PUBLIC	?_Xlength@?$vector@U_MatrixItem@R_dsgraph@@V?$doug_lea_alloc@U_MatrixItem@R_dsgraph@@@@@std@@CAXXZ ; std::vector<R_dsgraph::_MatrixItem,doug_lea_alloc<R_dsgraph::_MatrixItem> >::_Xlength
PUBLIC	??$_Emplace_reallocate@ABU_NormalItem@R_dsgraph@@@?$vector@U_NormalItem@R_dsgraph@@V?$doug_lea_alloc@U_NormalItem@R_dsgraph@@@@@std@@QAEPAU_NormalItem@R_dsgraph@@QAU23@ABU23@@Z ; std::vector<R_dsgraph::_NormalItem,doug_lea_alloc<R_dsgraph::_NormalItem> >::_Emplace_reallocate<R_dsgraph::_NormalItem const &>
PUBLIC	??$construct@U_NormalItem@R_dsgraph@@ABU12@@?$_Normal_allocator_traits@V?$doug_lea_alloc@U_NormalItem@R_dsgraph@@@@@std@@SAXAAV?$doug_lea_alloc@U_NormalItem@R_dsgraph@@@@PAU_NormalItem@R_dsgraph@@ABU34@@Z ; std::_Normal_allocator_traits<doug_lea_alloc<R_dsgraph::_NormalItem> >::construct<R_dsgraph::_NormalItem,R_dsgraph::_NormalItem const &>
PUBLIC	??$forward@ABU_NormalItem@R_dsgraph@@@std@@YAABU_NormalItem@R_dsgraph@@ABU12@@Z ; std::forward<R_dsgraph::_NormalItem const &>
PUBLIC	??$_Emplace_reallocate@ABU_MatrixItem@R_dsgraph@@@?$vector@U_MatrixItem@R_dsgraph@@V?$doug_lea_alloc@U_MatrixItem@R_dsgraph@@@@@std@@QAEPAU_MatrixItem@R_dsgraph@@QAU23@ABU23@@Z ; std::vector<R_dsgraph::_MatrixItem,doug_lea_alloc<R_dsgraph::_MatrixItem> >::_Emplace_reallocate<R_dsgraph::_MatrixItem const &>
PUBLIC	??$construct@U_MatrixItem@R_dsgraph@@ABU12@@?$_Normal_allocator_traits@V?$doug_lea_alloc@U_MatrixItem@R_dsgraph@@@@@std@@SAXAAV?$doug_lea_alloc@U_MatrixItem@R_dsgraph@@@@PAU_MatrixItem@R_dsgraph@@ABU34@@Z ; std::_Normal_allocator_traits<doug_lea_alloc<R_dsgraph::_MatrixItem> >::construct<R_dsgraph::_MatrixItem,R_dsgraph::_MatrixItem const &>
PUBLIC	??$forward@ABU_MatrixItem@R_dsgraph@@@std@@YAABU_MatrixItem@R_dsgraph@@ABU12@@Z ; std::forward<R_dsgraph::_MatrixItem const &>
PUBLIC	?Size@?$FixedMAP@PAUSTextureList@@UmapNormalItems@R_dsgraph@@Udoug_lea_allocator@@@@AAEII@Z ; FixedMAP<STextureList *,R_dsgraph::mapNormalItems,doug_lea_allocator>::Size
PUBLIC	?Size@?$FixedMAP@PAUIDirect3DStateBlock9@@UmapNormalTextures@R_dsgraph@@Udoug_lea_allocator@@@@AAEII@Z ; FixedMAP<IDirect3DStateBlock9 *,R_dsgraph::mapNormalTextures,doug_lea_allocator>::Size
PUBLIC	?Size@?$FixedMAP@PAVR_constant_table@@UmapNormalStates@R_dsgraph@@Udoug_lea_allocator@@@@AAEII@Z ; FixedMAP<R_constant_table *,R_dsgraph::mapNormalStates,doug_lea_allocator>::Size
PUBLIC	?Size@?$FixedMAP@PAUIDirect3DPixelShader9@@UmapNormalCS@R_dsgraph@@Udoug_lea_allocator@@@@AAEII@Z ; FixedMAP<IDirect3DPixelShader9 *,R_dsgraph::mapNormalCS,doug_lea_allocator>::Size
PUBLIC	?Size@?$FixedMAP@PAUIDirect3DVertexShader9@@UmapNormalPS@R_dsgraph@@Udoug_lea_allocator@@@@AAEII@Z ; FixedMAP<IDirect3DVertexShader9 *,R_dsgraph::mapNormalPS,doug_lea_allocator>::Size
PUBLIC	?Size@?$FixedMAP@PAUSTextureList@@UmapMatrixItems@R_dsgraph@@Udoug_lea_allocator@@@@AAEII@Z ; FixedMAP<STextureList *,R_dsgraph::mapMatrixItems,doug_lea_allocator>::Size
PUBLIC	?Size@?$FixedMAP@PAUIDirect3DStateBlock9@@UmapMatrixTextures@R_dsgraph@@Udoug_lea_allocator@@@@AAEII@Z ; FixedMAP<IDirect3DStateBlock9 *,R_dsgraph::mapMatrixTextures,doug_lea_allocator>::Size
PUBLIC	?Size@?$FixedMAP@PAVR_constant_table@@UmapMatrixStates@R_dsgraph@@Udoug_lea_allocator@@@@AAEII@Z ; FixedMAP<R_constant_table *,R_dsgraph::mapMatrixStates,doug_lea_allocator>::Size
PUBLIC	?Size@?$FixedMAP@PAUIDirect3DPixelShader9@@UmapMatrixCS@R_dsgraph@@Udoug_lea_allocator@@@@AAEII@Z ; FixedMAP<IDirect3DPixelShader9 *,R_dsgraph::mapMatrixCS,doug_lea_allocator>::Size
PUBLIC	?Size@?$FixedMAP@PAUIDirect3DVertexShader9@@UmapMatrixPS@R_dsgraph@@Udoug_lea_allocator@@@@AAEII@Z ; FixedMAP<IDirect3DVertexShader9 *,R_dsgraph::mapMatrixPS,doug_lea_allocator>::Size
PUBLIC	?Size@?$FixedMAP@MU_MatrixItemS@R_dsgraph@@Udoug_lea_allocator@@@@AAEII@Z ; FixedMAP<float,R_dsgraph::_MatrixItemS,doug_lea_allocator>::Size
PUBLIC	?Size@?$FixedMAP@MU_LodItem@R_dsgraph@@Udoug_lea_allocator@@@@AAEII@Z ; FixedMAP<float,R_dsgraph::_LodItem,doug_lea_allocator>::Size
PUBLIC	?Realloc@?$FixedMAP@PAUSTextureList@@UmapNormalItems@R_dsgraph@@Udoug_lea_allocator@@@@AAEXXZ ; FixedMAP<STextureList *,R_dsgraph::mapNormalItems,doug_lea_allocator>::Realloc
PUBLIC	?Realloc@?$FixedMAP@PAUIDirect3DStateBlock9@@UmapNormalTextures@R_dsgraph@@Udoug_lea_allocator@@@@AAEXXZ ; FixedMAP<IDirect3DStateBlock9 *,R_dsgraph::mapNormalTextures,doug_lea_allocator>::Realloc
PUBLIC	?Realloc@?$FixedMAP@PAVR_constant_table@@UmapNormalStates@R_dsgraph@@Udoug_lea_allocator@@@@AAEXXZ ; FixedMAP<R_constant_table *,R_dsgraph::mapNormalStates,doug_lea_allocator>::Realloc
PUBLIC	?Realloc@?$FixedMAP@PAUIDirect3DPixelShader9@@UmapNormalCS@R_dsgraph@@Udoug_lea_allocator@@@@AAEXXZ ; FixedMAP<IDirect3DPixelShader9 *,R_dsgraph::mapNormalCS,doug_lea_allocator>::Realloc
PUBLIC	?Realloc@?$FixedMAP@PAUIDirect3DVertexShader9@@UmapNormalPS@R_dsgraph@@Udoug_lea_allocator@@@@AAEXXZ ; FixedMAP<IDirect3DVertexShader9 *,R_dsgraph::mapNormalPS,doug_lea_allocator>::Realloc
PUBLIC	?Realloc@?$FixedMAP@PAUSTextureList@@UmapMatrixItems@R_dsgraph@@Udoug_lea_allocator@@@@AAEXXZ ; FixedMAP<STextureList *,R_dsgraph::mapMatrixItems,doug_lea_allocator>::Realloc
PUBLIC	?Realloc@?$FixedMAP@PAUIDirect3DStateBlock9@@UmapMatrixTextures@R_dsgraph@@Udoug_lea_allocator@@@@AAEXXZ ; FixedMAP<IDirect3DStateBlock9 *,R_dsgraph::mapMatrixTextures,doug_lea_allocator>::Realloc
PUBLIC	?Realloc@?$FixedMAP@PAVR_constant_table@@UmapMatrixStates@R_dsgraph@@Udoug_lea_allocator@@@@AAEXXZ ; FixedMAP<R_constant_table *,R_dsgraph::mapMatrixStates,doug_lea_allocator>::Realloc
PUBLIC	?Realloc@?$FixedMAP@PAUIDirect3DPixelShader9@@UmapMatrixCS@R_dsgraph@@Udoug_lea_allocator@@@@AAEXXZ ; FixedMAP<IDirect3DPixelShader9 *,R_dsgraph::mapMatrixCS,doug_lea_allocator>::Realloc
PUBLIC	?Realloc@?$FixedMAP@PAUIDirect3DVertexShader9@@UmapMatrixPS@R_dsgraph@@Udoug_lea_allocator@@@@AAEXXZ ; FixedMAP<IDirect3DVertexShader9 *,R_dsgraph::mapMatrixPS,doug_lea_allocator>::Realloc
PUBLIC	?Realloc@?$FixedMAP@MU_MatrixItemS@R_dsgraph@@Udoug_lea_allocator@@@@AAEXXZ ; FixedMAP<float,R_dsgraph::_MatrixItemS,doug_lea_allocator>::Realloc
PUBLIC	?Realloc@?$FixedMAP@MU_LodItem@R_dsgraph@@Udoug_lea_allocator@@@@AAEXXZ ; FixedMAP<float,R_dsgraph::_LodItem,doug_lea_allocator>::Realloc
PUBLIC	?_Orphan_range@?$vector@U_NormalItem@R_dsgraph@@V?$doug_lea_alloc@U_NormalItem@R_dsgraph@@@@@std@@ABEXPAU_NormalItem@R_dsgraph@@0@Z ; std::vector<R_dsgraph::_NormalItem,doug_lea_alloc<R_dsgraph::_NormalItem> >::_Orphan_range
PUBLIC	?Alloc@?$FixedMAP@PAUSTextureList@@UmapNormalItems@R_dsgraph@@Udoug_lea_allocator@@@@AAEPAUTNode@1@ABQAUSTextureList@@@Z ; FixedMAP<STextureList *,R_dsgraph::mapNormalItems,doug_lea_allocator>::Alloc
PUBLIC	?CreateChild@?$FixedMAP@PAUSTextureList@@UmapNormalItems@R_dsgraph@@Udoug_lea_allocator@@@@AAEPAUTNode@1@AAPAU21@ABQAUSTextureList@@@Z ; FixedMAP<STextureList *,R_dsgraph::mapNormalItems,doug_lea_allocator>::CreateChild
PUBLIC	?Alloc@?$FixedMAP@PAUIDirect3DStateBlock9@@UmapNormalTextures@R_dsgraph@@Udoug_lea_allocator@@@@AAEPAUTNode@1@ABQAUIDirect3DStateBlock9@@@Z ; FixedMAP<IDirect3DStateBlock9 *,R_dsgraph::mapNormalTextures,doug_lea_allocator>::Alloc
PUBLIC	?CreateChild@?$FixedMAP@PAUIDirect3DStateBlock9@@UmapNormalTextures@R_dsgraph@@Udoug_lea_allocator@@@@AAEPAUTNode@1@AAPAU21@ABQAUIDirect3DStateBlock9@@@Z ; FixedMAP<IDirect3DStateBlock9 *,R_dsgraph::mapNormalTextures,doug_lea_allocator>::CreateChild
PUBLIC	?Alloc@?$FixedMAP@PAVR_constant_table@@UmapNormalStates@R_dsgraph@@Udoug_lea_allocator@@@@AAEPAUTNode@1@ABQAVR_constant_table@@@Z ; FixedMAP<R_constant_table *,R_dsgraph::mapNormalStates,doug_lea_allocator>::Alloc
PUBLIC	?CreateChild@?$FixedMAP@PAVR_constant_table@@UmapNormalStates@R_dsgraph@@Udoug_lea_allocator@@@@AAEPAUTNode@1@AAPAU21@ABQAVR_constant_table@@@Z ; FixedMAP<R_constant_table *,R_dsgraph::mapNormalStates,doug_lea_allocator>::CreateChild
PUBLIC	?Alloc@?$FixedMAP@PAUIDirect3DPixelShader9@@UmapNormalCS@R_dsgraph@@Udoug_lea_allocator@@@@AAEPAUTNode@1@ABQAUIDirect3DPixelShader9@@@Z ; FixedMAP<IDirect3DPixelShader9 *,R_dsgraph::mapNormalCS,doug_lea_allocator>::Alloc
PUBLIC	?CreateChild@?$FixedMAP@PAUIDirect3DPixelShader9@@UmapNormalCS@R_dsgraph@@Udoug_lea_allocator@@@@AAEPAUTNode@1@AAPAU21@ABQAUIDirect3DPixelShader9@@@Z ; FixedMAP<IDirect3DPixelShader9 *,R_dsgraph::mapNormalCS,doug_lea_allocator>::CreateChild
PUBLIC	?Alloc@?$FixedMAP@PAUIDirect3DVertexShader9@@UmapNormalPS@R_dsgraph@@Udoug_lea_allocator@@@@AAEPAUTNode@1@ABQAUIDirect3DVertexShader9@@@Z ; FixedMAP<IDirect3DVertexShader9 *,R_dsgraph::mapNormalPS,doug_lea_allocator>::Alloc
PUBLIC	?CreateChild@?$FixedMAP@PAUIDirect3DVertexShader9@@UmapNormalPS@R_dsgraph@@Udoug_lea_allocator@@@@AAEPAUTNode@1@AAPAU21@ABQAUIDirect3DVertexShader9@@@Z ; FixedMAP<IDirect3DVertexShader9 *,R_dsgraph::mapNormalPS,doug_lea_allocator>::CreateChild
PUBLIC	?_Orphan_range@?$vector@U_MatrixItem@R_dsgraph@@V?$doug_lea_alloc@U_MatrixItem@R_dsgraph@@@@@std@@ABEXPAU_MatrixItem@R_dsgraph@@0@Z ; std::vector<R_dsgraph::_MatrixItem,doug_lea_alloc<R_dsgraph::_MatrixItem> >::_Orphan_range
PUBLIC	?Alloc@?$FixedMAP@PAUSTextureList@@UmapMatrixItems@R_dsgraph@@Udoug_lea_allocator@@@@AAEPAUTNode@1@ABQAUSTextureList@@@Z ; FixedMAP<STextureList *,R_dsgraph::mapMatrixItems,doug_lea_allocator>::Alloc
PUBLIC	?CreateChild@?$FixedMAP@PAUSTextureList@@UmapMatrixItems@R_dsgraph@@Udoug_lea_allocator@@@@AAEPAUTNode@1@AAPAU21@ABQAUSTextureList@@@Z ; FixedMAP<STextureList *,R_dsgraph::mapMatrixItems,doug_lea_allocator>::CreateChild
PUBLIC	?Alloc@?$FixedMAP@PAUIDirect3DStateBlock9@@UmapMatrixTextures@R_dsgraph@@Udoug_lea_allocator@@@@AAEPAUTNode@1@ABQAUIDirect3DStateBlock9@@@Z ; FixedMAP<IDirect3DStateBlock9 *,R_dsgraph::mapMatrixTextures,doug_lea_allocator>::Alloc
PUBLIC	?CreateChild@?$FixedMAP@PAUIDirect3DStateBlock9@@UmapMatrixTextures@R_dsgraph@@Udoug_lea_allocator@@@@AAEPAUTNode@1@AAPAU21@ABQAUIDirect3DStateBlock9@@@Z ; FixedMAP<IDirect3DStateBlock9 *,R_dsgraph::mapMatrixTextures,doug_lea_allocator>::CreateChild
PUBLIC	?Alloc@?$FixedMAP@PAVR_constant_table@@UmapMatrixStates@R_dsgraph@@Udoug_lea_allocator@@@@AAEPAUTNode@1@ABQAVR_constant_table@@@Z ; FixedMAP<R_constant_table *,R_dsgraph::mapMatrixStates,doug_lea_allocator>::Alloc
PUBLIC	?CreateChild@?$FixedMAP@PAVR_constant_table@@UmapMatrixStates@R_dsgraph@@Udoug_lea_allocator@@@@AAEPAUTNode@1@AAPAU21@ABQAVR_constant_table@@@Z ; FixedMAP<R_constant_table *,R_dsgraph::mapMatrixStates,doug_lea_allocator>::CreateChild
PUBLIC	?Alloc@?$FixedMAP@PAUIDirect3DPixelShader9@@UmapMatrixCS@R_dsgraph@@Udoug_lea_allocator@@@@AAEPAUTNode@1@ABQAUIDirect3DPixelShader9@@@Z ; FixedMAP<IDirect3DPixelShader9 *,R_dsgraph::mapMatrixCS,doug_lea_allocator>::Alloc
PUBLIC	?CreateChild@?$FixedMAP@PAUIDirect3DPixelShader9@@UmapMatrixCS@R_dsgraph@@Udoug_lea_allocator@@@@AAEPAUTNode@1@AAPAU21@ABQAUIDirect3DPixelShader9@@@Z ; FixedMAP<IDirect3DPixelShader9 *,R_dsgraph::mapMatrixCS,doug_lea_allocator>::CreateChild
PUBLIC	?Alloc@?$FixedMAP@PAUIDirect3DVertexShader9@@UmapMatrixPS@R_dsgraph@@Udoug_lea_allocator@@@@AAEPAUTNode@1@ABQAUIDirect3DVertexShader9@@@Z ; FixedMAP<IDirect3DVertexShader9 *,R_dsgraph::mapMatrixPS,doug_lea_allocator>::Alloc
PUBLIC	?CreateChild@?$FixedMAP@PAUIDirect3DVertexShader9@@UmapMatrixPS@R_dsgraph@@Udoug_lea_allocator@@@@AAEPAUTNode@1@AAPAU21@ABQAUIDirect3DVertexShader9@@@Z ; FixedMAP<IDirect3DVertexShader9 *,R_dsgraph::mapMatrixPS,doug_lea_allocator>::CreateChild
PUBLIC	?Alloc@?$FixedMAP@MU_MatrixItemS@R_dsgraph@@Udoug_lea_allocator@@@@AAEPAUTNode@1@ABM@Z ; FixedMAP<float,R_dsgraph::_MatrixItemS,doug_lea_allocator>::Alloc
PUBLIC	?CreateChild@?$FixedMAP@MU_MatrixItemS@R_dsgraph@@Udoug_lea_allocator@@@@AAEPAUTNode@1@AAPAU21@ABM@Z ; FixedMAP<float,R_dsgraph::_MatrixItemS,doug_lea_allocator>::CreateChild
PUBLIC	?Alloc@?$FixedMAP@MU_LodItem@R_dsgraph@@Udoug_lea_allocator@@@@AAEPAUTNode@1@ABM@Z ; FixedMAP<float,R_dsgraph::_LodItem,doug_lea_allocator>::Alloc
PUBLIC	?CreateChild@?$FixedMAP@MU_LodItem@R_dsgraph@@Udoug_lea_allocator@@@@AAEPAUTNode@1@AAPAU21@ABM@Z ; FixedMAP<float,R_dsgraph::_LodItem,doug_lea_allocator>::CreateChild
PUBLIC	?_get@?$resptr_base@VR_constant_table@@@@QBEPAVR_constant_table@@XZ ; resptr_base<R_constant_table>::_get
PUBLIC	?_get@?$resptr_base@USTextureList@@@@QBEPAUSTextureList@@XZ ; resptr_base<STextureList>::_get
PUBLIC	?front@?$svector@V?$resptr_core@USPass@@V?$resptr_base@USPass@@@@@@$01@@QAEAAV?$resptr_core@USPass@@V?$resptr_base@USPass@@@@@@XZ ; svector<resptr_core<SPass,resptr_base<SPass> >,2>::front
PUBLIC	??$_Emplace_back_with_unused_capacity@ABU_NormalItem@R_dsgraph@@@?$vector@U_NormalItem@R_dsgraph@@V?$doug_lea_alloc@U_NormalItem@R_dsgraph@@@@@std@@AAE?A_TABU_NormalItem@R_dsgraph@@@Z ; std::vector<R_dsgraph::_NormalItem,doug_lea_alloc<R_dsgraph::_NormalItem> >::_Emplace_back_with_unused_capacity<R_dsgraph::_NormalItem const &>
PUBLIC	??$emplace_back@ABU_NormalItem@R_dsgraph@@@?$vector@U_NormalItem@R_dsgraph@@V?$doug_lea_alloc@U_NormalItem@R_dsgraph@@@@@std@@QAE?A_TABU_NormalItem@R_dsgraph@@@Z ; std::vector<R_dsgraph::_NormalItem,doug_lea_alloc<R_dsgraph::_NormalItem> >::emplace_back<R_dsgraph::_NormalItem const &>
PUBLIC	?push_back@?$vector@U_NormalItem@R_dsgraph@@V?$doug_lea_alloc@U_NormalItem@R_dsgraph@@@@@std@@QAEXABU_NormalItem@R_dsgraph@@@Z ; std::vector<R_dsgraph::_NormalItem,doug_lea_alloc<R_dsgraph::_NormalItem> >::push_back
PUBLIC	?insert@?$FixedMAP@PAUSTextureList@@UmapNormalItems@R_dsgraph@@Udoug_lea_allocator@@@@QAEPAUTNode@1@ABQAUSTextureList@@@Z ; FixedMAP<STextureList *,R_dsgraph::mapNormalItems,doug_lea_allocator>::insert
PUBLIC	?insert@?$FixedMAP@PAUIDirect3DStateBlock9@@UmapNormalTextures@R_dsgraph@@Udoug_lea_allocator@@@@QAEPAUTNode@1@ABQAUIDirect3DStateBlock9@@@Z ; FixedMAP<IDirect3DStateBlock9 *,R_dsgraph::mapNormalTextures,doug_lea_allocator>::insert
PUBLIC	?insert@?$FixedMAP@PAVR_constant_table@@UmapNormalStates@R_dsgraph@@Udoug_lea_allocator@@@@QAEPAUTNode@1@ABQAVR_constant_table@@@Z ; FixedMAP<R_constant_table *,R_dsgraph::mapNormalStates,doug_lea_allocator>::insert
PUBLIC	?insert@?$FixedMAP@PAUIDirect3DPixelShader9@@UmapNormalCS@R_dsgraph@@Udoug_lea_allocator@@@@QAEPAUTNode@1@ABQAUIDirect3DPixelShader9@@@Z ; FixedMAP<IDirect3DPixelShader9 *,R_dsgraph::mapNormalCS,doug_lea_allocator>::insert
PUBLIC	?insert@?$FixedMAP@PAUIDirect3DVertexShader9@@UmapNormalPS@R_dsgraph@@Udoug_lea_allocator@@@@QAEPAUTNode@1@ABQAUIDirect3DVertexShader9@@@Z ; FixedMAP<IDirect3DVertexShader9 *,R_dsgraph::mapNormalPS,doug_lea_allocator>::insert
PUBLIC	??$_Emplace_back_with_unused_capacity@ABU_MatrixItem@R_dsgraph@@@?$vector@U_MatrixItem@R_dsgraph@@V?$doug_lea_alloc@U_MatrixItem@R_dsgraph@@@@@std@@AAE?A_TABU_MatrixItem@R_dsgraph@@@Z ; std::vector<R_dsgraph::_MatrixItem,doug_lea_alloc<R_dsgraph::_MatrixItem> >::_Emplace_back_with_unused_capacity<R_dsgraph::_MatrixItem const &>
PUBLIC	??$emplace_back@ABU_MatrixItem@R_dsgraph@@@?$vector@U_MatrixItem@R_dsgraph@@V?$doug_lea_alloc@U_MatrixItem@R_dsgraph@@@@@std@@QAE?A_TABU_MatrixItem@R_dsgraph@@@Z ; std::vector<R_dsgraph::_MatrixItem,doug_lea_alloc<R_dsgraph::_MatrixItem> >::emplace_back<R_dsgraph::_MatrixItem const &>
PUBLIC	?push_back@?$vector@U_MatrixItem@R_dsgraph@@V?$doug_lea_alloc@U_MatrixItem@R_dsgraph@@@@@std@@QAEXABU_MatrixItem@R_dsgraph@@@Z ; std::vector<R_dsgraph::_MatrixItem,doug_lea_alloc<R_dsgraph::_MatrixItem> >::push_back
PUBLIC	?insert@?$FixedMAP@PAUSTextureList@@UmapMatrixItems@R_dsgraph@@Udoug_lea_allocator@@@@QAEPAUTNode@1@ABQAUSTextureList@@@Z ; FixedMAP<STextureList *,R_dsgraph::mapMatrixItems,doug_lea_allocator>::insert
PUBLIC	?insert@?$FixedMAP@PAUIDirect3DStateBlock9@@UmapMatrixTextures@R_dsgraph@@Udoug_lea_allocator@@@@QAEPAUTNode@1@ABQAUIDirect3DStateBlock9@@@Z ; FixedMAP<IDirect3DStateBlock9 *,R_dsgraph::mapMatrixTextures,doug_lea_allocator>::insert
PUBLIC	?insert@?$FixedMAP@PAVR_constant_table@@UmapMatrixStates@R_dsgraph@@Udoug_lea_allocator@@@@QAEPAUTNode@1@ABQAVR_constant_table@@@Z ; FixedMAP<R_constant_table *,R_dsgraph::mapMatrixStates,doug_lea_allocator>::insert
PUBLIC	?insert@?$FixedMAP@PAUIDirect3DPixelShader9@@UmapMatrixCS@R_dsgraph@@Udoug_lea_allocator@@@@QAEPAUTNode@1@ABQAUIDirect3DPixelShader9@@@Z ; FixedMAP<IDirect3DPixelShader9 *,R_dsgraph::mapMatrixCS,doug_lea_allocator>::insert
PUBLIC	?insert@?$FixedMAP@PAUIDirect3DVertexShader9@@UmapMatrixPS@R_dsgraph@@Udoug_lea_allocator@@@@QAEPAUTNode@1@ABQAUIDirect3DVertexShader9@@@Z ; FixedMAP<IDirect3DVertexShader9 *,R_dsgraph::mapMatrixPS,doug_lea_allocator>::insert
PUBLIC	?insertInAnyWay@?$FixedMAP@MU_MatrixItemS@R_dsgraph@@Udoug_lea_allocator@@@@QAEPAUTNode@1@ABM@Z ; FixedMAP<float,R_dsgraph::_MatrixItemS,doug_lea_allocator>::insertInAnyWay
PUBLIC	?insertInAnyWay@?$FixedMAP@MU_LodItem@R_dsgraph@@Udoug_lea_allocator@@@@QAEPAUTNode@1@ABM@Z ; FixedMAP<float,R_dsgraph::_LodItem,doug_lea_allocator>::insertInAnyWay
PUBLIC	?add_Static@CRender@@AAEXPAVIRender_Visual@@I@Z	; CRender::add_Static
PUBLIC	?add_Dynamic@CRender@@AAEHPAVIRender_Visual@@I@Z ; CRender::add_Dynamic
PUBLIC	?add_leafs_Static@CRender@@AAEXPAVIRender_Visual@@@Z ; CRender::add_leafs_Static
PUBLIC	?add_leafs_Dynamic@CRender@@AAEXPAVIRender_Visual@@@Z ; CRender::add_leafs_Dynamic
PUBLIC	?r_dsgraph_insert_static@R_dsgraph_structure@@QAEXPAVIRender_Visual@@@Z ; R_dsgraph_structure::r_dsgraph_insert_static
PUBLIC	?r_dsgraph_insert_dynamic@R_dsgraph_structure@@QAEXPAVIRender_Visual@@AAU?$_vector3@M@@@Z ; R_dsgraph_structure::r_dsgraph_insert_dynamic
PUBLIC	?CalcSSA@@YAMAAMAAU?$_vector3@M@@M@Z		; CalcSSA
PUBLIC	?CalcSSA@@YAMAAMAAU?$_vector3@M@@PAVIRender_Visual@@@Z ; CalcSSA
;	COMDAT xdata$x
xdata$x	SEGMENT
__ehfuncinfo$??$_Emplace_reallocate@ABU_MatrixItem@R_dsgraph@@@?$vector@U_MatrixItem@R_dsgraph@@V?$doug_lea_alloc@U_MatrixItem@R_dsgraph@@@@@std@@QAEPAU_MatrixItem@R_dsgraph@@QAU23@ABU23@@Z DD 019930522H
	DD	02H
	DD	FLAT:__unwindtable$??$_Emplace_reallocate@ABU_MatrixItem@R_dsgraph@@@?$vector@U_MatrixItem@R_dsgraph@@V?$doug_lea_alloc@U_MatrixItem@R_dsgraph@@@@@std@@QAEPAU_MatrixItem@R_dsgraph@@QAU23@ABU23@@Z
	DD	01H
	DD	FLAT:__tryblocktable$??$_Emplace_reallocate@ABU_MatrixItem@R_dsgraph@@@?$vector@U_MatrixItem@R_dsgraph@@V?$doug_lea_alloc@U_MatrixItem@R_dsgraph@@@@@std@@QAEPAU_MatrixItem@R_dsgraph@@QAU23@ABU23@@Z
	DD	2 DUP(00H)
	DD	00H
	DD	00H
__unwindtable$??$_Emplace_reallocate@ABU_MatrixItem@R_dsgraph@@@?$vector@U_MatrixItem@R_dsgraph@@V?$doug_lea_alloc@U_MatrixItem@R_dsgraph@@@@@std@@QAEPAU_MatrixItem@R_dsgraph@@QAU23@ABU23@@Z DD 0ffffffffH
	DD	00H
	DD	0ffffffffH
	DD	00H
__tryblocktable$??$_Emplace_reallocate@ABU_MatrixItem@R_dsgraph@@@?$vector@U_MatrixItem@R_dsgraph@@V?$doug_lea_alloc@U_MatrixItem@R_dsgraph@@@@@std@@QAEPAU_MatrixItem@R_dsgraph@@QAU23@ABU23@@Z DD 00H
	DD	00H
	DD	01H
	DD	01H
	DD	FLAT:__catchsym$??$_Emplace_reallocate@ABU_MatrixItem@R_dsgraph@@@?$vector@U_MatrixItem@R_dsgraph@@V?$doug_lea_alloc@U_MatrixItem@R_dsgraph@@@@@std@@QAEPAU_MatrixItem@R_dsgraph@@QAU23@ABU23@@Z$2
__catchsym$??$_Emplace_reallocate@ABU_MatrixItem@R_dsgraph@@@?$vector@U_MatrixItem@R_dsgraph@@V?$doug_lea_alloc@U_MatrixItem@R_dsgraph@@@@@std@@QAEPAU_MatrixItem@R_dsgraph@@QAU23@ABU23@@Z$2 DD 00H
	DD	00H
	DD	00H
	DD	FLAT:__catch$??$_Emplace_reallocate@ABU_MatrixItem@R_dsgraph@@@?$vector@U_MatrixItem@R_dsgraph@@V?$doug_lea_alloc@U_MatrixItem@R_dsgraph@@@@@std@@QAEPAU_MatrixItem@R_dsgraph@@QAU23@ABU23@@Z$0
xdata$x	ENDS
;	COMDAT xdata$x
xdata$x	SEGMENT
__ehfuncinfo$??$_Emplace_reallocate@ABU_NormalItem@R_dsgraph@@@?$vector@U_NormalItem@R_dsgraph@@V?$doug_lea_alloc@U_NormalItem@R_dsgraph@@@@@std@@QAEPAU_NormalItem@R_dsgraph@@QAU23@ABU23@@Z DD 019930522H
	DD	02H
	DD	FLAT:__unwindtable$??$_Emplace_reallocate@ABU_NormalItem@R_dsgraph@@@?$vector@U_NormalItem@R_dsgraph@@V?$doug_lea_alloc@U_NormalItem@R_dsgraph@@@@@std@@QAEPAU_NormalItem@R_dsgraph@@QAU23@ABU23@@Z
	DD	01H
	DD	FLAT:__tryblocktable$??$_Emplace_reallocate@ABU_NormalItem@R_dsgraph@@@?$vector@U_NormalItem@R_dsgraph@@V?$doug_lea_alloc@U_NormalItem@R_dsgraph@@@@@std@@QAEPAU_NormalItem@R_dsgraph@@QAU23@ABU23@@Z
	DD	2 DUP(00H)
	DD	00H
	DD	00H
__unwindtable$??$_Emplace_reallocate@ABU_NormalItem@R_dsgraph@@@?$vector@U_NormalItem@R_dsgraph@@V?$doug_lea_alloc@U_NormalItem@R_dsgraph@@@@@std@@QAEPAU_NormalItem@R_dsgraph@@QAU23@ABU23@@Z DD 0ffffffffH
	DD	00H
	DD	0ffffffffH
	DD	00H
__tryblocktable$??$_Emplace_reallocate@ABU_NormalItem@R_dsgraph@@@?$vector@U_NormalItem@R_dsgraph@@V?$doug_lea_alloc@U_NormalItem@R_dsgraph@@@@@std@@QAEPAU_NormalItem@R_dsgraph@@QAU23@ABU23@@Z DD 00H
	DD	00H
	DD	01H
	DD	01H
	DD	FLAT:__catchsym$??$_Emplace_reallocate@ABU_NormalItem@R_dsgraph@@@?$vector@U_NormalItem@R_dsgraph@@V?$doug_lea_alloc@U_NormalItem@R_dsgraph@@@@@std@@QAEPAU_NormalItem@R_dsgraph@@QAU23@ABU23@@Z$2
__catchsym$??$_Emplace_reallocate@ABU_NormalItem@R_dsgraph@@@?$vector@U_NormalItem@R_dsgraph@@V?$doug_lea_alloc@U_NormalItem@R_dsgraph@@@@@std@@QAEPAU_NormalItem@R_dsgraph@@QAU23@ABU23@@Z$2 DD 00H
	DD	00H
	DD	00H
	DD	FLAT:__catch$??$_Emplace_reallocate@ABU_NormalItem@R_dsgraph@@@?$vector@U_NormalItem@R_dsgraph@@V?$doug_lea_alloc@U_NormalItem@R_dsgraph@@@@@std@@QAEPAU_NormalItem@R_dsgraph@@QAU23@ABU23@@Z$0
; Function compile flags: /Ogtpy
; File I:\Vitalya\mine\NSProjectX\layers\xrRender\r__dsgraph_build.cpp
; File I:\Vitalya\mine\NSProjectX\xrCore\_vector3d.h
; File I:\Vitalya\mine\NSProjectX\layers\xrRender\r__dsgraph_build.cpp
; File I:\Vitalya\mine\NSProjectX\xrCore\_vector3d.h
; File I:\Vitalya\mine\NSProjectX\layers\xrRender\r__dsgraph_build.cpp
; File I:\Vitalya\mine\NSProjectX\xrCore\_vector3d.h
; File I:\Vitalya\mine\NSProjectX\layers\xrRender\r__dsgraph_build.cpp
;	COMDAT ?CalcSSA@@YAMAAMAAU?$_vector3@M@@PAVIRender_Visual@@@Z
_TEXT	SEGMENT
tv149 = -4						; size = 4
_V$ = 8							; size = 4
?CalcSSA@@YAMAAMAAU?$_vector3@M@@PAVIRender_Visual@@@Z PROC ; CalcSSA, COMDAT
; _distSQ$ = ecx
; _C$ = edx

; 24   : {

	push	ecx

; 26   : 	distSQ	= Device.vCameraPosition.distance_to_sqr(C)+EPS;

	mov	eax, DWORD PTR __imp_?Device@@3VCRenderDevice@@A
; File I:\Vitalya\mine\NSProjectX\xrCore\_vector3d.h

; 287  : 	{	return (x-v.x)*(x-v.x) + (y-v.y)*(y-v.y) + (z-v.z)*(z-v.z);	}

	movss	xmm1, DWORD PTR [eax+492]
	movss	xmm2, DWORD PTR [eax+488]
	movss	xmm0, DWORD PTR [eax+496]
	subss	xmm2, DWORD PTR [edx]
	subss	xmm0, DWORD PTR [edx+8]
	subss	xmm1, DWORD PTR [edx+4]
; File I:\Vitalya\mine\NSProjectX\layers\xrRender\r__dsgraph_build.cpp

; 27   : 	return	R/distSQ;

	mov	eax, DWORD PTR _V$[esp]
; File I:\Vitalya\mine\NSProjectX\xrCore\_vector3d.h

; 287  : 	{	return (x-v.x)*(x-v.x) + (y-v.y)*(y-v.y) + (z-v.z)*(z-v.z);	}

	mulss	xmm2, xmm2
; File I:\Vitalya\mine\NSProjectX\layers\xrRender\r__dsgraph_build.cpp

; 27   : 	return	R/distSQ;

	fld	DWORD PTR [eax+20]
; File I:\Vitalya\mine\NSProjectX\xrCore\_vector3d.h

; 287  : 	{	return (x-v.x)*(x-v.x) + (y-v.y)*(y-v.y) + (z-v.z)*(z-v.z);	}

	mulss	xmm1, xmm1
	mulss	xmm0, xmm0
; File I:\Vitalya\mine\NSProjectX\layers\xrRender\r__dsgraph_build.cpp

; 26   : 	distSQ	= Device.vCameraPosition.distance_to_sqr(C)+EPS;

	addss	xmm2, xmm1
	addss	xmm0, DWORD PTR __real@3727c5ac
	addss	xmm2, xmm0
	movss	DWORD PTR tv149[esp+4], xmm2

; 27   : 	return	R/distSQ;

	fdiv	DWORD PTR tv149[esp+4]
	movss	DWORD PTR [ecx], xmm2

; 28   : }

	pop	ecx
	ret	0
?CalcSSA@@YAMAAMAAU?$_vector3@M@@PAVIRender_Visual@@@Z ENDP ; CalcSSA
_TEXT	ENDS
; Function compile flags: /Ogtpy
; File I:\Vitalya\mine\NSProjectX\layers\xrRender\r__dsgraph_build.cpp
; File I:\Vitalya\mine\NSProjectX\xrCore\_vector3d.h
; File I:\Vitalya\mine\NSProjectX\layers\xrRender\r__dsgraph_build.cpp
;	COMDAT ?CalcSSA@@YAMAAMAAU?$_vector3@M@@M@Z
_TEXT	SEGMENT
tv85 = -4						; size = 4
_R$ = 8							; size = 4
?CalcSSA@@YAMAAMAAU?$_vector3@M@@M@Z PROC		; CalcSSA, COMDAT
; _distSQ$ = ecx
; _C$ = edx

; 30   : {

	push	ecx

; 31   : 	distSQ	= Device.vCameraPosition.distance_to_sqr(C)+EPS;

	mov	eax, DWORD PTR __imp_?Device@@3VCRenderDevice@@A

; 32   : 	return	R/distSQ;

	fld	DWORD PTR _R$[esp]
; File I:\Vitalya\mine\NSProjectX\xrCore\_vector3d.h

; 287  : 	{	return (x-v.x)*(x-v.x) + (y-v.y)*(y-v.y) + (z-v.z)*(z-v.z);	}

	movss	xmm1, DWORD PTR [eax+492]
	movss	xmm2, DWORD PTR [eax+488]
	subss	xmm2, DWORD PTR [edx]
	movss	xmm0, DWORD PTR [eax+496]
	subss	xmm0, DWORD PTR [edx+8]
	subss	xmm1, DWORD PTR [edx+4]
	mulss	xmm2, xmm2
	mulss	xmm0, xmm0
	mulss	xmm1, xmm1
; File I:\Vitalya\mine\NSProjectX\layers\xrRender\r__dsgraph_build.cpp

; 31   : 	distSQ	= Device.vCameraPosition.distance_to_sqr(C)+EPS;

	addss	xmm0, DWORD PTR __real@3727c5ac
	addss	xmm2, xmm1
	addss	xmm2, xmm0
	movss	DWORD PTR tv85[esp+4], xmm2

; 32   : 	return	R/distSQ;

	fdiv	DWORD PTR tv85[esp+4]
	movss	DWORD PTR [ecx], xmm2

; 33   : }

	pop	ecx
	ret	0
?CalcSSA@@YAMAAMAAU?$_vector3@M@@M@Z ENDP		; CalcSSA
_TEXT	ENDS
; Function compile flags: /Ogtpy
; File I:\Vitalya\mine\NSProjectX\layers\xrRender\r__dsgraph_build.cpp
; File I:\Vitalya\mine\NSProjectX\xrCore\_vector3d.h
; File I:\Vitalya\mine\NSProjectX\layers\xrRender\r__dsgraph_build.cpp
; File I:\Vitalya\mine\NSProjectX\xrCore\_vector3d.h
; File I:\Vitalya\mine\NSProjectX\layers\xrRender\r__dsgraph_build.cpp
; File I:\Vitalya\mine\NSProjectX\layers\xrRenderPC_R1\FStaticRender.cpp
; File I:\Vitalya\mine\NSProjectX\layers\xrRenderPC_R1\lightProjector.h
; File I:\Vitalya\mine\NSProjectX\layers\xrRenderPC_R1\FStaticRender.cpp
; File I:\Vitalya\mine\NSProjectX\layers\xrRender\r__dsgraph_build.cpp
; File I:\Vitalya\mine\NSProjectX\layers\xrRenderPC_R1\LightShadows.cpp
; File C:\Program Files\Microsoft Visual Studio\2022\Community\VC\Tools\MSVC\14.29.30133\include\vector
; File I:\Vitalya\mine\NSProjectX\xrCore\_stl_extensions.h
; File C:\Program Files\Microsoft Visual Studio\2022\Community\VC\Tools\MSVC\14.29.30133\include\vector
; File I:\Vitalya\mine\NSProjectX\layers\xrRender\r__dsgraph_build.cpp
; File I:\Vitalya\mine\NSProjectX\xrCore\fixedmap.h
; File I:\Vitalya\mine\NSProjectX\layers\xrRender\r__dsgraph_build.cpp
; File I:\Vitalya\mine\NSProjectX\xrCore\fixedmap.h
; File I:\Vitalya\mine\NSProjectX\layers\xrRender\r__dsgraph_build.cpp
; File I:\Vitalya\mine\NSProjectX\xrCore\fixedmap.h
; File I:\Vitalya\mine\NSProjectX\layers\xrRender\r__dsgraph_build.cpp
; File I:\Vitalya\mine\NSProjectX\xrCore\fixedmap.h
; File I:\Vitalya\mine\NSProjectX\layers\xrRender\r__dsgraph_build.cpp
; File I:\Vitalya\mine\NSProjectX\xrCore\fixedmap.h
; File I:\Vitalya\mine\NSProjectX\layers\xrRender\r__dsgraph_build.cpp
; File I:\Vitalya\mine\NSProjectX\xrCore\fixedmap.h
; File I:\Vitalya\mine\NSProjectX\layers\xrRender\r__dsgraph_build.cpp
; File I:\Vitalya\mine\NSProjectX\xrCore\fixedmap.h
; File I:\Vitalya\mine\NSProjectX\layers\xrRender\r__dsgraph_build.cpp
; File I:\Vitalya\mine\NSProjectX\xrCore\fixedmap.h
; File C:\Program Files\Microsoft Visual Studio\2022\Community\VC\Tools\MSVC\14.29.30133\include\vector
; File I:\Vitalya\mine\NSProjectX\layers\xrRender\r__dsgraph_types.h
; File C:\Program Files\Microsoft Visual Studio\2022\Community\VC\Tools\MSVC\14.29.30133\include\vector
; File I:\Vitalya\mine\NSProjectX\layers\xrRender\r__dsgraph_build.cpp
_TEXT	SEGMENT
_Nps$1$ = -96						; size = 4
_Nvs$1$ = -92						; size = 4
_this$1$ = -92						; size = 4
_SSA$1$ = -88						; size = 4
_pass$1$ = -84						; size = 4
$T1 = -84						; size = 4
_this$1$ = -80						; size = 4
tv1451 = -80						; size = 4
_item$ = -76						; size = 76
_Ncs$1$ = 8						; size = 4
_sh$1$ = 8						; size = 4
_sh_d$1$ = 8						; size = 4
_pVisual$ = 8						; size = 4
_Nstate$1$ = 12						; size = 4
$T2 = 12						; size = 4
_distSQ$ = 12						; size = 4
_Center$ = 12						; size = 4
?r_dsgraph_insert_dynamic@R_dsgraph_structure@@QAEXPAVIRender_Visual@@AAU?$_vector3@M@@@Z PROC ; R_dsgraph_structure::r_dsgraph_insert_dynamic
; _this$ = ecx

; 36   : {

	sub	esp, 96					; 00000060H

; 37   : 	CRender&	RI			=	RImplementation;
; 38   : 
; 39   : 	if (pVisual->vis.marker	==	RI.marker)	return	;

	mov	eax, DWORD PTR ?RImplementation@@3VCRender@@A+296
	push	ebx
	mov	ebx, DWORD PTR _pVisual$[esp+96]
	push	edi
	mov	edi, ecx
	mov	DWORD PTR _this$1$[esp+104], edi
	cmp	DWORD PTR [ebx+48], eax
	je	$LN20@r_dsgraph_

; 40   : 	pVisual->vis.marker		=	RI.marker			;

	mov	DWORD PTR [ebx+48], eax

; 41   : 
; 42   : #if RENDER==R_R1
; 43   : 	if (RI.o.vis_intersect &&	(pVisual->vis.accept_frame!=Device.dwFrame))	return;

	test	BYTE PTR ?RImplementation@@3VCRender@@A+628, 1
	mov	ecx, DWORD PTR __imp_?Device@@3VCRenderDevice@@A
	je	SHORT $LN6@r_dsgraph_
	mov	eax, DWORD PTR [ebx+52]
	cmp	eax, DWORD PTR [ecx+244]
	jne	$LN20@r_dsgraph_
$LN6@r_dsgraph_:

; 44   : 	pVisual->vis.accept_frame	=	Device.dwFrame	;

	mov	eax, DWORD PTR [ecx+244]
	mov	DWORD PTR [ebx+52], eax

; 26   : 	distSQ	= Device.vCameraPosition.distance_to_sqr(C)+EPS;

	mov	ecx, DWORD PTR __imp_?Device@@3VCRenderDevice@@A
; File I:\Vitalya\mine\NSProjectX\xrCore\_vector3d.h

; 287  : 	{	return (x-v.x)*(x-v.x) + (y-v.y)*(y-v.y) + (z-v.z)*(z-v.z);	}

	mov	eax, DWORD PTR _Center$[esp+100]
	movss	xmm0, DWORD PTR [ecx+488]
	movss	xmm1, DWORD PTR [ecx+496]
	subss	xmm1, DWORD PTR [eax+8]
	movss	xmm2, DWORD PTR [ecx+492]
	subss	xmm2, DWORD PTR [eax+4]
	subss	xmm0, DWORD PTR [eax]
	mulss	xmm1, xmm1
	mulss	xmm2, xmm2
; File I:\Vitalya\mine\NSProjectX\layers\xrRender\r__dsgraph_build.cpp

; 26   : 	distSQ	= Device.vCameraPosition.distance_to_sqr(C)+EPS;

	addss	xmm1, DWORD PTR __real@3727c5ac
; File I:\Vitalya\mine\NSProjectX\xrCore\_vector3d.h

; 287  : 	{	return (x-v.x)*(x-v.x) + (y-v.y)*(y-v.y) + (z-v.z)*(z-v.z);	}

	mulss	xmm0, xmm0
; File I:\Vitalya\mine\NSProjectX\layers\xrRender\r__dsgraph_build.cpp

; 26   : 	distSQ	= Device.vCameraPosition.distance_to_sqr(C)+EPS;

	addss	xmm2, xmm0

; 45   : #endif
; 46   : 
; 47   : 	float distSQ			;
; 48   : 	float SSA				=	CalcSSA		(distSQ,Center,pVisual);
; 49   : 	if (SSA<=r_ssaDISCARD)		return;

	movss	xmm0, DWORD PTR ?r_ssaDISCARD@@3MA

; 26   : 	distSQ	= Device.vCameraPosition.distance_to_sqr(C)+EPS;

	addss	xmm2, xmm1

; 27   : 	return	R/distSQ;

	movss	xmm1, DWORD PTR [ebx+20]
	divss	xmm1, xmm2
	movss	DWORD PTR _distSQ$[esp+100], xmm2

; 45   : #endif
; 46   : 
; 47   : 	float distSQ			;
; 48   : 	float SSA				=	CalcSSA		(distSQ,Center,pVisual);
; 49   : 	if (SSA<=r_ssaDISCARD)		return;

	comiss	xmm0, xmm1

; 27   : 	return	R/distSQ;

	movss	DWORD PTR _SSA$1$[esp+104], xmm1

; 45   : #endif
; 46   : 
; 47   : 	float distSQ			;
; 48   : 	float SSA				=	CalcSSA		(distSQ,Center,pVisual);
; 49   : 	if (SSA<=r_ssaDISCARD)		return;

	jae	$LN20@r_dsgraph_

; 50   : 
; 51   : 	// Distortive geometry should be marked and R2 special-cases it
; 52   : 	// a) Allow to optimize RT order
; 53   : 	// b) Should be rendered to special distort buffer in another pass
; 54   : 	VERIFY						(pVisual->shader._get());
; 55   : 	ShaderElement*		sh_d	= &*pVisual->shader->E[4];
; 56   : 	if (RImplementation.o.distortion && sh_d && sh_d->flags.bDistort && pmask[sh_d->flags.iPriority/2]) {

	test	BYTE PTR ?RImplementation@@3VCRender@@A+628, 2
	mov	eax, DWORD PTR [ebx+64]
	push	esi
	mov	eax, DWORD PTR [eax+24]
	mov	DWORD PTR _sh_d$1$[esp+104], eax
	je	SHORT $LN8@r_dsgraph_
	test	eax, eax
	je	SHORT $LN8@r_dsgraph_
	mov	eax, DWORD PTR [eax+8]
	test	al, 16					; 00000010H
	je	SHORT $LN8@r_dsgraph_
	shr	eax, 1
	and	eax, 1
	cmp	BYTE PTR [eax+edi+300], 0
	je	SHORT $LN8@r_dsgraph_

; 57   : 		mapSorted_Node* N		= mapDistort.insertInAnyWay	(distSQ);

	lea	eax, DWORD PTR _distSQ$[esp+104]
	push	eax
	lea	ecx, DWORD PTR [edi+388]
	call	?insertInAnyWay@?$FixedMAP@MU_MatrixItemS@R_dsgraph@@Udoug_lea_allocator@@@@QAEPAUTNode@1@ABM@Z ; FixedMAP<float,R_dsgraph::_MatrixItemS,doug_lea_allocator>::insertInAnyWay

; 58   : 		N->val.ssa				= SSA;

	movss	xmm1, DWORD PTR _SSA$1$[esp+108]
	movss	DWORD PTR [eax+4], xmm1

; 59   : 		N->val.pObject			= RI.val_pObject;
; 60   : 		N->val.pVisual			= pVisual;
; 61   : 		N->val.Matrix			= *RI.val_pTransform;

	lea	edi, DWORD PTR [eax+16]
	mov	ecx, DWORD PTR ?RImplementation@@3VCRender@@A+260
	mov	DWORD PTR [eax+8], ecx
	mov	ecx, 16					; 00000010H
	mov	DWORD PTR [eax+12], ebx
	mov	esi, DWORD PTR ?RImplementation@@3VCRender@@A+264
	rep movsd

; 62   : 		N->val.se				= sh_d;		// 4=L_special

	mov	ecx, DWORD PTR _sh_d$1$[esp+104]
	mov	edi, DWORD PTR _this$1$[esp+108]
	mov	DWORD PTR [eax+80], ecx
$LN8@r_dsgraph_:
; File I:\Vitalya\mine\NSProjectX\layers\xrRenderPC_R1\FStaticRender.cpp

; 23   : 	switch (phase)		{

	mov	eax, DWORD PTR ?RImplementation@@3VCRender@@A+292
	sub	eax, 0
	je	SHORT $LN29@r_dsgraph_
	sub	eax, 1
	mov	eax, DWORD PTR [ebx+64]
	je	SHORT $LN30@r_dsgraph_

; 26   : 	case PHASE_SPOT:	return pVisual->shader->E[SE_R1_LSPOT]._get();

	mov	edx, DWORD PTR [eax+20]
	jmp	SHORT $LN171@r_dsgraph_
$LN30@r_dsgraph_:

; 25   : 	case PHASE_POINT:	return pVisual->shader->E[SE_R1_LPOINT]._get();

	mov	edx, DWORD PTR [eax+16]
	jmp	SHORT $LN171@r_dsgraph_
$LN29@r_dsgraph_:
; File I:\Vitalya\mine\NSProjectX\layers\xrRenderPC_R1\lightProjector.h

; 43   : 	BOOL					shadowing		()			{ return current!=0;	}

	mov	esi, DWORD PTR [ebx+64]
; File I:\Vitalya\mine\NSProjectX\layers\xrRenderPC_R1\FStaticRender.cpp

; 24   : 	case PHASE_NORMAL:	return (RImplementation.L_Projector->shadowing()?pVisual->shader->E[SE_R1_NORMAL_HQ]:pVisual->shader->E[SE_R1_NORMAL_LQ])._get();

	mov	eax, DWORD PTR ?RImplementation@@3VCRender@@A+992
	lea	ecx, DWORD PTR [esi+12]
	cmp	DWORD PTR [eax+4], 0
	lea	edx, DWORD PTR [esi+8]
	cmove	edx, ecx
	mov	edx, DWORD PTR [edx]
$LN171@r_dsgraph_:
; File I:\Vitalya\mine\NSProjectX\layers\xrRender\r__dsgraph_build.cpp

; 67   : 	if (0==sh)								return;

	mov	DWORD PTR _sh$1$[esp+104], edx
	test	edx, edx
	je	$LN170@r_dsgraph_

; 68   : 	if (!pmask[sh->flags.iPriority/2])		return;

	mov	eax, DWORD PTR [edx+8]
	mov	DWORD PTR tv1451[esp+108], eax
	shr	eax, 1
	and	eax, 1
	cmp	BYTE PTR [eax+edi+300], 0
	je	$LN170@r_dsgraph_

; 69   : 
; 70   : 	// Create common node
; 71   : 	// NOTE: Invisible elements exist only in R1
; 72   : 	_MatrixItem		item	= {SSA,RI.val_pObject,pVisual,*RI.val_pTransform};
; 73   : 
; 74   : 	// HUD rendering
; 75   : 	if (RI.val_bHUD)			{

	cmp	DWORD PTR ?RImplementation@@3VCRender@@A+268, 0
	lea	edi, DWORD PTR _item$[esp+120]
	mov	eax, DWORD PTR ?RImplementation@@3VCRender@@A+260
	mov	ecx, 16					; 00000010H
	mov	esi, DWORD PTR ?RImplementation@@3VCRender@@A+264
	movss	DWORD PTR _item$[esp+108], xmm1
	mov	DWORD PTR _item$[esp+112], eax
	mov	DWORD PTR _item$[esp+116], ebx
	rep movsd
	je	SHORT $LN13@r_dsgraph_

; 76   : 		if (sh->flags.bStrictB2F)	{

	test	BYTE PTR tv1451[esp+108], 4
	lea	eax, DWORD PTR _distSQ$[esp+104]
	mov	ecx, DWORD PTR _this$1$[esp+108]
	push	eax
	je	SHORT $LN12@r_dsgraph_

; 77   : 			mapSorted_Node* N		= mapSorted.insertInAnyWay	(distSQ);

	add	ecx, 352				; 00000160H
	call	?insertInAnyWay@?$FixedMAP@MU_MatrixItemS@R_dsgraph@@Udoug_lea_allocator@@@@QAEPAUTNode@1@ABM@Z ; FixedMAP<float,R_dsgraph::_MatrixItemS,doug_lea_allocator>::insertInAnyWay

; 78   : 			N->val.ssa				= SSA;

	movss	xmm0, DWORD PTR _SSA$1$[esp+108]
	movss	DWORD PTR [eax+4], xmm0

; 79   : 			N->val.pObject			= RI.val_pObject;

	mov	edx, DWORD PTR ?RImplementation@@3VCRender@@A+260
	mov	DWORD PTR [eax+8], edx

; 80   : 			N->val.pVisual			= pVisual;
; 81   : 			N->val.Matrix			= *RI.val_pTransform;
; 82   : 			N->val.se				= sh;
; 83   : 			return;

	jmp	$LN181@r_dsgraph_
$LN12@r_dsgraph_:

; 84   : 		} else {
; 85   : 			mapHUD_Node* N			= mapHUD.insertInAnyWay		(distSQ);

	add	ecx, 364				; 0000016cH

; 86   : 			N->val.ssa				= SSA;
; 87   : 			N->val.pObject			= RI.val_pObject;
; 88   : 			N->val.pVisual			= pVisual;
; 89   : 			N->val.Matrix			= *RI.val_pTransform;
; 90   : 			N->val.se				= sh;
; 91   : 			return;

	jmp	SHORT $LN180@r_dsgraph_
$LN13@r_dsgraph_:

; 92   : 		}
; 93   : 	}
; 94   : 
; 95   : 	// Shadows registering
; 96   : #if RENDER==R_R1
; 97   : 	RI.L_Shadows->add_element	(item);

	mov	ecx, DWORD PTR ?RImplementation@@3VCRender@@A+988
; File I:\Vitalya\mine\NSProjectX\layers\xrRenderPC_R1\LightShadows.cpp

; 128  : 	if (0==current)										return;

	cmp	DWORD PTR [ecx], 0
	je	SHORT $LN50@r_dsgraph_

; 129  : 	VERIFY2	(casters.back()->nodes.size()<24,"Object exceeds limit of 24 renderable parts/materials");
; 130  : 	if (0==N.pVisual->shader->E[SE_R1_LMODELS]._get())	return;

	mov	eax, DWORD PTR [ebx+64]
	cmp	DWORD PTR [eax+24], 0
	je	SHORT $LN50@r_dsgraph_

; 131  : 	casters.back()->nodes.push_back		(N);

	mov	eax, DWORD PTR [ecx+20]
	mov	eax, DWORD PTR [eax-4]
; File C:\Program Files\Microsoft Visual Studio\2022\Community\VC\Tools\MSVC\14.29.30133\include\vector

; 730  :         if (_Mylast != _My_data._Myend) {

	mov	edi, DWORD PTR [eax+24]
	cmp	edi, DWORD PTR [eax+28]
	je	SHORT $LN51@r_dsgraph_
; File I:\Vitalya\mine\NSProjectX\xrCore\_stl_extensions.h

; 84   : 							void					construct		(pointer p, const T& _Val)				{	::new((void*)p) value_type (_Val); }

	mov	ecx, 19					; 00000013H
	lea	esi, DWORD PTR _item$[esp+108]
	rep movsd
; File C:\Program Files\Microsoft Visual Studio\2022\Community\VC\Tools\MSVC\14.29.30133\include\vector

; 716  :         ++_Mylast;

	add	DWORD PTR [eax+24], 76			; 0000004cH

; 731  :             return _Emplace_back_with_unused_capacity(_STD forward<_Valty>(_Val)...);

	jmp	SHORT $LN50@r_dsgraph_
$LN51@r_dsgraph_:

; 732  :         }
; 733  : 
; 734  :         _Ty& _Result = *_Emplace_reallocate(_Mylast, _STD forward<_Valty>(_Val)...);

	lea	ecx, DWORD PTR _item$[esp+108]
	push	ecx
	push	edi
	lea	ecx, DWORD PTR [eax+20]
	call	??$_Emplace_reallocate@ABU_MatrixItem@R_dsgraph@@@?$vector@U_MatrixItem@R_dsgraph@@V?$xalloc@U_MatrixItem@R_dsgraph@@@@@std@@QAEPAU_MatrixItem@R_dsgraph@@QAU23@ABU23@@Z ; std::vector<R_dsgraph::_MatrixItem,xalloc<R_dsgraph::_MatrixItem> >::_Emplace_reallocate<R_dsgraph::_MatrixItem const &>
	mov	edx, DWORD PTR _sh$1$[esp+104]
$LN50@r_dsgraph_:
; File I:\Vitalya\mine\NSProjectX\layers\xrRender\r__dsgraph_build.cpp

; 99   : 	if (RI.val_bInvisible)		return;

	cmp	DWORD PTR ?RImplementation@@3VCRender@@A+272, 0
	jne	$LN170@r_dsgraph_

; 100  : 
; 101  : 	// strict-sorting selection
; 102  : 	if (sh->flags.bStrictB2F)	{

	mov	eax, DWORD PTR [edx+8]
	mov	ecx, DWORD PTR _this$1$[esp+108]
	test	al, 4
	je	SHORT $LN15@r_dsgraph_

; 103  : 		mapSorted_Node* N		= mapSorted.insertInAnyWay	(distSQ);

	lea	eax, DWORD PTR _distSQ$[esp+104]
	add	ecx, 352				; 00000160H
	push	eax
$LN180@r_dsgraph_:
	call	?insertInAnyWay@?$FixedMAP@MU_MatrixItemS@R_dsgraph@@Udoug_lea_allocator@@@@QAEPAUTNode@1@ABM@Z ; FixedMAP<float,R_dsgraph::_MatrixItemS,doug_lea_allocator>::insertInAnyWay

; 104  : 		N->val.ssa				= SSA;

	movss	xmm0, DWORD PTR _SSA$1$[esp+108]
	movss	DWORD PTR [eax+4], xmm0

; 105  : 		N->val.pObject			= RI.val_pObject;

	mov	ecx, DWORD PTR ?RImplementation@@3VCRender@@A+260
	mov	DWORD PTR [eax+8], ecx
$LN181@r_dsgraph_:

; 106  : 		N->val.pVisual			= pVisual;

	mov	DWORD PTR [eax+12], ebx

; 107  : 		N->val.Matrix			= *RI.val_pTransform;

	lea	edi, DWORD PTR [eax+16]
	mov	esi, DWORD PTR ?RImplementation@@3VCRender@@A+264
	mov	ecx, 16					; 00000010H
	rep movsd

; 108  : 		N->val.se				= sh;

	mov	ecx, DWORD PTR _sh$1$[esp+104]
	pop	esi
	pop	edi
	mov	DWORD PTR [eax+80], ecx

; 159  : 	} } } } }
; 160  : 
; 161  : #if RENDER==R_R2
; 162  : 	if (val_recorder)			{
; 163  : 		Fbox3		temp		;
; 164  : 		Fmatrix&	xf			= *RI.val_pTransform;
; 165  : 		temp.xform	(pVisual->vis.box,xf);
; 166  : 		val_recorder->push_back	(temp);
; 167  : 	}
; 168  : #endif
; 169  : }

	pop	ebx
	add	esp, 96					; 00000060H
	ret	8
$LN15@r_dsgraph_:

; 109  : 		return;
; 110  : 	}
; 111  : 
; 112  : #if RENDER==R_R2
; 113  : 	// Emissive geometry should be marked and R2 special-cases it
; 114  : 	// a) Allow to skeep already lit pixels
; 115  : 	// b) Allow to make them 100% lit and really bright
; 116  : 	// c) Should not cast shadows
; 117  : 	// d) Should be rendered to accumulation buffer in the second pass
; 118  : 	if (sh->flags.bEmissive) {
; 119  : 		mapSorted_Node* N		= mapEmissive.insertInAnyWay	(distSQ);
; 120  : 		N->val.ssa				= SSA;
; 121  : 		N->val.pObject			= RI.val_pObject;
; 122  : 		N->val.pVisual			= pVisual;
; 123  : 		N->val.Matrix			= *RI.val_pTransform;
; 124  : 		N->val.se				= &*pVisual->shader->E[4];		// 4=L_special
; 125  : 	}
; 126  : 	if (sh->flags.bWmark	&& pmask_wmark)	{
; 127  : 		mapSorted_Node* N		= mapWmark.insertInAnyWay		(distSQ);
; 128  : 		N->val.ssa				= SSA;
; 129  : 		N->val.pObject			= RI.val_pObject;
; 130  : 		N->val.pVisual			= pVisual;
; 131  : 		N->val.Matrix			= *RI.val_pTransform;
; 132  : 		N->val.se				= sh;							
; 133  : 		return					;
; 134  : 	}
; 135  : #endif
; 136  : 
; 137  : 	// the most common node
; 138  : 	SPass&						pass	= *sh->passes.front	();

	mov	edx, DWORD PTR [edx+12]

; 139  : 	mapMatrix_T&				map		= mapMatrix			[sh->flags.iPriority/2];

	shr	eax, 1
	and	eax, 1
	mov	DWORD PTR _pass$1$[esp+108], edx

; 140  : #ifdef USE_RESOURCE_DEBUGGER
; 141  : 	mapMatrixVS::TNode*			Nvs		= map.insert		(pass.vs);
; 142  : 	mapMatrixPS::TNode*			Nps		= Nvs->val.insert	(pass.ps);
; 143  : #else
; 144  : 	mapMatrixVS::TNode*			Nvs		= map.insert		(pass.vs->vs);

	mov	ebx, DWORD PTR [edx+16]
	add	ebx, 12					; 0000000cH
	lea	edi, DWORD PTR [eax+41]
	lea	edi, DWORD PTR [eax+edi*2]
; File I:\Vitalya\mine\NSProjectX\xrCore\fixedmap.h

; 129  : 		if (pool) {

	cmp	DWORD PTR [ecx+edi*4+4], 0
; File I:\Vitalya\mine\NSProjectX\layers\xrRender\r__dsgraph_build.cpp

; 139  : 	mapMatrix_T&				map		= mapMatrix			[sh->flags.iPriority/2];

	lea	edi, DWORD PTR [ecx+edi*4]
; File I:\Vitalya\mine\NSProjectX\xrCore\fixedmap.h

; 129  : 		if (pool) {

	je	SHORT $LN60@r_dsgraph_

; 130  : 			TNode*	node = nodes;

	mov	esi, DWORD PTR [edi]
	mov	edx, esi

; 131  : 
; 132  : 			once_more:
; 133  : 			if (k < node->key) {

	mov	ecx, DWORD PTR [ebx]
$LN172@r_dsgraph_:
	mov	DWORD PTR _Nvs$1$[esp+108], edx
	npad	5
$once_more$183:
	cmp	ecx, DWORD PTR [edx]
	jae	SHORT $LN62@r_dsgraph_

; 134  : 				if (node->left) {

	mov	eax, DWORD PTR [edx+20]
	test	eax, eax
	je	SHORT $LN64@r_dsgraph_

; 135  : 					node = node->left;

	mov	edx, eax

; 136  : 					goto once_more;

	jmp	SHORT $LN172@r_dsgraph_
$LN62@r_dsgraph_:

; 141  : 				}
; 142  : 			} else if (k > node->key) {

	jbe	SHORT $LN61@r_dsgraph_

; 143  : 				if (node->right) {

	mov	eax, DWORD PTR [edx+24]
	test	eax, eax
	je	SHORT $LN68@r_dsgraph_

; 144  : 					node = node->right;

	mov	edx, eax

; 145  : 					goto once_more;

	jmp	SHORT $LN172@r_dsgraph_
$LN64@r_dsgraph_:

; 69   : 		size_t	PID	= size_t(parent-nodes);

	sub	edx, esi

; 70   : 		TNode*	N	= Alloc	(key);

	mov	ecx, edi
	sar	edx, 2
	push	ebx
	imul	esi, edx, -1227133513
	call	?Alloc@?$FixedMAP@PAUIDirect3DVertexShader9@@UmapMatrixPS@R_dsgraph@@Udoug_lea_allocator@@@@AAEPAUTNode@1@ABQAUIDirect3DVertexShader9@@@Z ; FixedMAP<IDirect3DVertexShader9 *,R_dsgraph::mapMatrixPS,doug_lea_allocator>::Alloc

; 138  : 					TNode* N = CreateChild(node,k);

	mov	edx, eax

; 71   : 		parent		= nodes+PID;

	lea	ecx, DWORD PTR [esi*8]

; 139  : 					node->left = N;

	mov	eax, DWORD PTR [edi]

; 71   : 		parent		= nodes+PID;

	sub	ecx, esi

; 139  : 					node->left = N;

	mov	DWORD PTR [eax+ecx*4+20], edx

; 140  : 					return N;

	jmp	SHORT $LN173@r_dsgraph_
$LN68@r_dsgraph_:

; 69   : 		size_t	PID	= size_t(parent-nodes);

	sub	edx, esi

; 70   : 		TNode*	N	= Alloc	(key);

	mov	ecx, edi
	sar	edx, 2
	push	ebx
	imul	esi, edx, -1227133513
	call	?Alloc@?$FixedMAP@PAUIDirect3DVertexShader9@@UmapMatrixPS@R_dsgraph@@Udoug_lea_allocator@@@@AAEPAUTNode@1@ABQAUIDirect3DVertexShader9@@@Z ; FixedMAP<IDirect3DVertexShader9 *,R_dsgraph::mapMatrixPS,doug_lea_allocator>::Alloc

; 147  : 					TNode* N = CreateChild(node,k);

	mov	edx, eax

; 71   : 		parent		= nodes+PID;

	lea	ecx, DWORD PTR [esi*8]

; 148  : 					node->right = N;

	mov	eax, DWORD PTR [edi]

; 71   : 		parent		= nodes+PID;

	sub	ecx, esi

; 148  : 					node->right = N;

	mov	DWORD PTR [eax+ecx*4+24], edx

; 149  : 					return N;

	jmp	SHORT $LN173@r_dsgraph_
$LN60@r_dsgraph_:

; 150  : 				}
; 151  : 			} else return node;
; 152  : 			
; 153  : 		} else {
; 154  : 			return Alloc(k);

	push	ebx
	mov	ecx, edi
	call	?Alloc@?$FixedMAP@PAUIDirect3DVertexShader9@@UmapMatrixPS@R_dsgraph@@Udoug_lea_allocator@@@@AAEPAUTNode@1@ABQAUIDirect3DVertexShader9@@@Z ; FixedMAP<IDirect3DVertexShader9 *,R_dsgraph::mapMatrixPS,doug_lea_allocator>::Alloc
	mov	edx, eax
$LN173@r_dsgraph_:
; File I:\Vitalya\mine\NSProjectX\layers\xrRender\r__dsgraph_build.cpp

; 145  : 	mapMatrixPS::TNode*			Nps		= Nvs->val.insert	(pass.ps->ps);

	mov	DWORD PTR _Nvs$1$[esp+108], edx
$LN61@r_dsgraph_:
	mov	edi, DWORD PTR _pass$1$[esp+108]
	lea	ebx, DWORD PTR [edx+4]
	mov	edi, DWORD PTR [edi+12]
	add	edi, 12					; 0000000cH
; File I:\Vitalya\mine\NSProjectX\xrCore\fixedmap.h

; 129  : 		if (pool) {

	cmp	DWORD PTR [ebx+4], 0
	je	SHORT $LN76@r_dsgraph_

; 130  : 			TNode*	node = nodes;

	mov	esi, DWORD PTR [ebx]
	mov	edx, esi

; 131  : 
; 132  : 			once_more:
; 133  : 			if (k < node->key) {

	mov	ecx, DWORD PTR [edi]
$LN174@r_dsgraph_:
	mov	DWORD PTR _Nps$1$[esp+108], edx
$once_more$184:
	cmp	ecx, DWORD PTR [edx]
	jae	SHORT $LN78@r_dsgraph_

; 134  : 				if (node->left) {

	mov	eax, DWORD PTR [edx+20]
	test	eax, eax
	je	SHORT $LN80@r_dsgraph_

; 135  : 					node = node->left;

	mov	edx, eax

; 136  : 					goto once_more;

	jmp	SHORT $LN174@r_dsgraph_
$LN78@r_dsgraph_:

; 141  : 				}
; 142  : 			} else if (k > node->key) {

	jbe	SHORT $LN77@r_dsgraph_

; 143  : 				if (node->right) {

	mov	eax, DWORD PTR [edx+24]
	test	eax, eax
	je	SHORT $LN84@r_dsgraph_

; 144  : 					node = node->right;

	mov	edx, eax

; 145  : 					goto once_more;

	jmp	SHORT $LN174@r_dsgraph_
$LN80@r_dsgraph_:

; 69   : 		size_t	PID	= size_t(parent-nodes);

	sub	edx, esi

; 70   : 		TNode*	N	= Alloc	(key);

	mov	ecx, ebx
	sar	edx, 2
	push	edi
	imul	esi, edx, -1227133513
	call	?Alloc@?$FixedMAP@PAUIDirect3DPixelShader9@@UmapMatrixCS@R_dsgraph@@Udoug_lea_allocator@@@@AAEPAUTNode@1@ABQAUIDirect3DPixelShader9@@@Z ; FixedMAP<IDirect3DPixelShader9 *,R_dsgraph::mapMatrixCS,doug_lea_allocator>::Alloc

; 138  : 					TNode* N = CreateChild(node,k);

	mov	edx, eax

; 71   : 		parent		= nodes+PID;

	lea	ecx, DWORD PTR [esi*8]

; 139  : 					node->left = N;

	mov	eax, DWORD PTR [ebx]

; 71   : 		parent		= nodes+PID;

	sub	ecx, esi

; 139  : 					node->left = N;

	mov	DWORD PTR [eax+ecx*4+20], edx

; 140  : 					return N;

	jmp	SHORT $LN175@r_dsgraph_
$LN84@r_dsgraph_:

; 69   : 		size_t	PID	= size_t(parent-nodes);

	sub	edx, esi

; 70   : 		TNode*	N	= Alloc	(key);

	mov	ecx, ebx
	sar	edx, 2
	push	edi
	imul	esi, edx, -1227133513
	call	?Alloc@?$FixedMAP@PAUIDirect3DPixelShader9@@UmapMatrixCS@R_dsgraph@@Udoug_lea_allocator@@@@AAEPAUTNode@1@ABQAUIDirect3DPixelShader9@@@Z ; FixedMAP<IDirect3DPixelShader9 *,R_dsgraph::mapMatrixCS,doug_lea_allocator>::Alloc

; 147  : 					TNode* N = CreateChild(node,k);

	mov	edx, eax

; 71   : 		parent		= nodes+PID;

	lea	ecx, DWORD PTR [esi*8]

; 148  : 					node->right = N;

	mov	eax, DWORD PTR [ebx]

; 71   : 		parent		= nodes+PID;

	sub	ecx, esi

; 148  : 					node->right = N;

	mov	DWORD PTR [eax+ecx*4+24], edx

; 149  : 					return N;

	jmp	SHORT $LN175@r_dsgraph_
$LN76@r_dsgraph_:

; 150  : 				}
; 151  : 			} else return node;
; 152  : 			
; 153  : 		} else {
; 154  : 			return Alloc(k);

	push	edi
	mov	ecx, ebx
	call	?Alloc@?$FixedMAP@PAUIDirect3DPixelShader9@@UmapMatrixCS@R_dsgraph@@Udoug_lea_allocator@@@@AAEPAUTNode@1@ABQAUIDirect3DPixelShader9@@@Z ; FixedMAP<IDirect3DPixelShader9 *,R_dsgraph::mapMatrixCS,doug_lea_allocator>::Alloc
	mov	edx, eax
$LN175@r_dsgraph_:
; File I:\Vitalya\mine\NSProjectX\layers\xrRender\r__dsgraph_build.cpp

; 147  : 	mapMatrixCS::TNode*			Ncs		= Nps->val.insert	(pass.constants._get());

	mov	DWORD PTR _Nps$1$[esp+108], edx
$LN77@r_dsgraph_:
; File I:\Vitalya\mine\NSProjectX\xrCore\fixedmap.h

; 129  : 		if (pool) {

	cmp	DWORD PTR [edx+8], 0
; File I:\Vitalya\mine\NSProjectX\layers\xrRender\r__dsgraph_build.cpp

; 147  : 	mapMatrixCS::TNode*			Ncs		= Nps->val.insert	(pass.constants._get());

	lea	ebx, DWORD PTR [edx+4]
	mov	eax, DWORD PTR _pass$1$[esp+108]
	mov	ecx, DWORD PTR [eax+20]
	mov	DWORD PTR $T2[esp+104], ecx
; File I:\Vitalya\mine\NSProjectX\xrCore\fixedmap.h

; 129  : 		if (pool) {

	je	SHORT $LN92@r_dsgraph_

; 130  : 			TNode*	node = nodes;

	mov	edx, DWORD PTR [ebx]
	mov	edi, edx
$LN176@r_dsgraph_:

; 131  : 
; 132  : 			once_more:
; 133  : 			if (k < node->key) {

	mov	DWORD PTR _Ncs$1$[esp+104], edi
$once_more$185:
	cmp	ecx, DWORD PTR [edi]
	jae	SHORT $LN94@r_dsgraph_

; 134  : 				if (node->left) {

	mov	eax, DWORD PTR [edi+20]
	test	eax, eax
	je	SHORT $LN96@r_dsgraph_

; 135  : 					node = node->left;

	mov	edi, eax

; 136  : 					goto once_more;

	jmp	SHORT $LN176@r_dsgraph_
$LN94@r_dsgraph_:

; 141  : 				}
; 142  : 			} else if (k > node->key) {

	jbe	SHORT $LN93@r_dsgraph_

; 143  : 				if (node->right) {

	mov	eax, DWORD PTR [edi+24]
	test	eax, eax
	je	SHORT $LN100@r_dsgraph_

; 144  : 					node = node->right;

	mov	edi, eax
	mov	DWORD PTR _Ncs$1$[esp+104], eax

; 145  : 					goto once_more;

	jmp	SHORT $once_more$185
$LN96@r_dsgraph_:

; 69   : 		size_t	PID	= size_t(parent-nodes);

	sub	edi, edx

; 70   : 		TNode*	N	= Alloc	(key);

	lea	eax, DWORD PTR $T2[esp+104]
	sar	edi, 2
	mov	ecx, ebx
	push	eax
	imul	esi, edi, -1227133513
	call	?Alloc@?$FixedMAP@PAVR_constant_table@@UmapMatrixStates@R_dsgraph@@Udoug_lea_allocator@@@@AAEPAUTNode@1@ABQAVR_constant_table@@@Z ; FixedMAP<R_constant_table *,R_dsgraph::mapMatrixStates,doug_lea_allocator>::Alloc

; 138  : 					TNode* N = CreateChild(node,k);

	mov	edi, eax

; 71   : 		parent		= nodes+PID;

	lea	ecx, DWORD PTR [esi*8]

; 139  : 					node->left = N;

	mov	eax, DWORD PTR [ebx]

; 71   : 		parent		= nodes+PID;

	sub	ecx, esi

; 139  : 					node->left = N;

	mov	DWORD PTR [eax+ecx*4+20], edi

; 140  : 					return N;

	jmp	SHORT $LN177@r_dsgraph_
$LN100@r_dsgraph_:

; 69   : 		size_t	PID	= size_t(parent-nodes);

	sub	edi, edx

; 70   : 		TNode*	N	= Alloc	(key);

	lea	eax, DWORD PTR $T2[esp+104]
	sar	edi, 2
	mov	ecx, ebx
	push	eax
	imul	esi, edi, -1227133513
	call	?Alloc@?$FixedMAP@PAVR_constant_table@@UmapMatrixStates@R_dsgraph@@Udoug_lea_allocator@@@@AAEPAUTNode@1@ABQAVR_constant_table@@@Z ; FixedMAP<R_constant_table *,R_dsgraph::mapMatrixStates,doug_lea_allocator>::Alloc

; 147  : 					TNode* N = CreateChild(node,k);

	mov	edi, eax

; 71   : 		parent		= nodes+PID;

	lea	ecx, DWORD PTR [esi*8]

; 148  : 					node->right = N;

	mov	eax, DWORD PTR [ebx]

; 71   : 		parent		= nodes+PID;

	sub	ecx, esi

; 148  : 					node->right = N;

	mov	DWORD PTR [eax+ecx*4+24], edi

; 149  : 					return N;

	jmp	SHORT $LN177@r_dsgraph_
$LN92@r_dsgraph_:

; 150  : 				}
; 151  : 			} else return node;
; 152  : 			
; 153  : 		} else {
; 154  : 			return Alloc(k);

	lea	eax, DWORD PTR $T2[esp+104]
	mov	ecx, ebx
	push	eax
	call	?Alloc@?$FixedMAP@PAVR_constant_table@@UmapMatrixStates@R_dsgraph@@Udoug_lea_allocator@@@@AAEPAUTNode@1@ABQAVR_constant_table@@@Z ; FixedMAP<R_constant_table *,R_dsgraph::mapMatrixStates,doug_lea_allocator>::Alloc
	mov	edi, eax
$LN177@r_dsgraph_:
; File I:\Vitalya\mine\NSProjectX\layers\xrRender\r__dsgraph_build.cpp

; 148  : 	mapMatrixStates::TNode*		Nstate	= Ncs->val.insert	(pass.state->state);

	mov	DWORD PTR _Ncs$1$[esp+104], edi
$LN93@r_dsgraph_:
	mov	eax, DWORD PTR _pass$1$[esp+108]
	mov	ebx, DWORD PTR [eax+8]
	add	ebx, 8
; File I:\Vitalya\mine\NSProjectX\xrCore\fixedmap.h

; 129  : 		if (pool) {

	cmp	DWORD PTR [edi+8], 0
	je	SHORT $LN108@r_dsgraph_

; 130  : 			TNode*	node = nodes;

	mov	esi, DWORD PTR [edi+4]
	mov	edx, esi

; 131  : 
; 132  : 			once_more:
; 133  : 			if (k < node->key) {

	mov	ecx, DWORD PTR [ebx]
$LN178@r_dsgraph_:
	mov	DWORD PTR _Nstate$1$[esp+104], edx
$once_more$186:
	cmp	ecx, DWORD PTR [edx]
	jae	SHORT $LN110@r_dsgraph_

; 134  : 				if (node->left) {

	mov	eax, DWORD PTR [edx+20]
	test	eax, eax
	je	SHORT $LN112@r_dsgraph_

; 135  : 					node = node->left;

	mov	edx, eax

; 136  : 					goto once_more;

	jmp	SHORT $LN178@r_dsgraph_
$LN110@r_dsgraph_:

; 141  : 				}
; 142  : 			} else if (k > node->key) {

	jbe	SHORT $LN109@r_dsgraph_

; 143  : 				if (node->right) {

	mov	eax, DWORD PTR [edx+24]
	test	eax, eax
	je	SHORT $LN116@r_dsgraph_

; 144  : 					node = node->right;

	mov	edx, eax

; 145  : 					goto once_more;

	jmp	SHORT $LN178@r_dsgraph_
$LN112@r_dsgraph_:

; 69   : 		size_t	PID	= size_t(parent-nodes);

	sub	edx, esi

; 70   : 		TNode*	N	= Alloc	(key);

	lea	ecx, DWORD PTR [edi+4]
	sar	edx, 2
	push	ebx
	imul	esi, edx, -1227133513
	call	?Alloc@?$FixedMAP@PAUIDirect3DStateBlock9@@UmapMatrixTextures@R_dsgraph@@Udoug_lea_allocator@@@@AAEPAUTNode@1@ABQAUIDirect3DStateBlock9@@@Z ; FixedMAP<IDirect3DStateBlock9 *,R_dsgraph::mapMatrixTextures,doug_lea_allocator>::Alloc

; 138  : 					TNode* N = CreateChild(node,k);

	mov	edx, eax

; 71   : 		parent		= nodes+PID;

	lea	ecx, DWORD PTR [esi*8]

; 139  : 					node->left = N;

	mov	eax, DWORD PTR [edi+4]

; 71   : 		parent		= nodes+PID;

	sub	ecx, esi

; 139  : 					node->left = N;

	mov	DWORD PTR [eax+ecx*4+20], edx

; 140  : 					return N;

	jmp	SHORT $LN179@r_dsgraph_
$LN116@r_dsgraph_:

; 69   : 		size_t	PID	= size_t(parent-nodes);

	sub	edx, esi

; 70   : 		TNode*	N	= Alloc	(key);

	lea	ecx, DWORD PTR [edi+4]
	sar	edx, 2
	push	ebx
	imul	esi, edx, -1227133513
	call	?Alloc@?$FixedMAP@PAUIDirect3DStateBlock9@@UmapMatrixTextures@R_dsgraph@@Udoug_lea_allocator@@@@AAEPAUTNode@1@ABQAUIDirect3DStateBlock9@@@Z ; FixedMAP<IDirect3DStateBlock9 *,R_dsgraph::mapMatrixTextures,doug_lea_allocator>::Alloc

; 147  : 					TNode* N = CreateChild(node,k);

	mov	edx, eax

; 71   : 		parent		= nodes+PID;

	lea	ecx, DWORD PTR [esi*8]

; 148  : 					node->right = N;

	mov	eax, DWORD PTR [edi+4]

; 71   : 		parent		= nodes+PID;

	sub	ecx, esi

; 148  : 					node->right = N;

	mov	DWORD PTR [eax+ecx*4+24], edx

; 149  : 					return N;

	jmp	SHORT $LN179@r_dsgraph_
$LN108@r_dsgraph_:

; 150  : 				}
; 151  : 			} else return node;
; 152  : 			
; 153  : 		} else {
; 154  : 			return Alloc(k);

	push	ebx
	lea	ecx, DWORD PTR [edi+4]
	call	?Alloc@?$FixedMAP@PAUIDirect3DStateBlock9@@UmapMatrixTextures@R_dsgraph@@Udoug_lea_allocator@@@@AAEPAUTNode@1@ABQAUIDirect3DStateBlock9@@@Z ; FixedMAP<IDirect3DStateBlock9 *,R_dsgraph::mapMatrixTextures,doug_lea_allocator>::Alloc
	mov	edx, eax
$LN179@r_dsgraph_:
; File I:\Vitalya\mine\NSProjectX\layers\xrRender\r__dsgraph_build.cpp

; 149  : 	mapMatrixTextures::TNode*	Ntex	= Nstate->val.insert(pass.T._get());

	mov	DWORD PTR _Nstate$1$[esp+104], edx
$LN109@r_dsgraph_:
	mov	eax, DWORD PTR _pass$1$[esp+108]
	add	edx, 4
	mov	DWORD PTR _this$1$[esp+108], edx
; File I:\Vitalya\mine\NSProjectX\xrCore\fixedmap.h

; 129  : 		if (pool) {

	cmp	DWORD PTR [edx+4], 0
; File I:\Vitalya\mine\NSProjectX\layers\xrRender\r__dsgraph_build.cpp

; 149  : 	mapMatrixTextures::TNode*	Ntex	= Nstate->val.insert(pass.T._get());

	mov	ecx, DWORD PTR [eax+24]
	mov	DWORD PTR $T1[esp+108], ecx
; File I:\Vitalya\mine\NSProjectX\xrCore\fixedmap.h

; 129  : 		if (pool) {

	je	SHORT $LN124@r_dsgraph_

; 130  : 			TNode*	node = nodes;

	mov	esi, DWORD PTR [edx]
	mov	ebx, esi
	npad	3
$once_more$187:

; 131  : 
; 132  : 			once_more:
; 133  : 			if (k < node->key) {

	cmp	ecx, DWORD PTR [ebx]
	jae	SHORT $LN126@r_dsgraph_

; 134  : 				if (node->left) {

	mov	eax, DWORD PTR [ebx+20]
	test	eax, eax
	je	SHORT $LN128@r_dsgraph_

; 135  : 					node = node->left;

	mov	ebx, eax

; 136  : 					goto once_more;

	jmp	SHORT $once_more$187
$LN126@r_dsgraph_:

; 141  : 				}
; 142  : 			} else if (k > node->key) {

	jbe	SHORT $LN125@r_dsgraph_

; 143  : 				if (node->right) {

	mov	eax, DWORD PTR [ebx+24]
	test	eax, eax
	je	SHORT $LN132@r_dsgraph_

; 144  : 					node = node->right;

	mov	ebx, eax

; 145  : 					goto once_more;

	jmp	SHORT $once_more$187
$LN128@r_dsgraph_:

; 69   : 		size_t	PID	= size_t(parent-nodes);

	sub	ebx, esi

; 70   : 		TNode*	N	= Alloc	(key);

	lea	eax, DWORD PTR $T1[esp+108]
	sar	ebx, 2
	mov	ecx, edx
	push	eax
	imul	esi, ebx, -1227133513
	call	?Alloc@?$FixedMAP@PAUSTextureList@@UmapMatrixItems@R_dsgraph@@Udoug_lea_allocator@@@@AAEPAUTNode@1@ABQAUSTextureList@@@Z ; FixedMAP<STextureList *,R_dsgraph::mapMatrixItems,doug_lea_allocator>::Alloc

; 138  : 					TNode* N = CreateChild(node,k);

	mov	ebx, eax

; 71   : 		parent		= nodes+PID;

	lea	ecx, DWORD PTR [esi*8]

; 139  : 					node->left = N;

	mov	eax, DWORD PTR _this$1$[esp+108]

; 71   : 		parent		= nodes+PID;

	sub	ecx, esi

; 139  : 					node->left = N;

	mov	eax, DWORD PTR [eax]
	mov	DWORD PTR [eax+ecx*4+20], ebx

; 140  : 					return N;

	jmp	SHORT $LN125@r_dsgraph_
$LN132@r_dsgraph_:

; 69   : 		size_t	PID	= size_t(parent-nodes);

	sub	ebx, esi

; 70   : 		TNode*	N	= Alloc	(key);

	lea	eax, DWORD PTR $T1[esp+108]
	sar	ebx, 2
	mov	ecx, edx
	push	eax
	imul	esi, ebx, -1227133513
	call	?Alloc@?$FixedMAP@PAUSTextureList@@UmapMatrixItems@R_dsgraph@@Udoug_lea_allocator@@@@AAEPAUTNode@1@ABQAUSTextureList@@@Z ; FixedMAP<STextureList *,R_dsgraph::mapMatrixItems,doug_lea_allocator>::Alloc

; 147  : 					TNode* N = CreateChild(node,k);

	mov	ebx, eax

; 71   : 		parent		= nodes+PID;

	lea	ecx, DWORD PTR [esi*8]

; 148  : 					node->right = N;

	mov	eax, DWORD PTR _this$1$[esp+108]

; 71   : 		parent		= nodes+PID;

	sub	ecx, esi

; 148  : 					node->right = N;

	mov	eax, DWORD PTR [eax]
	mov	DWORD PTR [eax+ecx*4+24], ebx

; 149  : 					return N;

	jmp	SHORT $LN125@r_dsgraph_
$LN124@r_dsgraph_:

; 150  : 				}
; 151  : 			} else return node;
; 152  : 			
; 153  : 		} else {
; 154  : 			return Alloc(k);

	lea	eax, DWORD PTR $T1[esp+108]
	mov	ecx, edx
	push	eax
	call	?Alloc@?$FixedMAP@PAUSTextureList@@UmapMatrixItems@R_dsgraph@@Udoug_lea_allocator@@@@AAEPAUTNode@1@ABQAUSTextureList@@@Z ; FixedMAP<STextureList *,R_dsgraph::mapMatrixItems,doug_lea_allocator>::Alloc
	mov	ebx, eax
$LN125@r_dsgraph_:
; File C:\Program Files\Microsoft Visual Studio\2022\Community\VC\Tools\MSVC\14.29.30133\include\vector

; 730  :         if (_Mylast != _My_data._Myend) {

	mov	edx, DWORD PTR [ebx+8]
	cmp	edx, DWORD PTR [ebx+12]
	je	SHORT $LN142@r_dsgraph_
; File I:\Vitalya\mine\NSProjectX\layers\xrRender\r__dsgraph_types.h

; 37   : 								void					construct		(pointer p, const T& _Val)				{	::new((void*)p) value_type (_Val); }

	mov	ecx, 19					; 00000013H
	lea	esi, DWORD PTR _item$[esp+108]
	mov	edi, edx
	rep movsd
; File C:\Program Files\Microsoft Visual Studio\2022\Community\VC\Tools\MSVC\14.29.30133\include\vector

; 716  :         ++_Mylast;

	add	DWORD PTR [ebx+8], 76			; 0000004cH

; 731  :             return _Emplace_back_with_unused_capacity(_STD forward<_Valty>(_Val)...);

	mov	edi, DWORD PTR _Ncs$1$[esp+104]
	jmp	SHORT $LN141@r_dsgraph_
$LN142@r_dsgraph_:

; 732  :         }
; 733  : 
; 734  :         _Ty& _Result = *_Emplace_reallocate(_Mylast, _STD forward<_Valty>(_Val)...);

	lea	ecx, DWORD PTR _item$[esp+108]
	push	ecx
	push	edx
	lea	ecx, DWORD PTR [ebx+4]
	call	??$_Emplace_reallocate@ABU_MatrixItem@R_dsgraph@@@?$vector@U_MatrixItem@R_dsgraph@@V?$doug_lea_alloc@U_MatrixItem@R_dsgraph@@@@@std@@QAEPAU_MatrixItem@R_dsgraph@@QAU23@ABU23@@Z ; std::vector<R_dsgraph::_MatrixItem,doug_lea_alloc<R_dsgraph::_MatrixItem> >::_Emplace_reallocate<R_dsgraph::_MatrixItem const &>
$LN141@r_dsgraph_:
; File I:\Vitalya\mine\NSProjectX\layers\xrRender\r__dsgraph_build.cpp

; 154  : 	if (SSA>Ntex->val.ssa)		{ Ntex->val.ssa = SSA;

	movss	xmm0, DWORD PTR _SSA$1$[esp+108]
	comiss	xmm0, DWORD PTR [ebx+16]
	jbe	SHORT $LN170@r_dsgraph_

; 155  : 	if (SSA>Nstate->val.ssa)	{ Nstate->val.ssa = SSA;

	mov	eax, DWORD PTR _Nstate$1$[esp+104]
	movss	DWORD PTR [ebx+16], xmm0
	comiss	xmm0, DWORD PTR [eax+16]
	jbe	SHORT $LN170@r_dsgraph_
	movss	DWORD PTR [eax+16], xmm0

; 156  : 	if (SSA>Ncs->val.ssa)		{ Ncs->val.ssa = SSA;

	comiss	xmm0, DWORD PTR [edi+16]
	jbe	SHORT $LN170@r_dsgraph_

; 157  : 	if (SSA>Nps->val.ssa)		{ Nps->val.ssa = SSA;

	mov	eax, DWORD PTR _Nps$1$[esp+108]
	movss	DWORD PTR [edi+16], xmm0
	comiss	xmm0, DWORD PTR [eax+16]
	jbe	SHORT $LN170@r_dsgraph_
	movss	DWORD PTR [eax+16], xmm0

; 158  : 	if (SSA>Nvs->val.ssa)		{ Nvs->val.ssa = SSA;

	mov	eax, DWORD PTR _Nvs$1$[esp+108]
	comiss	xmm0, DWORD PTR [eax+16]
	jbe	SHORT $LN170@r_dsgraph_
	movss	DWORD PTR [eax+16], xmm0
$LN170@r_dsgraph_:
	pop	esi
$LN20@r_dsgraph_:
	pop	edi

; 159  : 	} } } } }
; 160  : 
; 161  : #if RENDER==R_R2
; 162  : 	if (val_recorder)			{
; 163  : 		Fbox3		temp		;
; 164  : 		Fmatrix&	xf			= *RI.val_pTransform;
; 165  : 		temp.xform	(pVisual->vis.box,xf);
; 166  : 		val_recorder->push_back	(temp);
; 167  : 	}
; 168  : #endif
; 169  : }

	pop	ebx
	add	esp, 96					; 00000060H
	ret	8
?r_dsgraph_insert_dynamic@R_dsgraph_structure@@QAEXPAVIRender_Visual@@AAU?$_vector3@M@@@Z ENDP ; R_dsgraph_structure::r_dsgraph_insert_dynamic
_TEXT	ENDS
; Function compile flags: /Ogtpy
; File I:\Vitalya\mine\NSProjectX\layers\xrRender\r__dsgraph_build.cpp
; File I:\Vitalya\mine\NSProjectX\xrCore\_vector3d.h
; File I:\Vitalya\mine\NSProjectX\layers\xrRender\r__dsgraph_build.cpp
; File I:\Vitalya\mine\NSProjectX\layers\xrRenderPC_R1\FStaticRender.cpp
; File C:\Program Files (x86)\Windows Kits\10\Include\10.0.22000.0\ucrt\corecrt_math.h
; File I:\Vitalya\mine\NSProjectX\layers\xrRenderPC_R1\FStaticRender.cpp
; File I:\Vitalya\mine\NSProjectX\layers\xrRender\r__dsgraph_build.cpp
; File I:\Vitalya\mine\NSProjectX\xrCore\fixedmap.h
; File I:\Vitalya\mine\NSProjectX\layers\xrRender\r__dsgraph_build.cpp
; File I:\Vitalya\mine\NSProjectX\xrCore\fixedmap.h
; File I:\Vitalya\mine\NSProjectX\layers\xrRender\r__dsgraph_build.cpp
; File I:\Vitalya\mine\NSProjectX\xrCore\fixedmap.h
; File I:\Vitalya\mine\NSProjectX\layers\xrRender\r__dsgraph_build.cpp
; File I:\Vitalya\mine\NSProjectX\xrCore\fixedmap.h
; File I:\Vitalya\mine\NSProjectX\layers\xrRender\r__dsgraph_build.cpp
; File I:\Vitalya\mine\NSProjectX\xrCore\fixedmap.h
; File I:\Vitalya\mine\NSProjectX\layers\xrRender\r__dsgraph_build.cpp
; File I:\Vitalya\mine\NSProjectX\xrCore\fixedmap.h
; File I:\Vitalya\mine\NSProjectX\layers\xrRender\r__dsgraph_build.cpp
; File I:\Vitalya\mine\NSProjectX\xrCore\fixedmap.h
; File I:\Vitalya\mine\NSProjectX\layers\xrRender\r__dsgraph_build.cpp
; File C:\Program Files\Microsoft Visual Studio\2022\Community\VC\Tools\MSVC\14.29.30133\include\vector
; File I:\Vitalya\mine\NSProjectX\layers\xrRender\r__dsgraph_build.cpp
; File C:\Program Files\Microsoft Visual Studio\2022\Community\VC\Tools\MSVC\14.29.30133\include\vector
; File I:\Vitalya\mine\NSProjectX\layers\xrRender\r__dsgraph_build.cpp
_TEXT	SEGMENT
_Nstate$1$ = -28					; size = 4
$T1 = -28						; size = 4
_Nps$1$ = -24						; size = 4
_Nvs$1$ = -20						; size = 4
_sh$1$ = -20						; size = 4
_pass$1$ = -16						; size = 4
$T2 = -16						; size = 4
_distSQ$ = -16						; size = 4
_SSA$1$ = -12						; size = 4
_this$1$ = -8						; size = 4
_item$ = -8						; size = 8
_pVisual$ = 8						; size = 4
?r_dsgraph_insert_static@R_dsgraph_structure@@QAEXPAVIRender_Visual@@@Z PROC ; R_dsgraph_structure::r_dsgraph_insert_static
; _this$ = ecx

; 172  : {

	push	ebp
	mov	ebp, esp
	and	esp, -8					; fffffff8H

; 173  : 	CRender&	RI				=	RImplementation;
; 174  : 
; 175  : 	if (pVisual->vis.marker		==	RI.marker)	return	;

	mov	eax, DWORD PTR ?RImplementation@@3VCRender@@A+296
	sub	esp, 28					; 0000001cH
	push	ebx
	push	esi
	push	edi
	mov	edi, DWORD PTR _pVisual$[ebp]
	mov	ebx, ecx
	cmp	DWORD PTR [edi+48], eax
	je	$LN17@r_dsgraph_

; 176  : 	pVisual->vis.marker			=	RI.marker			;

	mov	DWORD PTR [edi+48], eax

; 177  : 
; 178  : #if RENDER==R_R1
; 179  : 	if (RI.o.vis_intersect &&	(pVisual->vis.accept_frame!=Device.dwFrame))	return;

	test	BYTE PTR ?RImplementation@@3VCRender@@A+628, 1
	mov	ecx, DWORD PTR __imp_?Device@@3VCRenderDevice@@A
	je	SHORT $LN6@r_dsgraph_
	mov	eax, DWORD PTR [edi+52]
	cmp	eax, DWORD PTR [ecx+244]
	jne	$LN17@r_dsgraph_
$LN6@r_dsgraph_:

; 180  : 	pVisual->vis.accept_frame	=	Device.dwFrame		;

	mov	eax, DWORD PTR [ecx+244]
	mov	DWORD PTR [edi+52], eax

; 26   : 	distSQ	= Device.vCameraPosition.distance_to_sqr(C)+EPS;

	mov	eax, DWORD PTR __imp_?Device@@3VCRenderDevice@@A
; File I:\Vitalya\mine\NSProjectX\xrCore\_vector3d.h

; 287  : 	{	return (x-v.x)*(x-v.x) + (y-v.y)*(y-v.y) + (z-v.z)*(z-v.z);	}

	movss	xmm1, DWORD PTR [eax+492]
	movss	xmm0, DWORD PTR [eax+496]
	subss	xmm1, DWORD PTR [edi+12]
	movss	xmm2, DWORD PTR [eax+488]
	subss	xmm2, DWORD PTR [edi+8]
	subss	xmm0, DWORD PTR [edi+16]
	mulss	xmm1, xmm1
	mulss	xmm2, xmm2
	mulss	xmm0, xmm0
; File I:\Vitalya\mine\NSProjectX\layers\xrRender\r__dsgraph_build.cpp

; 26   : 	distSQ	= Device.vCameraPosition.distance_to_sqr(C)+EPS;

	addss	xmm2, xmm1

; 27   : 	return	R/distSQ;

	movss	xmm1, DWORD PTR [edi+20]
	addss	xmm0, DWORD PTR __real@3727c5ac
	addss	xmm2, xmm0

; 181  : #endif
; 182  : 
; 183  : 	float distSQ;
; 184  : 	float SSA					=	CalcSSA		(distSQ,pVisual->vis.sphere.P,pVisual);
; 185  : 	if (SSA<=r_ssaDISCARD)		return;

	movss	xmm0, DWORD PTR ?r_ssaDISCARD@@3MA

; 27   : 	return	R/distSQ;

	divss	xmm1, xmm2
	movss	DWORD PTR _distSQ$[esp+40], xmm2

; 181  : #endif
; 182  : 
; 183  : 	float distSQ;
; 184  : 	float SSA					=	CalcSSA		(distSQ,pVisual->vis.sphere.P,pVisual);
; 185  : 	if (SSA<=r_ssaDISCARD)		return;

	comiss	xmm0, xmm1

; 27   : 	return	R/distSQ;

	movss	DWORD PTR _SSA$1$[esp+40], xmm1

; 181  : #endif
; 182  : 
; 183  : 	float distSQ;
; 184  : 	float SSA					=	CalcSSA		(distSQ,pVisual->vis.sphere.P,pVisual);
; 185  : 	if (SSA<=r_ssaDISCARD)		return;

	jae	$LN17@r_dsgraph_

; 186  : 
; 187  : 	// Distortive geometry should be marked and R2 special-cases it
; 188  : 	// a) Allow to optimize RT order
; 189  : 	// b) Should be rendered to special distort buffer in another pass
; 190  : 	VERIFY						(pVisual->shader._get());
; 191  : 	ShaderElement*		sh_d	= &*pVisual->shader->E[4];
; 192  : 	if (RImplementation.o.distortion && sh_d && sh_d->flags.bDistort && pmask[sh_d->flags.iPriority/2]) {

	test	BYTE PTR ?RImplementation@@3VCRender@@A+628, 2
	mov	eax, DWORD PTR [edi+64]
	mov	eax, DWORD PTR [eax+24]
	je	SHORT $LN8@r_dsgraph_
	test	eax, eax
	je	SHORT $LN8@r_dsgraph_
	mov	eax, DWORD PTR [eax+8]
	test	al, 16					; 00000010H
	je	SHORT $LN8@r_dsgraph_
	shr	eax, 1
	and	eax, 1
	cmp	BYTE PTR [eax+ebx+300], 0
	je	SHORT $LN8@r_dsgraph_

; 193  : 		mapSorted_Node* N		= mapDistort.insertInAnyWay		(distSQ);

	lea	eax, DWORD PTR _distSQ$[esp+40]
	push	eax
	lea	ecx, DWORD PTR [ebx+388]
	call	?insertInAnyWay@?$FixedMAP@MU_MatrixItemS@R_dsgraph@@Udoug_lea_allocator@@@@QAEPAUTNode@1@ABM@Z ; FixedMAP<float,R_dsgraph::_MatrixItemS,doug_lea_allocator>::insertInAnyWay

; 194  : 		N->val.ssa				= SSA;

	movss	xmm0, DWORD PTR _SSA$1$[esp+40]
	mov	edx, eax

; 195  : 		N->val.pObject			= NULL;
; 196  : 		N->val.pVisual			= pVisual;
; 197  : 		N->val.Matrix			= Fidentity;
; 198  : 		N->val.se				= &*pVisual->shader->E[4];		// 4=L_special

	movss	xmm2, DWORD PTR _distSQ$[esp+40]
	mov	ecx, 16					; 00000010H
	mov	DWORD PTR [edx+12], edi
	lea	edi, DWORD PTR [edx+16]
	movss	DWORD PTR [edx+4], xmm0
	mov	DWORD PTR [edx+8], 0
	mov	esi, DWORD PTR __imp_?Fidentity@@3U?$_matrix@M@@A
	rep movsd
	mov	edi, DWORD PTR _pVisual$[ebp]
	mov	eax, DWORD PTR [edi+64]
	mov	eax, DWORD PTR [eax+24]
	mov	DWORD PTR [edx+80], eax
$LN8@r_dsgraph_:
; File I:\Vitalya\mine\NSProjectX\layers\xrRenderPC_R1\FStaticRender.cpp

; 36   : 	switch (phase)		{

	mov	eax, DWORD PTR ?RImplementation@@3VCRender@@A+292
	sub	eax, 0
	je	SHORT $LN26@r_dsgraph_
	sub	eax, 1
	mov	eax, DWORD PTR [edi+64]
	je	SHORT $LN27@r_dsgraph_

; 39   : 	case PHASE_SPOT:	return pVisual->shader->E[SE_R1_LSPOT]._get();

	mov	esi, DWORD PTR [eax+20]
	jmp	SHORT $LN145@r_dsgraph_
$LN27@r_dsgraph_:

; 38   : 	case PHASE_POINT:	return pVisual->shader->E[SE_R1_LPOINT]._get();

	mov	esi, DWORD PTR [eax+16]
	jmp	SHORT $LN145@r_dsgraph_
$LN26@r_dsgraph_:
; File C:\Program Files (x86)\Windows Kits\10\Include\10.0.22000.0\ucrt\corecrt_math.h

; 764  :             return (float)sqrt(_X);

	sqrtss	xmm1, xmm2
; File I:\Vitalya\mine\NSProjectX\layers\xrRenderPC_R1\FStaticRender.cpp

; 37   : 	case PHASE_NORMAL:	return (((_sqrt(cdist_sq) - pVisual->vis.sphere.R)<44)?pVisual->shader->E[SE_R1_NORMAL_HQ]:pVisual->shader->E[SE_R1_NORMAL_LQ])._get();

	mov	edx, 8
	mov	eax, 12					; 0000000cH
	mov	ecx, DWORD PTR [edi+64]
	movss	xmm0, DWORD PTR __real@42300000
	subss	xmm1, DWORD PTR [edi+20]
	comiss	xmm0, xmm1
	cmova	eax, edx
	mov	esi, DWORD PTR [ecx+eax]
$LN145@r_dsgraph_:
; File I:\Vitalya\mine\NSProjectX\layers\xrRender\r__dsgraph_build.cpp

; 203  : 	if (0==sh)								return;

	mov	DWORD PTR _sh$1$[esp+40], esi
	test	esi, esi
	je	$LN17@r_dsgraph_

; 204  : 	if (!pmask[sh->flags.iPriority/2])		return;

	mov	ecx, DWORD PTR [esi+8]
	mov	eax, ecx
	shr	eax, 1
	and	eax, 1
	cmp	BYTE PTR [eax+ebx+300], 0
	je	$LN17@r_dsgraph_

; 205  : 
; 206  : 	// strict-sorting selection
; 207  : 	if (sh->flags.bStrictB2F) {

	test	cl, 4
	je	SHORT $LN11@r_dsgraph_

; 208  : 		mapSorted_Node* N			= mapSorted.insertInAnyWay(distSQ);

	lea	eax, DWORD PTR _distSQ$[esp+40]
	push	eax
	lea	ecx, DWORD PTR [ebx+352]
	call	?insertInAnyWay@?$FixedMAP@MU_MatrixItemS@R_dsgraph@@Udoug_lea_allocator@@@@QAEPAUTNode@1@ABM@Z ; FixedMAP<float,R_dsgraph::_MatrixItemS,doug_lea_allocator>::insertInAnyWay

; 209  : 		N->val.pObject				= NULL;
; 210  : 		N->val.pVisual				= pVisual;
; 211  : 		N->val.Matrix				= Fidentity;

	mov	ecx, 16					; 00000010H
	mov	DWORD PTR [eax+12], edi
	lea	edi, DWORD PTR [eax+16]
	mov	DWORD PTR [eax+8], 0
	mov	esi, DWORD PTR __imp_?Fidentity@@3U?$_matrix@M@@A
	rep movsd

; 212  : 		N->val.se					= sh;

	mov	ecx, DWORD PTR _sh$1$[esp+40]
	mov	DWORD PTR [eax+80], ecx

; 266  : 	} } } } }
; 267  : 
; 268  : #if RENDER==R_R2
; 269  : 	if (val_recorder)			{
; 270  : 		val_recorder->push_back	(pVisual->vis.box	);
; 271  : 	}
; 272  : #endif
; 273  : }

	pop	edi
	pop	esi
	pop	ebx
	mov	esp, ebp
	pop	ebp
	ret	4
$LN11@r_dsgraph_:

; 213  : 		return;
; 214  : 	}
; 215  : 
; 216  : #if RENDER==R_R2
; 217  : 	// Emissive geometry should be marked and R2 special-cases it
; 218  : 	// a) Allow to skeep already lit pixels
; 219  : 	// b) Allow to make them 100% lit and really bright
; 220  : 	// c) Should not cast shadows
; 221  : 	// d) Should be rendered to accumulation buffer in the second pass
; 222  : 	if (sh->flags.bEmissive) {
; 223  : 		mapSorted_Node* N		= mapEmissive.insertInAnyWay	(distSQ);
; 224  : 		N->val.ssa				= SSA;
; 225  : 		N->val.pObject			= NULL;
; 226  : 		N->val.pVisual			= pVisual;
; 227  : 		N->val.Matrix			= Fidentity;
; 228  : 		N->val.se				= &*pVisual->shader->E[4];		// 4=L_special
; 229  : 	}
; 230  : 	if (sh->flags.bWmark	&& pmask_wmark)	{
; 231  : 		mapSorted_Node* N		= mapWmark.insertInAnyWay		(distSQ);
; 232  : 		N->val.ssa				= SSA;
; 233  : 		N->val.pObject			= NULL;
; 234  : 		N->val.pVisual			= pVisual;
; 235  : 		N->val.Matrix			= Fidentity;
; 236  : 		N->val.se				= sh;							
; 237  : 		return					;
; 238  : 	}
; 239  : #endif
; 240  : 
; 241  : 	if	(val_feedback && counter_S==val_feedback_breakp)	val_feedback->rfeedback_static(pVisual);

	mov	ecx, DWORD PTR [ebx+280]
	test	ecx, ecx
	je	SHORT $LN12@r_dsgraph_
	mov	eax, DWORD PTR [ebx+616]
	cmp	eax, DWORD PTR [ebx+284]
	jne	SHORT $LN12@r_dsgraph_
	mov	eax, DWORD PTR [ecx]
	push	edi
	call	DWORD PTR [eax]
$LN12@r_dsgraph_:

; 242  : 
; 243  : 	counter_S					++;

	inc	DWORD PTR [ebx+616]

; 244  : 	SPass&						pass	= *sh->passes.front	();
; 245  : 	mapNormal_T&				map		= mapNormal			[sh->flags.iPriority/2];

	mov	eax, DWORD PTR [esi+8]
	mov	ecx, DWORD PTR [esi+12]
	shr	eax, 1
	and	eax, 1
	mov	DWORD PTR _pass$1$[esp+40], ecx
	lea	edi, DWORD PTR [eax+38]
	lea	edi, DWORD PTR [eax+edi*2]
	lea	edi, DWORD PTR [ebx+edi*4]

; 246  : #ifdef USE_RESOURCE_DEBUGGER
; 247  : 	mapNormalVS::TNode*			Nvs		= map.insert		(pass.vs);
; 248  : 	mapNormalPS::TNode*			Nps		= Nvs->val.insert	(pass.ps);
; 249  : #else
; 250  : 	mapNormalVS::TNode*			Nvs		= map.insert		(pass.vs->vs);

	mov	ebx, DWORD PTR [ecx+16]
	add	ebx, 12					; 0000000cH
; File I:\Vitalya\mine\NSProjectX\xrCore\fixedmap.h

; 129  : 		if (pool) {

	cmp	DWORD PTR [edi+4], 0
	je	SHORT $LN39@r_dsgraph_

; 130  : 			TNode*	node = nodes;

	mov	esi, DWORD PTR [edi]
	mov	edx, esi

; 131  : 
; 132  : 			once_more:
; 133  : 			if (k < node->key) {

	mov	ecx, DWORD PTR [ebx]
$LN146@r_dsgraph_:
	mov	DWORD PTR _Nvs$1$[esp+40], edx
$once_more$153:
	cmp	ecx, DWORD PTR [edx]
	jae	SHORT $LN41@r_dsgraph_

; 134  : 				if (node->left) {

	mov	eax, DWORD PTR [edx+20]
	test	eax, eax
	je	SHORT $LN43@r_dsgraph_

; 135  : 					node = node->left;

	mov	edx, eax

; 136  : 					goto once_more;

	jmp	SHORT $LN146@r_dsgraph_
$LN41@r_dsgraph_:

; 141  : 				}
; 142  : 			} else if (k > node->key) {

	jbe	SHORT $LN40@r_dsgraph_

; 143  : 				if (node->right) {

	mov	eax, DWORD PTR [edx+24]
	test	eax, eax
	je	SHORT $LN47@r_dsgraph_

; 144  : 					node = node->right;

	mov	edx, eax

; 145  : 					goto once_more;

	jmp	SHORT $LN146@r_dsgraph_
$LN43@r_dsgraph_:

; 69   : 		size_t	PID	= size_t(parent-nodes);

	sub	edx, esi

; 70   : 		TNode*	N	= Alloc	(key);

	mov	ecx, edi
	sar	edx, 2
	push	ebx
	imul	esi, edx, -1227133513
	call	?Alloc@?$FixedMAP@PAUIDirect3DVertexShader9@@UmapNormalPS@R_dsgraph@@Udoug_lea_allocator@@@@AAEPAUTNode@1@ABQAUIDirect3DVertexShader9@@@Z ; FixedMAP<IDirect3DVertexShader9 *,R_dsgraph::mapNormalPS,doug_lea_allocator>::Alloc

; 138  : 					TNode* N = CreateChild(node,k);

	mov	edx, eax

; 71   : 		parent		= nodes+PID;

	lea	ecx, DWORD PTR [esi*8]

; 139  : 					node->left = N;

	mov	eax, DWORD PTR [edi]

; 71   : 		parent		= nodes+PID;

	sub	ecx, esi

; 139  : 					node->left = N;

	mov	DWORD PTR [eax+ecx*4+20], edx

; 140  : 					return N;

	jmp	SHORT $LN147@r_dsgraph_
$LN47@r_dsgraph_:

; 69   : 		size_t	PID	= size_t(parent-nodes);

	sub	edx, esi

; 70   : 		TNode*	N	= Alloc	(key);

	mov	ecx, edi
	sar	edx, 2
	push	ebx
	imul	esi, edx, -1227133513
	call	?Alloc@?$FixedMAP@PAUIDirect3DVertexShader9@@UmapNormalPS@R_dsgraph@@Udoug_lea_allocator@@@@AAEPAUTNode@1@ABQAUIDirect3DVertexShader9@@@Z ; FixedMAP<IDirect3DVertexShader9 *,R_dsgraph::mapNormalPS,doug_lea_allocator>::Alloc

; 147  : 					TNode* N = CreateChild(node,k);

	mov	edx, eax

; 71   : 		parent		= nodes+PID;

	lea	ecx, DWORD PTR [esi*8]

; 148  : 					node->right = N;

	mov	eax, DWORD PTR [edi]

; 71   : 		parent		= nodes+PID;

	sub	ecx, esi

; 148  : 					node->right = N;

	mov	DWORD PTR [eax+ecx*4+24], edx

; 149  : 					return N;

	jmp	SHORT $LN147@r_dsgraph_
$LN39@r_dsgraph_:

; 150  : 				}
; 151  : 			} else return node;
; 152  : 			
; 153  : 		} else {
; 154  : 			return Alloc(k);

	push	ebx
	mov	ecx, edi
	call	?Alloc@?$FixedMAP@PAUIDirect3DVertexShader9@@UmapNormalPS@R_dsgraph@@Udoug_lea_allocator@@@@AAEPAUTNode@1@ABQAUIDirect3DVertexShader9@@@Z ; FixedMAP<IDirect3DVertexShader9 *,R_dsgraph::mapNormalPS,doug_lea_allocator>::Alloc
	mov	edx, eax
$LN147@r_dsgraph_:
; File I:\Vitalya\mine\NSProjectX\layers\xrRender\r__dsgraph_build.cpp

; 251  : 	mapNormalPS::TNode*			Nps		= Nvs->val.insert	(pass.ps->ps);

	mov	DWORD PTR _Nvs$1$[esp+40], edx
$LN40@r_dsgraph_:
	mov	edi, DWORD PTR _pass$1$[esp+40]
	lea	ebx, DWORD PTR [edx+4]
	mov	edi, DWORD PTR [edi+12]
	add	edi, 12					; 0000000cH
; File I:\Vitalya\mine\NSProjectX\xrCore\fixedmap.h

; 129  : 		if (pool) {

	cmp	DWORD PTR [ebx+4], 0
	je	SHORT $LN55@r_dsgraph_

; 130  : 			TNode*	node = nodes;

	mov	esi, DWORD PTR [ebx]
	mov	edx, esi

; 131  : 
; 132  : 			once_more:
; 133  : 			if (k < node->key) {

	mov	ecx, DWORD PTR [edi]
$LN148@r_dsgraph_:
	mov	DWORD PTR _Nps$1$[esp+40], edx
$once_more$154:
	cmp	ecx, DWORD PTR [edx]
	jae	SHORT $LN57@r_dsgraph_

; 134  : 				if (node->left) {

	mov	eax, DWORD PTR [edx+20]
	test	eax, eax
	je	SHORT $LN59@r_dsgraph_

; 135  : 					node = node->left;

	mov	edx, eax

; 136  : 					goto once_more;

	jmp	SHORT $LN148@r_dsgraph_
$LN57@r_dsgraph_:

; 141  : 				}
; 142  : 			} else if (k > node->key) {

	jbe	SHORT $LN56@r_dsgraph_

; 143  : 				if (node->right) {

	mov	eax, DWORD PTR [edx+24]
	test	eax, eax
	je	SHORT $LN63@r_dsgraph_

; 144  : 					node = node->right;

	mov	edx, eax

; 145  : 					goto once_more;

	jmp	SHORT $LN148@r_dsgraph_
$LN59@r_dsgraph_:

; 69   : 		size_t	PID	= size_t(parent-nodes);

	sub	edx, esi

; 70   : 		TNode*	N	= Alloc	(key);

	mov	ecx, ebx
	sar	edx, 2
	push	edi
	imul	esi, edx, -1227133513
	call	?Alloc@?$FixedMAP@PAUIDirect3DPixelShader9@@UmapNormalCS@R_dsgraph@@Udoug_lea_allocator@@@@AAEPAUTNode@1@ABQAUIDirect3DPixelShader9@@@Z ; FixedMAP<IDirect3DPixelShader9 *,R_dsgraph::mapNormalCS,doug_lea_allocator>::Alloc

; 138  : 					TNode* N = CreateChild(node,k);

	mov	edx, eax

; 71   : 		parent		= nodes+PID;

	lea	ecx, DWORD PTR [esi*8]

; 139  : 					node->left = N;

	mov	eax, DWORD PTR [ebx]

; 71   : 		parent		= nodes+PID;

	sub	ecx, esi

; 139  : 					node->left = N;

	mov	DWORD PTR [eax+ecx*4+20], edx

; 140  : 					return N;

	jmp	SHORT $LN149@r_dsgraph_
$LN63@r_dsgraph_:

; 69   : 		size_t	PID	= size_t(parent-nodes);

	sub	edx, esi

; 70   : 		TNode*	N	= Alloc	(key);

	mov	ecx, ebx
	sar	edx, 2
	push	edi
	imul	esi, edx, -1227133513
	call	?Alloc@?$FixedMAP@PAUIDirect3DPixelShader9@@UmapNormalCS@R_dsgraph@@Udoug_lea_allocator@@@@AAEPAUTNode@1@ABQAUIDirect3DPixelShader9@@@Z ; FixedMAP<IDirect3DPixelShader9 *,R_dsgraph::mapNormalCS,doug_lea_allocator>::Alloc

; 147  : 					TNode* N = CreateChild(node,k);

	mov	edx, eax

; 71   : 		parent		= nodes+PID;

	lea	ecx, DWORD PTR [esi*8]

; 148  : 					node->right = N;

	mov	eax, DWORD PTR [ebx]

; 71   : 		parent		= nodes+PID;

	sub	ecx, esi

; 148  : 					node->right = N;

	mov	DWORD PTR [eax+ecx*4+24], edx

; 149  : 					return N;

	jmp	SHORT $LN149@r_dsgraph_
$LN55@r_dsgraph_:

; 150  : 				}
; 151  : 			} else return node;
; 152  : 			
; 153  : 		} else {
; 154  : 			return Alloc(k);

	push	edi
	mov	ecx, ebx
	call	?Alloc@?$FixedMAP@PAUIDirect3DPixelShader9@@UmapNormalCS@R_dsgraph@@Udoug_lea_allocator@@@@AAEPAUTNode@1@ABQAUIDirect3DPixelShader9@@@Z ; FixedMAP<IDirect3DPixelShader9 *,R_dsgraph::mapNormalCS,doug_lea_allocator>::Alloc
	mov	edx, eax
$LN149@r_dsgraph_:
; File I:\Vitalya\mine\NSProjectX\layers\xrRender\r__dsgraph_build.cpp

; 253  : 	mapNormalCS::TNode*			Ncs		= Nps->val.insert	(pass.constants._get());

	mov	DWORD PTR _Nps$1$[esp+40], edx
$LN56@r_dsgraph_:
; File I:\Vitalya\mine\NSProjectX\xrCore\fixedmap.h

; 129  : 		if (pool) {

	cmp	DWORD PTR [edx+8], 0
; File I:\Vitalya\mine\NSProjectX\layers\xrRender\r__dsgraph_build.cpp

; 253  : 	mapNormalCS::TNode*			Ncs		= Nps->val.insert	(pass.constants._get());

	lea	edi, DWORD PTR [edx+4]
	mov	eax, DWORD PTR _pass$1$[esp+40]
	mov	ecx, DWORD PTR [eax+20]
	mov	DWORD PTR $T1[esp+40], ecx
; File I:\Vitalya\mine\NSProjectX\xrCore\fixedmap.h

; 129  : 		if (pool) {

	je	SHORT $LN71@r_dsgraph_

; 130  : 			TNode*	node = nodes;

	mov	edx, DWORD PTR [edi]
	mov	ebx, edx
$once_more$155:

; 131  : 
; 132  : 			once_more:
; 133  : 			if (k < node->key) {

	cmp	ecx, DWORD PTR [ebx]
	jae	SHORT $LN73@r_dsgraph_

; 134  : 				if (node->left) {

	mov	eax, DWORD PTR [ebx+20]
	test	eax, eax
	je	SHORT $LN75@r_dsgraph_

; 135  : 					node = node->left;

	mov	ebx, eax

; 136  : 					goto once_more;

	jmp	SHORT $once_more$155
$LN73@r_dsgraph_:

; 141  : 				}
; 142  : 			} else if (k > node->key) {

	jbe	SHORT $LN72@r_dsgraph_

; 143  : 				if (node->right) {

	mov	eax, DWORD PTR [ebx+24]
	test	eax, eax
	je	SHORT $LN79@r_dsgraph_

; 144  : 					node = node->right;

	mov	ebx, eax

; 145  : 					goto once_more;

	jmp	SHORT $once_more$155
$LN75@r_dsgraph_:

; 69   : 		size_t	PID	= size_t(parent-nodes);

	sub	ebx, edx

; 70   : 		TNode*	N	= Alloc	(key);

	lea	eax, DWORD PTR $T1[esp+40]
	sar	ebx, 2
	mov	ecx, edi
	push	eax
	imul	esi, ebx, -1227133513
	call	?Alloc@?$FixedMAP@PAVR_constant_table@@UmapNormalStates@R_dsgraph@@Udoug_lea_allocator@@@@AAEPAUTNode@1@ABQAVR_constant_table@@@Z ; FixedMAP<R_constant_table *,R_dsgraph::mapNormalStates,doug_lea_allocator>::Alloc

; 138  : 					TNode* N = CreateChild(node,k);

	mov	ebx, eax

; 71   : 		parent		= nodes+PID;

	lea	ecx, DWORD PTR [esi*8]

; 139  : 					node->left = N;

	mov	eax, DWORD PTR [edi]

; 71   : 		parent		= nodes+PID;

	sub	ecx, esi

; 139  : 					node->left = N;

	mov	DWORD PTR [eax+ecx*4+20], ebx

; 140  : 					return N;

	jmp	SHORT $LN72@r_dsgraph_
$LN79@r_dsgraph_:

; 69   : 		size_t	PID	= size_t(parent-nodes);

	sub	ebx, edx

; 70   : 		TNode*	N	= Alloc	(key);

	lea	eax, DWORD PTR $T1[esp+40]
	sar	ebx, 2
	mov	ecx, edi
	push	eax
	imul	esi, ebx, -1227133513
	call	?Alloc@?$FixedMAP@PAVR_constant_table@@UmapNormalStates@R_dsgraph@@Udoug_lea_allocator@@@@AAEPAUTNode@1@ABQAVR_constant_table@@@Z ; FixedMAP<R_constant_table *,R_dsgraph::mapNormalStates,doug_lea_allocator>::Alloc

; 147  : 					TNode* N = CreateChild(node,k);

	mov	ebx, eax

; 71   : 		parent		= nodes+PID;

	lea	ecx, DWORD PTR [esi*8]

; 148  : 					node->right = N;

	mov	eax, DWORD PTR [edi]

; 71   : 		parent		= nodes+PID;

	sub	ecx, esi

; 148  : 					node->right = N;

	mov	DWORD PTR [eax+ecx*4+24], ebx

; 149  : 					return N;

	jmp	SHORT $LN72@r_dsgraph_
$LN71@r_dsgraph_:

; 150  : 				}
; 151  : 			} else return node;
; 152  : 			
; 153  : 		} else {
; 154  : 			return Alloc(k);

	lea	eax, DWORD PTR $T1[esp+40]
	mov	ecx, edi
	push	eax
	call	?Alloc@?$FixedMAP@PAVR_constant_table@@UmapNormalStates@R_dsgraph@@Udoug_lea_allocator@@@@AAEPAUTNode@1@ABQAVR_constant_table@@@Z ; FixedMAP<R_constant_table *,R_dsgraph::mapNormalStates,doug_lea_allocator>::Alloc
	mov	ebx, eax
$LN72@r_dsgraph_:
; File I:\Vitalya\mine\NSProjectX\layers\xrRender\r__dsgraph_build.cpp

; 254  : 	mapNormalStates::TNode*		Nstate	= Ncs->val.insert	(pass.state->state);

	mov	eax, DWORD PTR _pass$1$[esp+40]
	mov	edi, DWORD PTR [eax+8]
	add	edi, 8
; File I:\Vitalya\mine\NSProjectX\xrCore\fixedmap.h

; 129  : 		if (pool) {

	cmp	DWORD PTR [ebx+8], 0
	je	$LN87@r_dsgraph_

; 130  : 			TNode*	node = nodes;

	mov	esi, DWORD PTR [ebx+4]
	mov	edx, esi

; 131  : 
; 132  : 			once_more:
; 133  : 			if (k < node->key) {

	mov	ecx, DWORD PTR [edi]
$LN150@r_dsgraph_:
	mov	DWORD PTR _Nstate$1$[esp+40], edx
	npad	2
$once_more$156:
	cmp	ecx, DWORD PTR [edx]
	jae	SHORT $LN89@r_dsgraph_

; 134  : 				if (node->left) {

	mov	eax, DWORD PTR [edx+20]
	test	eax, eax
	je	SHORT $LN91@r_dsgraph_

; 135  : 					node = node->left;

	mov	edx, eax

; 136  : 					goto once_more;

	jmp	SHORT $LN150@r_dsgraph_
$LN89@r_dsgraph_:

; 141  : 				}
; 142  : 			} else if (k > node->key) {

	jbe	SHORT $LN88@r_dsgraph_

; 143  : 				if (node->right) {

	mov	eax, DWORD PTR [edx+24]
	test	eax, eax
	je	SHORT $LN95@r_dsgraph_

; 144  : 					node = node->right;

	mov	edx, eax

; 145  : 					goto once_more;

	jmp	SHORT $LN150@r_dsgraph_
$LN91@r_dsgraph_:

; 69   : 		size_t	PID	= size_t(parent-nodes);

	sub	edx, esi

; 70   : 		TNode*	N	= Alloc	(key);

	lea	ecx, DWORD PTR [ebx+4]
	sar	edx, 2
	push	edi
	imul	esi, edx, -1227133513
	call	?Alloc@?$FixedMAP@PAUIDirect3DStateBlock9@@UmapNormalTextures@R_dsgraph@@Udoug_lea_allocator@@@@AAEPAUTNode@1@ABQAUIDirect3DStateBlock9@@@Z ; FixedMAP<IDirect3DStateBlock9 *,R_dsgraph::mapNormalTextures,doug_lea_allocator>::Alloc

; 138  : 					TNode* N = CreateChild(node,k);

	mov	edx, eax

; 71   : 		parent		= nodes+PID;

	lea	ecx, DWORD PTR [esi*8]

; 139  : 					node->left = N;

	mov	eax, DWORD PTR [ebx+4]

; 71   : 		parent		= nodes+PID;

	sub	ecx, esi

; 139  : 					node->left = N;

	mov	DWORD PTR [eax+ecx*4+20], edx

; 140  : 					return N;

	jmp	SHORT $LN151@r_dsgraph_
$LN95@r_dsgraph_:

; 69   : 		size_t	PID	= size_t(parent-nodes);

	sub	edx, esi

; 70   : 		TNode*	N	= Alloc	(key);

	lea	ecx, DWORD PTR [ebx+4]
	sar	edx, 2
	push	edi
	imul	esi, edx, -1227133513
	call	?Alloc@?$FixedMAP@PAUIDirect3DStateBlock9@@UmapNormalTextures@R_dsgraph@@Udoug_lea_allocator@@@@AAEPAUTNode@1@ABQAUIDirect3DStateBlock9@@@Z ; FixedMAP<IDirect3DStateBlock9 *,R_dsgraph::mapNormalTextures,doug_lea_allocator>::Alloc

; 147  : 					TNode* N = CreateChild(node,k);

	mov	edx, eax

; 71   : 		parent		= nodes+PID;

	lea	ecx, DWORD PTR [esi*8]

; 148  : 					node->right = N;

	mov	eax, DWORD PTR [ebx+4]

; 71   : 		parent		= nodes+PID;

	sub	ecx, esi

; 148  : 					node->right = N;

	mov	DWORD PTR [eax+ecx*4+24], edx

; 149  : 					return N;

	jmp	SHORT $LN151@r_dsgraph_
$LN87@r_dsgraph_:

; 150  : 				}
; 151  : 			} else return node;
; 152  : 			
; 153  : 		} else {
; 154  : 			return Alloc(k);

	push	edi
	lea	ecx, DWORD PTR [ebx+4]
	call	?Alloc@?$FixedMAP@PAUIDirect3DStateBlock9@@UmapNormalTextures@R_dsgraph@@Udoug_lea_allocator@@@@AAEPAUTNode@1@ABQAUIDirect3DStateBlock9@@@Z ; FixedMAP<IDirect3DStateBlock9 *,R_dsgraph::mapNormalTextures,doug_lea_allocator>::Alloc
	mov	edx, eax
$LN151@r_dsgraph_:
; File I:\Vitalya\mine\NSProjectX\layers\xrRender\r__dsgraph_build.cpp

; 255  : 	mapNormalTextures::TNode*	Ntex	= Nstate->val.insert(pass.T._get());

	mov	DWORD PTR _Nstate$1$[esp+40], edx
$LN88@r_dsgraph_:
	mov	eax, DWORD PTR _pass$1$[esp+40]
	add	edx, 4
	mov	DWORD PTR _this$1$[esp+40], edx
; File I:\Vitalya\mine\NSProjectX\xrCore\fixedmap.h

; 129  : 		if (pool) {

	cmp	DWORD PTR [edx+4], 0
; File I:\Vitalya\mine\NSProjectX\layers\xrRender\r__dsgraph_build.cpp

; 255  : 	mapNormalTextures::TNode*	Ntex	= Nstate->val.insert(pass.T._get());

	mov	ecx, DWORD PTR [eax+24]
	mov	DWORD PTR $T2[esp+40], ecx
; File I:\Vitalya\mine\NSProjectX\xrCore\fixedmap.h

; 129  : 		if (pool) {

	je	$LN103@r_dsgraph_

; 130  : 			TNode*	node = nodes;

	mov	esi, DWORD PTR [edx]
	mov	edi, esi
	npad	5
$once_more$157:

; 131  : 
; 132  : 			once_more:
; 133  : 			if (k < node->key) {

	cmp	ecx, DWORD PTR [edi]
	jae	SHORT $LN105@r_dsgraph_

; 134  : 				if (node->left) {

	mov	eax, DWORD PTR [edi+20]
	test	eax, eax
	je	SHORT $LN107@r_dsgraph_

; 135  : 					node = node->left;

	mov	edi, eax

; 136  : 					goto once_more;

	jmp	SHORT $once_more$157
$LN105@r_dsgraph_:

; 141  : 				}
; 142  : 			} else if (k > node->key) {

	jbe	SHORT $LN104@r_dsgraph_

; 143  : 				if (node->right) {

	mov	eax, DWORD PTR [edi+24]
	test	eax, eax
	je	SHORT $LN111@r_dsgraph_

; 144  : 					node = node->right;

	mov	edi, eax

; 145  : 					goto once_more;

	jmp	SHORT $once_more$157
$LN107@r_dsgraph_:

; 69   : 		size_t	PID	= size_t(parent-nodes);

	sub	edi, esi

; 70   : 		TNode*	N	= Alloc	(key);

	lea	eax, DWORD PTR $T2[esp+40]
	sar	edi, 2
	mov	ecx, edx
	push	eax
	imul	esi, edi, -1227133513
	call	?Alloc@?$FixedMAP@PAUSTextureList@@UmapNormalItems@R_dsgraph@@Udoug_lea_allocator@@@@AAEPAUTNode@1@ABQAUSTextureList@@@Z ; FixedMAP<STextureList *,R_dsgraph::mapNormalItems,doug_lea_allocator>::Alloc

; 138  : 					TNode* N = CreateChild(node,k);

	mov	edi, eax

; 71   : 		parent		= nodes+PID;

	lea	ecx, DWORD PTR [esi*8]

; 139  : 					node->left = N;

	mov	eax, DWORD PTR _this$1$[esp+40]

; 71   : 		parent		= nodes+PID;

	sub	ecx, esi

; 139  : 					node->left = N;

	mov	eax, DWORD PTR [eax]
	mov	DWORD PTR [eax+ecx*4+20], edi

; 140  : 					return N;

	jmp	SHORT $LN104@r_dsgraph_
$LN111@r_dsgraph_:

; 69   : 		size_t	PID	= size_t(parent-nodes);

	sub	edi, esi

; 70   : 		TNode*	N	= Alloc	(key);

	lea	eax, DWORD PTR $T2[esp+40]
	sar	edi, 2
	mov	ecx, edx
	push	eax
	imul	esi, edi, -1227133513
	call	?Alloc@?$FixedMAP@PAUSTextureList@@UmapNormalItems@R_dsgraph@@Udoug_lea_allocator@@@@AAEPAUTNode@1@ABQAUSTextureList@@@Z ; FixedMAP<STextureList *,R_dsgraph::mapNormalItems,doug_lea_allocator>::Alloc

; 147  : 					TNode* N = CreateChild(node,k);

	mov	edi, eax

; 71   : 		parent		= nodes+PID;

	lea	ecx, DWORD PTR [esi*8]

; 148  : 					node->right = N;

	mov	eax, DWORD PTR _this$1$[esp+40]

; 71   : 		parent		= nodes+PID;

	sub	ecx, esi

; 148  : 					node->right = N;

	mov	eax, DWORD PTR [eax]
	mov	DWORD PTR [eax+ecx*4+24], edi

; 149  : 					return N;

	jmp	SHORT $LN104@r_dsgraph_
$LN103@r_dsgraph_:

; 150  : 				}
; 151  : 			} else return node;
; 152  : 			
; 153  : 		} else {
; 154  : 			return Alloc(k);

	lea	eax, DWORD PTR $T2[esp+40]
	mov	ecx, edx
	push	eax
	call	?Alloc@?$FixedMAP@PAUSTextureList@@UmapNormalItems@R_dsgraph@@Udoug_lea_allocator@@@@AAEPAUTNode@1@ABQAUSTextureList@@@Z ; FixedMAP<STextureList *,R_dsgraph::mapNormalItems,doug_lea_allocator>::Alloc
	mov	edi, eax
$LN104@r_dsgraph_:
; File I:\Vitalya\mine\NSProjectX\layers\xrRender\r__dsgraph_build.cpp

; 257  : 	_NormalItem					item	= {SSA,pVisual};

	movss	xmm0, DWORD PTR _SSA$1$[esp+40]
	lea	ecx, DWORD PTR [edi+4]
; File C:\Program Files\Microsoft Visual Studio\2022\Community\VC\Tools\MSVC\14.29.30133\include\vector

; 730  :         if (_Mylast != _My_data._Myend) {

	mov	edx, DWORD PTR [ecx+4]
; File I:\Vitalya\mine\NSProjectX\layers\xrRender\r__dsgraph_build.cpp

; 257  : 	_NormalItem					item	= {SSA,pVisual};

	mov	esi, DWORD PTR _pVisual$[ebp]
	movss	DWORD PTR _item$[esp+40], xmm0
	mov	DWORD PTR _item$[esp+44], esi
; File C:\Program Files\Microsoft Visual Studio\2022\Community\VC\Tools\MSVC\14.29.30133\include\vector

; 730  :         if (_Mylast != _My_data._Myend) {

	cmp	edx, DWORD PTR [ecx+8]
	je	SHORT $LN121@r_dsgraph_

; 713  :         _Alty_traits::construct(_Getal(), _Unfancy(_Mylast), _STD forward<_Valty>(_Val)...);

	mov	eax, DWORD PTR _item$[esp+40]
	mov	DWORD PTR [edx], eax
	mov	DWORD PTR [edx+4], esi

; 714  :         _Orphan_range(_Mylast, _Mylast);
; 715  :         _Ty& _Result = *_Mylast;
; 716  :         ++_Mylast;

	add	DWORD PTR [ecx+4], 8

; 731  :             return _Emplace_back_with_unused_capacity(_STD forward<_Valty>(_Val)...);

	jmp	SHORT $LN120@r_dsgraph_
$LN121@r_dsgraph_:

; 732  :         }
; 733  : 
; 734  :         _Ty& _Result = *_Emplace_reallocate(_Mylast, _STD forward<_Valty>(_Val)...);

	lea	eax, DWORD PTR _item$[esp+40]
	push	eax
	push	edx
	call	??$_Emplace_reallocate@ABU_NormalItem@R_dsgraph@@@?$vector@U_NormalItem@R_dsgraph@@V?$doug_lea_alloc@U_NormalItem@R_dsgraph@@@@@std@@QAEPAU_NormalItem@R_dsgraph@@QAU23@ABU23@@Z ; std::vector<R_dsgraph::_NormalItem,doug_lea_alloc<R_dsgraph::_NormalItem> >::_Emplace_reallocate<R_dsgraph::_NormalItem const &>
	movss	xmm0, DWORD PTR _SSA$1$[esp+40]
$LN120@r_dsgraph_:
; File I:\Vitalya\mine\NSProjectX\layers\xrRender\r__dsgraph_build.cpp

; 261  : 	if (SSA>Ntex->val.ssa)		{ Ntex->val.ssa = SSA;

	comiss	xmm0, DWORD PTR [edi+16]
	jbe	SHORT $LN17@r_dsgraph_

; 262  : 	if (SSA>Nstate->val.ssa)	{ Nstate->val.ssa = SSA;

	mov	eax, DWORD PTR _Nstate$1$[esp+40]
	movss	DWORD PTR [edi+16], xmm0
	comiss	xmm0, DWORD PTR [eax+16]
	jbe	SHORT $LN17@r_dsgraph_
	movss	DWORD PTR [eax+16], xmm0

; 263  : 	if (SSA>Ncs->val.ssa)		{ Ncs->val.ssa = SSA;

	comiss	xmm0, DWORD PTR [ebx+16]
	jbe	SHORT $LN17@r_dsgraph_

; 264  : 	if (SSA>Nps->val.ssa)		{ Nps->val.ssa = SSA;

	mov	eax, DWORD PTR _Nps$1$[esp+40]
	movss	DWORD PTR [ebx+16], xmm0
	comiss	xmm0, DWORD PTR [eax+16]
	jbe	SHORT $LN17@r_dsgraph_
	movss	DWORD PTR [eax+16], xmm0

; 265  : 	if (SSA>Nvs->val.ssa)		{ Nvs->val.ssa = SSA;

	mov	eax, DWORD PTR _Nvs$1$[esp+40]
	comiss	xmm0, DWORD PTR [eax+16]
	jbe	SHORT $LN17@r_dsgraph_
	movss	DWORD PTR [eax+16], xmm0
$LN17@r_dsgraph_:

; 266  : 	} } } } }
; 267  : 
; 268  : #if RENDER==R_R2
; 269  : 	if (val_recorder)			{
; 270  : 		val_recorder->push_back	(pVisual->vis.box	);
; 271  : 	}
; 272  : #endif
; 273  : }

	pop	edi
	pop	esi
	pop	ebx
	mov	esp, ebp
	pop	ebp
	ret	4
?r_dsgraph_insert_static@R_dsgraph_structure@@QAEXPAVIRender_Visual@@@Z ENDP ; R_dsgraph_structure::r_dsgraph_insert_static
_TEXT	ENDS
; Function compile flags: /Ogtpy
; File I:\Vitalya\mine\NSProjectX\layers\xrRender\r__dsgraph_build.cpp
; File I:\Vitalya\mine\NSProjectX\xrCore\_matrix.h
; File I:\Vitalya\mine\NSProjectX\xrCore\_vector3d.h
; File I:\Vitalya\mine\NSProjectX\xrCore\_matrix.h
; File I:\Vitalya\mine\NSProjectX\xrCore\_vector3d.h
; File I:\Vitalya\mine\NSProjectX\xrCore\_matrix.h
; File I:\Vitalya\mine\NSProjectX\xrCore\_vector3d.h
; File I:\Vitalya\mine\NSProjectX\xrCore\_matrix.h
; File I:\Vitalya\mine\NSProjectX\layers\xrRender\r__dsgraph_build.cpp
; File I:\Vitalya\mine\NSProjectX\xrCore\_vector3d.h
; File I:\Vitalya\mine\NSProjectX\layers\xrRender\r__dsgraph_build.cpp
; File C:\Program Files\Microsoft Visual Studio\2022\Community\VC\Tools\MSVC\14.29.30133\include\vector
; File I:\Vitalya\mine\NSProjectX\layers\xrRender\r__dsgraph_build.cpp
; File C:\Program Files\Microsoft Visual Studio\2022\Community\VC\Tools\MSVC\14.29.30133\include\vector
; File I:\Vitalya\mine\NSProjectX\layers\xrRender\r__dsgraph_build.cpp
; File C:\Program Files\Microsoft Visual Studio\2022\Community\VC\Tools\MSVC\14.29.30133\include\vector
; File I:\Vitalya\mine\NSProjectX\layers\xrRender\r__dsgraph_build.cpp
; File C:\Program Files\Microsoft Visual Studio\2022\Community\VC\Tools\MSVC\14.29.30133\include\vector
; File I:\Vitalya\mine\NSProjectX\layers\xrRender\r__dsgraph_build.cpp
; File C:\Program Files\Microsoft Visual Studio\2022\Community\VC\Tools\MSVC\14.29.30133\include\vector
; File I:\Vitalya\mine\NSProjectX\layers\xrRender\r__dsgraph_build.cpp
; File C:\Program Files\Microsoft Visual Studio\2022\Community\VC\Tools\MSVC\14.29.30133\include\vector
; File I:\Vitalya\mine\NSProjectX\layers\xrRender\r__dsgraph_build.cpp
; File C:\Program Files\Microsoft Visual Studio\2022\Community\VC\Tools\MSVC\14.29.30133\include\vector
; File I:\Vitalya\mine\NSProjectX\layers\xrRender\r__dsgraph_build.cpp
; File C:\Program Files\Microsoft Visual Studio\2022\Community\VC\Tools\MSVC\14.29.30133\include\vector
; File I:\Vitalya\mine\NSProjectX\layers\xrRender\r__dsgraph_build.cpp
; File I:\Vitalya\mine\NSProjectX\xrCore\_matrix.h
; File I:\Vitalya\mine\NSProjectX\layers\xrRender\r__dsgraph_build.cpp
; File I:\Vitalya\mine\NSProjectX\xrCore\_matrix.h
; File I:\Vitalya\mine\NSProjectX\layers\xrRender\r__dsgraph_build.cpp
; File I:\Vitalya\mine\NSProjectX\xrCore\_matrix.h
; File I:\Vitalya\mine\NSProjectX\layers\xrRender\r__dsgraph_build.cpp
_TEXT	SEGMENT
_Tpos$2 = -12						; size = 12
_pVisual$ = 8						; size = 4
?add_leafs_Dynamic@CRender@@AAEXPAVIRender_Visual@@@Z PROC ; CRender::add_leafs_Dynamic
; _this$ = ecx

; 279  : {

	sub	esp, 12					; 0000000cH
	push	ebx
	push	ebp

; 280  : 	if (0==pVisual)				return;

	mov	ebp, DWORD PTR _pVisual$[esp+16]
	mov	ebx, ecx
	test	ebp, ebp
	je	$LN1@add_leafs_

; 314  : 			{
; 315  : 				Fvector							Tpos;	float		D;
; 316  : 				val_pTransform->transform_tiny	(Tpos, pV->vis.sphere.P);

	movss	xmm7, DWORD PTR ?r_ssaLOD_A@@3MA
	mov	edx, DWORD PTR __imp_?Device@@3VCRenderDevice@@A
	push	esi
	push	edi
$LL293@add_leafs_:

; 281  : 
; 282  : 	// Visual is 100% visible - simply add it
; 283  : 	xr_vector<IRender_Visual*>::iterator I,E;	// it may be useful for 'hierrarhy' visual
; 284  : 
; 285  : 	switch (pVisual->Type) {

	mov	eax, DWORD PTR [ebp+4]
	dec	eax
	cmp	eax, 9
	ja	$LN29@add_leafs_
	movzx	eax, BYTE PTR $LN324@add_leafs_[eax]
	jmp	DWORD PTR $LN325@add_leafs_[eax*4]
$LN23@add_leafs_:

; 305  : 		}
; 306  : 		return;
; 307  : 	case MT_SKELETON_ANIM:
; 308  : 	case MT_SKELETON_RIGID:
; 309  : 		{
; 310  : 			// Add all children, doesn't perform any tests
; 311  : 			CKinematics * pV			= (CKinematics*)pVisual;
; 312  : 			BOOL	_use_lod			= FALSE	;
; 313  : 			if (pV->m_lod)				

	mov	ecx, DWORD PTR [ebp+84]
	test	ecx, ecx
	je	$LN27@add_leafs_

; 314  : 			{
; 315  : 				Fvector							Tpos;	float		D;
; 316  : 				val_pTransform->transform_tiny	(Tpos, pV->vis.sphere.P);

	mov	eax, DWORD PTR [ebx+264]
; File I:\Vitalya\mine\NSProjectX\xrCore\_matrix.h

; 499  : 		dest.x = v.x*_11 + v.y*_21 + v.z*_31 + _41;

	movss	xmm6, DWORD PTR [ebp+12]
	movss	xmm4, DWORD PTR [ebp+8]

; 500  : 		dest.y = v.x*_12 + v.y*_22 + v.z*_32 + _42;

	movaps	xmm1, xmm6
	movss	xmm5, DWORD PTR [ebp+16]
	movaps	xmm0, xmm4
	mulss	xmm0, DWORD PTR [eax+4]
	mulss	xmm1, DWORD PTR [eax+20]
; File I:\Vitalya\mine\NSProjectX\xrCore\_vector3d.h

; 287  : 	{	return (x-v.x)*(x-v.x) + (y-v.y)*(y-v.y) + (z-v.z)*(z-v.z);	}

	movss	xmm3, DWORD PTR [edx+492]
	movss	xmm2, DWORD PTR [edx+488]
; File I:\Vitalya\mine\NSProjectX\xrCore\_matrix.h

; 500  : 		dest.y = v.x*_12 + v.y*_22 + v.z*_32 + _42;

	addss	xmm1, xmm0
	movaps	xmm0, xmm5
	mulss	xmm0, DWORD PTR [eax+36]
	addss	xmm0, DWORD PTR [eax+52]
	addss	xmm1, xmm0
	movaps	xmm0, xmm4
	mulss	xmm0, DWORD PTR [eax]

; 501  : 		dest.z = v.x*_13 + v.y*_23 + v.z*_33 + _43;

	mulss	xmm4, DWORD PTR [eax+8]
; File I:\Vitalya\mine\NSProjectX\xrCore\_vector3d.h

; 287  : 	{	return (x-v.x)*(x-v.x) + (y-v.y)*(y-v.y) + (z-v.z)*(z-v.z);	}

	subss	xmm3, xmm1
; File I:\Vitalya\mine\NSProjectX\xrCore\_matrix.h

; 499  : 		dest.x = v.x*_11 + v.y*_21 + v.z*_31 + _41;

	movaps	xmm1, xmm6
	mulss	xmm1, DWORD PTR [eax+16]

; 501  : 		dest.z = v.x*_13 + v.y*_23 + v.z*_33 + _43;

	mulss	xmm6, DWORD PTR [eax+24]
	addss	xmm1, xmm0
; File I:\Vitalya\mine\NSProjectX\xrCore\_vector3d.h

; 287  : 	{	return (x-v.x)*(x-v.x) + (y-v.y)*(y-v.y) + (z-v.z)*(z-v.z);	}

	mulss	xmm3, xmm3
; File I:\Vitalya\mine\NSProjectX\xrCore\_matrix.h

; 499  : 		dest.x = v.x*_11 + v.y*_21 + v.z*_31 + _41;

	movaps	xmm0, xmm5

; 501  : 		dest.z = v.x*_13 + v.y*_23 + v.z*_33 + _43;

	mulss	xmm5, DWORD PTR [eax+40]
	mulss	xmm0, DWORD PTR [eax+32]
	addss	xmm6, xmm4
	addss	xmm5, DWORD PTR [eax+56]
	addss	xmm0, DWORD PTR [eax+48]
	addss	xmm6, xmm5
	addss	xmm1, xmm0
; File I:\Vitalya\mine\NSProjectX\layers\xrRender\r__dsgraph_build.cpp

; 317  : 				float		ssa		=	CalcSSA	(D,Tpos,pV->vis.sphere.R/2.f);	// assume dynamics never consume full sphere

	movss	xmm0, DWORD PTR [ebp+20]
	mulss	xmm0, DWORD PTR __real@3f000000
; File I:\Vitalya\mine\NSProjectX\xrCore\_vector3d.h

; 287  : 	{	return (x-v.x)*(x-v.x) + (y-v.y)*(y-v.y) + (z-v.z)*(z-v.z);	}

	subss	xmm2, xmm1
	movss	xmm1, DWORD PTR [edx+496]
	subss	xmm1, xmm6
	mulss	xmm2, xmm2
	mulss	xmm1, xmm1
; File I:\Vitalya\mine\NSProjectX\layers\xrRender\r__dsgraph_build.cpp

; 31   : 	distSQ	= Device.vCameraPosition.distance_to_sqr(C)+EPS;

	addss	xmm2, xmm3
	addss	xmm1, DWORD PTR __real@3727c5ac
	addss	xmm2, xmm1

; 32   : 	return	R/distSQ;

	divss	xmm0, xmm2

; 318  : 				if (ssa<r_ssaLOD_A)	_use_lod	= TRUE;

	comiss	xmm7, xmm0
	jbe	SHORT $LN27@add_leafs_

; 319  : 			}
; 320  : 			if (_use_lod)				
; 321  : 			{
; 322  : 				add_leafs_Dynamic			(pV->m_lod)		;

	mov	ebp, ecx
	jmp	$LL293@add_leafs_
$LN27@add_leafs_:

; 323  : 			} else {
; 324  : 				pV->CalculateBones			(TRUE);

	mov	eax, DWORD PTR [ebp]
	mov	ecx, ebp
	push	1
	call	DWORD PTR [eax+64]

; 325  : 				pV->CalculateWallmarks		();		//. bug?

	mov	ecx, ebp
	call	DWORD PTR __imp_?CalculateWallmarks@CKinematics@@QAEXXZ

; 326  : 				I = pV->children.begin		();
; 327  : 				E = pV->children.end		();

	mov	edi, DWORD PTR [ebp+72]

; 328  : 				for (; I!=E; I++)	add_leafs_Dynamic	(*I);

	mov	esi, DWORD PTR [ebp+68]
	cmp	esi, edi
	je	$LN326@add_leafs_
$LL18@add_leafs_:
	push	DWORD PTR [esi]
	mov	ecx, ebx
	call	?add_leafs_Dynamic@CRender@@AAEXPAVIRender_Visual@@@Z ; CRender::add_leafs_Dynamic
; File C:\Program Files\Microsoft Visual Studio\2022\Community\VC\Tools\MSVC\14.29.30133\include\vector

; 74   :         ++_Ptr;

	add	esi, 4
; File I:\Vitalya\mine\NSProjectX\layers\xrRender\r__dsgraph_build.cpp

; 328  : 				for (; I!=E; I++)	add_leafs_Dynamic	(*I);

	cmp	esi, edi
	jne	SHORT $LL18@add_leafs_

; 339  : 		}
; 340  : 		return;
; 341  : 	}
; 342  : }

	pop	edi
	pop	esi
	pop	ebp
	pop	ebx
	add	esp, 12					; 0000000cH
	ret	4
$LN20@add_leafs_:
; File C:\Program Files\Microsoft Visual Studio\2022\Community\VC\Tools\MSVC\14.29.30133\include\vector

; 41   :     _CONSTEXPR20_CONTAINER _Vector_const_iterator(_Tptr _Parg, const _Container_base* _Pvector) noexcept : _Ptr(_Parg) {

	mov	edi, DWORD PTR [ebp+92]

; 150  :         return _Ptr == _Right._Ptr;

	cmp	edi, DWORD PTR [ebp+96]
; File I:\Vitalya\mine\NSProjectX\layers\xrRender\r__dsgraph_build.cpp

; 290  : 			for (PS::CParticleGroup::SItemVecIt i_it=pG->items.begin(); i_it!=pG->items.end(); i_it++)	{

	je	$LN326@add_leafs_
$LL6@add_leafs_:

; 291  : 				PS::CParticleGroup::SItem&			I		= *i_it;
; 292  : 				if (I._effect)		add_leafs_Dynamic		(I._effect);

	mov	eax, DWORD PTR [edi]
	test	eax, eax
	je	SHORT $LN21@add_leafs_
	push	eax
	mov	ecx, ebx
	call	?add_leafs_Dynamic@CRender@@AAEXPAVIRender_Visual@@@Z ; CRender::add_leafs_Dynamic
$LN21@add_leafs_:
; File C:\Program Files\Microsoft Visual Studio\2022\Community\VC\Tools\MSVC\14.29.30133\include\vector

; 41   :     _CONSTEXPR20_CONTAINER _Vector_const_iterator(_Tptr _Parg, const _Container_base* _Pvector) noexcept : _Ptr(_Parg) {

	mov	esi, DWORD PTR [edi+4]

; 150  :         return _Ptr == _Right._Ptr;

	cmp	esi, DWORD PTR [edi+8]
; File I:\Vitalya\mine\NSProjectX\layers\xrRender\r__dsgraph_build.cpp

; 293  : 				for (xr_vector<IRender_Visual*>::iterator pit = I._children_related.begin();	pit!=I._children_related.end(); pit++)	add_leafs_Dynamic(*pit);

	je	SHORT $LN322@add_leafs_
	npad	4
$LL9@add_leafs_:
	push	DWORD PTR [esi]
	mov	ecx, ebx
	call	?add_leafs_Dynamic@CRender@@AAEXPAVIRender_Visual@@@Z ; CRender::add_leafs_Dynamic
; File C:\Program Files\Microsoft Visual Studio\2022\Community\VC\Tools\MSVC\14.29.30133\include\vector

; 74   :         ++_Ptr;

	add	esi, 4

; 150  :         return _Ptr == _Right._Ptr;

	cmp	esi, DWORD PTR [edi+8]
; File I:\Vitalya\mine\NSProjectX\layers\xrRender\r__dsgraph_build.cpp

; 293  : 				for (xr_vector<IRender_Visual*>::iterator pit = I._children_related.begin();	pit!=I._children_related.end(); pit++)	add_leafs_Dynamic(*pit);

	jne	SHORT $LL9@add_leafs_
$LN322@add_leafs_:
; File C:\Program Files\Microsoft Visual Studio\2022\Community\VC\Tools\MSVC\14.29.30133\include\vector

; 41   :     _CONSTEXPR20_CONTAINER _Vector_const_iterator(_Tptr _Parg, const _Container_base* _Pvector) noexcept : _Ptr(_Parg) {

	mov	esi, DWORD PTR [edi+16]

; 150  :         return _Ptr == _Right._Ptr;

	cmp	esi, DWORD PTR [edi+20]
; File I:\Vitalya\mine\NSProjectX\layers\xrRender\r__dsgraph_build.cpp

; 294  : 				for (xr_vector<IRender_Visual*>::iterator pit = I._children_free.begin();		pit!=I._children_free.end();	pit++)	add_leafs_Dynamic(*pit);

	je	SHORT $LN4@add_leafs_
	npad	7
$LL12@add_leafs_:
	push	DWORD PTR [esi]
	mov	ecx, ebx
	call	?add_leafs_Dynamic@CRender@@AAEXPAVIRender_Visual@@@Z ; CRender::add_leafs_Dynamic
; File C:\Program Files\Microsoft Visual Studio\2022\Community\VC\Tools\MSVC\14.29.30133\include\vector

; 74   :         ++_Ptr;

	add	esi, 4

; 150  :         return _Ptr == _Right._Ptr;

	cmp	esi, DWORD PTR [edi+20]
; File I:\Vitalya\mine\NSProjectX\layers\xrRender\r__dsgraph_build.cpp

; 294  : 				for (xr_vector<IRender_Visual*>::iterator pit = I._children_free.begin();		pit!=I._children_free.end();	pit++)	add_leafs_Dynamic(*pit);

	jne	SHORT $LL12@add_leafs_
$LN4@add_leafs_:
; File C:\Program Files\Microsoft Visual Studio\2022\Community\VC\Tools\MSVC\14.29.30133\include\vector

; 74   :         ++_Ptr;

	add	edi, 28					; 0000001cH

; 150  :         return _Ptr == _Right._Ptr;

	cmp	edi, DWORD PTR [ebp+96]
; File I:\Vitalya\mine\NSProjectX\layers\xrRender\r__dsgraph_build.cpp

; 290  : 			for (PS::CParticleGroup::SItemVecIt i_it=pG->items.begin(); i_it!=pG->items.end(); i_it++)	{

	jne	SHORT $LL6@add_leafs_

; 339  : 		}
; 340  : 		return;
; 341  : 	}
; 342  : }

	pop	edi
	pop	esi
	pop	ebp
	pop	ebx
	add	esp, 12					; 0000000cH
	ret	4
$LN22@add_leafs_:

; 295  : 			}
; 296  : 		}
; 297  : 		return;
; 298  : 	case MT_HIERRARHY:
; 299  : 		{
; 300  : 			// Add all children, doesn't perform any tests
; 301  : 			FHierrarhyVisual* pV = (FHierrarhyVisual*)pVisual;
; 302  : 			I = pV->children.begin	();
; 303  : 			E = pV->children.end	();

	mov	edi, DWORD PTR [ebp+72]

; 304  : 			for (; I!=E; I++)	add_leafs_Dynamic	(*I);

	mov	esi, DWORD PTR [ebp+68]
	cmp	esi, edi
	je	$LN326@add_leafs_
$LL15@add_leafs_:
	push	DWORD PTR [esi]
	mov	ecx, ebx
	call	?add_leafs_Dynamic@CRender@@AAEXPAVIRender_Visual@@@Z ; CRender::add_leafs_Dynamic
; File C:\Program Files\Microsoft Visual Studio\2022\Community\VC\Tools\MSVC\14.29.30133\include\vector

; 74   :         ++_Ptr;

	add	esi, 4
; File I:\Vitalya\mine\NSProjectX\layers\xrRender\r__dsgraph_build.cpp

; 304  : 			for (; I!=E; I++)	add_leafs_Dynamic	(*I);

	cmp	esi, edi
	jne	SHORT $LL15@add_leafs_

; 339  : 		}
; 340  : 		return;
; 341  : 	}
; 342  : }

	pop	edi
	pop	esi
	pop	ebp
	pop	ebx
	add	esp, 12					; 0000000cH
	ret	4
$LN29@add_leafs_:

; 329  : 			}
; 330  : 		}
; 331  : 		return;
; 332  : 	default:
; 333  : 		{
; 334  : 			// General type of visual
; 335  : 			// Calculate distance to it's center
; 336  : 			Fvector							Tpos;
; 337  : 			val_pTransform->transform_tiny	(Tpos, pVisual->vis.sphere.P);

	mov	eax, DWORD PTR [ebx+264]

; 338  : 			r_dsgraph_insert_dynamic		(pVisual,Tpos);

	mov	ecx, ebx
; File I:\Vitalya\mine\NSProjectX\xrCore\_matrix.h

; 499  : 		dest.x = v.x*_11 + v.y*_21 + v.z*_31 + _41;

	movss	xmm2, DWORD PTR [ebp+12]
	movss	xmm4, DWORD PTR [ebp+8]
	movaps	xmm1, xmm2
	movss	xmm3, DWORD PTR [ebp+16]
	movaps	xmm0, xmm4
	mulss	xmm0, DWORD PTR [eax]
	mulss	xmm1, DWORD PTR [eax+16]
	addss	xmm1, xmm0
	movaps	xmm0, xmm3
	mulss	xmm0, DWORD PTR [eax+32]
	addss	xmm0, DWORD PTR [eax+48]
	addss	xmm1, xmm0

; 500  : 		dest.y = v.x*_12 + v.y*_22 + v.z*_32 + _42;

	movaps	xmm0, xmm2
	mulss	xmm0, DWORD PTR [eax+20]

; 501  : 		dest.z = v.x*_13 + v.y*_23 + v.z*_33 + _43;

	mulss	xmm2, DWORD PTR [eax+24]
	movss	DWORD PTR _Tpos$2[esp+28], xmm1
	movaps	xmm1, xmm4
	mulss	xmm1, DWORD PTR [eax+4]
	mulss	xmm4, DWORD PTR [eax+8]
	addss	xmm1, xmm0
	movaps	xmm0, xmm3
	mulss	xmm0, DWORD PTR [eax+36]
	mulss	xmm3, DWORD PTR [eax+40]
	addss	xmm4, xmm2
	addss	xmm0, DWORD PTR [eax+52]
	addss	xmm3, DWORD PTR [eax+56]
; File I:\Vitalya\mine\NSProjectX\layers\xrRender\r__dsgraph_build.cpp

; 338  : 			r_dsgraph_insert_dynamic		(pVisual,Tpos);

	lea	eax, DWORD PTR _Tpos$2[esp+28]
	push	eax
; File I:\Vitalya\mine\NSProjectX\xrCore\_matrix.h

; 500  : 		dest.y = v.x*_12 + v.y*_22 + v.z*_32 + _42;

	addss	xmm1, xmm0
; File I:\Vitalya\mine\NSProjectX\layers\xrRender\r__dsgraph_build.cpp

; 338  : 			r_dsgraph_insert_dynamic		(pVisual,Tpos);

	push	ebp
; File I:\Vitalya\mine\NSProjectX\xrCore\_matrix.h

; 501  : 		dest.z = v.x*_13 + v.y*_23 + v.z*_33 + _43;

	addss	xmm4, xmm3
	movss	DWORD PTR _Tpos$2[esp+40], xmm1
	movss	DWORD PTR _Tpos$2[esp+44], xmm4
; File I:\Vitalya\mine\NSProjectX\layers\xrRender\r__dsgraph_build.cpp

; 338  : 			r_dsgraph_insert_dynamic		(pVisual,Tpos);

	call	?r_dsgraph_insert_dynamic@R_dsgraph_structure@@QAEXPAVIRender_Visual@@AAU?$_vector3@M@@@Z ; R_dsgraph_structure::r_dsgraph_insert_dynamic
$LN326@add_leafs_:
	pop	edi
	pop	esi
$LN1@add_leafs_:
	pop	ebp

; 339  : 		}
; 340  : 		return;
; 341  : 	}
; 342  : }

	pop	ebx
	add	esp, 12					; 0000000cH
	ret	4
	npad	2
$LN325@add_leafs_:
	DD	$LN22@add_leafs_
	DD	$LN23@add_leafs_
	DD	$LN20@add_leafs_
	DD	$LN29@add_leafs_
$LN324@add_leafs_:
	DB	0
	DB	3
	DB	1
	DB	3
	DB	3
	DB	3
	DB	3
	DB	3
	DB	2
	DB	1
?add_leafs_Dynamic@CRender@@AAEXPAVIRender_Visual@@@Z ENDP ; CRender::add_leafs_Dynamic
_TEXT	ENDS
; Function compile flags: /Ogtpy
; File I:\Vitalya\mine\NSProjectX\layers\xrRender\r__dsgraph_build.cpp
; File I:\Vitalya\mine\NSProjectX\layers\xrRender\HOM.cpp
; File I:\Vitalya\mine\NSProjectX\layers\xrRender\r__dsgraph_build.cpp
; File I:\Vitalya\mine\NSProjectX\layers\xrRender\HOM.cpp
; File I:\Vitalya\mine\NSProjectX\layers\xrRender\r__dsgraph_build.cpp
; File I:\Vitalya\mine\NSProjectX\layers\xrRender\HOM.cpp
; File I:\Vitalya\mine\NSProjectX\layers\xrRender\r__dsgraph_build.cpp
; File I:\Vitalya\mine\NSProjectX\layers\xrRender\HOM.cpp
; File I:\Vitalya\mine\NSProjectX\xrCore\_random.h
; File I:\Vitalya\mine\NSProjectX\layers\xrRender\HOM.cpp
; File I:\Vitalya\mine\NSProjectX\layers\xrRender\r__dsgraph_build.cpp
; File I:\Vitalya\mine\NSProjectX\layers\xrRender\HOM.cpp
; File I:\Vitalya\mine\NSProjectX\layers\xrRender\r__dsgraph_build.cpp
; File C:\Program Files\Microsoft Visual Studio\2022\Community\VC\Tools\MSVC\14.29.30133\include\vector
; File I:\Vitalya\mine\NSProjectX\layers\xrRender\r__dsgraph_build.cpp
; File C:\Program Files\Microsoft Visual Studio\2022\Community\VC\Tools\MSVC\14.29.30133\include\vector
; File I:\Vitalya\mine\NSProjectX\layers\xrRender\r__dsgraph_build.cpp
; File C:\Program Files\Microsoft Visual Studio\2022\Community\VC\Tools\MSVC\14.29.30133\include\vector
; File I:\Vitalya\mine\NSProjectX\layers\xrRender\r__dsgraph_build.cpp
; File C:\Program Files\Microsoft Visual Studio\2022\Community\VC\Tools\MSVC\14.29.30133\include\vector
; File I:\Vitalya\mine\NSProjectX\layers\xrRender\r__dsgraph_build.cpp
; File C:\Program Files\Microsoft Visual Studio\2022\Community\VC\Tools\MSVC\14.29.30133\include\vector
; File I:\Vitalya\mine\NSProjectX\layers\xrRender\r__dsgraph_build.cpp
; File C:\Program Files\Microsoft Visual Studio\2022\Community\VC\Tools\MSVC\14.29.30133\include\vector
; File I:\Vitalya\mine\NSProjectX\layers\xrRender\r__dsgraph_build.cpp
; File C:\Program Files\Microsoft Visual Studio\2022\Community\VC\Tools\MSVC\14.29.30133\include\vector
; File I:\Vitalya\mine\NSProjectX\layers\xrRender\r__dsgraph_build.cpp
; File C:\Program Files\Microsoft Visual Studio\2022\Community\VC\Tools\MSVC\14.29.30133\include\vector
; File I:\Vitalya\mine\NSProjectX\layers\xrRender\r__dsgraph_build.cpp
; File C:\Program Files\Microsoft Visual Studio\2022\Community\VC\Tools\MSVC\14.29.30133\include\vector
; File I:\Vitalya\mine\NSProjectX\layers\xrRender\r__dsgraph_build.cpp
; File I:\Vitalya\mine\NSProjectX\xrCore\_matrix.h
; File I:\Vitalya\mine\NSProjectX\layers\xrRender\r__dsgraph_build.cpp
; File I:\Vitalya\mine\NSProjectX\xrCore\_matrix.h
; File I:\Vitalya\mine\NSProjectX\xrCore\_vector3d.h
; File I:\Vitalya\mine\NSProjectX\xrCore\_matrix.h
; File I:\Vitalya\mine\NSProjectX\xrCore\_vector3d.h
; File I:\Vitalya\mine\NSProjectX\xrCore\_matrix.h
; File I:\Vitalya\mine\NSProjectX\xrCore\_vector3d.h
; File I:\Vitalya\mine\NSProjectX\xrCore\_matrix.h
; File I:\Vitalya\mine\NSProjectX\xrCore\_vector3d.h
; File I:\Vitalya\mine\NSProjectX\xrCore\_matrix.h
; File I:\Vitalya\mine\NSProjectX\xrCore\_vector3d.h
; File I:\Vitalya\mine\NSProjectX\layers\xrRender\r__dsgraph_build.cpp
; File I:\Vitalya\mine\NSProjectX\xrCore\_vector3d.h
; File I:\Vitalya\mine\NSProjectX\layers\xrRender\r__dsgraph_build.cpp
; File C:\Program Files\Microsoft Visual Studio\2022\Community\VC\Tools\MSVC\14.29.30133\include\vector
; File I:\Vitalya\mine\NSProjectX\layers\xrRender\r__dsgraph_build.cpp
; File I:\Vitalya\mine\NSProjectX\xrCore\_matrix.h
; File I:\Vitalya\mine\NSProjectX\layers\xrRender\r__dsgraph_build.cpp
; File I:\Vitalya\mine\NSProjectX\xrCore\_matrix.h
; File I:\Vitalya\mine\NSProjectX\layers\xrRender\r__dsgraph_build.cpp
; File I:\Vitalya\mine\NSProjectX\xrCore\_matrix.h
; File I:\Vitalya\mine\NSProjectX\layers\xrRender\r__dsgraph_build.cpp
; File C:\Program Files\Microsoft Visual Studio\2022\Community\VC\Tools\MSVC\14.29.30133\include\vector
; File I:\Vitalya\mine\NSProjectX\layers\xrRender\r__dsgraph_build.cpp
; File C:\Program Files\Microsoft Visual Studio\2022\Community\VC\Tools\MSVC\14.29.30133\include\vector
; File I:\Vitalya\mine\NSProjectX\layers\xrRender\r__dsgraph_build.cpp
; File C:\Program Files\Microsoft Visual Studio\2022\Community\VC\Tools\MSVC\14.29.30133\include\vector
; File I:\Vitalya\mine\NSProjectX\layers\xrRender\r__dsgraph_build.cpp
; File C:\Program Files\Microsoft Visual Studio\2022\Community\VC\Tools\MSVC\14.29.30133\include\vector
; File I:\Vitalya\mine\NSProjectX\layers\xrRender\r__dsgraph_build.cpp
; File C:\Program Files\Microsoft Visual Studio\2022\Community\VC\Tools\MSVC\14.29.30133\include\vector
; File I:\Vitalya\mine\NSProjectX\layers\xrRender\r__dsgraph_build.cpp
; File C:\Program Files\Microsoft Visual Studio\2022\Community\VC\Tools\MSVC\14.29.30133\include\vector
; File I:\Vitalya\mine\NSProjectX\layers\xrRender\r__dsgraph_build.cpp
; File C:\Program Files\Microsoft Visual Studio\2022\Community\VC\Tools\MSVC\14.29.30133\include\vector
; File I:\Vitalya\mine\NSProjectX\layers\xrRender\r__dsgraph_build.cpp
; File C:\Program Files\Microsoft Visual Studio\2022\Community\VC\Tools\MSVC\14.29.30133\include\vector
; File I:\Vitalya\mine\NSProjectX\layers\xrRender\r__dsgraph_build.cpp
; File C:\Program Files\Microsoft Visual Studio\2022\Community\VC\Tools\MSVC\14.29.30133\include\vector
; File I:\Vitalya\mine\NSProjectX\layers\xrRender\r__dsgraph_build.cpp
; File C:\Program Files\Microsoft Visual Studio\2022\Community\VC\Tools\MSVC\14.29.30133\include\vector
; File I:\Vitalya\mine\NSProjectX\layers\xrRender\r__dsgraph_build.cpp
; File C:\Program Files\Microsoft Visual Studio\2022\Community\VC\Tools\MSVC\14.29.30133\include\vector
; File I:\Vitalya\mine\NSProjectX\layers\xrRender\r__dsgraph_build.cpp
; File I:\Vitalya\mine\NSProjectX\xrCore\_matrix.h
; File I:\Vitalya\mine\NSProjectX\layers\xrRender\r__dsgraph_build.cpp
; File I:\Vitalya\mine\NSProjectX\xrCore\_matrix.h
; File I:\Vitalya\mine\NSProjectX\xrCore\_vector3d.h
; File I:\Vitalya\mine\NSProjectX\xrCore\_matrix.h
; File I:\Vitalya\mine\NSProjectX\xrCore\_vector3d.h
; File I:\Vitalya\mine\NSProjectX\xrCore\_matrix.h
; File I:\Vitalya\mine\NSProjectX\xrCore\_vector3d.h
; File I:\Vitalya\mine\NSProjectX\xrCore\_matrix.h
; File I:\Vitalya\mine\NSProjectX\xrCore\_vector3d.h
; File I:\Vitalya\mine\NSProjectX\xrCore\_matrix.h
; File I:\Vitalya\mine\NSProjectX\xrCore\_vector3d.h
; File I:\Vitalya\mine\NSProjectX\layers\xrRender\r__dsgraph_build.cpp
; File I:\Vitalya\mine\NSProjectX\xrCore\_vector3d.h
; File I:\Vitalya\mine\NSProjectX\layers\xrRender\r__dsgraph_build.cpp
; File C:\Program Files\Microsoft Visual Studio\2022\Community\VC\Tools\MSVC\14.29.30133\include\vector
; File I:\Vitalya\mine\NSProjectX\layers\xrRender\r__dsgraph_build.cpp
; File I:\Vitalya\mine\NSProjectX\xrCore\_matrix.h
; File I:\Vitalya\mine\NSProjectX\layers\xrRender\r__dsgraph_build.cpp
; File I:\Vitalya\mine\NSProjectX\xrCore\_matrix.h
; File I:\Vitalya\mine\NSProjectX\layers\xrRender\r__dsgraph_build.cpp
; File I:\Vitalya\mine\NSProjectX\xrCore\_matrix.h
; File I:\Vitalya\mine\NSProjectX\layers\xrRender\r__dsgraph_build.cpp
; File C:\Program Files\Microsoft Visual Studio\2022\Community\VC\Tools\MSVC\14.29.30133\include\vector
; File I:\Vitalya\mine\NSProjectX\layers\xrRender\r__dsgraph_build.cpp
; File C:\Program Files\Microsoft Visual Studio\2022\Community\VC\Tools\MSVC\14.29.30133\include\vector
; File I:\Vitalya\mine\NSProjectX\layers\xrRender\r__dsgraph_build.cpp
; File C:\Program Files\Microsoft Visual Studio\2022\Community\VC\Tools\MSVC\14.29.30133\include\vector
; File I:\Vitalya\mine\NSProjectX\layers\xrRender\r__dsgraph_build.cpp
; File C:\Program Files\Microsoft Visual Studio\2022\Community\VC\Tools\MSVC\14.29.30133\include\vector
; File I:\Vitalya\mine\NSProjectX\layers\xrRender\r__dsgraph_build.cpp
; File C:\Program Files\Microsoft Visual Studio\2022\Community\VC\Tools\MSVC\14.29.30133\include\vector
; File I:\Vitalya\mine\NSProjectX\layers\xrRender\r__dsgraph_build.cpp
; File C:\Program Files\Microsoft Visual Studio\2022\Community\VC\Tools\MSVC\14.29.30133\include\vector
; File I:\Vitalya\mine\NSProjectX\layers\xrRender\r__dsgraph_build.cpp
; File C:\Program Files\Microsoft Visual Studio\2022\Community\VC\Tools\MSVC\14.29.30133\include\vector
; File I:\Vitalya\mine\NSProjectX\layers\xrRender\r__dsgraph_build.cpp
; File C:\Program Files\Microsoft Visual Studio\2022\Community\VC\Tools\MSVC\14.29.30133\include\vector
; File I:\Vitalya\mine\NSProjectX\layers\xrRender\r__dsgraph_build.cpp
; File C:\Program Files\Microsoft Visual Studio\2022\Community\VC\Tools\MSVC\14.29.30133\include\vector
; File I:\Vitalya\mine\NSProjectX\layers\xrRender\r__dsgraph_build.cpp
; File C:\Program Files\Microsoft Visual Studio\2022\Community\VC\Tools\MSVC\14.29.30133\include\vector
; File I:\Vitalya\mine\NSProjectX\layers\xrRender\r__dsgraph_build.cpp
; File I:\Vitalya\mine\NSProjectX\xrCore\_matrix.h
; File I:\Vitalya\mine\NSProjectX\layers\xrRender\r__dsgraph_build.cpp
; File I:\Vitalya\mine\NSProjectX\xrCore\_matrix.h
; File I:\Vitalya\mine\NSProjectX\xrCore\_vector3d.h
; File I:\Vitalya\mine\NSProjectX\xrCore\_matrix.h
; File I:\Vitalya\mine\NSProjectX\xrCore\_vector3d.h
; File I:\Vitalya\mine\NSProjectX\xrCore\_matrix.h
; File I:\Vitalya\mine\NSProjectX\xrCore\_vector3d.h
; File I:\Vitalya\mine\NSProjectX\xrCore\_matrix.h
; File I:\Vitalya\mine\NSProjectX\xrCore\_vector3d.h
; File I:\Vitalya\mine\NSProjectX\xrCore\_matrix.h
; File I:\Vitalya\mine\NSProjectX\xrCore\_vector3d.h
; File I:\Vitalya\mine\NSProjectX\layers\xrRender\r__dsgraph_build.cpp
; File I:\Vitalya\mine\NSProjectX\xrCore\_vector3d.h
; File I:\Vitalya\mine\NSProjectX\layers\xrRender\r__dsgraph_build.cpp
; File C:\Program Files\Microsoft Visual Studio\2022\Community\VC\Tools\MSVC\14.29.30133\include\vector
; File I:\Vitalya\mine\NSProjectX\layers\xrRender\r__dsgraph_build.cpp
; File I:\Vitalya\mine\NSProjectX\xrCore\_matrix.h
; File I:\Vitalya\mine\NSProjectX\layers\xrRender\r__dsgraph_build.cpp
; File I:\Vitalya\mine\NSProjectX\xrCore\_matrix.h
; File I:\Vitalya\mine\NSProjectX\layers\xrRender\r__dsgraph_build.cpp
; File I:\Vitalya\mine\NSProjectX\xrCore\_matrix.h
; File I:\Vitalya\mine\NSProjectX\layers\xrRender\r__dsgraph_build.cpp
; File C:\Program Files\Microsoft Visual Studio\2022\Community\VC\Tools\MSVC\14.29.30133\include\vector
; File I:\Vitalya\mine\NSProjectX\layers\xrRender\r__dsgraph_build.cpp
; File C:\Program Files\Microsoft Visual Studio\2022\Community\VC\Tools\MSVC\14.29.30133\include\vector
; File I:\Vitalya\mine\NSProjectX\layers\xrRender\r__dsgraph_build.cpp
; File I:\Vitalya\mine\NSProjectX\xrCore\_vector3d.h
; File I:\Vitalya\mine\NSProjectX\layers\xrRender\r__dsgraph_build.cpp
; File C:\Program Files\Microsoft Visual Studio\2022\Community\VC\Tools\MSVC\14.29.30133\include\vector
; File I:\Vitalya\mine\NSProjectX\layers\xrRender\r__dsgraph_build.cpp
_TEXT	SEGMENT
_i_it$1$ = -44						; size = 4
_ssa$1$ = -40						; size = 4
_pit$1$ = -40						; size = 4
_pit$1$ = -40						; size = 4
_Tpos$4 = -36						; size = 12
_Tpos$5 = -24						; size = 12
_Tpos$6 = -12						; size = 12
_D$7 = 8						; size = 4
_pVisual$ = 8						; size = 4
?add_leafs_Static@CRender@@AAEXPAVIRender_Visual@@@Z PROC ; CRender::add_leafs_Static
; _this$ = ecx
; File I:\Vitalya\mine\NSProjectX\layers\xrRender\HOM.cpp

; 288  : 	if (Device.dwFrame<vis.hom_frame)	return TRUE;				// not at this time :)

	mov	eax, DWORD PTR __imp_?Device@@3VCRenderDevice@@A
; File I:\Vitalya\mine\NSProjectX\layers\xrRender\r__dsgraph_build.cpp

; 345  : {

	sub	esp, 48					; 00000030H
	push	ebx
	push	ebp
; File I:\Vitalya\mine\NSProjectX\layers\xrRender\HOM.cpp

; 288  : 	if (Device.dwFrame<vis.hom_frame)	return TRUE;				// not at this time :)

	mov	ebp, DWORD PTR _pVisual$[esp+52]
; File I:\Vitalya\mine\NSProjectX\layers\xrRender\r__dsgraph_build.cpp

; 345  : {

	mov	ebx, ecx
	push	esi
; File I:\Vitalya\mine\NSProjectX\layers\xrRender\HOM.cpp

; 288  : 	if (Device.dwFrame<vis.hom_frame)	return TRUE;				// not at this time :)

	mov	esi, DWORD PTR [eax+244]
; File I:\Vitalya\mine\NSProjectX\layers\xrRender\r__dsgraph_build.cpp

; 345  : {

	push	edi
; File I:\Vitalya\mine\NSProjectX\layers\xrRender\HOM.cpp

; 288  : 	if (Device.dwFrame<vis.hom_frame)	return TRUE;				// not at this time :)

	cmp	esi, DWORD PTR [ebp+56]
	jb	SHORT $LN710@add_leafs_

; 289  : 	if (!bEnabled)						return TRUE;				// return - everything visible

	cmp	DWORD PTR [ebx+744], 0
	je	SHORT $LN710@add_leafs_

; 290  : 	
; 291  : 	// Now, the test time comes
; 292  : 	// 0. The object was hidden, and we must prove that each frame	- test		| frame-old, tested-new, hom_res = false;
; 293  : 	// 1. The object was visible, but we must to re-check it		- test		| frame-new, tested-???, hom_res = true;
; 294  : 	// 2. New object slides into view								- delay test| frame-old, tested-old, hom_res = ???;
; 295  : 	u32 frame_current	= Device.dwFrame;
; 296  : 	// u32	frame_prev		= frame_current-1;
; 297  : 
; 298  : #ifdef DEBUG
; 299  : 	Device.Statistic->RenderCALC_HOM.Begin	();
; 300  : #endif
; 301  : 	BOOL result			= _visible			(vis.box,m_xform_01);

	lea	edx, DWORD PTR [ebx+812]
	lea	ecx, DWORD PTR [ebp+24]
	call	?_visible@@YAHAAV?$_box3@M@@AAU?$_matrix@M@@@Z ; _visible

; 302  : 	u32  delay			= 1;
; 303  : 	if (result)

	test	eax, eax
	je	SHORT $LN39@add_leafs_
; File I:\Vitalya\mine\NSProjectX\xrCore\_random.h

; 33   : 	IC 	s32		randI	(s32 max)					{ VERIFY(max);  return randI()%max; }

	mov	ecx, DWORD PTR __imp_?Random@@3VCRandom@@A
	call	?randI@CRandom@@QAEHXZ			; CRandom::randI
	cdq
	mov	ecx, 15					; 0000000fH
	idiv	ecx
; File I:\Vitalya\mine\NSProjectX\layers\xrRender\HOM.cpp

; 306  : 		delay			= ::Random.randI	(5*2,5*5);

	lea	eax, DWORD PTR [esi+10]
	mov	DWORD PTR [ebp+60], esi
	add	eax, edx
	mov	DWORD PTR [ebp+56], eax
$LN710@add_leafs_:
; File I:\Vitalya\mine\NSProjectX\layers\xrRender\r__dsgraph_build.cpp

; 351  : 	switch (pVisual->Type) {

	mov	eax, DWORD PTR [ebp+4]
	dec	eax
	cmp	eax, 10					; 0000000aH
	ja	$LN34@add_leafs_
	movzx	eax, BYTE PTR $LN722@add_leafs_[eax]
	jmp	DWORD PTR $LN723@add_leafs_[eax*4]
$LN39@add_leafs_:
; File I:\Vitalya\mine\NSProjectX\layers\xrRender\HOM.cpp

; 310  : 	vis.hom_frame			= frame_current + delay;

	lea	eax, DWORD PTR [esi+1]

; 311  : 	vis.hom_tested			= frame_current	;

	mov	DWORD PTR [ebp+60], esi
	mov	DWORD PTR [ebp+56], eax
; File I:\Vitalya\mine\NSProjectX\layers\xrRender\r__dsgraph_build.cpp

; 420  : }

	pop	edi
	pop	esi
	pop	ebp
	pop	ebx
	add	esp, 48					; 00000030H
	ret	4
$LN23@add_leafs_:
; File C:\Program Files\Microsoft Visual Studio\2022\Community\VC\Tools\MSVC\14.29.30133\include\vector

; 41   :     _CONSTEXPR20_CONTAINER _Vector_const_iterator(_Tptr _Parg, const _Container_base* _Pvector) noexcept : _Ptr(_Parg) {

	mov	esi, DWORD PTR [ebp+92]
	mov	DWORD PTR _i_it$1$[esp+64], esi

; 150  :         return _Ptr == _Right._Ptr;

	cmp	esi, DWORD PTR [ebp+96]
; File I:\Vitalya\mine\NSProjectX\layers\xrRender\r__dsgraph_build.cpp

; 356  : 			for (PS::CParticleGroup::SItemVecIt i_it=pG->items.begin(); i_it!=pG->items.end(); i_it++){

	je	$LN1@add_leafs_
	movss	xmm7, DWORD PTR __real@3f000000
	mov	edi, DWORD PTR __imp_?CalculateWallmarks@CKinematics@@QAEXXZ
$LL6@add_leafs_:

; 357  : 				PS::CParticleGroup::SItem&			I		= *i_it;
; 358  : 				if (I._effect)		add_leafs_Dynamic		(I._effect);

	mov	ebp, DWORD PTR [esi]
	test	ebp, ebp
	je	$LN77@add_leafs_

; 285  : 	switch (pVisual->Type) {

	mov	eax, DWORD PTR [ebp+4]
	dec	eax
	cmp	eax, 9
	ja	$LN105@add_leafs_
	movzx	eax, BYTE PTR $LN724@add_leafs_[eax]
	jmp	DWORD PTR $LN725@add_leafs_[eax*4]
$LN96@add_leafs_:
; File C:\Program Files\Microsoft Visual Studio\2022\Community\VC\Tools\MSVC\14.29.30133\include\vector

; 41   :     _CONSTEXPR20_CONTAINER _Vector_const_iterator(_Tptr _Parg, const _Container_base* _Pvector) noexcept : _Ptr(_Parg) {

	mov	edi, DWORD PTR [ebp+92]

; 150  :         return _Ptr == _Right._Ptr;

	cmp	edi, DWORD PTR [ebp+96]
; File I:\Vitalya\mine\NSProjectX\layers\xrRender\r__dsgraph_build.cpp

; 290  : 			for (PS::CParticleGroup::SItemVecIt i_it=pG->items.begin(); i_it!=pG->items.end(); i_it++)	{

	je	SHORT $LN736@add_leafs_
	npad	1
$LL82@add_leafs_:

; 291  : 				PS::CParticleGroup::SItem&			I		= *i_it;
; 292  : 				if (I._effect)		add_leafs_Dynamic		(I._effect);

	mov	eax, DWORD PTR [edi]
	test	eax, eax
	je	SHORT $LN97@add_leafs_
	push	eax
	mov	ecx, ebx
	call	?add_leafs_Dynamic@CRender@@AAEXPAVIRender_Visual@@@Z ; CRender::add_leafs_Dynamic
$LN97@add_leafs_:
; File C:\Program Files\Microsoft Visual Studio\2022\Community\VC\Tools\MSVC\14.29.30133\include\vector

; 41   :     _CONSTEXPR20_CONTAINER _Vector_const_iterator(_Tptr _Parg, const _Container_base* _Pvector) noexcept : _Ptr(_Parg) {

	mov	esi, DWORD PTR [edi+4]

; 150  :         return _Ptr == _Right._Ptr;

	cmp	esi, DWORD PTR [edi+8]
; File I:\Vitalya\mine\NSProjectX\layers\xrRender\r__dsgraph_build.cpp

; 293  : 				for (xr_vector<IRender_Visual*>::iterator pit = I._children_related.begin();	pit!=I._children_related.end(); pit++)	add_leafs_Dynamic(*pit);

	je	SHORT $LN715@add_leafs_
$LL85@add_leafs_:
	push	DWORD PTR [esi]
	mov	ecx, ebx
	call	?add_leafs_Dynamic@CRender@@AAEXPAVIRender_Visual@@@Z ; CRender::add_leafs_Dynamic
; File C:\Program Files\Microsoft Visual Studio\2022\Community\VC\Tools\MSVC\14.29.30133\include\vector

; 74   :         ++_Ptr;

	add	esi, 4

; 150  :         return _Ptr == _Right._Ptr;

	cmp	esi, DWORD PTR [edi+8]
; File I:\Vitalya\mine\NSProjectX\layers\xrRender\r__dsgraph_build.cpp

; 293  : 				for (xr_vector<IRender_Visual*>::iterator pit = I._children_related.begin();	pit!=I._children_related.end(); pit++)	add_leafs_Dynamic(*pit);

	jne	SHORT $LL85@add_leafs_
$LN715@add_leafs_:
; File C:\Program Files\Microsoft Visual Studio\2022\Community\VC\Tools\MSVC\14.29.30133\include\vector

; 41   :     _CONSTEXPR20_CONTAINER _Vector_const_iterator(_Tptr _Parg, const _Container_base* _Pvector) noexcept : _Ptr(_Parg) {

	mov	esi, DWORD PTR [edi+16]

; 150  :         return _Ptr == _Right._Ptr;

	cmp	esi, DWORD PTR [edi+20]
; File I:\Vitalya\mine\NSProjectX\layers\xrRender\r__dsgraph_build.cpp

; 294  : 				for (xr_vector<IRender_Visual*>::iterator pit = I._children_free.begin();		pit!=I._children_free.end();	pit++)	add_leafs_Dynamic(*pit);

	je	SHORT $LN80@add_leafs_
	npad	1
$LL88@add_leafs_:
	push	DWORD PTR [esi]
	mov	ecx, ebx
	call	?add_leafs_Dynamic@CRender@@AAEXPAVIRender_Visual@@@Z ; CRender::add_leafs_Dynamic
; File C:\Program Files\Microsoft Visual Studio\2022\Community\VC\Tools\MSVC\14.29.30133\include\vector

; 74   :         ++_Ptr;

	add	esi, 4

; 150  :         return _Ptr == _Right._Ptr;

	cmp	esi, DWORD PTR [edi+20]
; File I:\Vitalya\mine\NSProjectX\layers\xrRender\r__dsgraph_build.cpp

; 294  : 				for (xr_vector<IRender_Visual*>::iterator pit = I._children_free.begin();		pit!=I._children_free.end();	pit++)	add_leafs_Dynamic(*pit);

	jne	SHORT $LL88@add_leafs_
$LN80@add_leafs_:
; File C:\Program Files\Microsoft Visual Studio\2022\Community\VC\Tools\MSVC\14.29.30133\include\vector

; 74   :         ++_Ptr;

	add	edi, 28					; 0000001cH

; 150  :         return _Ptr == _Right._Ptr;

	cmp	edi, DWORD PTR [ebp+96]
; File I:\Vitalya\mine\NSProjectX\layers\xrRender\r__dsgraph_build.cpp

; 290  : 			for (PS::CParticleGroup::SItemVecIt i_it=pG->items.begin(); i_it!=pG->items.end(); i_it++)	{

	jne	SHORT $LL82@add_leafs_
$LN730@add_leafs_:
; File C:\Program Files\Microsoft Visual Studio\2022\Community\VC\Tools\MSVC\14.29.30133\include\vector

; 41   :     _CONSTEXPR20_CONTAINER _Vector_const_iterator(_Tptr _Parg, const _Container_base* _Pvector) noexcept : _Ptr(_Parg) {

	movss	xmm7, DWORD PTR __real@3f000000
$LN735@add_leafs_:
	mov	esi, DWORD PTR _i_it$1$[esp+64]
$LN736@add_leafs_:
	mov	edi, DWORD PTR __imp_?CalculateWallmarks@CKinematics@@QAEXXZ
$LN77@add_leafs_:

; 150  :         return _Ptr == _Right._Ptr;

	mov	eax, DWORD PTR _i_it$1$[esp+64]

; 41   :     _CONSTEXPR20_CONTAINER _Vector_const_iterator(_Tptr _Parg, const _Container_base* _Pvector) noexcept : _Ptr(_Parg) {

	mov	esi, DWORD PTR [esi+4]
	mov	DWORD PTR _pit$1$[esp+64], esi

; 150  :         return _Ptr == _Right._Ptr;

	cmp	esi, DWORD PTR [eax+8]
; File I:\Vitalya\mine\NSProjectX\layers\xrRender\r__dsgraph_build.cpp

; 359  : 				for (xr_vector<IRender_Visual*>::iterator pit = I._children_related.begin();	pit!=I._children_related.end(); pit++)	add_leafs_Dynamic(*pit);

	je	$LN717@add_leafs_
	npad	1
$LL9@add_leafs_:
	mov	ebp, DWORD PTR [esi]

; 280  : 	if (0==pVisual)				return;

	test	ebp, ebp
	je	$LN7@add_leafs_

; 281  : 
; 282  : 	// Visual is 100% visible - simply add it
; 283  : 	xr_vector<IRender_Visual*>::iterator I,E;	// it may be useful for 'hierrarhy' visual
; 284  : 
; 285  : 	switch (pVisual->Type) {

	mov	ecx, DWORD PTR [ebp+4]
	dec	ecx
	cmp	ecx, 9
	ja	$LN271@add_leafs_
	movzx	ecx, BYTE PTR $LN726@add_leafs_[ecx]
	jmp	DWORD PTR $LN727@add_leafs_[ecx*4]
$LN98@add_leafs_:

; 303  : 			E = pV->children.end	();

	mov	edi, DWORD PTR [ebp+72]

; 304  : 			for (; I!=E; I++)	add_leafs_Dynamic	(*I);

	mov	esi, DWORD PTR [ebp+68]
	cmp	esi, edi
	je	SHORT $LN735@add_leafs_
	npad	1
$LL91@add_leafs_:
	push	DWORD PTR [esi]
	mov	ecx, ebx
	call	?add_leafs_Dynamic@CRender@@AAEXPAVIRender_Visual@@@Z ; CRender::add_leafs_Dynamic
; File C:\Program Files\Microsoft Visual Studio\2022\Community\VC\Tools\MSVC\14.29.30133\include\vector

; 74   :         ++_Ptr;

	add	esi, 4
; File I:\Vitalya\mine\NSProjectX\layers\xrRender\r__dsgraph_build.cpp

; 304  : 			for (; I!=E; I++)	add_leafs_Dynamic	(*I);

	cmp	esi, edi
	jne	SHORT $LL91@add_leafs_

; 305  : 		}
; 306  : 		return;

	jmp	SHORT $LN730@add_leafs_
$LN99@add_leafs_:

; 307  : 	case MT_SKELETON_ANIM:
; 308  : 	case MT_SKELETON_RIGID:
; 309  : 		{
; 310  : 			// Add all children, doesn't perform any tests
; 311  : 			CKinematics * pV			= (CKinematics*)pVisual;
; 312  : 			BOOL	_use_lod			= FALSE	;
; 313  : 			if (pV->m_lod)				

	mov	edx, DWORD PTR [ebp+84]
	test	edx, edx
	je	$LN103@add_leafs_

; 314  : 			{
; 315  : 				Fvector							Tpos;	float		D;
; 316  : 				val_pTransform->transform_tiny	(Tpos, pV->vis.sphere.P);

	mov	ecx, DWORD PTR [ebx+264]
; File I:\Vitalya\mine\NSProjectX\xrCore\_matrix.h

; 499  : 		dest.x = v.x*_11 + v.y*_21 + v.z*_31 + _41;

	movss	xmm4, DWORD PTR [ebp+12]
	movss	xmm6, DWORD PTR [ebp+8]

; 500  : 		dest.y = v.x*_12 + v.y*_22 + v.z*_32 + _42;

	movaps	xmm0, xmm4
	movss	xmm5, DWORD PTR [ebp+16]
	movaps	xmm1, xmm6
	mulss	xmm0, DWORD PTR [ecx+20]
; File I:\Vitalya\mine\NSProjectX\layers\xrRender\r__dsgraph_build.cpp

; 31   : 	distSQ	= Device.vCameraPosition.distance_to_sqr(C)+EPS;

	mov	eax, DWORD PTR __imp_?Device@@3VCRenderDevice@@A
; File I:\Vitalya\mine\NSProjectX\xrCore\_matrix.h

; 500  : 		dest.y = v.x*_12 + v.y*_22 + v.z*_32 + _42;

	mulss	xmm1, DWORD PTR [ecx+4]
; File I:\Vitalya\mine\NSProjectX\xrCore\_vector3d.h

; 287  : 	{	return (x-v.x)*(x-v.x) + (y-v.y)*(y-v.y) + (z-v.z)*(z-v.z);	}

	movss	xmm3, DWORD PTR [eax+492]
; File I:\Vitalya\mine\NSProjectX\xrCore\_matrix.h

; 500  : 		dest.y = v.x*_12 + v.y*_22 + v.z*_32 + _42;

	addss	xmm1, xmm0
; File I:\Vitalya\mine\NSProjectX\xrCore\_vector3d.h

; 287  : 	{	return (x-v.x)*(x-v.x) + (y-v.y)*(y-v.y) + (z-v.z)*(z-v.z);	}

	movss	xmm2, DWORD PTR [eax+488]
; File I:\Vitalya\mine\NSProjectX\xrCore\_matrix.h

; 500  : 		dest.y = v.x*_12 + v.y*_22 + v.z*_32 + _42;

	movaps	xmm0, xmm5
	mulss	xmm0, DWORD PTR [ecx+36]
	addss	xmm0, DWORD PTR [ecx+52]
	addss	xmm1, xmm0
	movaps	xmm0, xmm6
	mulss	xmm0, DWORD PTR [ecx]

; 501  : 		dest.z = v.x*_13 + v.y*_23 + v.z*_33 + _43;

	mulss	xmm6, DWORD PTR [ecx+8]
; File I:\Vitalya\mine\NSProjectX\xrCore\_vector3d.h

; 287  : 	{	return (x-v.x)*(x-v.x) + (y-v.y)*(y-v.y) + (z-v.z)*(z-v.z);	}

	subss	xmm3, xmm1
; File I:\Vitalya\mine\NSProjectX\xrCore\_matrix.h

; 499  : 		dest.x = v.x*_11 + v.y*_21 + v.z*_31 + _41;

	movaps	xmm1, xmm4
	mulss	xmm1, DWORD PTR [ecx+16]

; 501  : 		dest.z = v.x*_13 + v.y*_23 + v.z*_33 + _43;

	mulss	xmm4, DWORD PTR [ecx+24]
	addss	xmm1, xmm0
; File I:\Vitalya\mine\NSProjectX\xrCore\_vector3d.h

; 287  : 	{	return (x-v.x)*(x-v.x) + (y-v.y)*(y-v.y) + (z-v.z)*(z-v.z);	}

	mulss	xmm3, xmm3
; File I:\Vitalya\mine\NSProjectX\xrCore\_matrix.h

; 499  : 		dest.x = v.x*_11 + v.y*_21 + v.z*_31 + _41;

	movaps	xmm0, xmm5

; 501  : 		dest.z = v.x*_13 + v.y*_23 + v.z*_33 + _43;

	mulss	xmm5, DWORD PTR [ecx+40]
	mulss	xmm0, DWORD PTR [ecx+32]
	addss	xmm6, xmm4
	addss	xmm5, DWORD PTR [ecx+56]
	addss	xmm0, DWORD PTR [ecx+48]
	addss	xmm6, xmm5
	addss	xmm1, xmm0
; File I:\Vitalya\mine\NSProjectX\xrCore\_vector3d.h

; 287  : 	{	return (x-v.x)*(x-v.x) + (y-v.y)*(y-v.y) + (z-v.z)*(z-v.z);	}

	movss	xmm0, DWORD PTR [eax+496]
	subss	xmm0, xmm6
	subss	xmm2, xmm1
; File I:\Vitalya\mine\NSProjectX\layers\xrRender\r__dsgraph_build.cpp

; 317  : 				float		ssa		=	CalcSSA	(D,Tpos,pV->vis.sphere.R/2.f);	// assume dynamics never consume full sphere

	movss	xmm1, DWORD PTR [ebp+20]
	mulss	xmm1, xmm7
; File I:\Vitalya\mine\NSProjectX\xrCore\_vector3d.h

; 287  : 	{	return (x-v.x)*(x-v.x) + (y-v.y)*(y-v.y) + (z-v.z)*(z-v.z);	}

	mulss	xmm0, xmm0
	mulss	xmm2, xmm2
; File I:\Vitalya\mine\NSProjectX\layers\xrRender\r__dsgraph_build.cpp

; 31   : 	distSQ	= Device.vCameraPosition.distance_to_sqr(C)+EPS;

	addss	xmm0, DWORD PTR __real@3727c5ac
	addss	xmm2, xmm3
	addss	xmm2, xmm0

; 318  : 				if (ssa<r_ssaLOD_A)	_use_lod	= TRUE;

	movss	xmm0, DWORD PTR ?r_ssaLOD_A@@3MA

; 32   : 	return	R/distSQ;

	divss	xmm1, xmm2

; 318  : 				if (ssa<r_ssaLOD_A)	_use_lod	= TRUE;

	comiss	xmm0, xmm1
	jbe	SHORT $LN103@add_leafs_

; 319  : 			}
; 320  : 			if (_use_lod)				
; 321  : 			{
; 322  : 				add_leafs_Dynamic			(pV->m_lod)		;

	push	edx
	mov	ecx, ebx
	call	?add_leafs_Dynamic@CRender@@AAEXPAVIRender_Visual@@@Z ; CRender::add_leafs_Dynamic

; 323  : 			} else {

	movss	xmm7, DWORD PTR __real@3f000000
	jmp	$LN77@add_leafs_
$LN103@add_leafs_:

; 324  : 				pV->CalculateBones			(TRUE);

	mov	eax, DWORD PTR [ebp]
	mov	ecx, ebp
	push	1
	call	DWORD PTR [eax+64]

; 325  : 				pV->CalculateWallmarks		();		//. bug?

	mov	ecx, ebp
	call	edi

; 326  : 				I = pV->children.begin		();
; 327  : 				E = pV->children.end		();

	mov	edi, DWORD PTR [ebp+72]

; 328  : 				for (; I!=E; I++)	add_leafs_Dynamic	(*I);

	mov	esi, DWORD PTR [ebp+68]
	cmp	esi, edi
	je	$LN730@add_leafs_
$LL94@add_leafs_:
	push	DWORD PTR [esi]
	mov	ecx, ebx
	call	?add_leafs_Dynamic@CRender@@AAEXPAVIRender_Visual@@@Z ; CRender::add_leafs_Dynamic
; File C:\Program Files\Microsoft Visual Studio\2022\Community\VC\Tools\MSVC\14.29.30133\include\vector

; 74   :         ++_Ptr;

	add	esi, 4
; File I:\Vitalya\mine\NSProjectX\layers\xrRender\r__dsgraph_build.cpp

; 328  : 				for (; I!=E; I++)	add_leafs_Dynamic	(*I);

	cmp	esi, edi
	jne	SHORT $LL94@add_leafs_

; 329  : 			}
; 330  : 		}
; 331  : 		return;

	jmp	$LN730@add_leafs_
$LN105@add_leafs_:

; 332  : 	default:
; 333  : 		{
; 334  : 			// General type of visual
; 335  : 			// Calculate distance to it's center
; 336  : 			Fvector							Tpos;
; 337  : 			val_pTransform->transform_tiny	(Tpos, pVisual->vis.sphere.P);

	mov	eax, DWORD PTR [ebx+264]

; 338  : 			r_dsgraph_insert_dynamic		(pVisual,Tpos);

	mov	ecx, ebx
; File I:\Vitalya\mine\NSProjectX\xrCore\_matrix.h

; 499  : 		dest.x = v.x*_11 + v.y*_21 + v.z*_31 + _41;

	movss	xmm2, DWORD PTR [ebp+12]
	movss	xmm4, DWORD PTR [ebp+8]
	movaps	xmm1, xmm2
	movss	xmm3, DWORD PTR [ebp+16]
	movaps	xmm0, xmm4
	mulss	xmm0, DWORD PTR [eax]
	mulss	xmm1, DWORD PTR [eax+16]
	addss	xmm1, xmm0
	movaps	xmm0, xmm3
	mulss	xmm0, DWORD PTR [eax+32]
	addss	xmm0, DWORD PTR [eax+48]
	addss	xmm1, xmm0

; 500  : 		dest.y = v.x*_12 + v.y*_22 + v.z*_32 + _42;

	movaps	xmm0, xmm2
	mulss	xmm0, DWORD PTR [eax+20]

; 501  : 		dest.z = v.x*_13 + v.y*_23 + v.z*_33 + _43;

	mulss	xmm2, DWORD PTR [eax+24]
	movss	DWORD PTR _Tpos$4[esp+64], xmm1
	movaps	xmm1, xmm4
	mulss	xmm1, DWORD PTR [eax+4]
	mulss	xmm4, DWORD PTR [eax+8]
	addss	xmm1, xmm0
	movaps	xmm0, xmm3
	mulss	xmm0, DWORD PTR [eax+36]
	mulss	xmm3, DWORD PTR [eax+40]
	addss	xmm4, xmm2
	addss	xmm0, DWORD PTR [eax+52]
	addss	xmm3, DWORD PTR [eax+56]
; File I:\Vitalya\mine\NSProjectX\layers\xrRender\r__dsgraph_build.cpp

; 338  : 			r_dsgraph_insert_dynamic		(pVisual,Tpos);

	lea	eax, DWORD PTR _Tpos$4[esp+64]
	push	eax
; File I:\Vitalya\mine\NSProjectX\xrCore\_matrix.h

; 500  : 		dest.y = v.x*_12 + v.y*_22 + v.z*_32 + _42;

	addss	xmm1, xmm0
; File I:\Vitalya\mine\NSProjectX\layers\xrRender\r__dsgraph_build.cpp

; 338  : 			r_dsgraph_insert_dynamic		(pVisual,Tpos);

	push	ebp
; File I:\Vitalya\mine\NSProjectX\xrCore\_matrix.h

; 501  : 		dest.z = v.x*_13 + v.y*_23 + v.z*_33 + _43;

	addss	xmm4, xmm3
	movss	DWORD PTR _Tpos$4[esp+76], xmm1
	movss	DWORD PTR _Tpos$4[esp+80], xmm4
; File I:\Vitalya\mine\NSProjectX\layers\xrRender\r__dsgraph_build.cpp

; 338  : 			r_dsgraph_insert_dynamic		(pVisual,Tpos);

	call	?r_dsgraph_insert_dynamic@R_dsgraph_structure@@QAEXPAVIRender_Visual@@AAU?$_vector3@M@@@Z ; R_dsgraph_structure::r_dsgraph_insert_dynamic
	movss	xmm7, DWORD PTR __real@3f000000
	jmp	$LN77@add_leafs_
$LN262@add_leafs_:
; File C:\Program Files\Microsoft Visual Studio\2022\Community\VC\Tools\MSVC\14.29.30133\include\vector

; 41   :     _CONSTEXPR20_CONTAINER _Vector_const_iterator(_Tptr _Parg, const _Container_base* _Pvector) noexcept : _Ptr(_Parg) {

	mov	edi, DWORD PTR [ebp+92]

; 150  :         return _Ptr == _Right._Ptr;

	cmp	edi, DWORD PTR [ebp+96]
; File I:\Vitalya\mine\NSProjectX\layers\xrRender\r__dsgraph_build.cpp

; 290  : 			for (PS::CParticleGroup::SItemVecIt i_it=pG->items.begin(); i_it!=pG->items.end(); i_it++)	{

	je	SHORT $LN7@add_leafs_
	npad	6
$LL248@add_leafs_:

; 291  : 				PS::CParticleGroup::SItem&			I		= *i_it;
; 292  : 				if (I._effect)		add_leafs_Dynamic		(I._effect);

	mov	eax, DWORD PTR [edi]
	test	eax, eax
	je	SHORT $LN263@add_leafs_
	push	eax
	mov	ecx, ebx
	call	?add_leafs_Dynamic@CRender@@AAEXPAVIRender_Visual@@@Z ; CRender::add_leafs_Dynamic
$LN263@add_leafs_:
; File C:\Program Files\Microsoft Visual Studio\2022\Community\VC\Tools\MSVC\14.29.30133\include\vector

; 41   :     _CONSTEXPR20_CONTAINER _Vector_const_iterator(_Tptr _Parg, const _Container_base* _Pvector) noexcept : _Ptr(_Parg) {

	mov	esi, DWORD PTR [edi+4]

; 150  :         return _Ptr == _Right._Ptr;

	cmp	esi, DWORD PTR [edi+8]
; File I:\Vitalya\mine\NSProjectX\layers\xrRender\r__dsgraph_build.cpp

; 293  : 				for (xr_vector<IRender_Visual*>::iterator pit = I._children_related.begin();	pit!=I._children_related.end(); pit++)	add_leafs_Dynamic(*pit);

	je	SHORT $LN718@add_leafs_
$LL251@add_leafs_:
	push	DWORD PTR [esi]
	mov	ecx, ebx
	call	?add_leafs_Dynamic@CRender@@AAEXPAVIRender_Visual@@@Z ; CRender::add_leafs_Dynamic
; File C:\Program Files\Microsoft Visual Studio\2022\Community\VC\Tools\MSVC\14.29.30133\include\vector

; 74   :         ++_Ptr;

	add	esi, 4

; 150  :         return _Ptr == _Right._Ptr;

	cmp	esi, DWORD PTR [edi+8]
; File I:\Vitalya\mine\NSProjectX\layers\xrRender\r__dsgraph_build.cpp

; 293  : 				for (xr_vector<IRender_Visual*>::iterator pit = I._children_related.begin();	pit!=I._children_related.end(); pit++)	add_leafs_Dynamic(*pit);

	jne	SHORT $LL251@add_leafs_
$LN718@add_leafs_:
; File C:\Program Files\Microsoft Visual Studio\2022\Community\VC\Tools\MSVC\14.29.30133\include\vector

; 41   :     _CONSTEXPR20_CONTAINER _Vector_const_iterator(_Tptr _Parg, const _Container_base* _Pvector) noexcept : _Ptr(_Parg) {

	mov	esi, DWORD PTR [edi+16]

; 150  :         return _Ptr == _Right._Ptr;

	cmp	esi, DWORD PTR [edi+20]
; File I:\Vitalya\mine\NSProjectX\layers\xrRender\r__dsgraph_build.cpp

; 294  : 				for (xr_vector<IRender_Visual*>::iterator pit = I._children_free.begin();		pit!=I._children_free.end();	pit++)	add_leafs_Dynamic(*pit);

	je	SHORT $LN246@add_leafs_
	npad	1
$LL254@add_leafs_:
	push	DWORD PTR [esi]
	mov	ecx, ebx
	call	?add_leafs_Dynamic@CRender@@AAEXPAVIRender_Visual@@@Z ; CRender::add_leafs_Dynamic
; File C:\Program Files\Microsoft Visual Studio\2022\Community\VC\Tools\MSVC\14.29.30133\include\vector

; 74   :         ++_Ptr;

	add	esi, 4

; 150  :         return _Ptr == _Right._Ptr;

	cmp	esi, DWORD PTR [edi+20]
; File I:\Vitalya\mine\NSProjectX\layers\xrRender\r__dsgraph_build.cpp

; 294  : 				for (xr_vector<IRender_Visual*>::iterator pit = I._children_free.begin();		pit!=I._children_free.end();	pit++)	add_leafs_Dynamic(*pit);

	jne	SHORT $LL254@add_leafs_
$LN246@add_leafs_:
; File C:\Program Files\Microsoft Visual Studio\2022\Community\VC\Tools\MSVC\14.29.30133\include\vector

; 74   :         ++_Ptr;

	add	edi, 28					; 0000001cH

; 150  :         return _Ptr == _Right._Ptr;

	cmp	edi, DWORD PTR [ebp+96]
; File I:\Vitalya\mine\NSProjectX\layers\xrRender\r__dsgraph_build.cpp

; 290  : 			for (PS::CParticleGroup::SItemVecIt i_it=pG->items.begin(); i_it!=pG->items.end(); i_it++)	{

	jne	SHORT $LL248@add_leafs_
$LN731@add_leafs_:
; File C:\Program Files\Microsoft Visual Studio\2022\Community\VC\Tools\MSVC\14.29.30133\include\vector

; 74   :         ++_Ptr;

	mov	eax, DWORD PTR _i_it$1$[esp+64]
$LN733@add_leafs_:
	mov	esi, DWORD PTR _pit$1$[esp+64]
$LN7@add_leafs_:
; File I:\Vitalya\mine\NSProjectX\layers\xrRender\r__dsgraph_build.cpp

; 359  : 				for (xr_vector<IRender_Visual*>::iterator pit = I._children_related.begin();	pit!=I._children_related.end(); pit++)	add_leafs_Dynamic(*pit);

	movss	xmm7, DWORD PTR __real@3f000000
; File C:\Program Files\Microsoft Visual Studio\2022\Community\VC\Tools\MSVC\14.29.30133\include\vector

; 74   :         ++_Ptr;

	add	esi, 4
; File I:\Vitalya\mine\NSProjectX\layers\xrRender\r__dsgraph_build.cpp

; 359  : 				for (xr_vector<IRender_Visual*>::iterator pit = I._children_related.begin();	pit!=I._children_related.end(); pit++)	add_leafs_Dynamic(*pit);

	mov	edi, DWORD PTR __imp_?CalculateWallmarks@CKinematics@@QAEXXZ
; File C:\Program Files\Microsoft Visual Studio\2022\Community\VC\Tools\MSVC\14.29.30133\include\vector

; 74   :         ++_Ptr;

	mov	DWORD PTR _pit$1$[esp+64], esi

; 150  :         return _Ptr == _Right._Ptr;

	cmp	esi, DWORD PTR [eax+8]
; File I:\Vitalya\mine\NSProjectX\layers\xrRender\r__dsgraph_build.cpp

; 359  : 				for (xr_vector<IRender_Visual*>::iterator pit = I._children_related.begin();	pit!=I._children_related.end(); pit++)	add_leafs_Dynamic(*pit);

	jne	$LL9@add_leafs_
$LN717@add_leafs_:
; File C:\Program Files\Microsoft Visual Studio\2022\Community\VC\Tools\MSVC\14.29.30133\include\vector

; 41   :     _CONSTEXPR20_CONTAINER _Vector_const_iterator(_Tptr _Parg, const _Container_base* _Pvector) noexcept : _Ptr(_Parg) {

	mov	esi, DWORD PTR _i_it$1$[esp+64]

; 150  :         return _Ptr == _Right._Ptr;

	mov	eax, DWORD PTR _i_it$1$[esp+64]

; 41   :     _CONSTEXPR20_CONTAINER _Vector_const_iterator(_Tptr _Parg, const _Container_base* _Pvector) noexcept : _Ptr(_Parg) {

	mov	esi, DWORD PTR [esi+16]
	mov	DWORD PTR _pit$1$[esp+64], esi

; 150  :         return _Ptr == _Right._Ptr;

	cmp	esi, DWORD PTR [eax+20]
; File I:\Vitalya\mine\NSProjectX\layers\xrRender\r__dsgraph_build.cpp

; 360  : 				for (xr_vector<IRender_Visual*>::iterator pit = I._children_free.begin();		pit!=I._children_free.end();	pit++)	add_leafs_Dynamic(*pit);

	je	$LN4@add_leafs_
	npad	9
$LL12@add_leafs_:
	mov	ebp, DWORD PTR [esi]

; 280  : 	if (0==pVisual)				return;

	test	ebp, ebp
	je	$LN10@add_leafs_

; 281  : 
; 282  : 	// Visual is 100% visible - simply add it
; 283  : 	xr_vector<IRender_Visual*>::iterator I,E;	// it may be useful for 'hierrarhy' visual
; 284  : 
; 285  : 	switch (pVisual->Type) {

	mov	ecx, DWORD PTR [ebp+4]
	dec	ecx
	cmp	ecx, 9
	ja	$LN437@add_leafs_
	movzx	ecx, BYTE PTR $LN728@add_leafs_[ecx]
	jmp	DWORD PTR $LN729@add_leafs_[ecx*4]
$LN264@add_leafs_:

; 303  : 			E = pV->children.end	();

	mov	edi, DWORD PTR [ebp+72]

; 304  : 			for (; I!=E; I++)	add_leafs_Dynamic	(*I);

	mov	esi, DWORD PTR [ebp+68]
	cmp	esi, edi
	je	SHORT $LN733@add_leafs_
	npad	1
$LL257@add_leafs_:
	push	DWORD PTR [esi]
	mov	ecx, ebx
	call	?add_leafs_Dynamic@CRender@@AAEXPAVIRender_Visual@@@Z ; CRender::add_leafs_Dynamic
; File C:\Program Files\Microsoft Visual Studio\2022\Community\VC\Tools\MSVC\14.29.30133\include\vector

; 74   :         ++_Ptr;

	add	esi, 4
; File I:\Vitalya\mine\NSProjectX\layers\xrRender\r__dsgraph_build.cpp

; 304  : 			for (; I!=E; I++)	add_leafs_Dynamic	(*I);

	cmp	esi, edi
	jne	SHORT $LL257@add_leafs_

; 305  : 		}
; 306  : 		return;

	jmp	$LN731@add_leafs_
$LN265@add_leafs_:

; 307  : 	case MT_SKELETON_ANIM:
; 308  : 	case MT_SKELETON_RIGID:
; 309  : 		{
; 310  : 			// Add all children, doesn't perform any tests
; 311  : 			CKinematics * pV			= (CKinematics*)pVisual;
; 312  : 			BOOL	_use_lod			= FALSE	;
; 313  : 			if (pV->m_lod)				

	mov	edx, DWORD PTR [ebp+84]
	test	edx, edx
	je	$LN269@add_leafs_

; 314  : 			{
; 315  : 				Fvector							Tpos;	float		D;
; 316  : 				val_pTransform->transform_tiny	(Tpos, pV->vis.sphere.P);

	mov	ecx, DWORD PTR [ebx+264]
; File I:\Vitalya\mine\NSProjectX\xrCore\_matrix.h

; 499  : 		dest.x = v.x*_11 + v.y*_21 + v.z*_31 + _41;

	movss	xmm4, DWORD PTR [ebp+12]
	movss	xmm6, DWORD PTR [ebp+8]

; 500  : 		dest.y = v.x*_12 + v.y*_22 + v.z*_32 + _42;

	movaps	xmm0, xmm4
	movss	xmm5, DWORD PTR [ebp+16]
	movaps	xmm1, xmm6
	mulss	xmm0, DWORD PTR [ecx+20]
; File I:\Vitalya\mine\NSProjectX\layers\xrRender\r__dsgraph_build.cpp

; 31   : 	distSQ	= Device.vCameraPosition.distance_to_sqr(C)+EPS;

	mov	eax, DWORD PTR __imp_?Device@@3VCRenderDevice@@A
; File I:\Vitalya\mine\NSProjectX\xrCore\_matrix.h

; 500  : 		dest.y = v.x*_12 + v.y*_22 + v.z*_32 + _42;

	mulss	xmm1, DWORD PTR [ecx+4]
; File I:\Vitalya\mine\NSProjectX\xrCore\_vector3d.h

; 287  : 	{	return (x-v.x)*(x-v.x) + (y-v.y)*(y-v.y) + (z-v.z)*(z-v.z);	}

	movss	xmm3, DWORD PTR [eax+492]
; File I:\Vitalya\mine\NSProjectX\xrCore\_matrix.h

; 500  : 		dest.y = v.x*_12 + v.y*_22 + v.z*_32 + _42;

	addss	xmm1, xmm0
; File I:\Vitalya\mine\NSProjectX\xrCore\_vector3d.h

; 287  : 	{	return (x-v.x)*(x-v.x) + (y-v.y)*(y-v.y) + (z-v.z)*(z-v.z);	}

	movss	xmm2, DWORD PTR [eax+488]
; File I:\Vitalya\mine\NSProjectX\xrCore\_matrix.h

; 500  : 		dest.y = v.x*_12 + v.y*_22 + v.z*_32 + _42;

	movaps	xmm0, xmm5
	mulss	xmm0, DWORD PTR [ecx+36]
	addss	xmm0, DWORD PTR [ecx+52]
	addss	xmm1, xmm0
	movaps	xmm0, xmm6
	mulss	xmm0, DWORD PTR [ecx]

; 501  : 		dest.z = v.x*_13 + v.y*_23 + v.z*_33 + _43;

	mulss	xmm6, DWORD PTR [ecx+8]
; File I:\Vitalya\mine\NSProjectX\xrCore\_vector3d.h

; 287  : 	{	return (x-v.x)*(x-v.x) + (y-v.y)*(y-v.y) + (z-v.z)*(z-v.z);	}

	subss	xmm3, xmm1
; File I:\Vitalya\mine\NSProjectX\xrCore\_matrix.h

; 499  : 		dest.x = v.x*_11 + v.y*_21 + v.z*_31 + _41;

	movaps	xmm1, xmm4
	mulss	xmm1, DWORD PTR [ecx+16]

; 501  : 		dest.z = v.x*_13 + v.y*_23 + v.z*_33 + _43;

	mulss	xmm4, DWORD PTR [ecx+24]
	addss	xmm1, xmm0
; File I:\Vitalya\mine\NSProjectX\xrCore\_vector3d.h

; 287  : 	{	return (x-v.x)*(x-v.x) + (y-v.y)*(y-v.y) + (z-v.z)*(z-v.z);	}

	mulss	xmm3, xmm3
; File I:\Vitalya\mine\NSProjectX\xrCore\_matrix.h

; 499  : 		dest.x = v.x*_11 + v.y*_21 + v.z*_31 + _41;

	movaps	xmm0, xmm5

; 501  : 		dest.z = v.x*_13 + v.y*_23 + v.z*_33 + _43;

	mulss	xmm5, DWORD PTR [ecx+40]
	mulss	xmm0, DWORD PTR [ecx+32]
	addss	xmm6, xmm4
	addss	xmm5, DWORD PTR [ecx+56]
	addss	xmm0, DWORD PTR [ecx+48]
	addss	xmm6, xmm5
	addss	xmm1, xmm0
; File I:\Vitalya\mine\NSProjectX\xrCore\_vector3d.h

; 287  : 	{	return (x-v.x)*(x-v.x) + (y-v.y)*(y-v.y) + (z-v.z)*(z-v.z);	}

	movss	xmm0, DWORD PTR [eax+496]
	subss	xmm0, xmm6
	subss	xmm2, xmm1
; File I:\Vitalya\mine\NSProjectX\layers\xrRender\r__dsgraph_build.cpp

; 317  : 				float		ssa		=	CalcSSA	(D,Tpos,pV->vis.sphere.R/2.f);	// assume dynamics never consume full sphere

	movss	xmm1, DWORD PTR [ebp+20]
	mulss	xmm1, xmm7
; File I:\Vitalya\mine\NSProjectX\xrCore\_vector3d.h

; 287  : 	{	return (x-v.x)*(x-v.x) + (y-v.y)*(y-v.y) + (z-v.z)*(z-v.z);	}

	mulss	xmm0, xmm0
	mulss	xmm2, xmm2
; File I:\Vitalya\mine\NSProjectX\layers\xrRender\r__dsgraph_build.cpp

; 31   : 	distSQ	= Device.vCameraPosition.distance_to_sqr(C)+EPS;

	addss	xmm0, DWORD PTR __real@3727c5ac
	addss	xmm2, xmm3
	addss	xmm2, xmm0

; 318  : 				if (ssa<r_ssaLOD_A)	_use_lod	= TRUE;

	movss	xmm0, DWORD PTR ?r_ssaLOD_A@@3MA

; 32   : 	return	R/distSQ;

	divss	xmm1, xmm2

; 318  : 				if (ssa<r_ssaLOD_A)	_use_lod	= TRUE;

	comiss	xmm0, xmm1
	jbe	SHORT $LN269@add_leafs_

; 319  : 			}
; 320  : 			if (_use_lod)				
; 321  : 			{
; 322  : 				add_leafs_Dynamic			(pV->m_lod)		;

	push	edx
	mov	ecx, ebx
	call	?add_leafs_Dynamic@CRender@@AAEXPAVIRender_Visual@@@Z ; CRender::add_leafs_Dynamic

; 323  : 			} else {

	mov	eax, DWORD PTR _i_it$1$[esp+64]
	jmp	$LN7@add_leafs_
$LN269@add_leafs_:

; 324  : 				pV->CalculateBones			(TRUE);

	mov	eax, DWORD PTR [ebp]
	mov	ecx, ebp
	push	1
	call	DWORD PTR [eax+64]

; 325  : 				pV->CalculateWallmarks		();		//. bug?

	mov	ecx, ebp
	call	edi

; 326  : 				I = pV->children.begin		();
; 327  : 				E = pV->children.end		();

	mov	edi, DWORD PTR [ebp+72]

; 328  : 				for (; I!=E; I++)	add_leafs_Dynamic	(*I);

	mov	esi, DWORD PTR [ebp+68]
	cmp	esi, edi
	je	$LN731@add_leafs_
$LL260@add_leafs_:
	push	DWORD PTR [esi]
	mov	ecx, ebx
	call	?add_leafs_Dynamic@CRender@@AAEXPAVIRender_Visual@@@Z ; CRender::add_leafs_Dynamic
; File C:\Program Files\Microsoft Visual Studio\2022\Community\VC\Tools\MSVC\14.29.30133\include\vector

; 74   :         ++_Ptr;

	add	esi, 4
; File I:\Vitalya\mine\NSProjectX\layers\xrRender\r__dsgraph_build.cpp

; 328  : 				for (; I!=E; I++)	add_leafs_Dynamic	(*I);

	cmp	esi, edi
	jne	SHORT $LL260@add_leafs_

; 329  : 			}
; 330  : 		}
; 331  : 		return;

	jmp	$LN731@add_leafs_
$LN271@add_leafs_:

; 332  : 	default:
; 333  : 		{
; 334  : 			// General type of visual
; 335  : 			// Calculate distance to it's center
; 336  : 			Fvector							Tpos;
; 337  : 			val_pTransform->transform_tiny	(Tpos, pVisual->vis.sphere.P);

	mov	eax, DWORD PTR [ebx+264]

; 338  : 			r_dsgraph_insert_dynamic		(pVisual,Tpos);

	mov	ecx, ebx
; File I:\Vitalya\mine\NSProjectX\xrCore\_matrix.h

; 499  : 		dest.x = v.x*_11 + v.y*_21 + v.z*_31 + _41;

	movss	xmm2, DWORD PTR [ebp+12]
	movss	xmm4, DWORD PTR [ebp+8]
	movaps	xmm1, xmm2
	movss	xmm3, DWORD PTR [ebp+16]
	movaps	xmm0, xmm4
	mulss	xmm0, DWORD PTR [eax]
	mulss	xmm1, DWORD PTR [eax+16]
	addss	xmm1, xmm0
	movaps	xmm0, xmm3
	mulss	xmm0, DWORD PTR [eax+32]
	addss	xmm0, DWORD PTR [eax+48]
	addss	xmm1, xmm0

; 500  : 		dest.y = v.x*_12 + v.y*_22 + v.z*_32 + _42;

	movaps	xmm0, xmm2
	mulss	xmm0, DWORD PTR [eax+20]

; 501  : 		dest.z = v.x*_13 + v.y*_23 + v.z*_33 + _43;

	mulss	xmm2, DWORD PTR [eax+24]
	movss	DWORD PTR _Tpos$5[esp+64], xmm1
	movaps	xmm1, xmm4
	mulss	xmm1, DWORD PTR [eax+4]
	mulss	xmm4, DWORD PTR [eax+8]
	addss	xmm1, xmm0
	movaps	xmm0, xmm3
	mulss	xmm0, DWORD PTR [eax+36]
	mulss	xmm3, DWORD PTR [eax+40]
	addss	xmm4, xmm2
	addss	xmm0, DWORD PTR [eax+52]
	addss	xmm3, DWORD PTR [eax+56]
; File I:\Vitalya\mine\NSProjectX\layers\xrRender\r__dsgraph_build.cpp

; 338  : 			r_dsgraph_insert_dynamic		(pVisual,Tpos);

	lea	eax, DWORD PTR _Tpos$5[esp+64]
	push	eax
; File I:\Vitalya\mine\NSProjectX\xrCore\_matrix.h

; 500  : 		dest.y = v.x*_12 + v.y*_22 + v.z*_32 + _42;

	addss	xmm1, xmm0
; File I:\Vitalya\mine\NSProjectX\layers\xrRender\r__dsgraph_build.cpp

; 338  : 			r_dsgraph_insert_dynamic		(pVisual,Tpos);

	push	ebp
; File I:\Vitalya\mine\NSProjectX\xrCore\_matrix.h

; 501  : 		dest.z = v.x*_13 + v.y*_23 + v.z*_33 + _43;

	addss	xmm4, xmm3
	movss	DWORD PTR _Tpos$5[esp+76], xmm1
	movss	DWORD PTR _Tpos$5[esp+80], xmm4
; File I:\Vitalya\mine\NSProjectX\layers\xrRender\r__dsgraph_build.cpp

; 338  : 			r_dsgraph_insert_dynamic		(pVisual,Tpos);

	call	?r_dsgraph_insert_dynamic@R_dsgraph_structure@@QAEXPAVIRender_Visual@@AAU?$_vector3@M@@@Z ; R_dsgraph_structure::r_dsgraph_insert_dynamic
	mov	eax, DWORD PTR _i_it$1$[esp+64]
	jmp	$LN7@add_leafs_
$LN428@add_leafs_:
; File C:\Program Files\Microsoft Visual Studio\2022\Community\VC\Tools\MSVC\14.29.30133\include\vector

; 41   :     _CONSTEXPR20_CONTAINER _Vector_const_iterator(_Tptr _Parg, const _Container_base* _Pvector) noexcept : _Ptr(_Parg) {

	mov	edi, DWORD PTR [ebp+92]

; 150  :         return _Ptr == _Right._Ptr;

	cmp	edi, DWORD PTR [ebp+96]
; File I:\Vitalya\mine\NSProjectX\layers\xrRender\r__dsgraph_build.cpp

; 290  : 			for (PS::CParticleGroup::SItemVecIt i_it=pG->items.begin(); i_it!=pG->items.end(); i_it++)	{

	je	SHORT $LN10@add_leafs_
$LL414@add_leafs_:

; 291  : 				PS::CParticleGroup::SItem&			I		= *i_it;
; 292  : 				if (I._effect)		add_leafs_Dynamic		(I._effect);

	mov	eax, DWORD PTR [edi]
	test	eax, eax
	je	SHORT $LN429@add_leafs_
	push	eax
	mov	ecx, ebx
	call	?add_leafs_Dynamic@CRender@@AAEXPAVIRender_Visual@@@Z ; CRender::add_leafs_Dynamic
$LN429@add_leafs_:
; File C:\Program Files\Microsoft Visual Studio\2022\Community\VC\Tools\MSVC\14.29.30133\include\vector

; 41   :     _CONSTEXPR20_CONTAINER _Vector_const_iterator(_Tptr _Parg, const _Container_base* _Pvector) noexcept : _Ptr(_Parg) {

	mov	esi, DWORD PTR [edi+4]

; 150  :         return _Ptr == _Right._Ptr;

	cmp	esi, DWORD PTR [edi+8]
; File I:\Vitalya\mine\NSProjectX\layers\xrRender\r__dsgraph_build.cpp

; 293  : 				for (xr_vector<IRender_Visual*>::iterator pit = I._children_related.begin();	pit!=I._children_related.end(); pit++)	add_leafs_Dynamic(*pit);

	je	SHORT $LN720@add_leafs_
	npad	5
$LL417@add_leafs_:
	push	DWORD PTR [esi]
	mov	ecx, ebx
	call	?add_leafs_Dynamic@CRender@@AAEXPAVIRender_Visual@@@Z ; CRender::add_leafs_Dynamic
; File C:\Program Files\Microsoft Visual Studio\2022\Community\VC\Tools\MSVC\14.29.30133\include\vector

; 74   :         ++_Ptr;

	add	esi, 4

; 150  :         return _Ptr == _Right._Ptr;

	cmp	esi, DWORD PTR [edi+8]
; File I:\Vitalya\mine\NSProjectX\layers\xrRender\r__dsgraph_build.cpp

; 293  : 				for (xr_vector<IRender_Visual*>::iterator pit = I._children_related.begin();	pit!=I._children_related.end(); pit++)	add_leafs_Dynamic(*pit);

	jne	SHORT $LL417@add_leafs_
$LN720@add_leafs_:
; File C:\Program Files\Microsoft Visual Studio\2022\Community\VC\Tools\MSVC\14.29.30133\include\vector

; 41   :     _CONSTEXPR20_CONTAINER _Vector_const_iterator(_Tptr _Parg, const _Container_base* _Pvector) noexcept : _Ptr(_Parg) {

	mov	esi, DWORD PTR [edi+16]

; 150  :         return _Ptr == _Right._Ptr;

	cmp	esi, DWORD PTR [edi+20]
; File I:\Vitalya\mine\NSProjectX\layers\xrRender\r__dsgraph_build.cpp

; 294  : 				for (xr_vector<IRender_Visual*>::iterator pit = I._children_free.begin();		pit!=I._children_free.end();	pit++)	add_leafs_Dynamic(*pit);

	je	SHORT $LN412@add_leafs_
	npad	7
$LL420@add_leafs_:
	push	DWORD PTR [esi]
	mov	ecx, ebx
	call	?add_leafs_Dynamic@CRender@@AAEXPAVIRender_Visual@@@Z ; CRender::add_leafs_Dynamic
; File C:\Program Files\Microsoft Visual Studio\2022\Community\VC\Tools\MSVC\14.29.30133\include\vector

; 74   :         ++_Ptr;

	add	esi, 4

; 150  :         return _Ptr == _Right._Ptr;

	cmp	esi, DWORD PTR [edi+20]
; File I:\Vitalya\mine\NSProjectX\layers\xrRender\r__dsgraph_build.cpp

; 294  : 				for (xr_vector<IRender_Visual*>::iterator pit = I._children_free.begin();		pit!=I._children_free.end();	pit++)	add_leafs_Dynamic(*pit);

	jne	SHORT $LL420@add_leafs_
$LN412@add_leafs_:
; File C:\Program Files\Microsoft Visual Studio\2022\Community\VC\Tools\MSVC\14.29.30133\include\vector

; 74   :         ++_Ptr;

	add	edi, 28					; 0000001cH

; 150  :         return _Ptr == _Right._Ptr;

	cmp	edi, DWORD PTR [ebp+96]
; File I:\Vitalya\mine\NSProjectX\layers\xrRender\r__dsgraph_build.cpp

; 290  : 			for (PS::CParticleGroup::SItemVecIt i_it=pG->items.begin(); i_it!=pG->items.end(); i_it++)	{

	jne	SHORT $LL414@add_leafs_
$LN732@add_leafs_:
; File C:\Program Files\Microsoft Visual Studio\2022\Community\VC\Tools\MSVC\14.29.30133\include\vector

; 74   :         ++_Ptr;

	mov	eax, DWORD PTR _i_it$1$[esp+64]
$LN734@add_leafs_:
	mov	esi, DWORD PTR _pit$1$[esp+64]
$LN10@add_leafs_:
	add	esi, 4
	mov	DWORD PTR _pit$1$[esp+64], esi

; 150  :         return _Ptr == _Right._Ptr;

	cmp	esi, DWORD PTR [eax+20]
; File I:\Vitalya\mine\NSProjectX\layers\xrRender\r__dsgraph_build.cpp

; 360  : 				for (xr_vector<IRender_Visual*>::iterator pit = I._children_free.begin();		pit!=I._children_free.end();	pit++)	add_leafs_Dynamic(*pit);

	jne	$LL12@add_leafs_
$LN4@add_leafs_:
; File C:\Program Files\Microsoft Visual Studio\2022\Community\VC\Tools\MSVC\14.29.30133\include\vector

; 74   :         ++_Ptr;

	mov	esi, DWORD PTR _i_it$1$[esp+64]

; 150  :         return _Ptr == _Right._Ptr;

	mov	eax, DWORD PTR _pVisual$[esp+60]

; 74   :         ++_Ptr;

	add	esi, 28					; 0000001cH
; File I:\Vitalya\mine\NSProjectX\layers\xrRender\r__dsgraph_build.cpp

; 356  : 			for (PS::CParticleGroup::SItemVecIt i_it=pG->items.begin(); i_it!=pG->items.end(); i_it++){

	movss	xmm7, DWORD PTR __real@3f000000
	mov	edi, DWORD PTR __imp_?CalculateWallmarks@CKinematics@@QAEXXZ
; File C:\Program Files\Microsoft Visual Studio\2022\Community\VC\Tools\MSVC\14.29.30133\include\vector

; 74   :         ++_Ptr;

	mov	DWORD PTR _i_it$1$[esp+64], esi

; 150  :         return _Ptr == _Right._Ptr;

	cmp	esi, DWORD PTR [eax+96]
; File I:\Vitalya\mine\NSProjectX\layers\xrRender\r__dsgraph_build.cpp

; 356  : 			for (PS::CParticleGroup::SItemVecIt i_it=pG->items.begin(); i_it!=pG->items.end(); i_it++){

	jne	$LL6@add_leafs_

; 420  : }

	pop	edi
	pop	esi
	pop	ebp
	pop	ebx
	add	esp, 48					; 00000030H
	ret	4
$LN430@add_leafs_:

; 303  : 			E = pV->children.end	();

	mov	edi, DWORD PTR [ebp+72]

; 304  : 			for (; I!=E; I++)	add_leafs_Dynamic	(*I);

	mov	esi, DWORD PTR [ebp+68]
	cmp	esi, edi
	je	SHORT $LN734@add_leafs_
	npad	5
$LL423@add_leafs_:
	push	DWORD PTR [esi]
	mov	ecx, ebx
	call	?add_leafs_Dynamic@CRender@@AAEXPAVIRender_Visual@@@Z ; CRender::add_leafs_Dynamic
; File C:\Program Files\Microsoft Visual Studio\2022\Community\VC\Tools\MSVC\14.29.30133\include\vector

; 74   :         ++_Ptr;

	add	esi, 4
; File I:\Vitalya\mine\NSProjectX\layers\xrRender\r__dsgraph_build.cpp

; 304  : 			for (; I!=E; I++)	add_leafs_Dynamic	(*I);

	cmp	esi, edi
	jne	SHORT $LL423@add_leafs_

; 305  : 		}
; 306  : 		return;

	jmp	SHORT $LN732@add_leafs_
$LN431@add_leafs_:

; 307  : 	case MT_SKELETON_ANIM:
; 308  : 	case MT_SKELETON_RIGID:
; 309  : 		{
; 310  : 			// Add all children, doesn't perform any tests
; 311  : 			CKinematics * pV			= (CKinematics*)pVisual;
; 312  : 			BOOL	_use_lod			= FALSE	;
; 313  : 			if (pV->m_lod)				

	mov	edx, DWORD PTR [ebp+84]
	test	edx, edx
	je	$LN435@add_leafs_

; 314  : 			{
; 315  : 				Fvector							Tpos;	float		D;
; 316  : 				val_pTransform->transform_tiny	(Tpos, pV->vis.sphere.P);

	mov	ecx, DWORD PTR [ebx+264]
; File I:\Vitalya\mine\NSProjectX\xrCore\_matrix.h

; 499  : 		dest.x = v.x*_11 + v.y*_21 + v.z*_31 + _41;

	movss	xmm4, DWORD PTR [ebp+12]
	movss	xmm6, DWORD PTR [ebp+8]

; 500  : 		dest.y = v.x*_12 + v.y*_22 + v.z*_32 + _42;

	movaps	xmm0, xmm4
	movss	xmm5, DWORD PTR [ebp+16]
	movaps	xmm1, xmm6
	mulss	xmm0, DWORD PTR [ecx+20]
; File I:\Vitalya\mine\NSProjectX\layers\xrRender\r__dsgraph_build.cpp

; 31   : 	distSQ	= Device.vCameraPosition.distance_to_sqr(C)+EPS;

	mov	eax, DWORD PTR __imp_?Device@@3VCRenderDevice@@A
; File I:\Vitalya\mine\NSProjectX\xrCore\_matrix.h

; 500  : 		dest.y = v.x*_12 + v.y*_22 + v.z*_32 + _42;

	mulss	xmm1, DWORD PTR [ecx+4]
; File I:\Vitalya\mine\NSProjectX\xrCore\_vector3d.h

; 287  : 	{	return (x-v.x)*(x-v.x) + (y-v.y)*(y-v.y) + (z-v.z)*(z-v.z);	}

	movss	xmm3, DWORD PTR [eax+492]
; File I:\Vitalya\mine\NSProjectX\xrCore\_matrix.h

; 500  : 		dest.y = v.x*_12 + v.y*_22 + v.z*_32 + _42;

	addss	xmm1, xmm0
; File I:\Vitalya\mine\NSProjectX\xrCore\_vector3d.h

; 287  : 	{	return (x-v.x)*(x-v.x) + (y-v.y)*(y-v.y) + (z-v.z)*(z-v.z);	}

	movss	xmm2, DWORD PTR [eax+488]
; File I:\Vitalya\mine\NSProjectX\xrCore\_matrix.h

; 500  : 		dest.y = v.x*_12 + v.y*_22 + v.z*_32 + _42;

	movaps	xmm0, xmm5
	mulss	xmm0, DWORD PTR [ecx+36]
	addss	xmm0, DWORD PTR [ecx+52]
	addss	xmm1, xmm0
	movaps	xmm0, xmm6
	mulss	xmm0, DWORD PTR [ecx]

; 501  : 		dest.z = v.x*_13 + v.y*_23 + v.z*_33 + _43;

	mulss	xmm6, DWORD PTR [ecx+8]
; File I:\Vitalya\mine\NSProjectX\xrCore\_vector3d.h

; 287  : 	{	return (x-v.x)*(x-v.x) + (y-v.y)*(y-v.y) + (z-v.z)*(z-v.z);	}

	subss	xmm3, xmm1
; File I:\Vitalya\mine\NSProjectX\xrCore\_matrix.h

; 499  : 		dest.x = v.x*_11 + v.y*_21 + v.z*_31 + _41;

	movaps	xmm1, xmm4
	mulss	xmm1, DWORD PTR [ecx+16]

; 501  : 		dest.z = v.x*_13 + v.y*_23 + v.z*_33 + _43;

	mulss	xmm4, DWORD PTR [ecx+24]
	addss	xmm1, xmm0
; File I:\Vitalya\mine\NSProjectX\xrCore\_vector3d.h

; 287  : 	{	return (x-v.x)*(x-v.x) + (y-v.y)*(y-v.y) + (z-v.z)*(z-v.z);	}

	mulss	xmm3, xmm3
; File I:\Vitalya\mine\NSProjectX\xrCore\_matrix.h

; 499  : 		dest.x = v.x*_11 + v.y*_21 + v.z*_31 + _41;

	movaps	xmm0, xmm5

; 501  : 		dest.z = v.x*_13 + v.y*_23 + v.z*_33 + _43;

	mulss	xmm5, DWORD PTR [ecx+40]
	mulss	xmm0, DWORD PTR [ecx+32]
	addss	xmm6, xmm4
	addss	xmm5, DWORD PTR [ecx+56]
	addss	xmm0, DWORD PTR [ecx+48]
	addss	xmm6, xmm5
	addss	xmm1, xmm0
; File I:\Vitalya\mine\NSProjectX\xrCore\_vector3d.h

; 287  : 	{	return (x-v.x)*(x-v.x) + (y-v.y)*(y-v.y) + (z-v.z)*(z-v.z);	}

	movss	xmm0, DWORD PTR [eax+496]
	subss	xmm0, xmm6
	subss	xmm2, xmm1
; File I:\Vitalya\mine\NSProjectX\layers\xrRender\r__dsgraph_build.cpp

; 317  : 				float		ssa		=	CalcSSA	(D,Tpos,pV->vis.sphere.R/2.f);	// assume dynamics never consume full sphere

	movss	xmm1, DWORD PTR [ebp+20]
	mulss	xmm1, DWORD PTR __real@3f000000
; File I:\Vitalya\mine\NSProjectX\xrCore\_vector3d.h

; 287  : 	{	return (x-v.x)*(x-v.x) + (y-v.y)*(y-v.y) + (z-v.z)*(z-v.z);	}

	mulss	xmm0, xmm0
	mulss	xmm2, xmm2
; File I:\Vitalya\mine\NSProjectX\layers\xrRender\r__dsgraph_build.cpp

; 31   : 	distSQ	= Device.vCameraPosition.distance_to_sqr(C)+EPS;

	addss	xmm0, DWORD PTR __real@3727c5ac
	addss	xmm2, xmm3
	addss	xmm2, xmm0

; 318  : 				if (ssa<r_ssaLOD_A)	_use_lod	= TRUE;

	movss	xmm0, DWORD PTR ?r_ssaLOD_A@@3MA

; 32   : 	return	R/distSQ;

	divss	xmm1, xmm2

; 318  : 				if (ssa<r_ssaLOD_A)	_use_lod	= TRUE;

	comiss	xmm0, xmm1
	jbe	SHORT $LN435@add_leafs_

; 319  : 			}
; 320  : 			if (_use_lod)				
; 321  : 			{
; 322  : 				add_leafs_Dynamic			(pV->m_lod)		;

	push	edx
	mov	ecx, ebx
	call	?add_leafs_Dynamic@CRender@@AAEXPAVIRender_Visual@@@Z ; CRender::add_leafs_Dynamic

; 323  : 			} else {

	mov	eax, DWORD PTR _i_it$1$[esp+64]
	jmp	$LN10@add_leafs_
$LN435@add_leafs_:

; 324  : 				pV->CalculateBones			(TRUE);

	mov	eax, DWORD PTR [ebp]
	mov	ecx, ebp
	push	1
	call	DWORD PTR [eax+64]

; 325  : 				pV->CalculateWallmarks		();		//. bug?

	mov	ecx, ebp
	call	DWORD PTR __imp_?CalculateWallmarks@CKinematics@@QAEXXZ

; 326  : 				I = pV->children.begin		();
; 327  : 				E = pV->children.end		();

	mov	edi, DWORD PTR [ebp+72]

; 328  : 				for (; I!=E; I++)	add_leafs_Dynamic	(*I);

	mov	esi, DWORD PTR [ebp+68]
	cmp	esi, edi
	je	$LN732@add_leafs_
	npad	5
$LL426@add_leafs_:
	push	DWORD PTR [esi]
	mov	ecx, ebx
	call	?add_leafs_Dynamic@CRender@@AAEXPAVIRender_Visual@@@Z ; CRender::add_leafs_Dynamic
; File C:\Program Files\Microsoft Visual Studio\2022\Community\VC\Tools\MSVC\14.29.30133\include\vector

; 74   :         ++_Ptr;

	add	esi, 4
; File I:\Vitalya\mine\NSProjectX\layers\xrRender\r__dsgraph_build.cpp

; 328  : 				for (; I!=E; I++)	add_leafs_Dynamic	(*I);

	cmp	esi, edi
	jne	SHORT $LL426@add_leafs_

; 329  : 			}
; 330  : 		}
; 331  : 		return;

	jmp	$LN732@add_leafs_
$LN437@add_leafs_:

; 332  : 	default:
; 333  : 		{
; 334  : 			// General type of visual
; 335  : 			// Calculate distance to it's center
; 336  : 			Fvector							Tpos;
; 337  : 			val_pTransform->transform_tiny	(Tpos, pVisual->vis.sphere.P);

	mov	eax, DWORD PTR [ebx+264]

; 338  : 			r_dsgraph_insert_dynamic		(pVisual,Tpos);

	mov	ecx, ebx
; File I:\Vitalya\mine\NSProjectX\xrCore\_matrix.h

; 499  : 		dest.x = v.x*_11 + v.y*_21 + v.z*_31 + _41;

	movss	xmm2, DWORD PTR [ebp+12]
	movss	xmm4, DWORD PTR [ebp+8]
	movaps	xmm1, xmm2
	movss	xmm3, DWORD PTR [ebp+16]
	movaps	xmm0, xmm4
	mulss	xmm0, DWORD PTR [eax]
	mulss	xmm1, DWORD PTR [eax+16]
	addss	xmm1, xmm0
	movaps	xmm0, xmm3
	mulss	xmm0, DWORD PTR [eax+32]
	addss	xmm0, DWORD PTR [eax+48]
	addss	xmm1, xmm0

; 500  : 		dest.y = v.x*_12 + v.y*_22 + v.z*_32 + _42;

	movaps	xmm0, xmm2
	mulss	xmm0, DWORD PTR [eax+20]

; 501  : 		dest.z = v.x*_13 + v.y*_23 + v.z*_33 + _43;

	mulss	xmm2, DWORD PTR [eax+24]
	movss	DWORD PTR _Tpos$6[esp+64], xmm1
	movaps	xmm1, xmm4
	mulss	xmm1, DWORD PTR [eax+4]
	mulss	xmm4, DWORD PTR [eax+8]
	addss	xmm1, xmm0
	movaps	xmm0, xmm3
	mulss	xmm0, DWORD PTR [eax+36]
	mulss	xmm3, DWORD PTR [eax+40]
	addss	xmm4, xmm2
	addss	xmm0, DWORD PTR [eax+52]
	addss	xmm3, DWORD PTR [eax+56]
; File I:\Vitalya\mine\NSProjectX\layers\xrRender\r__dsgraph_build.cpp

; 338  : 			r_dsgraph_insert_dynamic		(pVisual,Tpos);

	lea	eax, DWORD PTR _Tpos$6[esp+64]
	push	eax
; File I:\Vitalya\mine\NSProjectX\xrCore\_matrix.h

; 500  : 		dest.y = v.x*_12 + v.y*_22 + v.z*_32 + _42;

	addss	xmm1, xmm0
; File I:\Vitalya\mine\NSProjectX\layers\xrRender\r__dsgraph_build.cpp

; 338  : 			r_dsgraph_insert_dynamic		(pVisual,Tpos);

	push	ebp
; File I:\Vitalya\mine\NSProjectX\xrCore\_matrix.h

; 501  : 		dest.z = v.x*_13 + v.y*_23 + v.z*_33 + _43;

	addss	xmm4, xmm3
	movss	DWORD PTR _Tpos$6[esp+76], xmm1
	movss	DWORD PTR _Tpos$6[esp+80], xmm4
; File I:\Vitalya\mine\NSProjectX\layers\xrRender\r__dsgraph_build.cpp

; 338  : 			r_dsgraph_insert_dynamic		(pVisual,Tpos);

	call	?r_dsgraph_insert_dynamic@R_dsgraph_structure@@QAEXPAVIRender_Visual@@AAU?$_vector3@M@@@Z ; R_dsgraph_structure::r_dsgraph_insert_dynamic
	mov	eax, DWORD PTR _i_it$1$[esp+64]
	jmp	$LN10@add_leafs_
$LN25@add_leafs_:

; 361  : 			}
; 362  : 		}
; 363  : 		return;
; 364  : 	case MT_HIERRARHY:
; 365  : 		{
; 366  : 			// Add all children, doesn't perform any tests
; 367  : 			FHierrarhyVisual* pV	= (FHierrarhyVisual*)pVisual;
; 368  : 			I = pV->children.begin	();
; 369  : 			E = pV->children.end	();

	mov	edi, DWORD PTR [ebp+72]

; 370  : 			for (; I!=E; I++)		add_leafs_Static (*I);

	mov	esi, DWORD PTR [ebp+68]
	cmp	esi, edi
	je	$LN1@add_leafs_
$LL15@add_leafs_:
	push	DWORD PTR [esi]
	mov	ecx, ebx
	call	?add_leafs_Static@CRender@@AAEXPAVIRender_Visual@@@Z ; CRender::add_leafs_Static
; File C:\Program Files\Microsoft Visual Studio\2022\Community\VC\Tools\MSVC\14.29.30133\include\vector

; 74   :         ++_Ptr;

	add	esi, 4
; File I:\Vitalya\mine\NSProjectX\layers\xrRender\r__dsgraph_build.cpp

; 370  : 			for (; I!=E; I++)		add_leafs_Static (*I);

	cmp	esi, edi
	jne	SHORT $LL15@add_leafs_

; 420  : }

	pop	edi
	pop	esi
	pop	ebp
	pop	ebx
	add	esp, 48					; 00000030H
	ret	4
$LN26@add_leafs_:

; 371  : 		}
; 372  : 		return;
; 373  : 	case MT_SKELETON_ANIM:
; 374  : 	case MT_SKELETON_RIGID:
; 375  : 		{
; 376  : 			// Add all children, doesn't perform any tests
; 377  : 			CKinematics * pV		= (CKinematics*)pVisual;
; 378  : 			pV->CalculateBones		(TRUE);

	mov	eax, DWORD PTR [ebp]
	mov	ecx, ebp
	push	1
	call	DWORD PTR [eax+64]

; 379  : 			I = pV->children.begin	();
; 380  : 			E = pV->children.end	();

	mov	edi, DWORD PTR [ebp+72]

; 381  : 			for (; I!=E; I++)		add_leafs_Static	(*I);

	mov	esi, DWORD PTR [ebp+68]
	cmp	esi, edi
	je	$LN1@add_leafs_
$LL18@add_leafs_:
	push	DWORD PTR [esi]
	mov	ecx, ebx
	call	?add_leafs_Static@CRender@@AAEXPAVIRender_Visual@@@Z ; CRender::add_leafs_Static
; File C:\Program Files\Microsoft Visual Studio\2022\Community\VC\Tools\MSVC\14.29.30133\include\vector

; 74   :         ++_Ptr;

	add	esi, 4
; File I:\Vitalya\mine\NSProjectX\layers\xrRender\r__dsgraph_build.cpp

; 381  : 			for (; I!=E; I++)		add_leafs_Static	(*I);

	cmp	esi, edi
	jne	SHORT $LL18@add_leafs_

; 420  : }

	pop	edi
	pop	esi
	pop	ebp
	pop	ebx
	add	esp, 48					; 00000030H
	ret	4
$LN28@add_leafs_:

; 26   : 	distSQ	= Device.vCameraPosition.distance_to_sqr(C)+EPS;

	mov	eax, DWORD PTR __imp_?Device@@3VCRenderDevice@@A
; File I:\Vitalya\mine\NSProjectX\xrCore\_vector3d.h

; 287  : 	{	return (x-v.x)*(x-v.x) + (y-v.y)*(y-v.y) + (z-v.z)*(z-v.z);	}

	movss	xmm1, DWORD PTR [eax+492]
	subss	xmm1, DWORD PTR [ebp+12]
	movss	xmm0, DWORD PTR [eax+496]
	movss	xmm2, DWORD PTR [eax+488]
	subss	xmm2, DWORD PTR [ebp+8]
	subss	xmm0, DWORD PTR [ebp+16]
	mulss	xmm1, xmm1
	mulss	xmm2, xmm2
	mulss	xmm0, xmm0
; File I:\Vitalya\mine\NSProjectX\layers\xrRender\r__dsgraph_build.cpp

; 26   : 	distSQ	= Device.vCameraPosition.distance_to_sqr(C)+EPS;

	addss	xmm2, xmm1

; 27   : 	return	R/distSQ;

	movss	xmm1, DWORD PTR [ebp+20]
	addss	xmm0, DWORD PTR __real@3727c5ac
	addss	xmm2, xmm0

; 390  : 			if (ssa<r_ssaLOD_A)

	movss	xmm0, DWORD PTR ?r_ssaLOD_A@@3MA

; 27   : 	return	R/distSQ;

	divss	xmm1, xmm2
	movss	DWORD PTR _D$7[esp+60], xmm2

; 382  : 		}
; 383  : 		return;
; 384  : 	case MT_LOD:
; 385  : 		{
; 386  : 			FLOD		* pV	=		(FLOD*) pVisual;
; 387  : 			float		D;
; 388  : 			float		ssa		=		CalcSSA(D,pV->vis.sphere.P,pV);
; 389  : 			ssa					*=		pV->lod_factor;

	mulss	xmm1, DWORD PTR [ebp+1080]

; 390  : 			if (ssa<r_ssaLOD_A)

	comiss	xmm0, xmm1
	movss	DWORD PTR _ssa$1$[esp+64], xmm1
	jbe	SHORT $LN29@add_leafs_

; 391  : 			{
; 392  : 				if (ssa<r_ssaDISCARD)	return;

	movss	xmm0, DWORD PTR ?r_ssaDISCARD@@3MA
	comiss	xmm0, xmm1
	ja	SHORT $LN1@add_leafs_

; 393  : 				mapLOD_Node*	N	=	mapLOD.insertInAnyWay(D);

	lea	eax, DWORD PTR _D$7[esp+60]
	push	eax
	lea	ecx, DWORD PTR [ebx+376]
	call	?insertInAnyWay@?$FixedMAP@MU_LodItem@R_dsgraph@@Udoug_lea_allocator@@@@QAEPAUTNode@1@ABM@Z ; FixedMAP<float,R_dsgraph::_LodItem,doug_lea_allocator>::insertInAnyWay

; 394  : 				N->val.ssa			=	ssa;

	movss	xmm1, DWORD PTR _ssa$1$[esp+64]
	movss	DWORD PTR [eax+4], xmm1

; 395  : 				N->val.pVisual		=	pVisual;

	mov	DWORD PTR [eax+8], ebp
$LN29@add_leafs_:

; 396  : 			}
; 397  : 			if (ssa>r_ssaLOD_B)

	comiss	xmm1, DWORD PTR ?r_ssaLOD_B@@3MA
	jbe	SHORT $LN1@add_leafs_

; 398  : 			{
; 399  : 				// Add all children, doesn't perform any tests
; 400  : 				I = pV->children.begin	();
; 401  : 				E = pV->children.end	();

	mov	edi, DWORD PTR [ebp+72]

; 402  : 				for (; I!=E; I++)	add_leafs_Static (*I);

	mov	esi, DWORD PTR [ebp+68]
	cmp	esi, edi
	je	SHORT $LN1@add_leafs_
$LL21@add_leafs_:
	push	DWORD PTR [esi]
	mov	ecx, ebx
	call	?add_leafs_Static@CRender@@AAEXPAVIRender_Visual@@@Z ; CRender::add_leafs_Static
; File C:\Program Files\Microsoft Visual Studio\2022\Community\VC\Tools\MSVC\14.29.30133\include\vector

; 74   :         ++_Ptr;

	add	esi, 4
; File I:\Vitalya\mine\NSProjectX\layers\xrRender\r__dsgraph_build.cpp

; 402  : 				for (; I!=E; I++)	add_leafs_Static (*I);

	cmp	esi, edi
	jne	SHORT $LL21@add_leafs_

; 420  : }

	pop	edi
	pop	esi
	pop	ebp
	pop	ebx
	add	esp, 48					; 00000030H
	ret	4
$LN34@add_leafs_:

; 403  : 			}
; 404  : 		}
; 405  : 		return;
; 406  : 	case MT_TREE_PM:
; 407  : 	case MT_TREE_ST:
; 408  : 		{
; 409  : 			// General type of visual
; 410  : 			r_dsgraph_insert_static		(pVisual);
; 411  : 		}
; 412  : 		return;
; 413  : 	default:
; 414  : 		{
; 415  : 			// General type of visual
; 416  : 			r_dsgraph_insert_static		(pVisual);

	push	ebp
	mov	ecx, ebx
	call	?r_dsgraph_insert_static@R_dsgraph_structure@@QAEXPAVIRender_Visual@@@Z ; R_dsgraph_structure::r_dsgraph_insert_static
$LN1@add_leafs_:

; 420  : }

	pop	edi
	pop	esi
	pop	ebp
	pop	ebx
	add	esp, 48					; 00000030H
	ret	4
	npad	3
$LN723@add_leafs_:
	DD	$LN25@add_leafs_
	DD	$LN26@add_leafs_
	DD	$LN28@add_leafs_
	DD	$LN34@add_leafs_
	DD	$LN23@add_leafs_
	DD	$LN34@add_leafs_
$LN722@add_leafs_:
	DB	0
	DB	5
	DB	1
	DB	5
	DB	5
	DB	2
	DB	3
	DB	5
	DB	4
	DB	1
	DB	3
	npad	1
$LN725@add_leafs_:
	DD	$LN98@add_leafs_
	DD	$LN99@add_leafs_
	DD	$LN96@add_leafs_
	DD	$LN105@add_leafs_
$LN724@add_leafs_:
	DB	0
	DB	3
	DB	1
	DB	3
	DB	3
	DB	3
	DB	3
	DB	3
	DB	2
	DB	1
	npad	2
$LN727@add_leafs_:
	DD	$LN264@add_leafs_
	DD	$LN265@add_leafs_
	DD	$LN262@add_leafs_
	DD	$LN271@add_leafs_
$LN726@add_leafs_:
	DB	0
	DB	3
	DB	1
	DB	3
	DB	3
	DB	3
	DB	3
	DB	3
	DB	2
	DB	1
	npad	2
$LN729@add_leafs_:
	DD	$LN430@add_leafs_
	DD	$LN431@add_leafs_
	DD	$LN428@add_leafs_
	DD	$LN437@add_leafs_
$LN728@add_leafs_:
	DB	0
	DB	3
	DB	1
	DB	3
	DB	3
	DB	3
	DB	3
	DB	3
	DB	2
	DB	1
?add_leafs_Static@CRender@@AAEXPAVIRender_Visual@@@Z ENDP ; CRender::add_leafs_Static
_TEXT	ENDS
; Function compile flags: /Ogtpy
; File I:\Vitalya\mine\NSProjectX\layers\xrRender\r__dsgraph_build.cpp
; File I:\Vitalya\mine\NSProjectX\xrCore\_matrix.h
; File I:\Vitalya\mine\NSProjectX\layers\xrRender\r__dsgraph_build.cpp
; File I:\Vitalya\mine\NSProjectX\xrCore\_matrix.h
; File I:\Vitalya\mine\NSProjectX\layers\xrRender\r__dsgraph_build.cpp
; File I:\Vitalya\mine\NSProjectX\xrCore\_matrix.h
; File I:\Vitalya\mine\NSProjectX\layers\xrRender\r__dsgraph_build.cpp
; File I:\Vitalya\mine\NSProjectX\xrCore\_matrix.h
; File I:\Vitalya\mine\NSProjectX\layers\xrRender\r__dsgraph_build.cpp
; File I:\Vitalya\mine\NSProjectX\xrCore\_matrix.h
; File I:\Vitalya\mine\NSProjectX\layers\xrRender\r__dsgraph_build.cpp
; File C:\Program Files\Microsoft Visual Studio\2022\Community\VC\Tools\MSVC\14.29.30133\include\vector
; File I:\Vitalya\mine\NSProjectX\layers\xrRender\r__dsgraph_build.cpp
; File C:\Program Files\Microsoft Visual Studio\2022\Community\VC\Tools\MSVC\14.29.30133\include\vector
; File I:\Vitalya\mine\NSProjectX\layers\xrRender\r__dsgraph_build.cpp
; File C:\Program Files\Microsoft Visual Studio\2022\Community\VC\Tools\MSVC\14.29.30133\include\vector
; File I:\Vitalya\mine\NSProjectX\layers\xrRender\r__dsgraph_build.cpp
; File C:\Program Files\Microsoft Visual Studio\2022\Community\VC\Tools\MSVC\14.29.30133\include\vector
; File I:\Vitalya\mine\NSProjectX\layers\xrRender\r__dsgraph_build.cpp
; File C:\Program Files\Microsoft Visual Studio\2022\Community\VC\Tools\MSVC\14.29.30133\include\vector
; File I:\Vitalya\mine\NSProjectX\layers\xrRender\r__dsgraph_build.cpp
; File C:\Program Files\Microsoft Visual Studio\2022\Community\VC\Tools\MSVC\14.29.30133\include\vector
; File I:\Vitalya\mine\NSProjectX\layers\xrRender\r__dsgraph_build.cpp
; File C:\Program Files\Microsoft Visual Studio\2022\Community\VC\Tools\MSVC\14.29.30133\include\vector
; File I:\Vitalya\mine\NSProjectX\layers\xrRender\r__dsgraph_build.cpp
; File C:\Program Files\Microsoft Visual Studio\2022\Community\VC\Tools\MSVC\14.29.30133\include\vector
; File I:\Vitalya\mine\NSProjectX\layers\xrRender\r__dsgraph_build.cpp
; File C:\Program Files\Microsoft Visual Studio\2022\Community\VC\Tools\MSVC\14.29.30133\include\vector
; File I:\Vitalya\mine\NSProjectX\layers\xrRender\r__dsgraph_build.cpp
; File C:\Program Files\Microsoft Visual Studio\2022\Community\VC\Tools\MSVC\14.29.30133\include\vector
; File I:\Vitalya\mine\NSProjectX\layers\xrRender\r__dsgraph_build.cpp
; File C:\Program Files\Microsoft Visual Studio\2022\Community\VC\Tools\MSVC\14.29.30133\include\vector
; File I:\Vitalya\mine\NSProjectX\layers\xrRender\r__dsgraph_build.cpp
; File C:\Program Files\Microsoft Visual Studio\2022\Community\VC\Tools\MSVC\14.29.30133\include\vector
; File I:\Vitalya\mine\NSProjectX\layers\xrRender\r__dsgraph_build.cpp
; File C:\Program Files\Microsoft Visual Studio\2022\Community\VC\Tools\MSVC\14.29.30133\include\vector
; File I:\Vitalya\mine\NSProjectX\layers\xrRender\r__dsgraph_build.cpp
; File I:\Vitalya\mine\NSProjectX\xrCore\_matrix.h
; File I:\Vitalya\mine\NSProjectX\layers\xrRender\r__dsgraph_build.cpp
; File I:\Vitalya\mine\NSProjectX\xrCore\_matrix.h
; File I:\Vitalya\mine\NSProjectX\xrCore\_vector3d.h
; File I:\Vitalya\mine\NSProjectX\xrCore\_matrix.h
; File I:\Vitalya\mine\NSProjectX\xrCore\_vector3d.h
; File I:\Vitalya\mine\NSProjectX\xrCore\_matrix.h
; File I:\Vitalya\mine\NSProjectX\xrCore\_vector3d.h
; File I:\Vitalya\mine\NSProjectX\xrCore\_matrix.h
; File I:\Vitalya\mine\NSProjectX\xrCore\_vector3d.h
; File I:\Vitalya\mine\NSProjectX\xrCore\_matrix.h
; File I:\Vitalya\mine\NSProjectX\xrCore\_vector3d.h
; File I:\Vitalya\mine\NSProjectX\layers\xrRender\r__dsgraph_build.cpp
; File I:\Vitalya\mine\NSProjectX\xrCore\_vector3d.h
; File I:\Vitalya\mine\NSProjectX\layers\xrRender\r__dsgraph_build.cpp
; File C:\Program Files\Microsoft Visual Studio\2022\Community\VC\Tools\MSVC\14.29.30133\include\vector
; File I:\Vitalya\mine\NSProjectX\layers\xrRender\r__dsgraph_build.cpp
; File I:\Vitalya\mine\NSProjectX\xrCore\_matrix.h
; File I:\Vitalya\mine\NSProjectX\layers\xrRender\r__dsgraph_build.cpp
; File I:\Vitalya\mine\NSProjectX\xrCore\_matrix.h
; File I:\Vitalya\mine\NSProjectX\layers\xrRender\r__dsgraph_build.cpp
; File I:\Vitalya\mine\NSProjectX\xrCore\_matrix.h
; File I:\Vitalya\mine\NSProjectX\layers\xrRender\r__dsgraph_build.cpp
; File C:\Program Files\Microsoft Visual Studio\2022\Community\VC\Tools\MSVC\14.29.30133\include\vector
; File I:\Vitalya\mine\NSProjectX\layers\xrRender\r__dsgraph_build.cpp
; File C:\Program Files\Microsoft Visual Studio\2022\Community\VC\Tools\MSVC\14.29.30133\include\vector
; File I:\Vitalya\mine\NSProjectX\layers\xrRender\r__dsgraph_build.cpp
; File C:\Program Files\Microsoft Visual Studio\2022\Community\VC\Tools\MSVC\14.29.30133\include\vector
; File I:\Vitalya\mine\NSProjectX\layers\xrRender\r__dsgraph_build.cpp
; File C:\Program Files\Microsoft Visual Studio\2022\Community\VC\Tools\MSVC\14.29.30133\include\vector
; File I:\Vitalya\mine\NSProjectX\layers\xrRender\r__dsgraph_build.cpp
; File C:\Program Files\Microsoft Visual Studio\2022\Community\VC\Tools\MSVC\14.29.30133\include\vector
; File I:\Vitalya\mine\NSProjectX\layers\xrRender\r__dsgraph_build.cpp
; File C:\Program Files\Microsoft Visual Studio\2022\Community\VC\Tools\MSVC\14.29.30133\include\vector
; File I:\Vitalya\mine\NSProjectX\layers\xrRender\r__dsgraph_build.cpp
; File C:\Program Files\Microsoft Visual Studio\2022\Community\VC\Tools\MSVC\14.29.30133\include\vector
; File I:\Vitalya\mine\NSProjectX\layers\xrRender\r__dsgraph_build.cpp
; File C:\Program Files\Microsoft Visual Studio\2022\Community\VC\Tools\MSVC\14.29.30133\include\vector
; File I:\Vitalya\mine\NSProjectX\layers\xrRender\r__dsgraph_build.cpp
; File C:\Program Files\Microsoft Visual Studio\2022\Community\VC\Tools\MSVC\14.29.30133\include\vector
; File I:\Vitalya\mine\NSProjectX\layers\xrRender\r__dsgraph_build.cpp
; File C:\Program Files\Microsoft Visual Studio\2022\Community\VC\Tools\MSVC\14.29.30133\include\vector
; File I:\Vitalya\mine\NSProjectX\layers\xrRender\r__dsgraph_build.cpp
; File C:\Program Files\Microsoft Visual Studio\2022\Community\VC\Tools\MSVC\14.29.30133\include\vector
; File I:\Vitalya\mine\NSProjectX\layers\xrRender\r__dsgraph_build.cpp
; File I:\Vitalya\mine\NSProjectX\xrCore\_matrix.h
; File I:\Vitalya\mine\NSProjectX\layers\xrRender\r__dsgraph_build.cpp
; File I:\Vitalya\mine\NSProjectX\xrCore\_matrix.h
; File I:\Vitalya\mine\NSProjectX\xrCore\_vector3d.h
; File I:\Vitalya\mine\NSProjectX\xrCore\_matrix.h
; File I:\Vitalya\mine\NSProjectX\xrCore\_vector3d.h
; File I:\Vitalya\mine\NSProjectX\xrCore\_matrix.h
; File I:\Vitalya\mine\NSProjectX\xrCore\_vector3d.h
; File I:\Vitalya\mine\NSProjectX\xrCore\_matrix.h
; File I:\Vitalya\mine\NSProjectX\xrCore\_vector3d.h
; File I:\Vitalya\mine\NSProjectX\xrCore\_matrix.h
; File I:\Vitalya\mine\NSProjectX\xrCore\_vector3d.h
; File I:\Vitalya\mine\NSProjectX\layers\xrRender\r__dsgraph_build.cpp
; File I:\Vitalya\mine\NSProjectX\xrCore\_vector3d.h
; File I:\Vitalya\mine\NSProjectX\layers\xrRender\r__dsgraph_build.cpp
; File C:\Program Files\Microsoft Visual Studio\2022\Community\VC\Tools\MSVC\14.29.30133\include\vector
; File I:\Vitalya\mine\NSProjectX\layers\xrRender\r__dsgraph_build.cpp
; File I:\Vitalya\mine\NSProjectX\xrCore\_matrix.h
; File I:\Vitalya\mine\NSProjectX\layers\xrRender\r__dsgraph_build.cpp
; File I:\Vitalya\mine\NSProjectX\xrCore\_matrix.h
; File I:\Vitalya\mine\NSProjectX\layers\xrRender\r__dsgraph_build.cpp
; File I:\Vitalya\mine\NSProjectX\xrCore\_matrix.h
; File I:\Vitalya\mine\NSProjectX\layers\xrRender\r__dsgraph_build.cpp
; File C:\Program Files\Microsoft Visual Studio\2022\Community\VC\Tools\MSVC\14.29.30133\include\vector
; File I:\Vitalya\mine\NSProjectX\layers\xrRender\r__dsgraph_build.cpp
; File C:\Program Files\Microsoft Visual Studio\2022\Community\VC\Tools\MSVC\14.29.30133\include\vector
; File I:\Vitalya\mine\NSProjectX\layers\xrRender\r__dsgraph_build.cpp
; File C:\Program Files\Microsoft Visual Studio\2022\Community\VC\Tools\MSVC\14.29.30133\include\vector
; File I:\Vitalya\mine\NSProjectX\layers\xrRender\r__dsgraph_build.cpp
; File C:\Program Files\Microsoft Visual Studio\2022\Community\VC\Tools\MSVC\14.29.30133\include\vector
; File I:\Vitalya\mine\NSProjectX\layers\xrRender\r__dsgraph_build.cpp
; File C:\Program Files\Microsoft Visual Studio\2022\Community\VC\Tools\MSVC\14.29.30133\include\vector
; File I:\Vitalya\mine\NSProjectX\layers\xrRender\r__dsgraph_build.cpp
; File C:\Program Files\Microsoft Visual Studio\2022\Community\VC\Tools\MSVC\14.29.30133\include\vector
; File I:\Vitalya\mine\NSProjectX\layers\xrRender\r__dsgraph_build.cpp
; File C:\Program Files\Microsoft Visual Studio\2022\Community\VC\Tools\MSVC\14.29.30133\include\vector
; File I:\Vitalya\mine\NSProjectX\layers\xrRender\r__dsgraph_build.cpp
; File C:\Program Files\Microsoft Visual Studio\2022\Community\VC\Tools\MSVC\14.29.30133\include\vector
; File I:\Vitalya\mine\NSProjectX\layers\xrRender\r__dsgraph_build.cpp
; File C:\Program Files\Microsoft Visual Studio\2022\Community\VC\Tools\MSVC\14.29.30133\include\vector
; File I:\Vitalya\mine\NSProjectX\layers\xrRender\r__dsgraph_build.cpp
; File C:\Program Files\Microsoft Visual Studio\2022\Community\VC\Tools\MSVC\14.29.30133\include\vector
; File I:\Vitalya\mine\NSProjectX\layers\xrRender\r__dsgraph_build.cpp
; File I:\Vitalya\mine\NSProjectX\xrCore\_matrix.h
; File I:\Vitalya\mine\NSProjectX\layers\xrRender\r__dsgraph_build.cpp
; File I:\Vitalya\mine\NSProjectX\xrCore\_matrix.h
; File I:\Vitalya\mine\NSProjectX\xrCore\_vector3d.h
; File I:\Vitalya\mine\NSProjectX\xrCore\_matrix.h
; File I:\Vitalya\mine\NSProjectX\xrCore\_vector3d.h
; File I:\Vitalya\mine\NSProjectX\xrCore\_matrix.h
; File I:\Vitalya\mine\NSProjectX\xrCore\_vector3d.h
; File I:\Vitalya\mine\NSProjectX\xrCore\_matrix.h
; File I:\Vitalya\mine\NSProjectX\xrCore\_vector3d.h
; File I:\Vitalya\mine\NSProjectX\xrCore\_matrix.h
; File I:\Vitalya\mine\NSProjectX\xrCore\_vector3d.h
; File I:\Vitalya\mine\NSProjectX\layers\xrRender\r__dsgraph_build.cpp
; File I:\Vitalya\mine\NSProjectX\xrCore\_vector3d.h
; File I:\Vitalya\mine\NSProjectX\layers\xrRender\r__dsgraph_build.cpp
; File C:\Program Files\Microsoft Visual Studio\2022\Community\VC\Tools\MSVC\14.29.30133\include\vector
; File I:\Vitalya\mine\NSProjectX\layers\xrRender\r__dsgraph_build.cpp
; File I:\Vitalya\mine\NSProjectX\xrCore\_matrix.h
; File I:\Vitalya\mine\NSProjectX\layers\xrRender\r__dsgraph_build.cpp
; File I:\Vitalya\mine\NSProjectX\xrCore\_matrix.h
; File I:\Vitalya\mine\NSProjectX\layers\xrRender\r__dsgraph_build.cpp
; File I:\Vitalya\mine\NSProjectX\xrCore\_matrix.h
; File I:\Vitalya\mine\NSProjectX\layers\xrRender\r__dsgraph_build.cpp
; File C:\Program Files\Microsoft Visual Studio\2022\Community\VC\Tools\MSVC\14.29.30133\include\vector
; File I:\Vitalya\mine\NSProjectX\layers\xrRender\r__dsgraph_build.cpp
; File C:\Program Files\Microsoft Visual Studio\2022\Community\VC\Tools\MSVC\14.29.30133\include\vector
; File I:\Vitalya\mine\NSProjectX\layers\xrRender\r__dsgraph_build.cpp
; File C:\Program Files\Microsoft Visual Studio\2022\Community\VC\Tools\MSVC\14.29.30133\include\vector
; File I:\Vitalya\mine\NSProjectX\layers\xrRender\r__dsgraph_build.cpp
; File I:\Vitalya\mine\NSProjectX\xrCore\_matrix.h
; File I:\Vitalya\mine\NSProjectX\layers\xrRender\r__dsgraph_build.cpp
; File I:\Vitalya\mine\NSProjectX\xrCore\_matrix.h
; File I:\Vitalya\mine\NSProjectX\xrCore\_vector3d.h
; File I:\Vitalya\mine\NSProjectX\xrCore\_matrix.h
; File I:\Vitalya\mine\NSProjectX\xrCore\_vector3d.h
; File I:\Vitalya\mine\NSProjectX\xrCore\_matrix.h
; File I:\Vitalya\mine\NSProjectX\xrCore\_vector3d.h
; File I:\Vitalya\mine\NSProjectX\xrCore\_matrix.h
; File I:\Vitalya\mine\NSProjectX\xrCore\_vector3d.h
; File I:\Vitalya\mine\NSProjectX\xrCore\_matrix.h
; File I:\Vitalya\mine\NSProjectX\xrCore\_vector3d.h
; File I:\Vitalya\mine\NSProjectX\layers\xrRender\r__dsgraph_build.cpp
; File I:\Vitalya\mine\NSProjectX\xrCore\_vector3d.h
; File I:\Vitalya\mine\NSProjectX\layers\xrRender\r__dsgraph_build.cpp
; File C:\Program Files\Microsoft Visual Studio\2022\Community\VC\Tools\MSVC\14.29.30133\include\vector
; File I:\Vitalya\mine\NSProjectX\layers\xrRender\r__dsgraph_build.cpp
_TEXT	SEGMENT
_i_it$1$ = -60						; size = 4
_pit$1$ = -56						; size = 4
_pit$1$ = -56						; size = 4
_VIS$1$ = -52						; size = 4
_Tpos$ = -48						; size = 12
_Tpos$5 = -36						; size = 12
_Tpos$6 = -24						; size = 12
_Tpos$7 = -12						; size = 12
_pVisual$ = 8						; size = 4
_planes$ = 12						; size = 4
?add_Dynamic@CRender@@AAEHPAVIRender_Visual@@I@Z PROC	; CRender::add_Dynamic
; _this$ = ecx

; 426  : {

	sub	esp, 60					; 0000003cH
	push	ebx
	push	ebp
; File I:\Vitalya\mine\NSProjectX\xrCore\_matrix.h

; 499  : 		dest.x = v.x*_11 + v.y*_21 + v.z*_31 + _41;

	mov	ebp, DWORD PTR _pVisual$[esp+64]
; File I:\Vitalya\mine\NSProjectX\layers\xrRender\r__dsgraph_build.cpp

; 426  : {

	mov	ebx, ecx

; 427  : 	// Check frustum visibility and calculate distance to visual's center
; 428  : 	Fvector		Tpos;	// transformed position
; 429  : 	EFC_Visible	VIS;
; 430  : 
; 431  : 	val_pTransform->transform_tiny	(Tpos, pVisual->vis.sphere.P);

	mov	eax, DWORD PTR [ebx+264]
; File I:\Vitalya\mine\NSProjectX\xrCore\_matrix.h

; 499  : 		dest.x = v.x*_11 + v.y*_21 + v.z*_31 + _41;

	movss	xmm2, DWORD PTR [ebp+12]
	movss	xmm4, DWORD PTR [ebp+8]
	movaps	xmm1, xmm2
	movss	xmm3, DWORD PTR [ebp+16]
	movaps	xmm0, xmm4
	mulss	xmm0, DWORD PTR [eax]
	mulss	xmm1, DWORD PTR [eax+16]
; File I:\Vitalya\mine\NSProjectX\layers\xrRender\r__dsgraph_build.cpp

; 432  : 	VIS = View->testSphere			(Tpos, pVisual->vis.sphere.R,planes);

	fld	DWORD PTR [ebp+20]
; File I:\Vitalya\mine\NSProjectX\xrCore\_matrix.h

; 499  : 		dest.x = v.x*_11 + v.y*_21 + v.z*_31 + _41;

	addss	xmm1, xmm0
	movaps	xmm0, xmm3
	mulss	xmm0, DWORD PTR [eax+32]
	addss	xmm0, DWORD PTR [eax+48]
	addss	xmm1, xmm0

; 500  : 		dest.y = v.x*_12 + v.y*_22 + v.z*_32 + _42;

	movaps	xmm0, xmm2
	movss	DWORD PTR _Tpos$[esp+68], xmm1
	movaps	xmm1, xmm4
	mulss	xmm0, DWORD PTR [eax+20]
	mulss	xmm1, DWORD PTR [eax+4]
	addss	xmm1, xmm0
	movaps	xmm0, xmm3
	mulss	xmm0, DWORD PTR [eax+36]
	addss	xmm0, DWORD PTR [eax+52]
	addss	xmm1, xmm0
	movss	DWORD PTR _Tpos$[esp+72], xmm1

; 501  : 		dest.z = v.x*_13 + v.y*_23 + v.z*_33 + _43;

	mulss	xmm4, DWORD PTR [eax+8]
	mulss	xmm2, DWORD PTR [eax+24]
	mulss	xmm3, DWORD PTR [eax+40]
	addss	xmm4, xmm2
	addss	xmm3, DWORD PTR [eax+56]
; File I:\Vitalya\mine\NSProjectX\layers\xrRender\r__dsgraph_build.cpp

; 432  : 	VIS = View->testSphere			(Tpos, pVisual->vis.sphere.R,planes);

	lea	eax, DWORD PTR _planes$[esp+64]
	push	eax
	push	ecx
	mov	ecx, DWORD PTR [ebx+252]
	lea	eax, DWORD PTR _Tpos$[esp+76]
; File I:\Vitalya\mine\NSProjectX\xrCore\_matrix.h

; 501  : 		dest.z = v.x*_13 + v.y*_23 + v.z*_33 + _43;

	addss	xmm4, xmm3
; File I:\Vitalya\mine\NSProjectX\layers\xrRender\r__dsgraph_build.cpp

; 432  : 	VIS = View->testSphere			(Tpos, pVisual->vis.sphere.R,planes);

	fstp	DWORD PTR [esp]
	push	eax
; File I:\Vitalya\mine\NSProjectX\xrCore\_matrix.h

; 501  : 		dest.z = v.x*_13 + v.y*_23 + v.z*_33 + _43;

	movss	DWORD PTR _Tpos$[esp+88], xmm4
; File I:\Vitalya\mine\NSProjectX\layers\xrRender\r__dsgraph_build.cpp

; 432  : 	VIS = View->testSphere			(Tpos, pVisual->vis.sphere.R,planes);

	call	DWORD PTR __imp_?testSphere@CFrustum@@QBE?AW4EFC_Visible@@AAU?$_vector3@M@@MAAI@Z
	mov	ecx, eax
	mov	DWORD PTR _VIS$1$[esp+68], ecx

; 433  : 	if (fcvNone==VIS) return FALSE	;

	test	ecx, ecx
	jne	SHORT $LN28@add_Dynami

; 517  : }

	pop	ebp
	pop	ebx
	add	esp, 60					; 0000003cH
	ret	8
$LN28@add_Dynami:

; 434  : 
; 435  : 	// If we get here visual is visible or partially visible
; 436  : 	xr_vector<IRender_Visual*>::iterator I,E;	// it may be usefull for 'hierrarhy' visuals
; 437  : 
; 438  : 	switch (pVisual->Type) {

	mov	eax, DWORD PTR [ebp+4]
	dec	eax
	push	esi
	push	edi
	cmp	eax, 9
	ja	$LN43@add_Dynami
	movzx	eax, BYTE PTR $LN1844@add_Dynami[eax]
	jmp	DWORD PTR $LN1845@add_Dynami[eax*4]
$LN29@add_Dynami:
; File C:\Program Files\Microsoft Visual Studio\2022\Community\VC\Tools\MSVC\14.29.30133\include\vector

; 41   :     _CONSTEXPR20_CONTAINER _Vector_const_iterator(_Tptr _Parg, const _Container_base* _Pvector) noexcept : _Ptr(_Parg) {

	mov	esi, DWORD PTR [ebp+92]
	mov	DWORD PTR _i_it$1$[esp+76], esi

; 150  :         return _Ptr == _Right._Ptr;

	cmp	esi, DWORD PTR [ebp+96]
; File I:\Vitalya\mine\NSProjectX\layers\xrRender\r__dsgraph_build.cpp

; 443  : 			for (PS::CParticleGroup::SItemVecIt i_it=pG->items.begin(); i_it!=pG->items.end(); i_it++)

	je	$LN2@add_Dynami
	movss	xmm7, DWORD PTR __real@3f000000
	mov	edi, DWORD PTR __imp_?CalculateWallmarks@CKinematics@@QAEXXZ
$LL6@add_Dynami:

; 444  : 			{
; 445  : 				PS::CParticleGroup::SItem&			I		= *i_it;

	mov	ebp, DWORD PTR [esi]

; 446  : 				if (fcvPartial==VIS) 

	cmp	ecx, 1
	jne	SHORT $LN30@add_Dynami

; 447  : 				{
; 448  : 					if (I._effect)		add_Dynamic				(I._effect,planes);

	test	ebp, ebp
	je	SHORT $LN32@add_Dynami
	push	DWORD PTR _planes$[esp+72]
	mov	ecx, ebx
	push	ebp
	call	?add_Dynamic@CRender@@AAEHPAVIRender_Visual@@I@Z ; CRender::add_Dynamic
$LN32@add_Dynami:
; File C:\Program Files\Microsoft Visual Studio\2022\Community\VC\Tools\MSVC\14.29.30133\include\vector

; 150  :         return _Ptr == _Right._Ptr;

	mov	edi, DWORD PTR _i_it$1$[esp+76]

; 41   :     _CONSTEXPR20_CONTAINER _Vector_const_iterator(_Tptr _Parg, const _Container_base* _Pvector) noexcept : _Ptr(_Parg) {

	mov	esi, DWORD PTR [esi+4]

; 150  :         return _Ptr == _Right._Ptr;

	cmp	esi, DWORD PTR [edi+8]
; File I:\Vitalya\mine\NSProjectX\layers\xrRender\r__dsgraph_build.cpp

; 449  : 					for (xr_vector<IRender_Visual*>::iterator pit = I._children_related.begin();	pit!=I._children_related.end(); pit++)	add_Dynamic(*pit,planes);

	je	SHORT $LN1835@add_Dynami
$LL9@add_Dynami:
	push	DWORD PTR _planes$[esp+72]
	mov	ecx, ebx
	push	DWORD PTR [esi]
	call	?add_Dynamic@CRender@@AAEHPAVIRender_Visual@@I@Z ; CRender::add_Dynamic
; File C:\Program Files\Microsoft Visual Studio\2022\Community\VC\Tools\MSVC\14.29.30133\include\vector

; 74   :         ++_Ptr;

	add	esi, 4

; 150  :         return _Ptr == _Right._Ptr;

	cmp	esi, DWORD PTR [edi+8]
; File I:\Vitalya\mine\NSProjectX\layers\xrRender\r__dsgraph_build.cpp

; 449  : 					for (xr_vector<IRender_Visual*>::iterator pit = I._children_related.begin();	pit!=I._children_related.end(); pit++)	add_Dynamic(*pit,planes);

	jne	SHORT $LL9@add_Dynami
$LN1835@add_Dynami:
; File C:\Program Files\Microsoft Visual Studio\2022\Community\VC\Tools\MSVC\14.29.30133\include\vector

; 41   :     _CONSTEXPR20_CONTAINER _Vector_const_iterator(_Tptr _Parg, const _Container_base* _Pvector) noexcept : _Ptr(_Parg) {

	mov	esi, DWORD PTR [edi+16]

; 150  :         return _Ptr == _Right._Ptr;

	cmp	esi, DWORD PTR [edi+20]
; File I:\Vitalya\mine\NSProjectX\layers\xrRender\r__dsgraph_build.cpp

; 450  : 					for (xr_vector<IRender_Visual*>::iterator pit = I._children_free.begin();		pit!=I._children_free.end();	pit++)	add_Dynamic(*pit,planes);

	je	$LN4@add_Dynami
$LL12@add_Dynami:
	push	DWORD PTR _planes$[esp+72]
	mov	ecx, ebx
	push	DWORD PTR [esi]
	call	?add_Dynamic@CRender@@AAEHPAVIRender_Visual@@I@Z ; CRender::add_Dynamic
; File C:\Program Files\Microsoft Visual Studio\2022\Community\VC\Tools\MSVC\14.29.30133\include\vector

; 74   :         ++_Ptr;

	add	esi, 4

; 150  :         return _Ptr == _Right._Ptr;

	cmp	esi, DWORD PTR [edi+20]
; File I:\Vitalya\mine\NSProjectX\layers\xrRender\r__dsgraph_build.cpp

; 450  : 					for (xr_vector<IRender_Visual*>::iterator pit = I._children_free.begin();		pit!=I._children_free.end();	pit++)	add_Dynamic(*pit,planes);

	jne	SHORT $LL12@add_Dynami
	jmp	$LN4@add_Dynami
$LN30@add_Dynami:

; 451  : 				} else 
; 452  : 				{
; 453  : 					if (I._effect)		add_leafs_Dynamic		(I._effect);

	test	ebp, ebp
	je	$LN1199@add_Dynami

; 285  : 	switch (pVisual->Type) {

	mov	eax, DWORD PTR [ebp+4]
	dec	eax
	cmp	eax, 9
	ja	$LN1227@add_Dynami
	movzx	eax, BYTE PTR $LN1846@add_Dynami[eax]
	jmp	DWORD PTR $LN1847@add_Dynami[eax*4]
$LN1218@add_Dynami:
; File C:\Program Files\Microsoft Visual Studio\2022\Community\VC\Tools\MSVC\14.29.30133\include\vector

; 41   :     _CONSTEXPR20_CONTAINER _Vector_const_iterator(_Tptr _Parg, const _Container_base* _Pvector) noexcept : _Ptr(_Parg) {

	mov	edi, DWORD PTR [ebp+92]

; 150  :         return _Ptr == _Right._Ptr;

	cmp	edi, DWORD PTR [ebp+96]
; File I:\Vitalya\mine\NSProjectX\layers\xrRender\r__dsgraph_build.cpp

; 290  : 			for (PS::CParticleGroup::SItemVecIt i_it=pG->items.begin(); i_it!=pG->items.end(); i_it++)	{

	je	SHORT $LN1858@add_Dynami
	npad	6
$LL1204@add_Dynami:

; 291  : 				PS::CParticleGroup::SItem&			I		= *i_it;
; 292  : 				if (I._effect)		add_leafs_Dynamic		(I._effect);

	mov	eax, DWORD PTR [edi]
	test	eax, eax
	je	SHORT $LN1219@add_Dynami
	push	eax
	mov	ecx, ebx
	call	?add_leafs_Dynamic@CRender@@AAEXPAVIRender_Visual@@@Z ; CRender::add_leafs_Dynamic
$LN1219@add_Dynami:
; File C:\Program Files\Microsoft Visual Studio\2022\Community\VC\Tools\MSVC\14.29.30133\include\vector

; 41   :     _CONSTEXPR20_CONTAINER _Vector_const_iterator(_Tptr _Parg, const _Container_base* _Pvector) noexcept : _Ptr(_Parg) {

	mov	esi, DWORD PTR [edi+4]

; 150  :         return _Ptr == _Right._Ptr;

	cmp	esi, DWORD PTR [edi+8]
; File I:\Vitalya\mine\NSProjectX\layers\xrRender\r__dsgraph_build.cpp

; 293  : 				for (xr_vector<IRender_Visual*>::iterator pit = I._children_related.begin();	pit!=I._children_related.end(); pit++)	add_leafs_Dynamic(*pit);

	je	SHORT $LN1838@add_Dynami
$LL1207@add_Dynami:
	push	DWORD PTR [esi]
	mov	ecx, ebx
	call	?add_leafs_Dynamic@CRender@@AAEXPAVIRender_Visual@@@Z ; CRender::add_leafs_Dynamic
; File C:\Program Files\Microsoft Visual Studio\2022\Community\VC\Tools\MSVC\14.29.30133\include\vector

; 74   :         ++_Ptr;

	add	esi, 4

; 150  :         return _Ptr == _Right._Ptr;

	cmp	esi, DWORD PTR [edi+8]
; File I:\Vitalya\mine\NSProjectX\layers\xrRender\r__dsgraph_build.cpp

; 293  : 				for (xr_vector<IRender_Visual*>::iterator pit = I._children_related.begin();	pit!=I._children_related.end(); pit++)	add_leafs_Dynamic(*pit);

	jne	SHORT $LL1207@add_Dynami
$LN1838@add_Dynami:
; File C:\Program Files\Microsoft Visual Studio\2022\Community\VC\Tools\MSVC\14.29.30133\include\vector

; 41   :     _CONSTEXPR20_CONTAINER _Vector_const_iterator(_Tptr _Parg, const _Container_base* _Pvector) noexcept : _Ptr(_Parg) {

	mov	esi, DWORD PTR [edi+16]

; 150  :         return _Ptr == _Right._Ptr;

	cmp	esi, DWORD PTR [edi+20]
; File I:\Vitalya\mine\NSProjectX\layers\xrRender\r__dsgraph_build.cpp

; 294  : 				for (xr_vector<IRender_Visual*>::iterator pit = I._children_free.begin();		pit!=I._children_free.end();	pit++)	add_leafs_Dynamic(*pit);

	je	SHORT $LN1202@add_Dynami
	npad	1
$LL1210@add_Dynami:
	push	DWORD PTR [esi]
	mov	ecx, ebx
	call	?add_leafs_Dynamic@CRender@@AAEXPAVIRender_Visual@@@Z ; CRender::add_leafs_Dynamic
; File C:\Program Files\Microsoft Visual Studio\2022\Community\VC\Tools\MSVC\14.29.30133\include\vector

; 74   :         ++_Ptr;

	add	esi, 4

; 150  :         return _Ptr == _Right._Ptr;

	cmp	esi, DWORD PTR [edi+20]
; File I:\Vitalya\mine\NSProjectX\layers\xrRender\r__dsgraph_build.cpp

; 294  : 				for (xr_vector<IRender_Visual*>::iterator pit = I._children_free.begin();		pit!=I._children_free.end();	pit++)	add_leafs_Dynamic(*pit);

	jne	SHORT $LL1210@add_Dynami
$LN1202@add_Dynami:
; File C:\Program Files\Microsoft Visual Studio\2022\Community\VC\Tools\MSVC\14.29.30133\include\vector

; 74   :         ++_Ptr;

	add	edi, 28					; 0000001cH

; 150  :         return _Ptr == _Right._Ptr;

	cmp	edi, DWORD PTR [ebp+96]
; File I:\Vitalya\mine\NSProjectX\layers\xrRender\r__dsgraph_build.cpp

; 290  : 			for (PS::CParticleGroup::SItemVecIt i_it=pG->items.begin(); i_it!=pG->items.end(); i_it++)	{

	jne	SHORT $LL1204@add_Dynami
$LN1856@add_Dynami:
; File C:\Program Files\Microsoft Visual Studio\2022\Community\VC\Tools\MSVC\14.29.30133\include\vector

; 41   :     _CONSTEXPR20_CONTAINER _Vector_const_iterator(_Tptr _Parg, const _Container_base* _Pvector) noexcept : _Ptr(_Parg) {

	movss	xmm7, DWORD PTR __real@3f000000
$LN1857@add_Dynami:
	mov	esi, DWORD PTR _i_it$1$[esp+76]
$LN1858@add_Dynami:
	mov	edi, DWORD PTR __imp_?CalculateWallmarks@CKinematics@@QAEXXZ
$LN1199@add_Dynami:

; 150  :         return _Ptr == _Right._Ptr;

	mov	eax, DWORD PTR _i_it$1$[esp+76]

; 41   :     _CONSTEXPR20_CONTAINER _Vector_const_iterator(_Tptr _Parg, const _Container_base* _Pvector) noexcept : _Ptr(_Parg) {

	mov	esi, DWORD PTR [esi+4]
	mov	DWORD PTR _pit$1$[esp+76], esi

; 150  :         return _Ptr == _Right._Ptr;

	cmp	esi, DWORD PTR [eax+8]
; File I:\Vitalya\mine\NSProjectX\layers\xrRender\r__dsgraph_build.cpp

; 454  : 					for (xr_vector<IRender_Visual*>::iterator pit = I._children_related.begin();	pit!=I._children_related.end(); pit++)	add_leafs_Dynamic(*pit);

	je	$LN14@add_Dynami
	npad	1
$LL15@add_Dynami:
	mov	ebp, DWORD PTR [esi]

; 280  : 	if (0==pVisual)				return;

	test	ebp, ebp
	je	$LN13@add_Dynami

; 281  : 
; 282  : 	// Visual is 100% visible - simply add it
; 283  : 	xr_vector<IRender_Visual*>::iterator I,E;	// it may be useful for 'hierrarhy' visual
; 284  : 
; 285  : 	switch (pVisual->Type) {

	mov	ecx, DWORD PTR [ebp+4]
	dec	ecx
	cmp	ecx, 9
	ja	$LN1393@add_Dynami
	movzx	ecx, BYTE PTR $LN1848@add_Dynami[ecx]
	jmp	DWORD PTR $LN1849@add_Dynami[ecx*4]
$LN1220@add_Dynami:

; 303  : 			E = pV->children.end	();

	mov	edi, DWORD PTR [ebp+72]

; 304  : 			for (; I!=E; I++)	add_leafs_Dynamic	(*I);

	mov	esi, DWORD PTR [ebp+68]
	cmp	esi, edi
	je	SHORT $LN1857@add_Dynami
	npad	1
$LL1213@add_Dynami:
	push	DWORD PTR [esi]
	mov	ecx, ebx
	call	?add_leafs_Dynamic@CRender@@AAEXPAVIRender_Visual@@@Z ; CRender::add_leafs_Dynamic
; File C:\Program Files\Microsoft Visual Studio\2022\Community\VC\Tools\MSVC\14.29.30133\include\vector

; 74   :         ++_Ptr;

	add	esi, 4
; File I:\Vitalya\mine\NSProjectX\layers\xrRender\r__dsgraph_build.cpp

; 304  : 			for (; I!=E; I++)	add_leafs_Dynamic	(*I);

	cmp	esi, edi
	jne	SHORT $LL1213@add_Dynami

; 305  : 		}
; 306  : 		return;

	jmp	SHORT $LN1856@add_Dynami
$LN1221@add_Dynami:

; 307  : 	case MT_SKELETON_ANIM:
; 308  : 	case MT_SKELETON_RIGID:
; 309  : 		{
; 310  : 			// Add all children, doesn't perform any tests
; 311  : 			CKinematics * pV			= (CKinematics*)pVisual;
; 312  : 			BOOL	_use_lod			= FALSE	;
; 313  : 			if (pV->m_lod)				

	mov	edx, DWORD PTR [ebp+84]
	test	edx, edx
	je	$LN1225@add_Dynami

; 314  : 			{
; 315  : 				Fvector							Tpos;	float		D;
; 316  : 				val_pTransform->transform_tiny	(Tpos, pV->vis.sphere.P);

	mov	ecx, DWORD PTR [ebx+264]
; File I:\Vitalya\mine\NSProjectX\xrCore\_matrix.h

; 499  : 		dest.x = v.x*_11 + v.y*_21 + v.z*_31 + _41;

	movss	xmm4, DWORD PTR [ebp+12]
	movss	xmm6, DWORD PTR [ebp+8]

; 500  : 		dest.y = v.x*_12 + v.y*_22 + v.z*_32 + _42;

	movaps	xmm0, xmm4
	movss	xmm5, DWORD PTR [ebp+16]
	movaps	xmm1, xmm6
	mulss	xmm0, DWORD PTR [ecx+20]
; File I:\Vitalya\mine\NSProjectX\layers\xrRender\r__dsgraph_build.cpp

; 31   : 	distSQ	= Device.vCameraPosition.distance_to_sqr(C)+EPS;

	mov	eax, DWORD PTR __imp_?Device@@3VCRenderDevice@@A
; File I:\Vitalya\mine\NSProjectX\xrCore\_matrix.h

; 500  : 		dest.y = v.x*_12 + v.y*_22 + v.z*_32 + _42;

	mulss	xmm1, DWORD PTR [ecx+4]
; File I:\Vitalya\mine\NSProjectX\xrCore\_vector3d.h

; 287  : 	{	return (x-v.x)*(x-v.x) + (y-v.y)*(y-v.y) + (z-v.z)*(z-v.z);	}

	movss	xmm3, DWORD PTR [eax+492]
; File I:\Vitalya\mine\NSProjectX\xrCore\_matrix.h

; 500  : 		dest.y = v.x*_12 + v.y*_22 + v.z*_32 + _42;

	addss	xmm1, xmm0
; File I:\Vitalya\mine\NSProjectX\xrCore\_vector3d.h

; 287  : 	{	return (x-v.x)*(x-v.x) + (y-v.y)*(y-v.y) + (z-v.z)*(z-v.z);	}

	movss	xmm2, DWORD PTR [eax+488]
; File I:\Vitalya\mine\NSProjectX\xrCore\_matrix.h

; 500  : 		dest.y = v.x*_12 + v.y*_22 + v.z*_32 + _42;

	movaps	xmm0, xmm5
	mulss	xmm0, DWORD PTR [ecx+36]
	addss	xmm0, DWORD PTR [ecx+52]
	addss	xmm1, xmm0
	movaps	xmm0, xmm6
	mulss	xmm0, DWORD PTR [ecx]

; 501  : 		dest.z = v.x*_13 + v.y*_23 + v.z*_33 + _43;

	mulss	xmm6, DWORD PTR [ecx+8]
; File I:\Vitalya\mine\NSProjectX\xrCore\_vector3d.h

; 287  : 	{	return (x-v.x)*(x-v.x) + (y-v.y)*(y-v.y) + (z-v.z)*(z-v.z);	}

	subss	xmm3, xmm1
; File I:\Vitalya\mine\NSProjectX\xrCore\_matrix.h

; 499  : 		dest.x = v.x*_11 + v.y*_21 + v.z*_31 + _41;

	movaps	xmm1, xmm4
	mulss	xmm1, DWORD PTR [ecx+16]

; 501  : 		dest.z = v.x*_13 + v.y*_23 + v.z*_33 + _43;

	mulss	xmm4, DWORD PTR [ecx+24]
	addss	xmm1, xmm0
; File I:\Vitalya\mine\NSProjectX\xrCore\_vector3d.h

; 287  : 	{	return (x-v.x)*(x-v.x) + (y-v.y)*(y-v.y) + (z-v.z)*(z-v.z);	}

	mulss	xmm3, xmm3
; File I:\Vitalya\mine\NSProjectX\xrCore\_matrix.h

; 499  : 		dest.x = v.x*_11 + v.y*_21 + v.z*_31 + _41;

	movaps	xmm0, xmm5

; 501  : 		dest.z = v.x*_13 + v.y*_23 + v.z*_33 + _43;

	mulss	xmm5, DWORD PTR [ecx+40]
	mulss	xmm0, DWORD PTR [ecx+32]
	addss	xmm6, xmm4
	addss	xmm5, DWORD PTR [ecx+56]
	addss	xmm0, DWORD PTR [ecx+48]
	addss	xmm6, xmm5
	addss	xmm1, xmm0
; File I:\Vitalya\mine\NSProjectX\xrCore\_vector3d.h

; 287  : 	{	return (x-v.x)*(x-v.x) + (y-v.y)*(y-v.y) + (z-v.z)*(z-v.z);	}

	movss	xmm0, DWORD PTR [eax+496]
	subss	xmm0, xmm6
	subss	xmm2, xmm1
; File I:\Vitalya\mine\NSProjectX\layers\xrRender\r__dsgraph_build.cpp

; 317  : 				float		ssa		=	CalcSSA	(D,Tpos,pV->vis.sphere.R/2.f);	// assume dynamics never consume full sphere

	movss	xmm1, DWORD PTR [ebp+20]
	mulss	xmm1, xmm7
; File I:\Vitalya\mine\NSProjectX\xrCore\_vector3d.h

; 287  : 	{	return (x-v.x)*(x-v.x) + (y-v.y)*(y-v.y) + (z-v.z)*(z-v.z);	}

	mulss	xmm0, xmm0
	mulss	xmm2, xmm2
; File I:\Vitalya\mine\NSProjectX\layers\xrRender\r__dsgraph_build.cpp

; 31   : 	distSQ	= Device.vCameraPosition.distance_to_sqr(C)+EPS;

	addss	xmm0, DWORD PTR __real@3727c5ac
	addss	xmm2, xmm3
	addss	xmm2, xmm0

; 318  : 				if (ssa<r_ssaLOD_A)	_use_lod	= TRUE;

	movss	xmm0, DWORD PTR ?r_ssaLOD_A@@3MA

; 32   : 	return	R/distSQ;

	divss	xmm1, xmm2

; 318  : 				if (ssa<r_ssaLOD_A)	_use_lod	= TRUE;

	comiss	xmm0, xmm1
	jbe	SHORT $LN1225@add_Dynami

; 319  : 			}
; 320  : 			if (_use_lod)				
; 321  : 			{
; 322  : 				add_leafs_Dynamic			(pV->m_lod)		;

	push	edx
	mov	ecx, ebx
	call	?add_leafs_Dynamic@CRender@@AAEXPAVIRender_Visual@@@Z ; CRender::add_leafs_Dynamic

; 323  : 			} else {

	movss	xmm7, DWORD PTR __real@3f000000
	jmp	$LN1199@add_Dynami
$LN1225@add_Dynami:

; 324  : 				pV->CalculateBones			(TRUE);

	mov	eax, DWORD PTR [ebp]
	mov	ecx, ebp
	push	1
	call	DWORD PTR [eax+64]

; 325  : 				pV->CalculateWallmarks		();		//. bug?

	mov	ecx, ebp
	call	edi

; 326  : 				I = pV->children.begin		();
; 327  : 				E = pV->children.end		();

	mov	edi, DWORD PTR [ebp+72]

; 328  : 				for (; I!=E; I++)	add_leafs_Dynamic	(*I);

	mov	esi, DWORD PTR [ebp+68]
	cmp	esi, edi
	je	$LN1856@add_Dynami
$LL1216@add_Dynami:
	push	DWORD PTR [esi]
	mov	ecx, ebx
	call	?add_leafs_Dynamic@CRender@@AAEXPAVIRender_Visual@@@Z ; CRender::add_leafs_Dynamic
; File C:\Program Files\Microsoft Visual Studio\2022\Community\VC\Tools\MSVC\14.29.30133\include\vector

; 74   :         ++_Ptr;

	add	esi, 4
; File I:\Vitalya\mine\NSProjectX\layers\xrRender\r__dsgraph_build.cpp

; 328  : 				for (; I!=E; I++)	add_leafs_Dynamic	(*I);

	cmp	esi, edi
	jne	SHORT $LL1216@add_Dynami

; 329  : 			}
; 330  : 		}
; 331  : 		return;

	jmp	$LN1856@add_Dynami
$LN1227@add_Dynami:

; 332  : 	default:
; 333  : 		{
; 334  : 			// General type of visual
; 335  : 			// Calculate distance to it's center
; 336  : 			Fvector							Tpos;
; 337  : 			val_pTransform->transform_tiny	(Tpos, pVisual->vis.sphere.P);

	mov	eax, DWORD PTR [ebx+264]

; 338  : 			r_dsgraph_insert_dynamic		(pVisual,Tpos);

	mov	ecx, ebx
; File I:\Vitalya\mine\NSProjectX\xrCore\_matrix.h

; 499  : 		dest.x = v.x*_11 + v.y*_21 + v.z*_31 + _41;

	movss	xmm2, DWORD PTR [ebp+12]
	movss	xmm4, DWORD PTR [ebp+8]
	movaps	xmm1, xmm2
	movss	xmm3, DWORD PTR [ebp+16]
	movaps	xmm0, xmm4
	mulss	xmm0, DWORD PTR [eax]
	mulss	xmm1, DWORD PTR [eax+16]
	addss	xmm1, xmm0
	movaps	xmm0, xmm3
	mulss	xmm0, DWORD PTR [eax+32]
	addss	xmm0, DWORD PTR [eax+48]
	addss	xmm1, xmm0

; 500  : 		dest.y = v.x*_12 + v.y*_22 + v.z*_32 + _42;

	movaps	xmm0, xmm2
	mulss	xmm0, DWORD PTR [eax+20]

; 501  : 		dest.z = v.x*_13 + v.y*_23 + v.z*_33 + _43;

	mulss	xmm2, DWORD PTR [eax+24]
	movss	DWORD PTR _Tpos$5[esp+76], xmm1
	movaps	xmm1, xmm4
	mulss	xmm1, DWORD PTR [eax+4]
	mulss	xmm4, DWORD PTR [eax+8]
	addss	xmm1, xmm0
	movaps	xmm0, xmm3
	mulss	xmm0, DWORD PTR [eax+36]
	mulss	xmm3, DWORD PTR [eax+40]
	addss	xmm4, xmm2
	addss	xmm0, DWORD PTR [eax+52]
	addss	xmm3, DWORD PTR [eax+56]
; File I:\Vitalya\mine\NSProjectX\layers\xrRender\r__dsgraph_build.cpp

; 338  : 			r_dsgraph_insert_dynamic		(pVisual,Tpos);

	lea	eax, DWORD PTR _Tpos$5[esp+76]
	push	eax
; File I:\Vitalya\mine\NSProjectX\xrCore\_matrix.h

; 500  : 		dest.y = v.x*_12 + v.y*_22 + v.z*_32 + _42;

	addss	xmm1, xmm0
; File I:\Vitalya\mine\NSProjectX\layers\xrRender\r__dsgraph_build.cpp

; 338  : 			r_dsgraph_insert_dynamic		(pVisual,Tpos);

	push	ebp
; File I:\Vitalya\mine\NSProjectX\xrCore\_matrix.h

; 501  : 		dest.z = v.x*_13 + v.y*_23 + v.z*_33 + _43;

	addss	xmm4, xmm3
	movss	DWORD PTR _Tpos$5[esp+88], xmm1
	movss	DWORD PTR _Tpos$5[esp+92], xmm4
; File I:\Vitalya\mine\NSProjectX\layers\xrRender\r__dsgraph_build.cpp

; 338  : 			r_dsgraph_insert_dynamic		(pVisual,Tpos);

	call	?r_dsgraph_insert_dynamic@R_dsgraph_structure@@QAEXPAVIRender_Visual@@AAU?$_vector3@M@@@Z ; R_dsgraph_structure::r_dsgraph_insert_dynamic
	movss	xmm7, DWORD PTR __real@3f000000
	jmp	$LN1199@add_Dynami
$LN1384@add_Dynami:
; File C:\Program Files\Microsoft Visual Studio\2022\Community\VC\Tools\MSVC\14.29.30133\include\vector

; 41   :     _CONSTEXPR20_CONTAINER _Vector_const_iterator(_Tptr _Parg, const _Container_base* _Pvector) noexcept : _Ptr(_Parg) {

	mov	edi, DWORD PTR [ebp+92]

; 150  :         return _Ptr == _Right._Ptr;

	cmp	edi, DWORD PTR [ebp+96]
; File I:\Vitalya\mine\NSProjectX\layers\xrRender\r__dsgraph_build.cpp

; 290  : 			for (PS::CParticleGroup::SItemVecIt i_it=pG->items.begin(); i_it!=pG->items.end(); i_it++)	{

	je	SHORT $LN13@add_Dynami
	npad	6
$LL1370@add_Dynami:

; 291  : 				PS::CParticleGroup::SItem&			I		= *i_it;
; 292  : 				if (I._effect)		add_leafs_Dynamic		(I._effect);

	mov	eax, DWORD PTR [edi]
	test	eax, eax
	je	SHORT $LN1385@add_Dynami
	push	eax
	mov	ecx, ebx
	call	?add_leafs_Dynamic@CRender@@AAEXPAVIRender_Visual@@@Z ; CRender::add_leafs_Dynamic
$LN1385@add_Dynami:
; File C:\Program Files\Microsoft Visual Studio\2022\Community\VC\Tools\MSVC\14.29.30133\include\vector

; 41   :     _CONSTEXPR20_CONTAINER _Vector_const_iterator(_Tptr _Parg, const _Container_base* _Pvector) noexcept : _Ptr(_Parg) {

	mov	esi, DWORD PTR [edi+4]

; 150  :         return _Ptr == _Right._Ptr;

	cmp	esi, DWORD PTR [edi+8]
; File I:\Vitalya\mine\NSProjectX\layers\xrRender\r__dsgraph_build.cpp

; 293  : 				for (xr_vector<IRender_Visual*>::iterator pit = I._children_related.begin();	pit!=I._children_related.end(); pit++)	add_leafs_Dynamic(*pit);

	je	SHORT $LN1840@add_Dynami
$LL1373@add_Dynami:
	push	DWORD PTR [esi]
	mov	ecx, ebx
	call	?add_leafs_Dynamic@CRender@@AAEXPAVIRender_Visual@@@Z ; CRender::add_leafs_Dynamic
; File C:\Program Files\Microsoft Visual Studio\2022\Community\VC\Tools\MSVC\14.29.30133\include\vector

; 74   :         ++_Ptr;

	add	esi, 4

; 150  :         return _Ptr == _Right._Ptr;

	cmp	esi, DWORD PTR [edi+8]
; File I:\Vitalya\mine\NSProjectX\layers\xrRender\r__dsgraph_build.cpp

; 293  : 				for (xr_vector<IRender_Visual*>::iterator pit = I._children_related.begin();	pit!=I._children_related.end(); pit++)	add_leafs_Dynamic(*pit);

	jne	SHORT $LL1373@add_Dynami
$LN1840@add_Dynami:
; File C:\Program Files\Microsoft Visual Studio\2022\Community\VC\Tools\MSVC\14.29.30133\include\vector

; 41   :     _CONSTEXPR20_CONTAINER _Vector_const_iterator(_Tptr _Parg, const _Container_base* _Pvector) noexcept : _Ptr(_Parg) {

	mov	esi, DWORD PTR [edi+16]

; 150  :         return _Ptr == _Right._Ptr;

	cmp	esi, DWORD PTR [edi+20]
; File I:\Vitalya\mine\NSProjectX\layers\xrRender\r__dsgraph_build.cpp

; 294  : 				for (xr_vector<IRender_Visual*>::iterator pit = I._children_free.begin();		pit!=I._children_free.end();	pit++)	add_leafs_Dynamic(*pit);

	je	SHORT $LN1368@add_Dynami
	npad	1
$LL1376@add_Dynami:
	push	DWORD PTR [esi]
	mov	ecx, ebx
	call	?add_leafs_Dynamic@CRender@@AAEXPAVIRender_Visual@@@Z ; CRender::add_leafs_Dynamic
; File C:\Program Files\Microsoft Visual Studio\2022\Community\VC\Tools\MSVC\14.29.30133\include\vector

; 74   :         ++_Ptr;

	add	esi, 4

; 150  :         return _Ptr == _Right._Ptr;

	cmp	esi, DWORD PTR [edi+20]
; File I:\Vitalya\mine\NSProjectX\layers\xrRender\r__dsgraph_build.cpp

; 294  : 				for (xr_vector<IRender_Visual*>::iterator pit = I._children_free.begin();		pit!=I._children_free.end();	pit++)	add_leafs_Dynamic(*pit);

	jne	SHORT $LL1376@add_Dynami
$LN1368@add_Dynami:
; File C:\Program Files\Microsoft Visual Studio\2022\Community\VC\Tools\MSVC\14.29.30133\include\vector

; 74   :         ++_Ptr;

	add	edi, 28					; 0000001cH

; 150  :         return _Ptr == _Right._Ptr;

	cmp	edi, DWORD PTR [ebp+96]
; File I:\Vitalya\mine\NSProjectX\layers\xrRender\r__dsgraph_build.cpp

; 290  : 			for (PS::CParticleGroup::SItemVecIt i_it=pG->items.begin(); i_it!=pG->items.end(); i_it++)	{

	jne	SHORT $LL1370@add_Dynami
$LN1852@add_Dynami:
; File C:\Program Files\Microsoft Visual Studio\2022\Community\VC\Tools\MSVC\14.29.30133\include\vector

; 74   :         ++_Ptr;

	mov	eax, DWORD PTR _i_it$1$[esp+76]
$LN1853@add_Dynami:
	mov	esi, DWORD PTR _pit$1$[esp+76]
$LN13@add_Dynami:
; File I:\Vitalya\mine\NSProjectX\layers\xrRender\r__dsgraph_build.cpp

; 454  : 					for (xr_vector<IRender_Visual*>::iterator pit = I._children_related.begin();	pit!=I._children_related.end(); pit++)	add_leafs_Dynamic(*pit);

	movss	xmm7, DWORD PTR __real@3f000000
; File C:\Program Files\Microsoft Visual Studio\2022\Community\VC\Tools\MSVC\14.29.30133\include\vector

; 74   :         ++_Ptr;

	add	esi, 4
; File I:\Vitalya\mine\NSProjectX\layers\xrRender\r__dsgraph_build.cpp

; 454  : 					for (xr_vector<IRender_Visual*>::iterator pit = I._children_related.begin();	pit!=I._children_related.end(); pit++)	add_leafs_Dynamic(*pit);

	mov	edi, DWORD PTR __imp_?CalculateWallmarks@CKinematics@@QAEXXZ
; File C:\Program Files\Microsoft Visual Studio\2022\Community\VC\Tools\MSVC\14.29.30133\include\vector

; 74   :         ++_Ptr;

	mov	DWORD PTR _pit$1$[esp+76], esi

; 150  :         return _Ptr == _Right._Ptr;

	cmp	esi, DWORD PTR [eax+8]
; File I:\Vitalya\mine\NSProjectX\layers\xrRender\r__dsgraph_build.cpp

; 454  : 					for (xr_vector<IRender_Visual*>::iterator pit = I._children_related.begin();	pit!=I._children_related.end(); pit++)	add_leafs_Dynamic(*pit);

	jne	$LL15@add_Dynami
$LN14@add_Dynami:
; File C:\Program Files\Microsoft Visual Studio\2022\Community\VC\Tools\MSVC\14.29.30133\include\vector

; 41   :     _CONSTEXPR20_CONTAINER _Vector_const_iterator(_Tptr _Parg, const _Container_base* _Pvector) noexcept : _Ptr(_Parg) {

	mov	esi, DWORD PTR _i_it$1$[esp+76]

; 150  :         return _Ptr == _Right._Ptr;

	mov	eax, DWORD PTR _i_it$1$[esp+76]

; 41   :     _CONSTEXPR20_CONTAINER _Vector_const_iterator(_Tptr _Parg, const _Container_base* _Pvector) noexcept : _Ptr(_Parg) {

	mov	esi, DWORD PTR [esi+16]
	mov	DWORD PTR _pit$1$[esp+76], esi

; 150  :         return _Ptr == _Right._Ptr;

	cmp	esi, DWORD PTR [eax+20]
; File I:\Vitalya\mine\NSProjectX\layers\xrRender\r__dsgraph_build.cpp

; 455  : 					for (xr_vector<IRender_Visual*>::iterator pit = I._children_free.begin();		pit!=I._children_free.end();	pit++)	add_leafs_Dynamic(*pit);

	je	$LN4@add_Dynami
	npad	9
$LL18@add_Dynami:
	mov	ebp, DWORD PTR [esi]

; 280  : 	if (0==pVisual)				return;

	test	ebp, ebp
	je	$LN16@add_Dynami

; 281  : 
; 282  : 	// Visual is 100% visible - simply add it
; 283  : 	xr_vector<IRender_Visual*>::iterator I,E;	// it may be useful for 'hierrarhy' visual
; 284  : 
; 285  : 	switch (pVisual->Type) {

	mov	ecx, DWORD PTR [ebp+4]
	dec	ecx
	cmp	ecx, 9
	ja	$LN1559@add_Dynami
	movzx	ecx, BYTE PTR $LN1850@add_Dynami[ecx]
	jmp	DWORD PTR $LN1851@add_Dynami[ecx*4]
$LN1386@add_Dynami:

; 303  : 			E = pV->children.end	();

	mov	edi, DWORD PTR [ebp+72]

; 304  : 			for (; I!=E; I++)	add_leafs_Dynamic	(*I);

	mov	esi, DWORD PTR [ebp+68]
	cmp	esi, edi
	je	SHORT $LN1853@add_Dynami
	npad	1
$LL1379@add_Dynami:
	push	DWORD PTR [esi]
	mov	ecx, ebx
	call	?add_leafs_Dynamic@CRender@@AAEXPAVIRender_Visual@@@Z ; CRender::add_leafs_Dynamic
; File C:\Program Files\Microsoft Visual Studio\2022\Community\VC\Tools\MSVC\14.29.30133\include\vector

; 74   :         ++_Ptr;

	add	esi, 4
; File I:\Vitalya\mine\NSProjectX\layers\xrRender\r__dsgraph_build.cpp

; 304  : 			for (; I!=E; I++)	add_leafs_Dynamic	(*I);

	cmp	esi, edi
	jne	SHORT $LL1379@add_Dynami

; 305  : 		}
; 306  : 		return;

	jmp	$LN1852@add_Dynami
$LN1387@add_Dynami:

; 307  : 	case MT_SKELETON_ANIM:
; 308  : 	case MT_SKELETON_RIGID:
; 309  : 		{
; 310  : 			// Add all children, doesn't perform any tests
; 311  : 			CKinematics * pV			= (CKinematics*)pVisual;
; 312  : 			BOOL	_use_lod			= FALSE	;
; 313  : 			if (pV->m_lod)				

	mov	edx, DWORD PTR [ebp+84]
	test	edx, edx
	je	$LN1391@add_Dynami

; 314  : 			{
; 315  : 				Fvector							Tpos;	float		D;
; 316  : 				val_pTransform->transform_tiny	(Tpos, pV->vis.sphere.P);

	mov	ecx, DWORD PTR [ebx+264]
; File I:\Vitalya\mine\NSProjectX\xrCore\_matrix.h

; 499  : 		dest.x = v.x*_11 + v.y*_21 + v.z*_31 + _41;

	movss	xmm4, DWORD PTR [ebp+12]
	movss	xmm6, DWORD PTR [ebp+8]

; 500  : 		dest.y = v.x*_12 + v.y*_22 + v.z*_32 + _42;

	movaps	xmm0, xmm4
	movss	xmm5, DWORD PTR [ebp+16]
	movaps	xmm1, xmm6
	mulss	xmm0, DWORD PTR [ecx+20]
; File I:\Vitalya\mine\NSProjectX\layers\xrRender\r__dsgraph_build.cpp

; 31   : 	distSQ	= Device.vCameraPosition.distance_to_sqr(C)+EPS;

	mov	eax, DWORD PTR __imp_?Device@@3VCRenderDevice@@A
; File I:\Vitalya\mine\NSProjectX\xrCore\_matrix.h

; 500  : 		dest.y = v.x*_12 + v.y*_22 + v.z*_32 + _42;

	mulss	xmm1, DWORD PTR [ecx+4]
; File I:\Vitalya\mine\NSProjectX\xrCore\_vector3d.h

; 287  : 	{	return (x-v.x)*(x-v.x) + (y-v.y)*(y-v.y) + (z-v.z)*(z-v.z);	}

	movss	xmm3, DWORD PTR [eax+492]
; File I:\Vitalya\mine\NSProjectX\xrCore\_matrix.h

; 500  : 		dest.y = v.x*_12 + v.y*_22 + v.z*_32 + _42;

	addss	xmm1, xmm0
; File I:\Vitalya\mine\NSProjectX\xrCore\_vector3d.h

; 287  : 	{	return (x-v.x)*(x-v.x) + (y-v.y)*(y-v.y) + (z-v.z)*(z-v.z);	}

	movss	xmm2, DWORD PTR [eax+488]
; File I:\Vitalya\mine\NSProjectX\xrCore\_matrix.h

; 500  : 		dest.y = v.x*_12 + v.y*_22 + v.z*_32 + _42;

	movaps	xmm0, xmm5
	mulss	xmm0, DWORD PTR [ecx+36]
	addss	xmm0, DWORD PTR [ecx+52]
	addss	xmm1, xmm0
	movaps	xmm0, xmm6
	mulss	xmm0, DWORD PTR [ecx]

; 501  : 		dest.z = v.x*_13 + v.y*_23 + v.z*_33 + _43;

	mulss	xmm6, DWORD PTR [ecx+8]
; File I:\Vitalya\mine\NSProjectX\xrCore\_vector3d.h

; 287  : 	{	return (x-v.x)*(x-v.x) + (y-v.y)*(y-v.y) + (z-v.z)*(z-v.z);	}

	subss	xmm3, xmm1
; File I:\Vitalya\mine\NSProjectX\xrCore\_matrix.h

; 499  : 		dest.x = v.x*_11 + v.y*_21 + v.z*_31 + _41;

	movaps	xmm1, xmm4
	mulss	xmm1, DWORD PTR [ecx+16]

; 501  : 		dest.z = v.x*_13 + v.y*_23 + v.z*_33 + _43;

	mulss	xmm4, DWORD PTR [ecx+24]
	addss	xmm1, xmm0
; File I:\Vitalya\mine\NSProjectX\xrCore\_vector3d.h

; 287  : 	{	return (x-v.x)*(x-v.x) + (y-v.y)*(y-v.y) + (z-v.z)*(z-v.z);	}

	mulss	xmm3, xmm3
; File I:\Vitalya\mine\NSProjectX\xrCore\_matrix.h

; 499  : 		dest.x = v.x*_11 + v.y*_21 + v.z*_31 + _41;

	movaps	xmm0, xmm5

; 501  : 		dest.z = v.x*_13 + v.y*_23 + v.z*_33 + _43;

	mulss	xmm5, DWORD PTR [ecx+40]
	mulss	xmm0, DWORD PTR [ecx+32]
	addss	xmm6, xmm4
	addss	xmm5, DWORD PTR [ecx+56]
	addss	xmm0, DWORD PTR [ecx+48]
	addss	xmm6, xmm5
	addss	xmm1, xmm0
; File I:\Vitalya\mine\NSProjectX\xrCore\_vector3d.h

; 287  : 	{	return (x-v.x)*(x-v.x) + (y-v.y)*(y-v.y) + (z-v.z)*(z-v.z);	}

	movss	xmm0, DWORD PTR [eax+496]
	subss	xmm0, xmm6
	subss	xmm2, xmm1
; File I:\Vitalya\mine\NSProjectX\layers\xrRender\r__dsgraph_build.cpp

; 317  : 				float		ssa		=	CalcSSA	(D,Tpos,pV->vis.sphere.R/2.f);	// assume dynamics never consume full sphere

	movss	xmm1, DWORD PTR [ebp+20]
	mulss	xmm1, xmm7
; File I:\Vitalya\mine\NSProjectX\xrCore\_vector3d.h

; 287  : 	{	return (x-v.x)*(x-v.x) + (y-v.y)*(y-v.y) + (z-v.z)*(z-v.z);	}

	mulss	xmm0, xmm0
	mulss	xmm2, xmm2
; File I:\Vitalya\mine\NSProjectX\layers\xrRender\r__dsgraph_build.cpp

; 31   : 	distSQ	= Device.vCameraPosition.distance_to_sqr(C)+EPS;

	addss	xmm0, DWORD PTR __real@3727c5ac
	addss	xmm2, xmm3
	addss	xmm2, xmm0

; 318  : 				if (ssa<r_ssaLOD_A)	_use_lod	= TRUE;

	movss	xmm0, DWORD PTR ?r_ssaLOD_A@@3MA

; 32   : 	return	R/distSQ;

	divss	xmm1, xmm2

; 318  : 				if (ssa<r_ssaLOD_A)	_use_lod	= TRUE;

	comiss	xmm0, xmm1
	jbe	SHORT $LN1391@add_Dynami

; 319  : 			}
; 320  : 			if (_use_lod)				
; 321  : 			{
; 322  : 				add_leafs_Dynamic			(pV->m_lod)		;

	push	edx
	mov	ecx, ebx
	call	?add_leafs_Dynamic@CRender@@AAEXPAVIRender_Visual@@@Z ; CRender::add_leafs_Dynamic

; 323  : 			} else {

	mov	eax, DWORD PTR _i_it$1$[esp+76]
	jmp	$LN13@add_Dynami
$LN1391@add_Dynami:

; 324  : 				pV->CalculateBones			(TRUE);

	mov	eax, DWORD PTR [ebp]
	mov	ecx, ebp
	push	1
	call	DWORD PTR [eax+64]

; 325  : 				pV->CalculateWallmarks		();		//. bug?

	mov	ecx, ebp
	call	edi

; 326  : 				I = pV->children.begin		();
; 327  : 				E = pV->children.end		();

	mov	edi, DWORD PTR [ebp+72]

; 328  : 				for (; I!=E; I++)	add_leafs_Dynamic	(*I);

	mov	esi, DWORD PTR [ebp+68]
	cmp	esi, edi
	je	$LN1852@add_Dynami
$LL1382@add_Dynami:
	push	DWORD PTR [esi]
	mov	ecx, ebx
	call	?add_leafs_Dynamic@CRender@@AAEXPAVIRender_Visual@@@Z ; CRender::add_leafs_Dynamic
; File C:\Program Files\Microsoft Visual Studio\2022\Community\VC\Tools\MSVC\14.29.30133\include\vector

; 74   :         ++_Ptr;

	add	esi, 4
; File I:\Vitalya\mine\NSProjectX\layers\xrRender\r__dsgraph_build.cpp

; 328  : 				for (; I!=E; I++)	add_leafs_Dynamic	(*I);

	cmp	esi, edi
	jne	SHORT $LL1382@add_Dynami

; 329  : 			}
; 330  : 		}
; 331  : 		return;

	jmp	$LN1852@add_Dynami
$LN1393@add_Dynami:

; 332  : 	default:
; 333  : 		{
; 334  : 			// General type of visual
; 335  : 			// Calculate distance to it's center
; 336  : 			Fvector							Tpos;
; 337  : 			val_pTransform->transform_tiny	(Tpos, pVisual->vis.sphere.P);

	mov	eax, DWORD PTR [ebx+264]

; 338  : 			r_dsgraph_insert_dynamic		(pVisual,Tpos);

	mov	ecx, ebx
; File I:\Vitalya\mine\NSProjectX\xrCore\_matrix.h

; 499  : 		dest.x = v.x*_11 + v.y*_21 + v.z*_31 + _41;

	movss	xmm2, DWORD PTR [ebp+12]
	movss	xmm4, DWORD PTR [ebp+8]
	movaps	xmm1, xmm2
	movss	xmm3, DWORD PTR [ebp+16]
	movaps	xmm0, xmm4
	mulss	xmm0, DWORD PTR [eax]
	mulss	xmm1, DWORD PTR [eax+16]
	addss	xmm1, xmm0
	movaps	xmm0, xmm3
	mulss	xmm0, DWORD PTR [eax+32]
	addss	xmm0, DWORD PTR [eax+48]
	addss	xmm1, xmm0

; 500  : 		dest.y = v.x*_12 + v.y*_22 + v.z*_32 + _42;

	movaps	xmm0, xmm2
	mulss	xmm0, DWORD PTR [eax+20]

; 501  : 		dest.z = v.x*_13 + v.y*_23 + v.z*_33 + _43;

	mulss	xmm2, DWORD PTR [eax+24]
	movss	DWORD PTR _Tpos$6[esp+76], xmm1
	movaps	xmm1, xmm4
	mulss	xmm1, DWORD PTR [eax+4]
	mulss	xmm4, DWORD PTR [eax+8]
	addss	xmm1, xmm0
	movaps	xmm0, xmm3
	mulss	xmm0, DWORD PTR [eax+36]
	mulss	xmm3, DWORD PTR [eax+40]
	addss	xmm4, xmm2
	addss	xmm0, DWORD PTR [eax+52]
	addss	xmm3, DWORD PTR [eax+56]
; File I:\Vitalya\mine\NSProjectX\layers\xrRender\r__dsgraph_build.cpp

; 338  : 			r_dsgraph_insert_dynamic		(pVisual,Tpos);

	lea	eax, DWORD PTR _Tpos$6[esp+76]
	push	eax
; File I:\Vitalya\mine\NSProjectX\xrCore\_matrix.h

; 500  : 		dest.y = v.x*_12 + v.y*_22 + v.z*_32 + _42;

	addss	xmm1, xmm0
; File I:\Vitalya\mine\NSProjectX\layers\xrRender\r__dsgraph_build.cpp

; 338  : 			r_dsgraph_insert_dynamic		(pVisual,Tpos);

	push	ebp
; File I:\Vitalya\mine\NSProjectX\xrCore\_matrix.h

; 501  : 		dest.z = v.x*_13 + v.y*_23 + v.z*_33 + _43;

	addss	xmm4, xmm3
	movss	DWORD PTR _Tpos$6[esp+88], xmm1
	movss	DWORD PTR _Tpos$6[esp+92], xmm4
; File I:\Vitalya\mine\NSProjectX\layers\xrRender\r__dsgraph_build.cpp

; 338  : 			r_dsgraph_insert_dynamic		(pVisual,Tpos);

	call	?r_dsgraph_insert_dynamic@R_dsgraph_structure@@QAEXPAVIRender_Visual@@AAU?$_vector3@M@@@Z ; R_dsgraph_structure::r_dsgraph_insert_dynamic
	mov	eax, DWORD PTR _i_it$1$[esp+76]
	jmp	$LN13@add_Dynami
$LN1550@add_Dynami:
; File C:\Program Files\Microsoft Visual Studio\2022\Community\VC\Tools\MSVC\14.29.30133\include\vector

; 41   :     _CONSTEXPR20_CONTAINER _Vector_const_iterator(_Tptr _Parg, const _Container_base* _Pvector) noexcept : _Ptr(_Parg) {

	mov	edi, DWORD PTR [ebp+92]

; 150  :         return _Ptr == _Right._Ptr;

	cmp	edi, DWORD PTR [ebp+96]
; File I:\Vitalya\mine\NSProjectX\layers\xrRender\r__dsgraph_build.cpp

; 290  : 			for (PS::CParticleGroup::SItemVecIt i_it=pG->items.begin(); i_it!=pG->items.end(); i_it++)	{

	je	SHORT $LN16@add_Dynami
$LL1536@add_Dynami:

; 291  : 				PS::CParticleGroup::SItem&			I		= *i_it;
; 292  : 				if (I._effect)		add_leafs_Dynamic		(I._effect);

	mov	eax, DWORD PTR [edi]
	test	eax, eax
	je	SHORT $LN1551@add_Dynami
	push	eax
	mov	ecx, ebx
	call	?add_leafs_Dynamic@CRender@@AAEXPAVIRender_Visual@@@Z ; CRender::add_leafs_Dynamic
$LN1551@add_Dynami:
; File C:\Program Files\Microsoft Visual Studio\2022\Community\VC\Tools\MSVC\14.29.30133\include\vector

; 41   :     _CONSTEXPR20_CONTAINER _Vector_const_iterator(_Tptr _Parg, const _Container_base* _Pvector) noexcept : _Ptr(_Parg) {

	mov	esi, DWORD PTR [edi+4]

; 150  :         return _Ptr == _Right._Ptr;

	cmp	esi, DWORD PTR [edi+8]
; File I:\Vitalya\mine\NSProjectX\layers\xrRender\r__dsgraph_build.cpp

; 293  : 				for (xr_vector<IRender_Visual*>::iterator pit = I._children_related.begin();	pit!=I._children_related.end(); pit++)	add_leafs_Dynamic(*pit);

	je	SHORT $LN1842@add_Dynami
	npad	5
$LL1539@add_Dynami:
	push	DWORD PTR [esi]
	mov	ecx, ebx
	call	?add_leafs_Dynamic@CRender@@AAEXPAVIRender_Visual@@@Z ; CRender::add_leafs_Dynamic
; File C:\Program Files\Microsoft Visual Studio\2022\Community\VC\Tools\MSVC\14.29.30133\include\vector

; 74   :         ++_Ptr;

	add	esi, 4

; 150  :         return _Ptr == _Right._Ptr;

	cmp	esi, DWORD PTR [edi+8]
; File I:\Vitalya\mine\NSProjectX\layers\xrRender\r__dsgraph_build.cpp

; 293  : 				for (xr_vector<IRender_Visual*>::iterator pit = I._children_related.begin();	pit!=I._children_related.end(); pit++)	add_leafs_Dynamic(*pit);

	jne	SHORT $LL1539@add_Dynami
$LN1842@add_Dynami:
; File C:\Program Files\Microsoft Visual Studio\2022\Community\VC\Tools\MSVC\14.29.30133\include\vector

; 41   :     _CONSTEXPR20_CONTAINER _Vector_const_iterator(_Tptr _Parg, const _Container_base* _Pvector) noexcept : _Ptr(_Parg) {

	mov	esi, DWORD PTR [edi+16]

; 150  :         return _Ptr == _Right._Ptr;

	cmp	esi, DWORD PTR [edi+20]
; File I:\Vitalya\mine\NSProjectX\layers\xrRender\r__dsgraph_build.cpp

; 294  : 				for (xr_vector<IRender_Visual*>::iterator pit = I._children_free.begin();		pit!=I._children_free.end();	pit++)	add_leafs_Dynamic(*pit);

	je	SHORT $LN1534@add_Dynami
	npad	7
$LL1542@add_Dynami:
	push	DWORD PTR [esi]
	mov	ecx, ebx
	call	?add_leafs_Dynamic@CRender@@AAEXPAVIRender_Visual@@@Z ; CRender::add_leafs_Dynamic
; File C:\Program Files\Microsoft Visual Studio\2022\Community\VC\Tools\MSVC\14.29.30133\include\vector

; 74   :         ++_Ptr;

	add	esi, 4

; 150  :         return _Ptr == _Right._Ptr;

	cmp	esi, DWORD PTR [edi+20]
; File I:\Vitalya\mine\NSProjectX\layers\xrRender\r__dsgraph_build.cpp

; 294  : 				for (xr_vector<IRender_Visual*>::iterator pit = I._children_free.begin();		pit!=I._children_free.end();	pit++)	add_leafs_Dynamic(*pit);

	jne	SHORT $LL1542@add_Dynami
$LN1534@add_Dynami:
; File C:\Program Files\Microsoft Visual Studio\2022\Community\VC\Tools\MSVC\14.29.30133\include\vector

; 74   :         ++_Ptr;

	add	edi, 28					; 0000001cH

; 150  :         return _Ptr == _Right._Ptr;

	cmp	edi, DWORD PTR [ebp+96]
; File I:\Vitalya\mine\NSProjectX\layers\xrRender\r__dsgraph_build.cpp

; 290  : 			for (PS::CParticleGroup::SItemVecIt i_it=pG->items.begin(); i_it!=pG->items.end(); i_it++)	{

	jne	SHORT $LL1536@add_Dynami
$LN1854@add_Dynami:
; File C:\Program Files\Microsoft Visual Studio\2022\Community\VC\Tools\MSVC\14.29.30133\include\vector

; 74   :         ++_Ptr;

	mov	eax, DWORD PTR _i_it$1$[esp+76]
$LN1855@add_Dynami:
	mov	esi, DWORD PTR _pit$1$[esp+76]
$LN16@add_Dynami:
	add	esi, 4
	mov	DWORD PTR _pit$1$[esp+76], esi

; 150  :         return _Ptr == _Right._Ptr;

	cmp	esi, DWORD PTR [eax+20]
; File I:\Vitalya\mine\NSProjectX\layers\xrRender\r__dsgraph_build.cpp

; 455  : 					for (xr_vector<IRender_Visual*>::iterator pit = I._children_free.begin();		pit!=I._children_free.end();	pit++)	add_leafs_Dynamic(*pit);

	jne	$LL18@add_Dynami
$LN4@add_Dynami:
; File C:\Program Files\Microsoft Visual Studio\2022\Community\VC\Tools\MSVC\14.29.30133\include\vector

; 74   :         ++_Ptr;

	mov	esi, DWORD PTR _i_it$1$[esp+76]

; 150  :         return _Ptr == _Right._Ptr;

	mov	eax, DWORD PTR _pVisual$[esp+72]

; 74   :         ++_Ptr;

	add	esi, 28					; 0000001cH
; File I:\Vitalya\mine\NSProjectX\layers\xrRender\r__dsgraph_build.cpp

; 443  : 			for (PS::CParticleGroup::SItemVecIt i_it=pG->items.begin(); i_it!=pG->items.end(); i_it++)

	movss	xmm7, DWORD PTR __real@3f000000
	mov	edi, DWORD PTR __imp_?CalculateWallmarks@CKinematics@@QAEXXZ
	mov	ecx, DWORD PTR _VIS$1$[esp+76]
; File C:\Program Files\Microsoft Visual Studio\2022\Community\VC\Tools\MSVC\14.29.30133\include\vector

; 74   :         ++_Ptr;

	mov	DWORD PTR _i_it$1$[esp+76], esi

; 150  :         return _Ptr == _Right._Ptr;

	cmp	esi, DWORD PTR [eax+96]
; File I:\Vitalya\mine\NSProjectX\layers\xrRender\r__dsgraph_build.cpp

; 443  : 			for (PS::CParticleGroup::SItemVecIt i_it=pG->items.begin(); i_it!=pG->items.end(); i_it++)

	jne	$LL6@add_Dynami

; 513  : 		}
; 514  : 		break;
; 515  : 	}
; 516  : 	return TRUE;

	pop	edi
	pop	esi
	pop	ebp
	mov	eax, 1

; 517  : }

	pop	ebx
	add	esp, 60					; 0000003cH
	ret	8
$LN1552@add_Dynami:

; 303  : 			E = pV->children.end	();

	mov	edi, DWORD PTR [ebp+72]

; 304  : 			for (; I!=E; I++)	add_leafs_Dynamic	(*I);

	mov	esi, DWORD PTR [ebp+68]
	cmp	esi, edi
	je	SHORT $LN1855@add_Dynami
$LL1545@add_Dynami:
	push	DWORD PTR [esi]
	mov	ecx, ebx
	call	?add_leafs_Dynamic@CRender@@AAEXPAVIRender_Visual@@@Z ; CRender::add_leafs_Dynamic
; File C:\Program Files\Microsoft Visual Studio\2022\Community\VC\Tools\MSVC\14.29.30133\include\vector

; 74   :         ++_Ptr;

	add	esi, 4
; File I:\Vitalya\mine\NSProjectX\layers\xrRender\r__dsgraph_build.cpp

; 304  : 			for (; I!=E; I++)	add_leafs_Dynamic	(*I);

	cmp	esi, edi
	jne	SHORT $LL1545@add_Dynami

; 305  : 		}
; 306  : 		return;

	jmp	SHORT $LN1854@add_Dynami
$LN1553@add_Dynami:

; 307  : 	case MT_SKELETON_ANIM:
; 308  : 	case MT_SKELETON_RIGID:
; 309  : 		{
; 310  : 			// Add all children, doesn't perform any tests
; 311  : 			CKinematics * pV			= (CKinematics*)pVisual;
; 312  : 			BOOL	_use_lod			= FALSE	;
; 313  : 			if (pV->m_lod)				

	mov	edx, DWORD PTR [ebp+84]
	test	edx, edx
	je	$LN1557@add_Dynami

; 314  : 			{
; 315  : 				Fvector							Tpos;	float		D;
; 316  : 				val_pTransform->transform_tiny	(Tpos, pV->vis.sphere.P);

	mov	ecx, DWORD PTR [ebx+264]
; File I:\Vitalya\mine\NSProjectX\xrCore\_matrix.h

; 499  : 		dest.x = v.x*_11 + v.y*_21 + v.z*_31 + _41;

	movss	xmm4, DWORD PTR [ebp+12]
	movss	xmm6, DWORD PTR [ebp+8]

; 500  : 		dest.y = v.x*_12 + v.y*_22 + v.z*_32 + _42;

	movaps	xmm0, xmm4
	movss	xmm5, DWORD PTR [ebp+16]
	movaps	xmm1, xmm6
	mulss	xmm0, DWORD PTR [ecx+20]
; File I:\Vitalya\mine\NSProjectX\layers\xrRender\r__dsgraph_build.cpp

; 31   : 	distSQ	= Device.vCameraPosition.distance_to_sqr(C)+EPS;

	mov	eax, DWORD PTR __imp_?Device@@3VCRenderDevice@@A
; File I:\Vitalya\mine\NSProjectX\xrCore\_matrix.h

; 500  : 		dest.y = v.x*_12 + v.y*_22 + v.z*_32 + _42;

	mulss	xmm1, DWORD PTR [ecx+4]
; File I:\Vitalya\mine\NSProjectX\xrCore\_vector3d.h

; 287  : 	{	return (x-v.x)*(x-v.x) + (y-v.y)*(y-v.y) + (z-v.z)*(z-v.z);	}

	movss	xmm3, DWORD PTR [eax+492]
; File I:\Vitalya\mine\NSProjectX\xrCore\_matrix.h

; 500  : 		dest.y = v.x*_12 + v.y*_22 + v.z*_32 + _42;

	addss	xmm1, xmm0
; File I:\Vitalya\mine\NSProjectX\xrCore\_vector3d.h

; 287  : 	{	return (x-v.x)*(x-v.x) + (y-v.y)*(y-v.y) + (z-v.z)*(z-v.z);	}

	movss	xmm2, DWORD PTR [eax+488]
; File I:\Vitalya\mine\NSProjectX\xrCore\_matrix.h

; 500  : 		dest.y = v.x*_12 + v.y*_22 + v.z*_32 + _42;

	movaps	xmm0, xmm5
	mulss	xmm0, DWORD PTR [ecx+36]
	addss	xmm0, DWORD PTR [ecx+52]
	addss	xmm1, xmm0
	movaps	xmm0, xmm6
	mulss	xmm0, DWORD PTR [ecx]

; 501  : 		dest.z = v.x*_13 + v.y*_23 + v.z*_33 + _43;

	mulss	xmm6, DWORD PTR [ecx+8]
; File I:\Vitalya\mine\NSProjectX\xrCore\_vector3d.h

; 287  : 	{	return (x-v.x)*(x-v.x) + (y-v.y)*(y-v.y) + (z-v.z)*(z-v.z);	}

	subss	xmm3, xmm1
; File I:\Vitalya\mine\NSProjectX\xrCore\_matrix.h

; 499  : 		dest.x = v.x*_11 + v.y*_21 + v.z*_31 + _41;

	movaps	xmm1, xmm4
	mulss	xmm1, DWORD PTR [ecx+16]

; 501  : 		dest.z = v.x*_13 + v.y*_23 + v.z*_33 + _43;

	mulss	xmm4, DWORD PTR [ecx+24]
	addss	xmm1, xmm0
; File I:\Vitalya\mine\NSProjectX\xrCore\_vector3d.h

; 287  : 	{	return (x-v.x)*(x-v.x) + (y-v.y)*(y-v.y) + (z-v.z)*(z-v.z);	}

	mulss	xmm3, xmm3
; File I:\Vitalya\mine\NSProjectX\xrCore\_matrix.h

; 499  : 		dest.x = v.x*_11 + v.y*_21 + v.z*_31 + _41;

	movaps	xmm0, xmm5

; 501  : 		dest.z = v.x*_13 + v.y*_23 + v.z*_33 + _43;

	mulss	xmm5, DWORD PTR [ecx+40]
	mulss	xmm0, DWORD PTR [ecx+32]
	addss	xmm6, xmm4
	addss	xmm5, DWORD PTR [ecx+56]
	addss	xmm0, DWORD PTR [ecx+48]
	addss	xmm6, xmm5
	addss	xmm1, xmm0
; File I:\Vitalya\mine\NSProjectX\xrCore\_vector3d.h

; 287  : 	{	return (x-v.x)*(x-v.x) + (y-v.y)*(y-v.y) + (z-v.z)*(z-v.z);	}

	movss	xmm0, DWORD PTR [eax+496]
	subss	xmm0, xmm6
	subss	xmm2, xmm1
; File I:\Vitalya\mine\NSProjectX\layers\xrRender\r__dsgraph_build.cpp

; 317  : 				float		ssa		=	CalcSSA	(D,Tpos,pV->vis.sphere.R/2.f);	// assume dynamics never consume full sphere

	movss	xmm1, DWORD PTR [ebp+20]
	mulss	xmm1, DWORD PTR __real@3f000000
; File I:\Vitalya\mine\NSProjectX\xrCore\_vector3d.h

; 287  : 	{	return (x-v.x)*(x-v.x) + (y-v.y)*(y-v.y) + (z-v.z)*(z-v.z);	}

	mulss	xmm0, xmm0
	mulss	xmm2, xmm2
; File I:\Vitalya\mine\NSProjectX\layers\xrRender\r__dsgraph_build.cpp

; 31   : 	distSQ	= Device.vCameraPosition.distance_to_sqr(C)+EPS;

	addss	xmm0, DWORD PTR __real@3727c5ac
	addss	xmm2, xmm3
	addss	xmm2, xmm0

; 318  : 				if (ssa<r_ssaLOD_A)	_use_lod	= TRUE;

	movss	xmm0, DWORD PTR ?r_ssaLOD_A@@3MA

; 32   : 	return	R/distSQ;

