; Listing generated by Microsoft (R) Optimizing Compiler Version 19.29.30146.0 

	TITLE	i:\vitalya\mine\nsprojectx\nspx_build\intermediate\release-win32\xrrender_r1\wallmarksengine.obj
	.686P
	.XMM
	include listing.inc
	.model	flat

INCLUDELIB OLDNAMES

PUBLIC	?g_r@@3IA					; g_r
PUBLIC	??_C@_0CE@POEPPKEP@?$CB?5Failed?5to?5render?5dynamic?5wall@ ; `string'
EXTRN	__imp_??1CSkeletonWallmark@@QAE@XZ:PROC
EXTRN	__imp_?Parent@CSkeletonWallmark@@QAEPAVCKinematics@@XZ:PROC
EXTRN	__imp_?VCount@CSkeletonWallmark@@QAEIXZ:PROC
EXTRN	__imp_?Shader@CSkeletonWallmark@@QAE?AV?$resptr_core@UShader@@Uresptrcode_shader@@@@XZ:PROC
EXTRN	__imp_?RenderWallmark@CKinematics@@QAEXV?$intrusive_ptr@VCSkeletonWallmark@@Uintrusive_base@@@@AAPAULIT@FVF@@@Z:PROC
EXTRN	__imp_?set_xform_view@CBackend@@QAEXABU?$_matrix@M@@@Z:PROC
EXTRN	__imp_?AddWallmark@CKinematics@@QAEXPBU?$_matrix@M@@ABU?$_vector3@M@@1V?$resptr_core@UShader@@Uresptrcode_shader@@@@M@Z:PROC
EXTRN	__imp_?clear@Collector@CDB@@QAEXXZ:PROC
;	COMDAT ??_C@_0CE@POEPPKEP@?$CB?5Failed?5to?5render?5dynamic?5wall@
CONST	SEGMENT
??_C@_0CE@POEPPKEP@?$CB?5Failed?5to?5render?5dynamic?5wall@ DB '! Failed '
	DB	'to render dynamic wallmark', 00H		; `string'
?g_r@@3IA DD	01H					; g_r
?_Fake_alloc@std@@3U_Fake_allocator@1@B	ORG $+1		; std::_Fake_alloc
PUBLIC	?set@LIT@FVF@@QAEXABU?$_vector3@M@@IMM@Z	; FVF::LIT::set
PUBLIC	??0?$resptr_core@USGeometry@@Uresptrcode_geom@@@@QAE@ABV0@@Z ; resptr_core<SGeometry,resptrcode_geom>::resptr_core<SGeometry,resptrcode_geom>
PUBLIC	??_GCSkeletonWallmark@@QAEPAXI@Z		; CSkeletonWallmark::`scalar deleting destructor'
PUBLIC	??R?$xr_special_free@$0A@VCSkeletonWallmark@@@@QAEXAAPAVCSkeletonWallmark@@@Z ; xr_special_free<0,CSkeletonWallmark>::operator()
PUBLIC	??$construct@ULIT@FVF@@U12@@?$_Normal_allocator_traits@V?$xalloc@ULIT@FVF@@@@@std@@SAXAAV?$xalloc@ULIT@FVF@@@@PAULIT@FVF@@$$QAU34@@Z ; std::_Normal_allocator_traits<xalloc<FVF::LIT> >::construct<FVF::LIT,FVF::LIT>
PUBLIC	??$forward@ULIT@FVF@@@std@@YA$$QAULIT@FVF@@AAU12@@Z ; std::forward<FVF::LIT>
PUBLIC	??$construct@V?$intrusive_ptr@VCSkeletonWallmark@@Uintrusive_base@@@@V1@@?$_Normal_allocator_traits@V?$xalloc@V?$intrusive_ptr@VCSkeletonWallmark@@Uintrusive_base@@@@@@@std@@SAXAAV?$xalloc@V?$intrusive_ptr@VCSkeletonWallmark@@Uintrusive_base@@@@@@PAV?$intrusive_ptr@VCSkeletonWallmark@@Uintrusive_base@@@@$$QAV3@@Z ; std::_Normal_allocator_traits<xalloc<intrusive_ptr<CSkeletonWallmark,intrusive_base> > >::construct<intrusive_ptr<CSkeletonWallmark,intrusive_base>,intrusive_ptr<CSkeletonWallmark,intrusive_base> >
PUBLIC	??$forward@V?$intrusive_ptr@VCSkeletonWallmark@@Uintrusive_base@@@@@std@@YA$$QAV?$intrusive_ptr@VCSkeletonWallmark@@Uintrusive_base@@@@AAV1@@Z ; std::forward<intrusive_ptr<CSkeletonWallmark,intrusive_base> >
PUBLIC	??$xr_delete@VCSkeletonWallmark@@@@YAXAAPAVCSkeletonWallmark@@@Z ; xr_delete<CSkeletonWallmark>
PUBLIC	??$_Destroy_in_place@PAULIT@FVF@@@std@@YAXAAPAULIT@FVF@@@Z ; std::_Destroy_in_place<FVF::LIT *>
PUBLIC	??$_Destroy_in_place@PAPAUwm_slot@WallmarksEngine@@@std@@YAXAAPAPAUwm_slot@WallmarksEngine@@@Z ; std::_Destroy_in_place<WallmarksEngine::wm_slot * *>
PUBLIC	??$_Destroy_in_place@PAV?$intrusive_ptr@VCSkeletonWallmark@@Uintrusive_base@@@@@std@@YAXAAPAV?$intrusive_ptr@VCSkeletonWallmark@@Uintrusive_base@@@@@Z ; std::_Destroy_in_place<intrusive_ptr<CSkeletonWallmark,intrusive_base> *>
PUBLIC	??$_Refancy@PAPAUwm_slot@WallmarksEngine@@$0A@@std@@YAPAPAUwm_slot@WallmarksEngine@@PAPAU12@@Z ; std::_Refancy<WallmarksEngine::wm_slot * *,0>
PUBLIC	??$_Emplace_back@ULIT@FVF@@@?$_Uninitialized_backout_al@V?$xalloc@ULIT@FVF@@@@@std@@QAEX$$QAULIT@FVF@@@Z ; std::_Uninitialized_backout_al<xalloc<FVF::LIT> >::_Emplace_back<FVF::LIT>
PUBLIC	??$move@AAULIT@FVF@@@std@@YA$$QAULIT@FVF@@AAU12@@Z ; std::move<FVF::LIT &>
PUBLIC	??$_Emplace_back@V?$intrusive_ptr@VCSkeletonWallmark@@Uintrusive_base@@@@@?$_Uninitialized_backout_al@V?$xalloc@V?$intrusive_ptr@VCSkeletonWallmark@@Uintrusive_base@@@@@@@std@@QAEX$$QAV?$intrusive_ptr@VCSkeletonWallmark@@Uintrusive_base@@@@@Z ; std::_Uninitialized_backout_al<xalloc<intrusive_ptr<CSkeletonWallmark,intrusive_base> > >::_Emplace_back<intrusive_ptr<CSkeletonWallmark,intrusive_base> >
PUBLIC	??$move@AAV?$intrusive_ptr@VCSkeletonWallmark@@Uintrusive_base@@@@@std@@YA$$QAV?$intrusive_ptr@VCSkeletonWallmark@@Uintrusive_base@@@@AAV1@@Z ; std::move<intrusive_ptr<CSkeletonWallmark,intrusive_base> &>
PUBLIC	??$construct@PAUstatic_wallmark@CWallmarksEngine@@PAU12@@?$_Normal_allocator_traits@V?$xalloc@PAUstatic_wallmark@CWallmarksEngine@@@@@std@@SAXAAV?$xalloc@PAUstatic_wallmark@CWallmarksEngine@@@@PAPAUstatic_wallmark@CWallmarksEngine@@$$QAPAU34@@Z ; std::_Normal_allocator_traits<xalloc<CWallmarksEngine::static_wallmark *> >::construct<CWallmarksEngine::static_wallmark *,CWallmarksEngine::static_wallmark *>
PUBLIC	??$forward@PAUstatic_wallmark@CWallmarksEngine@@@std@@YA$$QAPAUstatic_wallmark@CWallmarksEngine@@AAPAU12@@Z ; std::forward<CWallmarksEngine::static_wallmark *>
PUBLIC	??$construct@V?$intrusive_ptr@VCSkeletonWallmark@@Uintrusive_base@@@@AAV1@@?$_Normal_allocator_traits@V?$xalloc@V?$intrusive_ptr@VCSkeletonWallmark@@Uintrusive_base@@@@@@@std@@SAXAAV?$xalloc@V?$intrusive_ptr@VCSkeletonWallmark@@Uintrusive_base@@@@@@PAV?$intrusive_ptr@VCSkeletonWallmark@@Uintrusive_base@@@@AAV3@@Z ; std::_Normal_allocator_traits<xalloc<intrusive_ptr<CSkeletonWallmark,intrusive_base> > >::construct<intrusive_ptr<CSkeletonWallmark,intrusive_base>,intrusive_ptr<CSkeletonWallmark,intrusive_base> &>
PUBLIC	??$forward@AAV?$intrusive_ptr@VCSkeletonWallmark@@Uintrusive_base@@@@@std@@YAAAV?$intrusive_ptr@VCSkeletonWallmark@@Uintrusive_base@@@@AAV1@@Z ; std::forward<intrusive_ptr<CSkeletonWallmark,intrusive_base> &>
PUBLIC	??$forward@PAPAUwm_slot@WallmarksEngine@@@std@@YA$$QAPAPAUwm_slot@WallmarksEngine@@AAPAPAU12@@Z ; std::forward<WallmarksEngine::wm_slot * *>
PUBLIC	??$_Find_unchecked1@PAPAUwm_slot@WallmarksEngine@@V?$resptr_core@UShader@@Uresptrcode_shader@@@@@std@@YAPAPAUwm_slot@WallmarksEngine@@PAPAU12@QAPAU12@ABV?$resptr_core@UShader@@Uresptrcode_shader@@@@U?$integral_constant@_N$0A@@0@@Z ; std::_Find_unchecked1<WallmarksEngine::wm_slot * *,resptr_core<Shader,resptrcode_shader> >
PUBLIC	??$_release@VCSkeletonWallmark@@@intrusive_base@@QAEXPAVCSkeletonWallmark@@@Z ; intrusive_base::_release<CSkeletonWallmark>
PUBLIC	??0?$xalloc@ULIT@FVF@@@@QAE@XZ			; xalloc<FVF::LIT>::xalloc<FVF::LIT>
PUBLIC	?destroy@?$xalloc@ULIT@FVF@@@@QAEXPAULIT@FVF@@@Z ; xalloc<FVF::LIT>::destroy
PUBLIC	??0?$_Vector_val@U?$_Simple_types@ULIT@FVF@@@std@@@std@@QAE@XZ ; std::_Vector_val<std::_Simple_types<FVF::LIT> >::_Vector_val<std::_Simple_types<FVF::LIT> >
PUBLIC	?destroy@?$xalloc@PAUwm_slot@WallmarksEngine@@@@QAEXPAPAUwm_slot@WallmarksEngine@@@Z ; xalloc<WallmarksEngine::wm_slot *>::destroy
PUBLIC	?destroy@?$xalloc@V?$intrusive_ptr@VCSkeletonWallmark@@Uintrusive_base@@@@@@QAEXPAV?$intrusive_ptr@VCSkeletonWallmark@@Uintrusive_base@@@@@Z ; xalloc<intrusive_ptr<CSkeletonWallmark,intrusive_base> >::destroy
PUBLIC	?_Seek_to@?$_Vector_const_iterator@V?$_Vector_val@U?$_Simple_types@PAUwm_slot@WallmarksEngine@@@std@@@std@@@std@@QAEXPBQAUwm_slot@WallmarksEngine@@@Z ; std::_Vector_const_iterator<std::_Vector_val<std::_Simple_types<WallmarksEngine::wm_slot *> > >::_Seek_to
PUBLIC	??0?$_Uninitialized_backout_al@V?$xalloc@ULIT@FVF@@@@@std@@QAE@PAULIT@FVF@@AAV?$xalloc@ULIT@FVF@@@@@Z ; std::_Uninitialized_backout_al<xalloc<FVF::LIT> >::_Uninitialized_backout_al<xalloc<FVF::LIT> >
PUBLIC	??1?$_Uninitialized_backout_al@V?$xalloc@ULIT@FVF@@@@@std@@QAE@XZ ; std::_Uninitialized_backout_al<xalloc<FVF::LIT> >::~_Uninitialized_backout_al<xalloc<FVF::LIT> >
PUBLIC	?_Release@?$_Uninitialized_backout_al@V?$xalloc@ULIT@FVF@@@@@std@@QAEPAULIT@FVF@@XZ ; std::_Uninitialized_backout_al<xalloc<FVF::LIT> >::_Release
PUBLIC	??$?0$$V@?$_Compressed_pair@V?$xalloc@ULIT@FVF@@@@V?$_Vector_val@U?$_Simple_types@ULIT@FVF@@@std@@@std@@$00@std@@QAE@U_Zero_then_variadic_args_t@1@@Z ; std::_Compressed_pair<xalloc<FVF::LIT>,std::_Vector_val<std::_Simple_types<FVF::LIT> >,1>::_Compressed_pair<xalloc<FVF::LIT>,std::_Vector_val<std::_Simple_types<FVF::LIT> >,1><>
PUBLIC	??$xr_alloc@ULIT@FVF@@@@YAPAULIT@FVF@@I@Z	; xr_alloc<FVF::LIT>
PUBLIC	??$xr_free@ULIT@FVF@@@@YAXAAPAULIT@FVF@@@Z	; xr_free<FVF::LIT>
PUBLIC	??$_Get_unwrapped@ABQAULIT@FVF@@@std@@YA?A_TABQAULIT@FVF@@@Z ; std::_Get_unwrapped<FVF::LIT * const &>
PUBLIC	??$_Uninitialized_move@PAULIT@FVF@@V?$xalloc@ULIT@FVF@@@@@std@@YAPAULIT@FVF@@QAU12@0PAU12@AAV?$xalloc@ULIT@FVF@@@@@Z ; std::_Uninitialized_move<FVF::LIT *,xalloc<FVF::LIT> >
PUBLIC	??$_Destroy_in_place@PAPAUstatic_wallmark@CWallmarksEngine@@@std@@YAXAAPAPAUstatic_wallmark@CWallmarksEngine@@@Z ; std::_Destroy_in_place<CWallmarksEngine::static_wallmark * *>
PUBLIC	??$_Uninitialized_move@PAV?$intrusive_ptr@VCSkeletonWallmark@@Uintrusive_base@@@@V?$xalloc@V?$intrusive_ptr@VCSkeletonWallmark@@Uintrusive_base@@@@@@@std@@YAPAV?$intrusive_ptr@VCSkeletonWallmark@@Uintrusive_base@@@@QAV1@0PAV1@AAV?$xalloc@V?$intrusive_ptr@VCSkeletonWallmark@@Uintrusive_base@@@@@@@Z ; std::_Uninitialized_move<intrusive_ptr<CSkeletonWallmark,intrusive_base> *,xalloc<intrusive_ptr<CSkeletonWallmark,intrusive_base> > >
PUBLIC	??$destroy@ULIT@FVF@@@?$_Normal_allocator_traits@V?$xalloc@ULIT@FVF@@@@@std@@SAXAAV?$xalloc@ULIT@FVF@@@@PAULIT@FVF@@@Z ; std::_Normal_allocator_traits<xalloc<FVF::LIT> >::destroy<FVF::LIT>
PUBLIC	??$_Emplace_back@PAUstatic_wallmark@CWallmarksEngine@@@?$_Uninitialized_backout_al@V?$xalloc@PAUstatic_wallmark@CWallmarksEngine@@@@@std@@QAEX$$QAPAUstatic_wallmark@CWallmarksEngine@@@Z ; std::_Uninitialized_backout_al<xalloc<CWallmarksEngine::static_wallmark *> >::_Emplace_back<CWallmarksEngine::static_wallmark *>
PUBLIC	??$move@AAPAUstatic_wallmark@CWallmarksEngine@@@std@@YA$$QAPAUstatic_wallmark@CWallmarksEngine@@AAPAU12@@Z ; std::move<CWallmarksEngine::static_wallmark * &>
PUBLIC	??$_Emplace_back@PAUwm_slot@WallmarksEngine@@@?$_Uninitialized_backout_al@V?$xalloc@PAUwm_slot@WallmarksEngine@@@@@std@@QAEX$$QAPAUwm_slot@WallmarksEngine@@@Z ; std::_Uninitialized_backout_al<xalloc<WallmarksEngine::wm_slot *> >::_Emplace_back<WallmarksEngine::wm_slot *>
PUBLIC	??$_Emplace_back@AAV?$intrusive_ptr@VCSkeletonWallmark@@Uintrusive_base@@@@@?$_Uninitialized_backout_al@V?$xalloc@V?$intrusive_ptr@VCSkeletonWallmark@@Uintrusive_base@@@@@@@std@@QAEXAAV?$intrusive_ptr@VCSkeletonWallmark@@Uintrusive_base@@@@@Z ; std::_Uninitialized_backout_al<xalloc<intrusive_ptr<CSkeletonWallmark,intrusive_base> > >::_Emplace_back<intrusive_ptr<CSkeletonWallmark,intrusive_base> &>
PUBLIC	??$destroy@PAUwm_slot@WallmarksEngine@@@?$_Normal_allocator_traits@V?$xalloc@PAUwm_slot@WallmarksEngine@@@@@std@@SAXAAV?$xalloc@PAUwm_slot@WallmarksEngine@@@@PAPAUwm_slot@WallmarksEngine@@@Z ; std::_Normal_allocator_traits<xalloc<WallmarksEngine::wm_slot *> >::destroy<WallmarksEngine::wm_slot *>
PUBLIC	??$destroy@V?$intrusive_ptr@VCSkeletonWallmark@@Uintrusive_base@@@@@?$_Normal_allocator_traits@V?$xalloc@V?$intrusive_ptr@VCSkeletonWallmark@@Uintrusive_base@@@@@@@std@@SAXAAV?$xalloc@V?$intrusive_ptr@VCSkeletonWallmark@@Uintrusive_base@@@@@@PAV?$intrusive_ptr@VCSkeletonWallmark@@Uintrusive_base@@@@@Z ; std::_Normal_allocator_traits<xalloc<intrusive_ptr<CSkeletonWallmark,intrusive_base> > >::destroy<intrusive_ptr<CSkeletonWallmark,intrusive_base> >
PUBLIC	??$_Seek_wrapped@V?$_Vector_iterator@V?$_Vector_val@U?$_Simple_types@PAUwm_slot@WallmarksEngine@@@std@@@std@@@std@@PAPAUwm_slot@WallmarksEngine@@@std@@YAXAAV?$_Vector_iterator@V?$_Vector_val@U?$_Simple_types@PAUwm_slot@WallmarksEngine@@@std@@@std@@@0@$$QAPAPAUwm_slot@WallmarksEngine@@@Z ; std::_Seek_wrapped<std::_Vector_iterator<std::_Vector_val<std::_Simple_types<WallmarksEngine::wm_slot *> > >,WallmarksEngine::wm_slot * *>
PUBLIC	??$_Find_unchecked@PAPAUwm_slot@WallmarksEngine@@V?$resptr_core@UShader@@Uresptrcode_shader@@@@@std@@YAPAPAUwm_slot@WallmarksEngine@@QAPAU12@0ABV?$resptr_core@UShader@@Uresptrcode_shader@@@@@Z ; std::_Find_unchecked<WallmarksEngine::wm_slot * *,resptr_core<Shader,resptrcode_shader> >
PUBLIC	??$_Adl_verify_range@V?$_Vector_iterator@V?$_Vector_val@U?$_Simple_types@PAUwm_slot@WallmarksEngine@@@std@@@std@@@std@@V12@@std@@YAXABV?$_Vector_iterator@V?$_Vector_val@U?$_Simple_types@PAUwm_slot@WallmarksEngine@@@std@@@std@@@0@0@Z ; std::_Adl_verify_range<std::_Vector_iterator<std::_Vector_val<std::_Simple_types<WallmarksEngine::wm_slot *> > >,std::_Vector_iterator<std::_Vector_val<std::_Simple_types<WallmarksEngine::wm_slot *> > > >
PUBLIC	?set@?$intrusive_ptr@VCSkeletonWallmark@@Uintrusive_base@@@@QAEXABV1@@Z ; intrusive_ptr<CSkeletonWallmark,intrusive_base>::set
PUBLIC	?dec@?$intrusive_ptr@VCSkeletonWallmark@@Uintrusive_base@@@@IAEXXZ ; intrusive_ptr<CSkeletonWallmark,intrusive_base>::dec
PUBLIC	?max_size@?$xalloc@ULIT@FVF@@@@QBEIXZ		; xalloc<FVF::LIT>::max_size
PUBLIC	?_Get_first@?$_Compressed_pair@V?$xalloc@ULIT@FVF@@@@V?$_Vector_val@U?$_Simple_types@ULIT@FVF@@@std@@@std@@$00@std@@QBEABV?$xalloc@ULIT@FVF@@@@XZ ; std::_Compressed_pair<xalloc<FVF::LIT>,std::_Vector_val<std::_Simple_types<FVF::LIT> >,1>::_Get_first
PUBLIC	?max_size@?$_Normal_allocator_traits@V?$xalloc@ULIT@FVF@@@@@std@@SAIABV?$xalloc@ULIT@FVF@@@@@Z ; std::_Normal_allocator_traits<xalloc<FVF::LIT> >::max_size
PUBLIC	??0?$vector@ULIT@FVF@@V?$xalloc@ULIT@FVF@@@@@std@@QAE@XZ ; std::vector<FVF::LIT,xalloc<FVF::LIT> >::vector<FVF::LIT,xalloc<FVF::LIT> >
PUBLIC	?capacity@?$vector@ULIT@FVF@@V?$xalloc@ULIT@FVF@@@@@std@@QBEIXZ ; std::vector<FVF::LIT,xalloc<FVF::LIT> >::capacity
PUBLIC	?_Umove_if_noexcept1@?$vector@ULIT@FVF@@V?$xalloc@ULIT@FVF@@@@@std@@AAEXPAULIT@FVF@@00U?$integral_constant@_N$00@2@@Z ; std::vector<FVF::LIT,xalloc<FVF::LIT> >::_Umove_if_noexcept1
PUBLIC	?_Tidy@?$vector@ULIT@FVF@@V?$xalloc@ULIT@FVF@@@@@std@@AAEXXZ ; std::vector<FVF::LIT,xalloc<FVF::LIT> >::_Tidy
PUBLIC	?_Getal@?$vector@ULIT@FVF@@V?$xalloc@ULIT@FVF@@@@@std@@ABEABV?$xalloc@ULIT@FVF@@@@XZ ; std::vector<FVF::LIT,xalloc<FVF::LIT> >::_Getal
PUBLIC	??1wm_slot@WallmarksEngine@@QAE@XZ		; WallmarksEngine::wm_slot::~wm_slot
PUBLIC	??1static_wallmark@CWallmarksEngine@@QAE@XZ	; CWallmarksEngine::static_wallmark::~static_wallmark
PUBLIC	??_Gwm_slot@WallmarksEngine@@QAEPAXI@Z		; WallmarksEngine::wm_slot::`scalar deleting destructor'
PUBLIC	??_Gstatic_wallmark@CWallmarksEngine@@QAEPAXI@Z	; CWallmarksEngine::static_wallmark::`scalar deleting destructor'
PUBLIC	?allocate@?$xalloc@ULIT@FVF@@@@QBEPAULIT@FVF@@IPBX@Z ; xalloc<FVF::LIT>::allocate
PUBLIC	?deallocate@?$xalloc@ULIT@FVF@@@@QBEXPAULIT@FVF@@I@Z ; xalloc<FVF::LIT>::deallocate
PUBLIC	?construct@?$xalloc@ULIT@FVF@@@@QAEXPAULIT@FVF@@ABU23@@Z ; xalloc<FVF::LIT>::construct
PUBLIC	??1?$vector@ULIT@FVF@@V?$xalloc@ULIT@FVF@@@@@std@@QAE@XZ ; std::vector<FVF::LIT,xalloc<FVF::LIT> >::~vector<FVF::LIT,xalloc<FVF::LIT> >
PUBLIC	?max_size@?$vector@ULIT@FVF@@V?$xalloc@ULIT@FVF@@@@@std@@QBEIXZ ; std::vector<FVF::LIT,xalloc<FVF::LIT> >::max_size
PUBLIC	?_Umove@?$vector@ULIT@FVF@@V?$xalloc@ULIT@FVF@@@@@std@@AAEPAULIT@FVF@@PAU34@00@Z ; std::vector<FVF::LIT,xalloc<FVF::LIT> >::_Umove
PUBLIC	?_Umove_if_noexcept@?$vector@ULIT@FVF@@V?$xalloc@ULIT@FVF@@@@@std@@AAEXPAULIT@FVF@@00@Z ; std::vector<FVF::LIT,xalloc<FVF::LIT> >::_Umove_if_noexcept
PUBLIC	?_Calculate_growth@?$vector@ULIT@FVF@@V?$xalloc@ULIT@FVF@@@@@std@@ABEII@Z ; std::vector<FVF::LIT,xalloc<FVF::LIT> >::_Calculate_growth
PUBLIC	?_Change_array@?$vector@ULIT@FVF@@V?$xalloc@ULIT@FVF@@@@@std@@AAEXQAULIT@FVF@@II@Z ; std::vector<FVF::LIT,xalloc<FVF::LIT> >::_Change_array
PUBLIC	?_Xlength@?$vector@ULIT@FVF@@V?$xalloc@ULIT@FVF@@@@@std@@CAXXZ ; std::vector<FVF::LIT,xalloc<FVF::LIT> >::_Xlength
PUBLIC	??0?$xr_vector@ULIT@FVF@@V?$xalloc@ULIT@FVF@@@@@@QAE@XZ ; xr_vector<FVF::LIT,xalloc<FVF::LIT> >::xr_vector<FVF::LIT,xalloc<FVF::LIT> >
PUBLIC	??0?$xalloc@PAUstatic_wallmark@CWallmarksEngine@@@@QAE@XZ ; xalloc<CWallmarksEngine::static_wallmark *>::xalloc<CWallmarksEngine::static_wallmark *>
PUBLIC	?construct@?$xalloc@PAUstatic_wallmark@CWallmarksEngine@@@@QAEXPAPAUstatic_wallmark@CWallmarksEngine@@ABQAU23@@Z ; xalloc<CWallmarksEngine::static_wallmark *>::construct
PUBLIC	?destroy@?$xalloc@PAUstatic_wallmark@CWallmarksEngine@@@@QAEXPAPAUstatic_wallmark@CWallmarksEngine@@@Z ; xalloc<CWallmarksEngine::static_wallmark *>::destroy
PUBLIC	?_Umove@?$vector@PAUstatic_wallmark@CWallmarksEngine@@V?$xalloc@PAUstatic_wallmark@CWallmarksEngine@@@@@std@@AAEPAPAUstatic_wallmark@CWallmarksEngine@@PAPAU34@00@Z ; std::vector<CWallmarksEngine::static_wallmark *,xalloc<CWallmarksEngine::static_wallmark *> >::_Umove
PUBLIC	?_Calculate_growth@?$vector@PAUstatic_wallmark@CWallmarksEngine@@V?$xalloc@PAUstatic_wallmark@CWallmarksEngine@@@@@std@@ABEII@Z ; std::vector<CWallmarksEngine::static_wallmark *,xalloc<CWallmarksEngine::static_wallmark *> >::_Calculate_growth
PUBLIC	??0?$_Vector_val@U?$_Simple_types@PAUstatic_wallmark@CWallmarksEngine@@@std@@@std@@QAE@XZ ; std::_Vector_val<std::_Simple_types<CWallmarksEngine::static_wallmark *> >::_Vector_val<std::_Simple_types<CWallmarksEngine::static_wallmark *> >
PUBLIC	??0?$xalloc@PAUwm_slot@WallmarksEngine@@@@QAE@XZ ; xalloc<WallmarksEngine::wm_slot *>::xalloc<WallmarksEngine::wm_slot *>
PUBLIC	?construct@?$xalloc@PAUwm_slot@WallmarksEngine@@@@QAEXPAPAUwm_slot@WallmarksEngine@@ABQAU23@@Z ; xalloc<WallmarksEngine::wm_slot *>::construct
PUBLIC	?_Umove@?$vector@PAUwm_slot@WallmarksEngine@@V?$xalloc@PAUwm_slot@WallmarksEngine@@@@@std@@AAEPAPAUwm_slot@WallmarksEngine@@PAPAU34@00@Z ; std::vector<WallmarksEngine::wm_slot *,xalloc<WallmarksEngine::wm_slot *> >::_Umove
PUBLIC	?_Calculate_growth@?$vector@PAUwm_slot@WallmarksEngine@@V?$xalloc@PAUwm_slot@WallmarksEngine@@@@@std@@ABEII@Z ; std::vector<WallmarksEngine::wm_slot *,xalloc<WallmarksEngine::wm_slot *> >::_Calculate_growth
PUBLIC	??0?$_Vector_val@U?$_Simple_types@PAUwm_slot@WallmarksEngine@@@std@@@std@@QAE@XZ ; std::_Vector_val<std::_Simple_types<WallmarksEngine::wm_slot *> >::_Vector_val<std::_Simple_types<WallmarksEngine::wm_slot *> >
PUBLIC	??0?$xalloc@V?$intrusive_ptr@VCSkeletonWallmark@@Uintrusive_base@@@@@@QAE@XZ ; xalloc<intrusive_ptr<CSkeletonWallmark,intrusive_base> >::xalloc<intrusive_ptr<CSkeletonWallmark,intrusive_base> >
PUBLIC	?construct@?$xalloc@V?$intrusive_ptr@VCSkeletonWallmark@@Uintrusive_base@@@@@@QAEXPAV?$intrusive_ptr@VCSkeletonWallmark@@Uintrusive_base@@@@ABV2@@Z ; xalloc<intrusive_ptr<CSkeletonWallmark,intrusive_base> >::construct
PUBLIC	?_Umove@?$vector@V?$intrusive_ptr@VCSkeletonWallmark@@Uintrusive_base@@@@V?$xalloc@V?$intrusive_ptr@VCSkeletonWallmark@@Uintrusive_base@@@@@@@std@@AAEPAV?$intrusive_ptr@VCSkeletonWallmark@@Uintrusive_base@@@@PAV3@00@Z ; std::vector<intrusive_ptr<CSkeletonWallmark,intrusive_base>,xalloc<intrusive_ptr<CSkeletonWallmark,intrusive_base> > >::_Umove
PUBLIC	?_Calculate_growth@?$vector@V?$intrusive_ptr@VCSkeletonWallmark@@Uintrusive_base@@@@V?$xalloc@V?$intrusive_ptr@VCSkeletonWallmark@@Uintrusive_base@@@@@@@std@@ABEII@Z ; std::vector<intrusive_ptr<CSkeletonWallmark,intrusive_base>,xalloc<intrusive_ptr<CSkeletonWallmark,intrusive_base> > >::_Calculate_growth
PUBLIC	??0?$_Vector_val@U?$_Simple_types@V?$intrusive_ptr@VCSkeletonWallmark@@Uintrusive_base@@@@@std@@@std@@QAE@XZ ; std::_Vector_val<std::_Simple_types<intrusive_ptr<CSkeletonWallmark,intrusive_base> > >::_Vector_val<std::_Simple_types<intrusive_ptr<CSkeletonWallmark,intrusive_base> > >
PUBLIC	?_Unwrapped@?$_Vector_iterator@V?$_Vector_val@U?$_Simple_types@PAUwm_slot@WallmarksEngine@@@std@@@std@@@std@@QBEPAPAUwm_slot@WallmarksEngine@@XZ ; std::_Vector_iterator<std::_Vector_val<std::_Simple_types<WallmarksEngine::wm_slot *> > >::_Unwrapped
PUBLIC	??R?$xr_special_free@$0A@Uwm_slot@WallmarksEngine@@@@QAEXAAPAUwm_slot@WallmarksEngine@@@Z ; xr_special_free<0,WallmarksEngine::wm_slot>::operator()
PUBLIC	??R?$xr_special_free@$0A@Ustatic_wallmark@CWallmarksEngine@@@@QAEXAAPAUstatic_wallmark@CWallmarksEngine@@@Z ; xr_special_free<0,CWallmarksEngine::static_wallmark>::operator()
PUBLIC	??0?$_Uninitialized_backout_al@V?$xalloc@V?$intrusive_ptr@VCSkeletonWallmark@@Uintrusive_base@@@@@@@std@@QAE@PAV?$intrusive_ptr@VCSkeletonWallmark@@Uintrusive_base@@@@AAV?$xalloc@V?$intrusive_ptr@VCSkeletonWallmark@@Uintrusive_base@@@@@@@Z ; std::_Uninitialized_backout_al<xalloc<intrusive_ptr<CSkeletonWallmark,intrusive_base> > >::_Uninitialized_backout_al<xalloc<intrusive_ptr<CSkeletonWallmark,intrusive_base> > >
PUBLIC	??1?$_Uninitialized_backout_al@V?$xalloc@V?$intrusive_ptr@VCSkeletonWallmark@@Uintrusive_base@@@@@@@std@@QAE@XZ ; std::_Uninitialized_backout_al<xalloc<intrusive_ptr<CSkeletonWallmark,intrusive_base> > >::~_Uninitialized_backout_al<xalloc<intrusive_ptr<CSkeletonWallmark,intrusive_base> > >
PUBLIC	?_Release@?$_Uninitialized_backout_al@V?$xalloc@V?$intrusive_ptr@VCSkeletonWallmark@@Uintrusive_base@@@@@@@std@@QAEPAV?$intrusive_ptr@VCSkeletonWallmark@@Uintrusive_base@@@@XZ ; std::_Uninitialized_backout_al<xalloc<intrusive_ptr<CSkeletonWallmark,intrusive_base> > >::_Release
PUBLIC	??0?$_Uninitialized_backout_al@V?$xalloc@PAUwm_slot@WallmarksEngine@@@@@std@@QAE@PAPAUwm_slot@WallmarksEngine@@AAV?$xalloc@PAUwm_slot@WallmarksEngine@@@@@Z ; std::_Uninitialized_backout_al<xalloc<WallmarksEngine::wm_slot *> >::_Uninitialized_backout_al<xalloc<WallmarksEngine::wm_slot *> >
PUBLIC	??1?$_Uninitialized_backout_al@V?$xalloc@PAUwm_slot@WallmarksEngine@@@@@std@@QAE@XZ ; std::_Uninitialized_backout_al<xalloc<WallmarksEngine::wm_slot *> >::~_Uninitialized_backout_al<xalloc<WallmarksEngine::wm_slot *> >
PUBLIC	?_Release@?$_Uninitialized_backout_al@V?$xalloc@PAUwm_slot@WallmarksEngine@@@@@std@@QAEPAPAUwm_slot@WallmarksEngine@@XZ ; std::_Uninitialized_backout_al<xalloc<WallmarksEngine::wm_slot *> >::_Release
PUBLIC	??0?$_Uninitialized_backout_al@V?$xalloc@PAUstatic_wallmark@CWallmarksEngine@@@@@std@@QAE@PAPAUstatic_wallmark@CWallmarksEngine@@AAV?$xalloc@PAUstatic_wallmark@CWallmarksEngine@@@@@Z ; std::_Uninitialized_backout_al<xalloc<CWallmarksEngine::static_wallmark *> >::_Uninitialized_backout_al<xalloc<CWallmarksEngine::static_wallmark *> >
PUBLIC	??1?$_Uninitialized_backout_al@V?$xalloc@PAUstatic_wallmark@CWallmarksEngine@@@@@std@@QAE@XZ ; std::_Uninitialized_backout_al<xalloc<CWallmarksEngine::static_wallmark *> >::~_Uninitialized_backout_al<xalloc<CWallmarksEngine::static_wallmark *> >
PUBLIC	?_Release@?$_Uninitialized_backout_al@V?$xalloc@PAUstatic_wallmark@CWallmarksEngine@@@@@std@@QAEPAPAUstatic_wallmark@CWallmarksEngine@@XZ ; std::_Uninitialized_backout_al<xalloc<CWallmarksEngine::static_wallmark *> >::_Release
PUBLIC	??1?$xr_vector@ULIT@FVF@@V?$xalloc@ULIT@FVF@@@@@@QAE@XZ ; xr_vector<FVF::LIT,xalloc<FVF::LIT> >::~xr_vector<FVF::LIT,xalloc<FVF::LIT> >
PUBLIC	??0static_wallmark@CWallmarksEngine@@QAE@XZ	; CWallmarksEngine::static_wallmark::static_wallmark
PUBLIC	??$_Destroy_range@V?$xalloc@ULIT@FVF@@@@@std@@YAXPAULIT@FVF@@QAU12@AAV?$xalloc@ULIT@FVF@@@@@Z ; std::_Destroy_range<xalloc<FVF::LIT> >
PUBLIC	??$_Get_unwrapped@ABQAPAUstatic_wallmark@CWallmarksEngine@@@std@@YA?A_TABQAPAUstatic_wallmark@CWallmarksEngine@@@Z ; std::_Get_unwrapped<CWallmarksEngine::static_wallmark * * const &>
PUBLIC	??$_Uninitialized_move@PAPAUstatic_wallmark@CWallmarksEngine@@V?$xalloc@PAUstatic_wallmark@CWallmarksEngine@@@@@std@@YAPAPAUstatic_wallmark@CWallmarksEngine@@QAPAU12@0PAPAU12@AAV?$xalloc@PAUstatic_wallmark@CWallmarksEngine@@@@@Z ; std::_Uninitialized_move<CWallmarksEngine::static_wallmark * *,xalloc<CWallmarksEngine::static_wallmark *> >
PUBLIC	??$_Get_unwrapped@ABQAPAUwm_slot@WallmarksEngine@@@std@@YA?A_TABQAPAUwm_slot@WallmarksEngine@@@Z ; std::_Get_unwrapped<WallmarksEngine::wm_slot * * const &>
PUBLIC	??$_Uninitialized_move@PAPAUwm_slot@WallmarksEngine@@V?$xalloc@PAUwm_slot@WallmarksEngine@@@@@std@@YAPAPAUwm_slot@WallmarksEngine@@QAPAU12@0PAPAU12@AAV?$xalloc@PAUwm_slot@WallmarksEngine@@@@@Z ; std::_Uninitialized_move<WallmarksEngine::wm_slot * *,xalloc<WallmarksEngine::wm_slot *> >
PUBLIC	??$_Get_unwrapped@ABQAV?$intrusive_ptr@VCSkeletonWallmark@@Uintrusive_base@@@@@std@@YA?A_TABQAV?$intrusive_ptr@VCSkeletonWallmark@@Uintrusive_base@@@@@Z ; std::_Get_unwrapped<intrusive_ptr<CSkeletonWallmark,intrusive_base> * const &>
PUBLIC	??$_Uninitialized_copy@PAV?$intrusive_ptr@VCSkeletonWallmark@@Uintrusive_base@@@@V?$xalloc@V?$intrusive_ptr@VCSkeletonWallmark@@Uintrusive_base@@@@@@@std@@YAPAV?$intrusive_ptr@VCSkeletonWallmark@@Uintrusive_base@@@@QAV1@0PAV1@AAV?$xalloc@V?$intrusive_ptr@VCSkeletonWallmark@@Uintrusive_base@@@@@@@Z ; std::_Uninitialized_copy<intrusive_ptr<CSkeletonWallmark,intrusive_base> *,xalloc<intrusive_ptr<CSkeletonWallmark,intrusive_base> > >
PUBLIC	??$xr_alloc@PAUstatic_wallmark@CWallmarksEngine@@@@YAPAPAUstatic_wallmark@CWallmarksEngine@@I@Z ; xr_alloc<CWallmarksEngine::static_wallmark *>
PUBLIC	??$xr_free@PAUstatic_wallmark@CWallmarksEngine@@@@YAXAAPAPAUstatic_wallmark@CWallmarksEngine@@@Z ; xr_free<CWallmarksEngine::static_wallmark *>
PUBLIC	??$_Destroy_range@V?$xalloc@PAUstatic_wallmark@CWallmarksEngine@@@@@std@@YAXPAPAUstatic_wallmark@CWallmarksEngine@@QAPAU12@AAV?$xalloc@PAUstatic_wallmark@CWallmarksEngine@@@@@Z ; std::_Destroy_range<xalloc<CWallmarksEngine::static_wallmark *> >
PUBLIC	??$xr_alloc@PAUwm_slot@WallmarksEngine@@@@YAPAPAUwm_slot@WallmarksEngine@@I@Z ; xr_alloc<WallmarksEngine::wm_slot *>
PUBLIC	??$xr_free@PAUwm_slot@WallmarksEngine@@@@YAXAAPAPAUwm_slot@WallmarksEngine@@@Z ; xr_free<WallmarksEngine::wm_slot *>
PUBLIC	??$_Destroy_range@V?$xalloc@PAUwm_slot@WallmarksEngine@@@@@std@@YAXPAPAUwm_slot@WallmarksEngine@@QAPAU12@AAV?$xalloc@PAUwm_slot@WallmarksEngine@@@@@Z ; std::_Destroy_range<xalloc<WallmarksEngine::wm_slot *> >
PUBLIC	??$xr_alloc@V?$intrusive_ptr@VCSkeletonWallmark@@Uintrusive_base@@@@@@YAPAV?$intrusive_ptr@VCSkeletonWallmark@@Uintrusive_base@@@@I@Z ; xr_alloc<intrusive_ptr<CSkeletonWallmark,intrusive_base> >
PUBLIC	??$xr_free@V?$intrusive_ptr@VCSkeletonWallmark@@Uintrusive_base@@@@@@YAXAAPAV?$intrusive_ptr@VCSkeletonWallmark@@Uintrusive_base@@@@@Z ; xr_free<intrusive_ptr<CSkeletonWallmark,intrusive_base> >
PUBLIC	??$_Destroy_range@V?$xalloc@V?$intrusive_ptr@VCSkeletonWallmark@@Uintrusive_base@@@@@@@std@@YAXPAV?$intrusive_ptr@VCSkeletonWallmark@@Uintrusive_base@@@@QAV1@AAV?$xalloc@V?$intrusive_ptr@VCSkeletonWallmark@@Uintrusive_base@@@@@@@Z ; std::_Destroy_range<xalloc<intrusive_ptr<CSkeletonWallmark,intrusive_base> > >
PUBLIC	??$?0$$V@?$_Compressed_pair@V?$xalloc@PAUstatic_wallmark@CWallmarksEngine@@@@V?$_Vector_val@U?$_Simple_types@PAUstatic_wallmark@CWallmarksEngine@@@std@@@std@@$00@std@@QAE@U_Zero_then_variadic_args_t@1@@Z ; std::_Compressed_pair<xalloc<CWallmarksEngine::static_wallmark *>,std::_Vector_val<std::_Simple_types<CWallmarksEngine::static_wallmark *> >,1>::_Compressed_pair<xalloc<CWallmarksEngine::static_wallmark *>,std::_Vector_val<std::_Simple_types<CWallmarksEngine::static_wallmark *> >,1><>
PUBLIC	??$?0$$V@?$_Compressed_pair@V?$xalloc@PAUwm_slot@WallmarksEngine@@@@V?$_Vector_val@U?$_Simple_types@PAUwm_slot@WallmarksEngine@@@std@@@std@@$00@std@@QAE@U_Zero_then_variadic_args_t@1@@Z ; std::_Compressed_pair<xalloc<WallmarksEngine::wm_slot *>,std::_Vector_val<std::_Simple_types<WallmarksEngine::wm_slot *> >,1>::_Compressed_pair<xalloc<WallmarksEngine::wm_slot *>,std::_Vector_val<std::_Simple_types<WallmarksEngine::wm_slot *> >,1><>
PUBLIC	??$?0$$V@?$_Compressed_pair@V?$xalloc@V?$intrusive_ptr@VCSkeletonWallmark@@Uintrusive_base@@@@@@V?$_Vector_val@U?$_Simple_types@V?$intrusive_ptr@VCSkeletonWallmark@@Uintrusive_base@@@@@std@@@std@@$00@std@@QAE@U_Zero_then_variadic_args_t@1@@Z ; std::_Compressed_pair<xalloc<intrusive_ptr<CSkeletonWallmark,intrusive_base> >,std::_Vector_val<std::_Simple_types<intrusive_ptr<CSkeletonWallmark,intrusive_base> > >,1>::_Compressed_pair<xalloc<intrusive_ptr<CSkeletonWallmark,intrusive_base> >,std::_Vector_val<std::_Simple_types<intrusive_ptr<CSkeletonWallmark,intrusive_base> > >,1><>
PUBLIC	??$_Emplace_reallocate@ABULIT@FVF@@@?$vector@ULIT@FVF@@V?$xalloc@ULIT@FVF@@@@@std@@QAEPAULIT@FVF@@QAU23@ABU23@@Z ; std::vector<FVF::LIT,xalloc<FVF::LIT> >::_Emplace_reallocate<FVF::LIT const &>
PUBLIC	??$construct@ULIT@FVF@@ABU12@@?$_Normal_allocator_traits@V?$xalloc@ULIT@FVF@@@@@std@@SAXAAV?$xalloc@ULIT@FVF@@@@PAULIT@FVF@@ABU34@@Z ; std::_Normal_allocator_traits<xalloc<FVF::LIT> >::construct<FVF::LIT,FVF::LIT const &>
PUBLIC	??$_Unfancy@ULIT@FVF@@@std@@YAPAULIT@FVF@@PAU12@@Z ; std::_Unfancy<FVF::LIT>
PUBLIC	??$forward@ABULIT@FVF@@@std@@YAABULIT@FVF@@ABU12@@Z ; std::forward<FVF::LIT const &>
PUBLIC	??$addressof@V?$_Vector_val@U?$_Simple_types@ULIT@FVF@@@std@@@std@@@std@@YAPAV?$_Vector_val@U?$_Simple_types@ULIT@FVF@@@std@@@0@AAV10@@Z ; std::addressof<std::_Vector_val<std::_Simple_types<FVF::LIT> > >
PUBLIC	??$_Emplace_reallocate@ABQAUstatic_wallmark@CWallmarksEngine@@@?$vector@PAUstatic_wallmark@CWallmarksEngine@@V?$xalloc@PAUstatic_wallmark@CWallmarksEngine@@@@@std@@QAEPAPAUstatic_wallmark@CWallmarksEngine@@QAPAU23@ABQAU23@@Z ; std::vector<CWallmarksEngine::static_wallmark *,xalloc<CWallmarksEngine::static_wallmark *> >::_Emplace_reallocate<CWallmarksEngine::static_wallmark * const &>
PUBLIC	??$construct@PAUstatic_wallmark@CWallmarksEngine@@ABQAU12@@?$_Normal_allocator_traits@V?$xalloc@PAUstatic_wallmark@CWallmarksEngine@@@@@std@@SAXAAV?$xalloc@PAUstatic_wallmark@CWallmarksEngine@@@@PAPAUstatic_wallmark@CWallmarksEngine@@ABQAU34@@Z ; std::_Normal_allocator_traits<xalloc<CWallmarksEngine::static_wallmark *> >::construct<CWallmarksEngine::static_wallmark *,CWallmarksEngine::static_wallmark * const &>
PUBLIC	??$forward@ABQAUstatic_wallmark@CWallmarksEngine@@@std@@YAABQAUstatic_wallmark@CWallmarksEngine@@ABQAU12@@Z ; std::forward<CWallmarksEngine::static_wallmark * const &>
PUBLIC	??$destroy@PAUstatic_wallmark@CWallmarksEngine@@@?$_Normal_allocator_traits@V?$xalloc@PAUstatic_wallmark@CWallmarksEngine@@@@@std@@SAXAAV?$xalloc@PAUstatic_wallmark@CWallmarksEngine@@@@PAPAUstatic_wallmark@CWallmarksEngine@@@Z ; std::_Normal_allocator_traits<xalloc<CWallmarksEngine::static_wallmark *> >::destroy<CWallmarksEngine::static_wallmark *>
PUBLIC	??$_Unfancy@PAUstatic_wallmark@CWallmarksEngine@@@std@@YAPAPAUstatic_wallmark@CWallmarksEngine@@PAPAU12@@Z ; std::_Unfancy<CWallmarksEngine::static_wallmark *>
PUBLIC	??$addressof@V?$_Vector_val@U?$_Simple_types@PAUstatic_wallmark@CWallmarksEngine@@@std@@@std@@@std@@YAPAV?$_Vector_val@U?$_Simple_types@PAUstatic_wallmark@CWallmarksEngine@@@std@@@0@AAV10@@Z ; std::addressof<std::_Vector_val<std::_Simple_types<CWallmarksEngine::static_wallmark *> > >
PUBLIC	??$_Emplace_reallocate@PAUwm_slot@WallmarksEngine@@@?$vector@PAUwm_slot@WallmarksEngine@@V?$xalloc@PAUwm_slot@WallmarksEngine@@@@@std@@QAEPAPAUwm_slot@WallmarksEngine@@QAPAU23@$$QAPAU23@@Z ; std::vector<WallmarksEngine::wm_slot *,xalloc<WallmarksEngine::wm_slot *> >::_Emplace_reallocate<WallmarksEngine::wm_slot *>
PUBLIC	??$construct@PAUwm_slot@WallmarksEngine@@PAU12@@?$_Normal_allocator_traits@V?$xalloc@PAUwm_slot@WallmarksEngine@@@@@std@@SAXAAV?$xalloc@PAUwm_slot@WallmarksEngine@@@@PAPAUwm_slot@WallmarksEngine@@$$QAPAU34@@Z ; std::_Normal_allocator_traits<xalloc<WallmarksEngine::wm_slot *> >::construct<WallmarksEngine::wm_slot *,WallmarksEngine::wm_slot *>
PUBLIC	??$_Unfancy@PAUwm_slot@WallmarksEngine@@@std@@YAPAPAUwm_slot@WallmarksEngine@@PAPAU12@@Z ; std::_Unfancy<WallmarksEngine::wm_slot *>
PUBLIC	??$forward@PAUwm_slot@WallmarksEngine@@@std@@YA$$QAPAUwm_slot@WallmarksEngine@@AAPAU12@@Z ; std::forward<WallmarksEngine::wm_slot *>
PUBLIC	??$move@AAPAUwm_slot@WallmarksEngine@@@std@@YA$$QAPAUwm_slot@WallmarksEngine@@AAPAU12@@Z ; std::move<WallmarksEngine::wm_slot * &>
PUBLIC	??$addressof@V?$_Vector_val@U?$_Simple_types@PAUwm_slot@WallmarksEngine@@@std@@@std@@@std@@YAPAV?$_Vector_val@U?$_Simple_types@PAUwm_slot@WallmarksEngine@@@std@@@0@AAV10@@Z ; std::addressof<std::_Vector_val<std::_Simple_types<WallmarksEngine::wm_slot *> > >
PUBLIC	??$_Emplace_reallocate@ABV?$intrusive_ptr@VCSkeletonWallmark@@Uintrusive_base@@@@@?$vector@V?$intrusive_ptr@VCSkeletonWallmark@@Uintrusive_base@@@@V?$xalloc@V?$intrusive_ptr@VCSkeletonWallmark@@Uintrusive_base@@@@@@@std@@QAEPAV?$intrusive_ptr@VCSkeletonWallmark@@Uintrusive_base@@@@QAV2@ABV2@@Z ; std::vector<intrusive_ptr<CSkeletonWallmark,intrusive_base>,xalloc<intrusive_ptr<CSkeletonWallmark,intrusive_base> > >::_Emplace_reallocate<intrusive_ptr<CSkeletonWallmark,intrusive_base> const &>
PUBLIC	??$construct@V?$intrusive_ptr@VCSkeletonWallmark@@Uintrusive_base@@@@ABV1@@?$_Normal_allocator_traits@V?$xalloc@V?$intrusive_ptr@VCSkeletonWallmark@@Uintrusive_base@@@@@@@std@@SAXAAV?$xalloc@V?$intrusive_ptr@VCSkeletonWallmark@@Uintrusive_base@@@@@@PAV?$intrusive_ptr@VCSkeletonWallmark@@Uintrusive_base@@@@ABV3@@Z ; std::_Normal_allocator_traits<xalloc<intrusive_ptr<CSkeletonWallmark,intrusive_base> > >::construct<intrusive_ptr<CSkeletonWallmark,intrusive_base>,intrusive_ptr<CSkeletonWallmark,intrusive_base> const &>
PUBLIC	??$_Unfancy@V?$intrusive_ptr@VCSkeletonWallmark@@Uintrusive_base@@@@@std@@YAPAV?$intrusive_ptr@VCSkeletonWallmark@@Uintrusive_base@@@@PAV1@@Z ; std::_Unfancy<intrusive_ptr<CSkeletonWallmark,intrusive_base> >
PUBLIC	??$forward@ABV?$intrusive_ptr@VCSkeletonWallmark@@Uintrusive_base@@@@@std@@YAABV?$intrusive_ptr@VCSkeletonWallmark@@Uintrusive_base@@@@ABV1@@Z ; std::forward<intrusive_ptr<CSkeletonWallmark,intrusive_base> const &>
PUBLIC	??$addressof@V?$_Vector_val@U?$_Simple_types@V?$intrusive_ptr@VCSkeletonWallmark@@Uintrusive_base@@@@@std@@@std@@@std@@YAPAV?$_Vector_val@U?$_Simple_types@V?$intrusive_ptr@VCSkeletonWallmark@@Uintrusive_base@@@@@std@@@0@AAV10@@Z ; std::addressof<std::_Vector_val<std::_Simple_types<intrusive_ptr<CSkeletonWallmark,intrusive_base> > > >
PUBLIC	??$xr_new@Ustatic_wallmark@CWallmarksEngine@@@@YAPAUstatic_wallmark@CWallmarksEngine@@XZ ; xr_new<CWallmarksEngine::static_wallmark>
PUBLIC	??$xr_delete@Ustatic_wallmark@CWallmarksEngine@@@@YAXAAPAUstatic_wallmark@CWallmarksEngine@@@Z ; xr_delete<CWallmarksEngine::static_wallmark>
PUBLIC	??$xr_delete@Uwm_slot@WallmarksEngine@@@@YAXAAPAUwm_slot@WallmarksEngine@@@Z ; xr_delete<WallmarksEngine::wm_slot>
PUBLIC	??$xr_new@Uwm_slot@WallmarksEngine@@V?$resptr_core@UShader@@Uresptrcode_shader@@@@@@YAPAUwm_slot@WallmarksEngine@@ABV?$resptr_core@UShader@@Uresptrcode_shader@@@@@Z ; xr_new<WallmarksEngine::wm_slot,resptr_core<Shader,resptrcode_shader> >
PUBLIC	??$_Get_unwrapped@ABV?$_Vector_iterator@V?$_Vector_val@U?$_Simple_types@PAUwm_slot@WallmarksEngine@@@std@@@std@@@std@@@std@@YA?A_TABV?$_Vector_iterator@V?$_Vector_val@U?$_Simple_types@PAUwm_slot@WallmarksEngine@@@std@@@std@@@0@@Z ; std::_Get_unwrapped<std::_Vector_iterator<std::_Vector_val<std::_Simple_types<WallmarksEngine::wm_slot *> > > const &>
PUBLIC	??$_Get_unwrapped@AAV?$_Vector_iterator@V?$_Vector_val@U?$_Simple_types@PAUwm_slot@WallmarksEngine@@@std@@@std@@@std@@@std@@YA?A_TAAV?$_Vector_iterator@V?$_Vector_val@U?$_Simple_types@PAUwm_slot@WallmarksEngine@@@std@@@std@@@0@@Z ; std::_Get_unwrapped<std::_Vector_iterator<std::_Vector_val<std::_Simple_types<WallmarksEngine::wm_slot *> > > &>
PUBLIC	??$find@V?$_Vector_iterator@V?$_Vector_val@U?$_Simple_types@PAUwm_slot@WallmarksEngine@@@std@@@std@@@std@@V?$resptr_core@UShader@@Uresptrcode_shader@@@@@std@@YA?AV?$_Vector_iterator@V?$_Vector_val@U?$_Simple_types@PAUwm_slot@WallmarksEngine@@@std@@@std@@@0@V10@V10@ABV?$resptr_core@UShader@@Uresptrcode_shader@@@@@Z ; std::find<std::_Vector_iterator<std::_Vector_val<std::_Simple_types<WallmarksEngine::wm_slot *> > >,resptr_core<Shader,resptrcode_shader> >
PUBLIC	??$?8UShader@@U0@Uresptrcode_shader@@@@YA_NABV?$resptr_core@UShader@@Uresptrcode_shader@@@@0@Z ; operator==<Shader,Shader,resptrcode_shader>
PUBLIC	??7?$intrusive_ptr@VCSkeletonWallmark@@Uintrusive_base@@@@QBE_NXZ ; intrusive_ptr<CSkeletonWallmark,intrusive_base>::operator!
PUBLIC	??C?$intrusive_ptr@VCSkeletonWallmark@@Uintrusive_base@@@@QBEPAVCSkeletonWallmark@@XZ ; intrusive_ptr<CSkeletonWallmark,intrusive_base>::operator->
PUBLIC	??1?$intrusive_ptr@VCSkeletonWallmark@@Uintrusive_base@@@@QAE@XZ ; intrusive_ptr<CSkeletonWallmark,intrusive_base>::~intrusive_ptr<CSkeletonWallmark,intrusive_base>
PUBLIC	??0?$intrusive_ptr@VCSkeletonWallmark@@Uintrusive_base@@@@QAE@ABV0@@Z ; intrusive_ptr<CSkeletonWallmark,intrusive_base>::intrusive_ptr<CSkeletonWallmark,intrusive_base>
PUBLIC	?_Verify_offset@?$_Vector_const_iterator@V?$_Vector_val@U?$_Simple_types@PAUstatic_wallmark@CWallmarksEngine@@@std@@@std@@@std@@QBEXH@Z ; std::_Vector_const_iterator<std::_Vector_val<std::_Simple_types<CWallmarksEngine::static_wallmark *> > >::_Verify_offset
PUBLIC	?_Destroy@?$vector@ULIT@FVF@@V?$xalloc@ULIT@FVF@@@@@std@@AAEXPAULIT@FVF@@0@Z ; std::vector<FVF::LIT,xalloc<FVF::LIT> >::_Destroy
PUBLIC	?max_size@?$xalloc@PAUstatic_wallmark@CWallmarksEngine@@@@QBEIXZ ; xalloc<CWallmarksEngine::static_wallmark *>::max_size
PUBLIC	?_Umove_if_noexcept1@?$vector@PAUstatic_wallmark@CWallmarksEngine@@V?$xalloc@PAUstatic_wallmark@CWallmarksEngine@@@@@std@@AAEXPAPAUstatic_wallmark@CWallmarksEngine@@00U?$integral_constant@_N$00@2@@Z ; std::vector<CWallmarksEngine::static_wallmark *,xalloc<CWallmarksEngine::static_wallmark *> >::_Umove_if_noexcept1
PUBLIC	?_Get_first@?$_Compressed_pair@V?$xalloc@PAUstatic_wallmark@CWallmarksEngine@@@@V?$_Vector_val@U?$_Simple_types@PAUstatic_wallmark@CWallmarksEngine@@@std@@@std@@$00@std@@QBEABV?$xalloc@PAUstatic_wallmark@CWallmarksEngine@@@@XZ ; std::_Compressed_pair<xalloc<CWallmarksEngine::static_wallmark *>,std::_Vector_val<std::_Simple_types<CWallmarksEngine::static_wallmark *> >,1>::_Get_first
PUBLIC	?max_size@?$xalloc@PAUwm_slot@WallmarksEngine@@@@QBEIXZ ; xalloc<WallmarksEngine::wm_slot *>::max_size
PUBLIC	?_Umove_if_noexcept1@?$vector@PAUwm_slot@WallmarksEngine@@V?$xalloc@PAUwm_slot@WallmarksEngine@@@@@std@@AAEXPAPAUwm_slot@WallmarksEngine@@00U?$integral_constant@_N$00@2@@Z ; std::vector<WallmarksEngine::wm_slot *,xalloc<WallmarksEngine::wm_slot *> >::_Umove_if_noexcept1
PUBLIC	?_Get_first@?$_Compressed_pair@V?$xalloc@PAUwm_slot@WallmarksEngine@@@@V?$_Vector_val@U?$_Simple_types@PAUwm_slot@WallmarksEngine@@@std@@@std@@$00@std@@QBEABV?$xalloc@PAUwm_slot@WallmarksEngine@@@@XZ ; std::_Compressed_pair<xalloc<WallmarksEngine::wm_slot *>,std::_Vector_val<std::_Simple_types<WallmarksEngine::wm_slot *> >,1>::_Get_first
PUBLIC	?max_size@?$xalloc@V?$intrusive_ptr@VCSkeletonWallmark@@Uintrusive_base@@@@@@QBEIXZ ; xalloc<intrusive_ptr<CSkeletonWallmark,intrusive_base> >::max_size
PUBLIC	?_Umove_if_noexcept1@?$vector@V?$intrusive_ptr@VCSkeletonWallmark@@Uintrusive_base@@@@V?$xalloc@V?$intrusive_ptr@VCSkeletonWallmark@@Uintrusive_base@@@@@@@std@@AAEXPAV?$intrusive_ptr@VCSkeletonWallmark@@Uintrusive_base@@@@00U?$integral_constant@_N$0A@@2@@Z ; std::vector<intrusive_ptr<CSkeletonWallmark,intrusive_base>,xalloc<intrusive_ptr<CSkeletonWallmark,intrusive_base> > >::_Umove_if_noexcept1
PUBLIC	?_Get_first@?$_Compressed_pair@V?$xalloc@V?$intrusive_ptr@VCSkeletonWallmark@@Uintrusive_base@@@@@@V?$_Vector_val@U?$_Simple_types@V?$intrusive_ptr@VCSkeletonWallmark@@Uintrusive_base@@@@@std@@@std@@$00@std@@QBEABV?$xalloc@V?$intrusive_ptr@VCSkeletonWallmark@@Uintrusive_base@@@@@@XZ ; std::_Compressed_pair<xalloc<intrusive_ptr<CSkeletonWallmark,intrusive_base> >,std::_Vector_val<std::_Simple_types<intrusive_ptr<CSkeletonWallmark,intrusive_base> > >,1>::_Get_first
PUBLIC	??Y?$_Vector_const_iterator@V?$_Vector_val@U?$_Simple_types@PAUstatic_wallmark@CWallmarksEngine@@@std@@@std@@@std@@QAEAAV01@H@Z ; std::_Vector_const_iterator<std::_Vector_val<std::_Simple_types<CWallmarksEngine::static_wallmark *> > >::operator+=
PUBLIC	?clear@?$vector@ULIT@FVF@@V?$xalloc@ULIT@FVF@@@@@std@@QAEXXZ ; std::vector<FVF::LIT,xalloc<FVF::LIT> >::clear
PUBLIC	?_Get_first@?$_Compressed_pair@V?$xalloc@ULIT@FVF@@@@V?$_Vector_val@U?$_Simple_types@ULIT@FVF@@@std@@@std@@$00@std@@QAEAAV?$xalloc@ULIT@FVF@@@@XZ ; std::_Compressed_pair<xalloc<FVF::LIT>,std::_Vector_val<std::_Simple_types<FVF::LIT> >,1>::_Get_first
PUBLIC	?allocate@?$xalloc@PAUstatic_wallmark@CWallmarksEngine@@@@QBEPAPAUstatic_wallmark@CWallmarksEngine@@IPBX@Z ; xalloc<CWallmarksEngine::static_wallmark *>::allocate
PUBLIC	?deallocate@?$xalloc@PAUstatic_wallmark@CWallmarksEngine@@@@QBEXPAPAUstatic_wallmark@CWallmarksEngine@@I@Z ; xalloc<CWallmarksEngine::static_wallmark *>::deallocate
PUBLIC	?max_size@?$_Normal_allocator_traits@V?$xalloc@PAUstatic_wallmark@CWallmarksEngine@@@@@std@@SAIABV?$xalloc@PAUstatic_wallmark@CWallmarksEngine@@@@@Z ; std::_Normal_allocator_traits<xalloc<CWallmarksEngine::static_wallmark *> >::max_size
PUBLIC	?clear@?$vector@PAUstatic_wallmark@CWallmarksEngine@@V?$xalloc@PAUstatic_wallmark@CWallmarksEngine@@@@@std@@QAEXXZ ; std::vector<CWallmarksEngine::static_wallmark *,xalloc<CWallmarksEngine::static_wallmark *> >::clear
PUBLIC	?_Umove_if_noexcept@?$vector@PAUstatic_wallmark@CWallmarksEngine@@V?$xalloc@PAUstatic_wallmark@CWallmarksEngine@@@@@std@@AAEXPAPAUstatic_wallmark@CWallmarksEngine@@00@Z ; std::vector<CWallmarksEngine::static_wallmark *,xalloc<CWallmarksEngine::static_wallmark *> >::_Umove_if_noexcept
PUBLIC	?_Destroy@?$vector@PAUstatic_wallmark@CWallmarksEngine@@V?$xalloc@PAUstatic_wallmark@CWallmarksEngine@@@@@std@@AAEXPAPAUstatic_wallmark@CWallmarksEngine@@0@Z ; std::vector<CWallmarksEngine::static_wallmark *,xalloc<CWallmarksEngine::static_wallmark *> >::_Destroy
PUBLIC	?_Change_array@?$vector@PAUstatic_wallmark@CWallmarksEngine@@V?$xalloc@PAUstatic_wallmark@CWallmarksEngine@@@@@std@@AAEXQAPAUstatic_wallmark@CWallmarksEngine@@II@Z ; std::vector<CWallmarksEngine::static_wallmark *,xalloc<CWallmarksEngine::static_wallmark *> >::_Change_array
PUBLIC	?_Getal@?$vector@PAUstatic_wallmark@CWallmarksEngine@@V?$xalloc@PAUstatic_wallmark@CWallmarksEngine@@@@@std@@ABEABV?$xalloc@PAUstatic_wallmark@CWallmarksEngine@@@@XZ ; std::vector<CWallmarksEngine::static_wallmark *,xalloc<CWallmarksEngine::static_wallmark *> >::_Getal
PUBLIC	?_Get_first@?$_Compressed_pair@V?$xalloc@PAUstatic_wallmark@CWallmarksEngine@@@@V?$_Vector_val@U?$_Simple_types@PAUstatic_wallmark@CWallmarksEngine@@@std@@@std@@$00@std@@QAEAAV?$xalloc@PAUstatic_wallmark@CWallmarksEngine@@@@XZ ; std::_Compressed_pair<xalloc<CWallmarksEngine::static_wallmark *>,std::_Vector_val<std::_Simple_types<CWallmarksEngine::static_wallmark *> >,1>::_Get_first
PUBLIC	?allocate@?$xalloc@PAUwm_slot@WallmarksEngine@@@@QBEPAPAUwm_slot@WallmarksEngine@@IPBX@Z ; xalloc<WallmarksEngine::wm_slot *>::allocate
PUBLIC	?deallocate@?$xalloc@PAUwm_slot@WallmarksEngine@@@@QBEXPAPAUwm_slot@WallmarksEngine@@I@Z ; xalloc<WallmarksEngine::wm_slot *>::deallocate
PUBLIC	?max_size@?$_Normal_allocator_traits@V?$xalloc@PAUwm_slot@WallmarksEngine@@@@@std@@SAIABV?$xalloc@PAUwm_slot@WallmarksEngine@@@@@Z ; std::_Normal_allocator_traits<xalloc<WallmarksEngine::wm_slot *> >::max_size
PUBLIC	?clear@?$vector@PAUwm_slot@WallmarksEngine@@V?$xalloc@PAUwm_slot@WallmarksEngine@@@@@std@@QAEXXZ ; std::vector<WallmarksEngine::wm_slot *,xalloc<WallmarksEngine::wm_slot *> >::clear
PUBLIC	?_Umove_if_noexcept@?$vector@PAUwm_slot@WallmarksEngine@@V?$xalloc@PAUwm_slot@WallmarksEngine@@@@@std@@AAEXPAPAUwm_slot@WallmarksEngine@@00@Z ; std::vector<WallmarksEngine::wm_slot *,xalloc<WallmarksEngine::wm_slot *> >::_Umove_if_noexcept
PUBLIC	?_Destroy@?$vector@PAUwm_slot@WallmarksEngine@@V?$xalloc@PAUwm_slot@WallmarksEngine@@@@@std@@AAEXPAPAUwm_slot@WallmarksEngine@@0@Z ; std::vector<WallmarksEngine::wm_slot *,xalloc<WallmarksEngine::wm_slot *> >::_Destroy
PUBLIC	?_Change_array@?$vector@PAUwm_slot@WallmarksEngine@@V?$xalloc@PAUwm_slot@WallmarksEngine@@@@@std@@AAEXQAPAUwm_slot@WallmarksEngine@@II@Z ; std::vector<WallmarksEngine::wm_slot *,xalloc<WallmarksEngine::wm_slot *> >::_Change_array
PUBLIC	?_Getal@?$vector@PAUwm_slot@WallmarksEngine@@V?$xalloc@PAUwm_slot@WallmarksEngine@@@@@std@@ABEABV?$xalloc@PAUwm_slot@WallmarksEngine@@@@XZ ; std::vector<WallmarksEngine::wm_slot *,xalloc<WallmarksEngine::wm_slot *> >::_Getal
PUBLIC	?_Get_first@?$_Compressed_pair@V?$xalloc@PAUwm_slot@WallmarksEngine@@@@V?$_Vector_val@U?$_Simple_types@PAUwm_slot@WallmarksEngine@@@std@@@std@@$00@std@@QAEAAV?$xalloc@PAUwm_slot@WallmarksEngine@@@@XZ ; std::_Compressed_pair<xalloc<WallmarksEngine::wm_slot *>,std::_Vector_val<std::_Simple_types<WallmarksEngine::wm_slot *> >,1>::_Get_first
PUBLIC	?allocate@?$xalloc@V?$intrusive_ptr@VCSkeletonWallmark@@Uintrusive_base@@@@@@QBEPAV?$intrusive_ptr@VCSkeletonWallmark@@Uintrusive_base@@@@IPBX@Z ; xalloc<intrusive_ptr<CSkeletonWallmark,intrusive_base> >::allocate
PUBLIC	?deallocate@?$xalloc@V?$intrusive_ptr@VCSkeletonWallmark@@Uintrusive_base@@@@@@QBEXPAV?$intrusive_ptr@VCSkeletonWallmark@@Uintrusive_base@@@@I@Z ; xalloc<intrusive_ptr<CSkeletonWallmark,intrusive_base> >::deallocate
PUBLIC	?max_size@?$_Normal_allocator_traits@V?$xalloc@V?$intrusive_ptr@VCSkeletonWallmark@@Uintrusive_base@@@@@@@std@@SAIABV?$xalloc@V?$intrusive_ptr@VCSkeletonWallmark@@Uintrusive_base@@@@@@@Z ; std::_Normal_allocator_traits<xalloc<intrusive_ptr<CSkeletonWallmark,intrusive_base> > >::max_size
PUBLIC	?clear@?$vector@V?$intrusive_ptr@VCSkeletonWallmark@@Uintrusive_base@@@@V?$xalloc@V?$intrusive_ptr@VCSkeletonWallmark@@Uintrusive_base@@@@@@@std@@QAEXXZ ; std::vector<intrusive_ptr<CSkeletonWallmark,intrusive_base>,xalloc<intrusive_ptr<CSkeletonWallmark,intrusive_base> > >::clear
PUBLIC	?_Umove_if_noexcept@?$vector@V?$intrusive_ptr@VCSkeletonWallmark@@Uintrusive_base@@@@V?$xalloc@V?$intrusive_ptr@VCSkeletonWallmark@@Uintrusive_base@@@@@@@std@@AAEXPAV?$intrusive_ptr@VCSkeletonWallmark@@Uintrusive_base@@@@00@Z ; std::vector<intrusive_ptr<CSkeletonWallmark,intrusive_base>,xalloc<intrusive_ptr<CSkeletonWallmark,intrusive_base> > >::_Umove_if_noexcept
PUBLIC	?_Destroy@?$vector@V?$intrusive_ptr@VCSkeletonWallmark@@Uintrusive_base@@@@V?$xalloc@V?$intrusive_ptr@VCSkeletonWallmark@@Uintrusive_base@@@@@@@std@@AAEXPAV?$intrusive_ptr@VCSkeletonWallmark@@Uintrusive_base@@@@0@Z ; std::vector<intrusive_ptr<CSkeletonWallmark,intrusive_base>,xalloc<intrusive_ptr<CSkeletonWallmark,intrusive_base> > >::_Destroy
PUBLIC	?_Change_array@?$vector@V?$intrusive_ptr@VCSkeletonWallmark@@Uintrusive_base@@@@V?$xalloc@V?$intrusive_ptr@VCSkeletonWallmark@@Uintrusive_base@@@@@@@std@@AAEXQAV?$intrusive_ptr@VCSkeletonWallmark@@Uintrusive_base@@@@II@Z ; std::vector<intrusive_ptr<CSkeletonWallmark,intrusive_base>,xalloc<intrusive_ptr<CSkeletonWallmark,intrusive_base> > >::_Change_array
PUBLIC	?_Getal@?$vector@V?$intrusive_ptr@VCSkeletonWallmark@@Uintrusive_base@@@@V?$xalloc@V?$intrusive_ptr@VCSkeletonWallmark@@Uintrusive_base@@@@@@@std@@ABEABV?$xalloc@V?$intrusive_ptr@VCSkeletonWallmark@@Uintrusive_base@@@@@@XZ ; std::vector<intrusive_ptr<CSkeletonWallmark,intrusive_base>,xalloc<intrusive_ptr<CSkeletonWallmark,intrusive_base> > >::_Getal
PUBLIC	?_Get_first@?$_Compressed_pair@V?$xalloc@V?$intrusive_ptr@VCSkeletonWallmark@@Uintrusive_base@@@@@@V?$_Vector_val@U?$_Simple_types@V?$intrusive_ptr@VCSkeletonWallmark@@Uintrusive_base@@@@@std@@@std@@$00@std@@QAEAAV?$xalloc@V?$intrusive_ptr@VCSkeletonWallmark@@Uintrusive_base@@@@@@XZ ; std::_Compressed_pair<xalloc<intrusive_ptr<CSkeletonWallmark,intrusive_base> >,std::_Vector_val<std::_Simple_types<intrusive_ptr<CSkeletonWallmark,intrusive_base> > >,1>::_Get_first
PUBLIC	?_Compat@?$_Vector_const_iterator@V?$_Vector_val@U?$_Simple_types@PAUwm_slot@WallmarksEngine@@@std@@@std@@@std@@QBEXABV12@@Z ; std::_Vector_const_iterator<std::_Vector_val<std::_Simple_types<WallmarksEngine::wm_slot *> > >::_Compat
PUBLIC	?_Compat@?$_Vector_const_iterator@V?$_Vector_val@U?$_Simple_types@PAUstatic_wallmark@CWallmarksEngine@@@std@@@std@@@std@@QBEXABV12@@Z ; std::_Vector_const_iterator<std::_Vector_val<std::_Simple_types<CWallmarksEngine::static_wallmark *> > >::_Compat
PUBLIC	??Y?$_Vector_iterator@V?$_Vector_val@U?$_Simple_types@PAUstatic_wallmark@CWallmarksEngine@@@std@@@std@@@std@@QAEAAV01@H@Z ; std::_Vector_iterator<std::_Vector_val<std::_Simple_types<CWallmarksEngine::static_wallmark *> > >::operator+=
PUBLIC	?_Compat@?$_Vector_const_iterator@V?$_Vector_val@U?$_Simple_types@V?$intrusive_ptr@VCSkeletonWallmark@@Uintrusive_base@@@@@std@@@std@@@std@@QBEXABV12@@Z ; std::_Vector_const_iterator<std::_Vector_val<std::_Simple_types<intrusive_ptr<CSkeletonWallmark,intrusive_base> > > >::_Compat
PUBLIC	?size@?$vector@ULIT@FVF@@V?$xalloc@ULIT@FVF@@@@@std@@QBEIXZ ; std::vector<FVF::LIT,xalloc<FVF::LIT> >::size
PUBLIC	?_Orphan_range@?$vector@ULIT@FVF@@V?$xalloc@ULIT@FVF@@@@@std@@ABEXPAULIT@FVF@@0@Z ; std::vector<FVF::LIT,xalloc<FVF::LIT> >::_Orphan_range
PUBLIC	?_Getal@?$vector@ULIT@FVF@@V?$xalloc@ULIT@FVF@@@@@std@@AAEAAV?$xalloc@ULIT@FVF@@@@XZ ; std::vector<FVF::LIT,xalloc<FVF::LIT> >::_Getal
PUBLIC	?clear_and_free@?$xr_vector@ULIT@FVF@@V?$xalloc@ULIT@FVF@@@@@@QAEXXZ ; xr_vector<FVF::LIT,xalloc<FVF::LIT> >::clear_and_free
PUBLIC	??0?$vector@PAUstatic_wallmark@CWallmarksEngine@@V?$xalloc@PAUstatic_wallmark@CWallmarksEngine@@@@@std@@QAE@XZ ; std::vector<CWallmarksEngine::static_wallmark *,xalloc<CWallmarksEngine::static_wallmark *> >::vector<CWallmarksEngine::static_wallmark *,xalloc<CWallmarksEngine::static_wallmark *> >
PUBLIC	?_Reallocate_exactly@?$vector@PAUstatic_wallmark@CWallmarksEngine@@V?$xalloc@PAUstatic_wallmark@CWallmarksEngine@@@@@std@@AAEXI@Z ; std::vector<CWallmarksEngine::static_wallmark *,xalloc<CWallmarksEngine::static_wallmark *> >::_Reallocate_exactly
PUBLIC	?size@?$vector@PAUstatic_wallmark@CWallmarksEngine@@V?$xalloc@PAUstatic_wallmark@CWallmarksEngine@@@@@std@@QBEIXZ ; std::vector<CWallmarksEngine::static_wallmark *,xalloc<CWallmarksEngine::static_wallmark *> >::size
PUBLIC	?max_size@?$vector@PAUstatic_wallmark@CWallmarksEngine@@V?$xalloc@PAUstatic_wallmark@CWallmarksEngine@@@@@std@@QBEIXZ ; std::vector<CWallmarksEngine::static_wallmark *,xalloc<CWallmarksEngine::static_wallmark *> >::max_size
PUBLIC	?capacity@?$vector@PAUstatic_wallmark@CWallmarksEngine@@V?$xalloc@PAUstatic_wallmark@CWallmarksEngine@@@@@std@@QBEIXZ ; std::vector<CWallmarksEngine::static_wallmark *,xalloc<CWallmarksEngine::static_wallmark *> >::capacity
PUBLIC	?_Tidy@?$vector@PAUstatic_wallmark@CWallmarksEngine@@V?$xalloc@PAUstatic_wallmark@CWallmarksEngine@@@@@std@@AAEXXZ ; std::vector<CWallmarksEngine::static_wallmark *,xalloc<CWallmarksEngine::static_wallmark *> >::_Tidy
PUBLIC	?_Xlength@?$vector@PAUstatic_wallmark@CWallmarksEngine@@V?$xalloc@PAUstatic_wallmark@CWallmarksEngine@@@@@std@@CAXXZ ; std::vector<CWallmarksEngine::static_wallmark *,xalloc<CWallmarksEngine::static_wallmark *> >::_Xlength
PUBLIC	?_Orphan_range@?$vector@PAUstatic_wallmark@CWallmarksEngine@@V?$xalloc@PAUstatic_wallmark@CWallmarksEngine@@@@@std@@ABEXPAPAUstatic_wallmark@CWallmarksEngine@@0@Z ; std::vector<CWallmarksEngine::static_wallmark *,xalloc<CWallmarksEngine::static_wallmark *> >::_Orphan_range
PUBLIC	?_Getal@?$vector@PAUstatic_wallmark@CWallmarksEngine@@V?$xalloc@PAUstatic_wallmark@CWallmarksEngine@@@@@std@@AAEAAV?$xalloc@PAUstatic_wallmark@CWallmarksEngine@@@@XZ ; std::vector<CWallmarksEngine::static_wallmark *,xalloc<CWallmarksEngine::static_wallmark *> >::_Getal
PUBLIC	?clear_and_free@?$xr_vector@PAUstatic_wallmark@CWallmarksEngine@@V?$xalloc@PAUstatic_wallmark@CWallmarksEngine@@@@@@QAEXXZ ; xr_vector<CWallmarksEngine::static_wallmark *,xalloc<CWallmarksEngine::static_wallmark *> >::clear_and_free
PUBLIC	??0?$vector@PAUwm_slot@WallmarksEngine@@V?$xalloc@PAUwm_slot@WallmarksEngine@@@@@std@@QAE@XZ ; std::vector<WallmarksEngine::wm_slot *,xalloc<WallmarksEngine::wm_slot *> >::vector<WallmarksEngine::wm_slot *,xalloc<WallmarksEngine::wm_slot *> >
PUBLIC	?_Reallocate_exactly@?$vector@PAUwm_slot@WallmarksEngine@@V?$xalloc@PAUwm_slot@WallmarksEngine@@@@@std@@AAEXI@Z ; std::vector<WallmarksEngine::wm_slot *,xalloc<WallmarksEngine::wm_slot *> >::_Reallocate_exactly
PUBLIC	?max_size@?$vector@PAUwm_slot@WallmarksEngine@@V?$xalloc@PAUwm_slot@WallmarksEngine@@@@@std@@QBEIXZ ; std::vector<WallmarksEngine::wm_slot *,xalloc<WallmarksEngine::wm_slot *> >::max_size
PUBLIC	?capacity@?$vector@PAUwm_slot@WallmarksEngine@@V?$xalloc@PAUwm_slot@WallmarksEngine@@@@@std@@QBEIXZ ; std::vector<WallmarksEngine::wm_slot *,xalloc<WallmarksEngine::wm_slot *> >::capacity
PUBLIC	?_Tidy@?$vector@PAUwm_slot@WallmarksEngine@@V?$xalloc@PAUwm_slot@WallmarksEngine@@@@@std@@AAEXXZ ; std::vector<WallmarksEngine::wm_slot *,xalloc<WallmarksEngine::wm_slot *> >::_Tidy
PUBLIC	?_Xlength@?$vector@PAUwm_slot@WallmarksEngine@@V?$xalloc@PAUwm_slot@WallmarksEngine@@@@@std@@CAXXZ ; std::vector<WallmarksEngine::wm_slot *,xalloc<WallmarksEngine::wm_slot *> >::_Xlength
PUBLIC	?_Orphan_range@?$vector@PAUwm_slot@WallmarksEngine@@V?$xalloc@PAUwm_slot@WallmarksEngine@@@@@std@@ABEXPAPAUwm_slot@WallmarksEngine@@0@Z ; std::vector<WallmarksEngine::wm_slot *,xalloc<WallmarksEngine::wm_slot *> >::_Orphan_range
PUBLIC	?_Getal@?$vector@PAUwm_slot@WallmarksEngine@@V?$xalloc@PAUwm_slot@WallmarksEngine@@@@@std@@AAEAAV?$xalloc@PAUwm_slot@WallmarksEngine@@@@XZ ; std::vector<WallmarksEngine::wm_slot *,xalloc<WallmarksEngine::wm_slot *> >::_Getal
PUBLIC	?clear_and_free@?$xr_vector@PAUwm_slot@WallmarksEngine@@V?$xalloc@PAUwm_slot@WallmarksEngine@@@@@@QAEXXZ ; xr_vector<WallmarksEngine::wm_slot *,xalloc<WallmarksEngine::wm_slot *> >::clear_and_free
PUBLIC	??0?$vector@V?$intrusive_ptr@VCSkeletonWallmark@@Uintrusive_base@@@@V?$xalloc@V?$intrusive_ptr@VCSkeletonWallmark@@Uintrusive_base@@@@@@@std@@QAE@XZ ; std::vector<intrusive_ptr<CSkeletonWallmark,intrusive_base>,xalloc<intrusive_ptr<CSkeletonWallmark,intrusive_base> > >::vector<intrusive_ptr<CSkeletonWallmark,intrusive_base>,xalloc<intrusive_ptr<CSkeletonWallmark,intrusive_base> > >
PUBLIC	?_Reallocate_exactly@?$vector@V?$intrusive_ptr@VCSkeletonWallmark@@Uintrusive_base@@@@V?$xalloc@V?$intrusive_ptr@VCSkeletonWallmark@@Uintrusive_base@@@@@@@std@@AAEXI@Z ; std::vector<intrusive_ptr<CSkeletonWallmark,intrusive_base>,xalloc<intrusive_ptr<CSkeletonWallmark,intrusive_base> > >::_Reallocate_exactly
PUBLIC	?max_size@?$vector@V?$intrusive_ptr@VCSkeletonWallmark@@Uintrusive_base@@@@V?$xalloc@V?$intrusive_ptr@VCSkeletonWallmark@@Uintrusive_base@@@@@@@std@@QBEIXZ ; std::vector<intrusive_ptr<CSkeletonWallmark,intrusive_base>,xalloc<intrusive_ptr<CSkeletonWallmark,intrusive_base> > >::max_size
PUBLIC	?capacity@?$vector@V?$intrusive_ptr@VCSkeletonWallmark@@Uintrusive_base@@@@V?$xalloc@V?$intrusive_ptr@VCSkeletonWallmark@@Uintrusive_base@@@@@@@std@@QBEIXZ ; std::vector<intrusive_ptr<CSkeletonWallmark,intrusive_base>,xalloc<intrusive_ptr<CSkeletonWallmark,intrusive_base> > >::capacity
PUBLIC	?_Tidy@?$vector@V?$intrusive_ptr@VCSkeletonWallmark@@Uintrusive_base@@@@V?$xalloc@V?$intrusive_ptr@VCSkeletonWallmark@@Uintrusive_base@@@@@@@std@@AAEXXZ ; std::vector<intrusive_ptr<CSkeletonWallmark,intrusive_base>,xalloc<intrusive_ptr<CSkeletonWallmark,intrusive_base> > >::_Tidy
PUBLIC	?_Xlength@?$vector@V?$intrusive_ptr@VCSkeletonWallmark@@Uintrusive_base@@@@V?$xalloc@V?$intrusive_ptr@VCSkeletonWallmark@@Uintrusive_base@@@@@@@std@@CAXXZ ; std::vector<intrusive_ptr<CSkeletonWallmark,intrusive_base>,xalloc<intrusive_ptr<CSkeletonWallmark,intrusive_base> > >::_Xlength
PUBLIC	?_Orphan_range@?$vector@V?$intrusive_ptr@VCSkeletonWallmark@@Uintrusive_base@@@@V?$xalloc@V?$intrusive_ptr@VCSkeletonWallmark@@Uintrusive_base@@@@@@@std@@ABEXPAV?$intrusive_ptr@VCSkeletonWallmark@@Uintrusive_base@@@@0@Z ; std::vector<intrusive_ptr<CSkeletonWallmark,intrusive_base>,xalloc<intrusive_ptr<CSkeletonWallmark,intrusive_base> > >::_Orphan_range
PUBLIC	?_Getal@?$vector@V?$intrusive_ptr@VCSkeletonWallmark@@Uintrusive_base@@@@V?$xalloc@V?$intrusive_ptr@VCSkeletonWallmark@@Uintrusive_base@@@@@@@std@@AAEAAV?$xalloc@V?$intrusive_ptr@VCSkeletonWallmark@@Uintrusive_base@@@@@@XZ ; std::vector<intrusive_ptr<CSkeletonWallmark,intrusive_base>,xalloc<intrusive_ptr<CSkeletonWallmark,intrusive_base> > >::_Getal
PUBLIC	?clear_and_free@?$xr_vector@V?$intrusive_ptr@VCSkeletonWallmark@@Uintrusive_base@@@@V?$xalloc@V?$intrusive_ptr@VCSkeletonWallmark@@Uintrusive_base@@@@@@@@QAEXXZ ; xr_vector<intrusive_ptr<CSkeletonWallmark,intrusive_base>,xalloc<intrusive_ptr<CSkeletonWallmark,intrusive_base> > >::clear_and_free
PUBLIC	??0?$_Vector_const_iterator@V?$_Vector_val@U?$_Simple_types@PAUwm_slot@WallmarksEngine@@@std@@@std@@@std@@QAE@PAPAUwm_slot@WallmarksEngine@@PBU_Container_base0@1@@Z ; std::_Vector_const_iterator<std::_Vector_val<std::_Simple_types<WallmarksEngine::wm_slot *> > >::_Vector_const_iterator<std::_Vector_val<std::_Simple_types<WallmarksEngine::wm_slot *> > >
PUBLIC	??D?$_Vector_const_iterator@V?$_Vector_val@U?$_Simple_types@PAUwm_slot@WallmarksEngine@@@std@@@std@@@std@@QBEABQAUwm_slot@WallmarksEngine@@XZ ; std::_Vector_const_iterator<std::_Vector_val<std::_Simple_types<WallmarksEngine::wm_slot *> > >::operator*
PUBLIC	??E?$_Vector_const_iterator@V?$_Vector_val@U?$_Simple_types@PAUwm_slot@WallmarksEngine@@@std@@@std@@@std@@QAEAAV01@XZ ; std::_Vector_const_iterator<std::_Vector_val<std::_Simple_types<WallmarksEngine::wm_slot *> > >::operator++
PUBLIC	??8?$_Vector_const_iterator@V?$_Vector_val@U?$_Simple_types@PAUwm_slot@WallmarksEngine@@@std@@@std@@@std@@QBE_NABV01@@Z ; std::_Vector_const_iterator<std::_Vector_val<std::_Simple_types<WallmarksEngine::wm_slot *> > >::operator==
PUBLIC	??0?$_Vector_const_iterator@V?$_Vector_val@U?$_Simple_types@PAUstatic_wallmark@CWallmarksEngine@@@std@@@std@@@std@@QAE@PAPAUstatic_wallmark@CWallmarksEngine@@PBU_Container_base0@1@@Z ; std::_Vector_const_iterator<std::_Vector_val<std::_Simple_types<CWallmarksEngine::static_wallmark *> > >::_Vector_const_iterator<std::_Vector_val<std::_Simple_types<CWallmarksEngine::static_wallmark *> > >
PUBLIC	??D?$_Vector_const_iterator@V?$_Vector_val@U?$_Simple_types@PAUstatic_wallmark@CWallmarksEngine@@@std@@@std@@@std@@QBEABQAUstatic_wallmark@CWallmarksEngine@@XZ ; std::_Vector_const_iterator<std::_Vector_val<std::_Simple_types<CWallmarksEngine::static_wallmark *> > >::operator*
PUBLIC	??E?$_Vector_const_iterator@V?$_Vector_val@U?$_Simple_types@PAUstatic_wallmark@CWallmarksEngine@@@std@@@std@@@std@@QAEAAV01@XZ ; std::_Vector_const_iterator<std::_Vector_val<std::_Simple_types<CWallmarksEngine::static_wallmark *> > >::operator++
PUBLIC	??8?$_Vector_const_iterator@V?$_Vector_val@U?$_Simple_types@PAUstatic_wallmark@CWallmarksEngine@@@std@@@std@@@std@@QBE_NABV01@@Z ; std::_Vector_const_iterator<std::_Vector_val<std::_Simple_types<CWallmarksEngine::static_wallmark *> > >::operator==
PUBLIC	??H?$_Vector_iterator@V?$_Vector_val@U?$_Simple_types@PAUstatic_wallmark@CWallmarksEngine@@@std@@@std@@@std@@QBE?AV01@H@Z ; std::_Vector_iterator<std::_Vector_val<std::_Simple_types<CWallmarksEngine::static_wallmark *> > >::operator+
PUBLIC	??0?$_Vector_const_iterator@V?$_Vector_val@U?$_Simple_types@ULIT@FVF@@@std@@@std@@@std@@QAE@PAULIT@FVF@@PBU_Container_base0@1@@Z ; std::_Vector_const_iterator<std::_Vector_val<std::_Simple_types<FVF::LIT> > >::_Vector_const_iterator<std::_Vector_val<std::_Simple_types<FVF::LIT> > >
PUBLIC	??D?$_Vector_const_iterator@V?$_Vector_val@U?$_Simple_types@ULIT@FVF@@@std@@@std@@@std@@QBEABULIT@FVF@@XZ ; std::_Vector_const_iterator<std::_Vector_val<std::_Simple_types<FVF::LIT> > >::operator*
PUBLIC	??0?$_Vector_const_iterator@V?$_Vector_val@U?$_Simple_types@V?$intrusive_ptr@VCSkeletonWallmark@@Uintrusive_base@@@@@std@@@std@@@std@@QAE@PAV?$intrusive_ptr@VCSkeletonWallmark@@Uintrusive_base@@@@PBU_Container_base0@1@@Z ; std::_Vector_const_iterator<std::_Vector_val<std::_Simple_types<intrusive_ptr<CSkeletonWallmark,intrusive_base> > > >::_Vector_const_iterator<std::_Vector_val<std::_Simple_types<intrusive_ptr<CSkeletonWallmark,intrusive_base> > > >
PUBLIC	??D?$_Vector_const_iterator@V?$_Vector_val@U?$_Simple_types@V?$intrusive_ptr@VCSkeletonWallmark@@Uintrusive_base@@@@@std@@@std@@@std@@QBEABV?$intrusive_ptr@VCSkeletonWallmark@@Uintrusive_base@@@@XZ ; std::_Vector_const_iterator<std::_Vector_val<std::_Simple_types<intrusive_ptr<CSkeletonWallmark,intrusive_base> > > >::operator*
PUBLIC	??E?$_Vector_const_iterator@V?$_Vector_val@U?$_Simple_types@V?$intrusive_ptr@VCSkeletonWallmark@@Uintrusive_base@@@@@std@@@std@@@std@@QAEAAV01@XZ ; std::_Vector_const_iterator<std::_Vector_val<std::_Simple_types<intrusive_ptr<CSkeletonWallmark,intrusive_base> > > >::operator++
PUBLIC	??8?$_Vector_const_iterator@V?$_Vector_val@U?$_Simple_types@V?$intrusive_ptr@VCSkeletonWallmark@@Uintrusive_base@@@@@std@@@std@@@std@@QBE_NABV01@@Z ; std::_Vector_const_iterator<std::_Vector_val<std::_Simple_types<intrusive_ptr<CSkeletonWallmark,intrusive_base> > > >::operator==
PUBLIC	??0?$_Vector_iterator@V?$_Vector_val@U?$_Simple_types@ULIT@FVF@@@std@@@std@@@std@@QAE@PAULIT@FVF@@PBU_Container_base0@1@@Z ; std::_Vector_iterator<std::_Vector_val<std::_Simple_types<FVF::LIT> > >::_Vector_iterator<std::_Vector_val<std::_Simple_types<FVF::LIT> > >
PUBLIC	??0?$_Vector_iterator@V?$_Vector_val@U?$_Simple_types@PAUstatic_wallmark@CWallmarksEngine@@@std@@@std@@@std@@QAE@PAPAUstatic_wallmark@CWallmarksEngine@@PBU_Container_base0@1@@Z ; std::_Vector_iterator<std::_Vector_val<std::_Simple_types<CWallmarksEngine::static_wallmark *> > >::_Vector_iterator<std::_Vector_val<std::_Simple_types<CWallmarksEngine::static_wallmark *> > >
PUBLIC	??0?$_Vector_iterator@V?$_Vector_val@U?$_Simple_types@PAUwm_slot@WallmarksEngine@@@std@@@std@@@std@@QAE@PAPAUwm_slot@WallmarksEngine@@PBU_Container_base0@1@@Z ; std::_Vector_iterator<std::_Vector_val<std::_Simple_types<WallmarksEngine::wm_slot *> > >::_Vector_iterator<std::_Vector_val<std::_Simple_types<WallmarksEngine::wm_slot *> > >
PUBLIC	??0?$_Vector_iterator@V?$_Vector_val@U?$_Simple_types@V?$intrusive_ptr@VCSkeletonWallmark@@Uintrusive_base@@@@@std@@@std@@@std@@QAE@PAV?$intrusive_ptr@VCSkeletonWallmark@@Uintrusive_base@@@@PBU_Container_base0@1@@Z ; std::_Vector_iterator<std::_Vector_val<std::_Simple_types<intrusive_ptr<CSkeletonWallmark,intrusive_base> > > >::_Vector_iterator<std::_Vector_val<std::_Simple_types<intrusive_ptr<CSkeletonWallmark,intrusive_base> > > >
PUBLIC	?set@?$_vector2@M@@QAEAAU1@ABU1@@Z		; _vector2<float>::set
PUBLIC	?rotateZ@?$_matrix@M@@QAEAAU1@M@Z		; _matrix<float>::rotateZ
PUBLIC	?build_camera@?$_matrix@M@@QAEAAU1@ABU?$_vector3@M@@00@Z ; _matrix<float>::build_camera
PUBLIC	?build_camera_dir@?$_matrix@M@@QAEAAU1@ABU?$_vector3@M@@00@Z ; _matrix<float>::build_camera_dir
PUBLIC	??0?$resptr_core@UShader@@Uresptrcode_shader@@@@QAE@ABV0@@Z ; resptr_core<Shader,resptrcode_shader>::resptr_core<Shader,resptrcode_shader>
PUBLIC	??$_Emplace_back_with_unused_capacity@ABULIT@FVF@@@?$vector@ULIT@FVF@@V?$xalloc@ULIT@FVF@@@@@std@@AAE?A_TABULIT@FVF@@@Z ; std::vector<FVF::LIT,xalloc<FVF::LIT> >::_Emplace_back_with_unused_capacity<FVF::LIT const &>
PUBLIC	??$emplace_back@ABULIT@FVF@@@?$vector@ULIT@FVF@@V?$xalloc@ULIT@FVF@@@@@std@@QAE?A_TABULIT@FVF@@@Z ; std::vector<FVF::LIT,xalloc<FVF::LIT> >::emplace_back<FVF::LIT const &>
PUBLIC	?push_back@?$vector@ULIT@FVF@@V?$xalloc@ULIT@FVF@@@@@std@@QAEXABULIT@FVF@@@Z ; std::vector<FVF::LIT,xalloc<FVF::LIT> >::push_back
PUBLIC	?begin@?$vector@ULIT@FVF@@V?$xalloc@ULIT@FVF@@@@@std@@QAE?AV?$_Vector_iterator@V?$_Vector_val@U?$_Simple_types@ULIT@FVF@@@std@@@std@@@2@XZ ; std::vector<FVF::LIT,xalloc<FVF::LIT> >::begin
PUBLIC	?end@?$vector@ULIT@FVF@@V?$xalloc@ULIT@FVF@@@@@std@@QAE?AV?$_Vector_iterator@V?$_Vector_val@U?$_Simple_types@ULIT@FVF@@@std@@@std@@@2@XZ ; std::vector<FVF::LIT,xalloc<FVF::LIT> >::end
PUBLIC	?size@?$xr_vector@ULIT@FVF@@V?$xalloc@ULIT@FVF@@@@@@QBEIXZ ; xr_vector<FVF::LIT,xalloc<FVF::LIT> >::size
PUBLIC	?clear@?$xr_vector@ULIT@FVF@@V?$xalloc@ULIT@FVF@@@@@@QAEXXZ ; xr_vector<FVF::LIT,xalloc<FVF::LIT> >::clear
PUBLIC	??1?$vector@PAUstatic_wallmark@CWallmarksEngine@@V?$xalloc@PAUstatic_wallmark@CWallmarksEngine@@@@@std@@QAE@XZ ; std::vector<CWallmarksEngine::static_wallmark *,xalloc<CWallmarksEngine::static_wallmark *> >::~vector<CWallmarksEngine::static_wallmark *,xalloc<CWallmarksEngine::static_wallmark *> >
PUBLIC	??$_Emplace_back_with_unused_capacity@ABQAUstatic_wallmark@CWallmarksEngine@@@?$vector@PAUstatic_wallmark@CWallmarksEngine@@V?$xalloc@PAUstatic_wallmark@CWallmarksEngine@@@@@std@@AAE?A_TABQAUstatic_wallmark@CWallmarksEngine@@@Z ; std::vector<CWallmarksEngine::static_wallmark *,xalloc<CWallmarksEngine::static_wallmark *> >::_Emplace_back_with_unused_capacity<CWallmarksEngine::static_wallmark * const &>
PUBLIC	??$emplace_back@ABQAUstatic_wallmark@CWallmarksEngine@@@?$vector@PAUstatic_wallmark@CWallmarksEngine@@V?$xalloc@PAUstatic_wallmark@CWallmarksEngine@@@@@std@@QAE?A_TABQAUstatic_wallmark@CWallmarksEngine@@@Z ; std::vector<CWallmarksEngine::static_wallmark *,xalloc<CWallmarksEngine::static_wallmark *> >::emplace_back<CWallmarksEngine::static_wallmark * const &>
PUBLIC	?push_back@?$vector@PAUstatic_wallmark@CWallmarksEngine@@V?$xalloc@PAUstatic_wallmark@CWallmarksEngine@@@@@std@@QAEXABQAUstatic_wallmark@CWallmarksEngine@@@Z ; std::vector<CWallmarksEngine::static_wallmark *,xalloc<CWallmarksEngine::static_wallmark *> >::push_back
PUBLIC	?reserve@?$vector@PAUstatic_wallmark@CWallmarksEngine@@V?$xalloc@PAUstatic_wallmark@CWallmarksEngine@@@@@std@@QAEXI@Z ; std::vector<CWallmarksEngine::static_wallmark *,xalloc<CWallmarksEngine::static_wallmark *> >::reserve
PUBLIC	?pop_back@?$vector@PAUstatic_wallmark@CWallmarksEngine@@V?$xalloc@PAUstatic_wallmark@CWallmarksEngine@@@@@std@@QAEXXZ ; std::vector<CWallmarksEngine::static_wallmark *,xalloc<CWallmarksEngine::static_wallmark *> >::pop_back
PUBLIC	?begin@?$vector@PAUstatic_wallmark@CWallmarksEngine@@V?$xalloc@PAUstatic_wallmark@CWallmarksEngine@@@@@std@@QAE?AV?$_Vector_iterator@V?$_Vector_val@U?$_Simple_types@PAUstatic_wallmark@CWallmarksEngine@@@std@@@std@@@2@XZ ; std::vector<CWallmarksEngine::static_wallmark *,xalloc<CWallmarksEngine::static_wallmark *> >::begin
PUBLIC	?end@?$vector@PAUstatic_wallmark@CWallmarksEngine@@V?$xalloc@PAUstatic_wallmark@CWallmarksEngine@@@@@std@@QAE?AV?$_Vector_iterator@V?$_Vector_val@U?$_Simple_types@PAUstatic_wallmark@CWallmarksEngine@@@std@@@std@@@2@XZ ; std::vector<CWallmarksEngine::static_wallmark *,xalloc<CWallmarksEngine::static_wallmark *> >::end
PUBLIC	?empty@?$vector@PAUstatic_wallmark@CWallmarksEngine@@V?$xalloc@PAUstatic_wallmark@CWallmarksEngine@@@@@std@@QBE_NXZ ; std::vector<CWallmarksEngine::static_wallmark *,xalloc<CWallmarksEngine::static_wallmark *> >::empty
PUBLIC	?back@?$vector@PAUstatic_wallmark@CWallmarksEngine@@V?$xalloc@PAUstatic_wallmark@CWallmarksEngine@@@@@std@@QAEAAPAUstatic_wallmark@CWallmarksEngine@@XZ ; std::vector<CWallmarksEngine::static_wallmark *,xalloc<CWallmarksEngine::static_wallmark *> >::back
PUBLIC	??0?$xr_vector@PAUstatic_wallmark@CWallmarksEngine@@V?$xalloc@PAUstatic_wallmark@CWallmarksEngine@@@@@@QAE@XZ ; xr_vector<CWallmarksEngine::static_wallmark *,xalloc<CWallmarksEngine::static_wallmark *> >::xr_vector<CWallmarksEngine::static_wallmark *,xalloc<CWallmarksEngine::static_wallmark *> >
PUBLIC	?size@?$xr_vector@PAUstatic_wallmark@CWallmarksEngine@@V?$xalloc@PAUstatic_wallmark@CWallmarksEngine@@@@@@QBEIXZ ; xr_vector<CWallmarksEngine::static_wallmark *,xalloc<CWallmarksEngine::static_wallmark *> >::size
PUBLIC	?clear@?$xr_vector@PAUstatic_wallmark@CWallmarksEngine@@V?$xalloc@PAUstatic_wallmark@CWallmarksEngine@@@@@@QAEXXZ ; xr_vector<CWallmarksEngine::static_wallmark *,xalloc<CWallmarksEngine::static_wallmark *> >::clear
PUBLIC	??A?$xr_vector@PAUstatic_wallmark@CWallmarksEngine@@V?$xalloc@PAUstatic_wallmark@CWallmarksEngine@@@@@@QAEAAPAUstatic_wallmark@CWallmarksEngine@@I@Z ; xr_vector<CWallmarksEngine::static_wallmark *,xalloc<CWallmarksEngine::static_wallmark *> >::operator[]
PUBLIC	??1?$vector@PAUwm_slot@WallmarksEngine@@V?$xalloc@PAUwm_slot@WallmarksEngine@@@@@std@@QAE@XZ ; std::vector<WallmarksEngine::wm_slot *,xalloc<WallmarksEngine::wm_slot *> >::~vector<WallmarksEngine::wm_slot *,xalloc<WallmarksEngine::wm_slot *> >
PUBLIC	??$_Emplace_back_with_unused_capacity@PAUwm_slot@WallmarksEngine@@@?$vector@PAUwm_slot@WallmarksEngine@@V?$xalloc@PAUwm_slot@WallmarksEngine@@@@@std@@AAE?A_T$$QAPAUwm_slot@WallmarksEngine@@@Z ; std::vector<WallmarksEngine::wm_slot *,xalloc<WallmarksEngine::wm_slot *> >::_Emplace_back_with_unused_capacity<WallmarksEngine::wm_slot *>
PUBLIC	??$emplace_back@PAUwm_slot@WallmarksEngine@@@?$vector@PAUwm_slot@WallmarksEngine@@V?$xalloc@PAUwm_slot@WallmarksEngine@@@@@std@@QAE?A_T$$QAPAUwm_slot@WallmarksEngine@@@Z ; std::vector<WallmarksEngine::wm_slot *,xalloc<WallmarksEngine::wm_slot *> >::emplace_back<WallmarksEngine::wm_slot *>
PUBLIC	?push_back@?$vector@PAUwm_slot@WallmarksEngine@@V?$xalloc@PAUwm_slot@WallmarksEngine@@@@@std@@QAEX$$QAPAUwm_slot@WallmarksEngine@@@Z ; std::vector<WallmarksEngine::wm_slot *,xalloc<WallmarksEngine::wm_slot *> >::push_back
PUBLIC	?reserve@?$vector@PAUwm_slot@WallmarksEngine@@V?$xalloc@PAUwm_slot@WallmarksEngine@@@@@std@@QAEXI@Z ; std::vector<WallmarksEngine::wm_slot *,xalloc<WallmarksEngine::wm_slot *> >::reserve
PUBLIC	?begin@?$vector@PAUwm_slot@WallmarksEngine@@V?$xalloc@PAUwm_slot@WallmarksEngine@@@@@std@@QAE?AV?$_Vector_iterator@V?$_Vector_val@U?$_Simple_types@PAUwm_slot@WallmarksEngine@@@std@@@std@@@2@XZ ; std::vector<WallmarksEngine::wm_slot *,xalloc<WallmarksEngine::wm_slot *> >::begin
PUBLIC	?end@?$vector@PAUwm_slot@WallmarksEngine@@V?$xalloc@PAUwm_slot@WallmarksEngine@@@@@std@@QAE?AV?$_Vector_iterator@V?$_Vector_val@U?$_Simple_types@PAUwm_slot@WallmarksEngine@@@std@@@std@@@2@XZ ; std::vector<WallmarksEngine::wm_slot *,xalloc<WallmarksEngine::wm_slot *> >::end
PUBLIC	?back@?$vector@PAUwm_slot@WallmarksEngine@@V?$xalloc@PAUwm_slot@WallmarksEngine@@@@@std@@QAEAAPAUwm_slot@WallmarksEngine@@XZ ; std::vector<WallmarksEngine::wm_slot *,xalloc<WallmarksEngine::wm_slot *> >::back
PUBLIC	??0?$xr_vector@PAUwm_slot@WallmarksEngine@@V?$xalloc@PAUwm_slot@WallmarksEngine@@@@@@QAE@XZ ; xr_vector<WallmarksEngine::wm_slot *,xalloc<WallmarksEngine::wm_slot *> >::xr_vector<WallmarksEngine::wm_slot *,xalloc<WallmarksEngine::wm_slot *> >
PUBLIC	?clear@?$xr_vector@PAUwm_slot@WallmarksEngine@@V?$xalloc@PAUwm_slot@WallmarksEngine@@@@@@QAEXXZ ; xr_vector<WallmarksEngine::wm_slot *,xalloc<WallmarksEngine::wm_slot *> >::clear
PUBLIC	??1?$vector@V?$intrusive_ptr@VCSkeletonWallmark@@Uintrusive_base@@@@V?$xalloc@V?$intrusive_ptr@VCSkeletonWallmark@@Uintrusive_base@@@@@@@std@@QAE@XZ ; std::vector<intrusive_ptr<CSkeletonWallmark,intrusive_base>,xalloc<intrusive_ptr<CSkeletonWallmark,intrusive_base> > >::~vector<intrusive_ptr<CSkeletonWallmark,intrusive_base>,xalloc<intrusive_ptr<CSkeletonWallmark,intrusive_base> > >
PUBLIC	??$_Emplace_back_with_unused_capacity@ABV?$intrusive_ptr@VCSkeletonWallmark@@Uintrusive_base@@@@@?$vector@V?$intrusive_ptr@VCSkeletonWallmark@@Uintrusive_base@@@@V?$xalloc@V?$intrusive_ptr@VCSkeletonWallmark@@Uintrusive_base@@@@@@@std@@AAE?A_TABV?$intrusive_ptr@VCSkeletonWallmark@@Uintrusive_base@@@@@Z ; std::vector<intrusive_ptr<CSkeletonWallmark,intrusive_base>,xalloc<intrusive_ptr<CSkeletonWallmark,intrusive_base> > >::_Emplace_back_with_unused_capacity<intrusive_ptr<CSkeletonWallmark,intrusive_base> const &>
PUBLIC	??$emplace_back@ABV?$intrusive_ptr@VCSkeletonWallmark@@Uintrusive_base@@@@@?$vector@V?$intrusive_ptr@VCSkeletonWallmark@@Uintrusive_base@@@@V?$xalloc@V?$intrusive_ptr@VCSkeletonWallmark@@Uintrusive_base@@@@@@@std@@QAE?A_TABV?$intrusive_ptr@VCSkeletonWallmark@@Uintrusive_base@@@@@Z ; std::vector<intrusive_ptr<CSkeletonWallmark,intrusive_base>,xalloc<intrusive_ptr<CSkeletonWallmark,intrusive_base> > >::emplace_back<intrusive_ptr<CSkeletonWallmark,intrusive_base> const &>
PUBLIC	?push_back@?$vector@V?$intrusive_ptr@VCSkeletonWallmark@@Uintrusive_base@@@@V?$xalloc@V?$intrusive_ptr@VCSkeletonWallmark@@Uintrusive_base@@@@@@@std@@QAEXABV?$intrusive_ptr@VCSkeletonWallmark@@Uintrusive_base@@@@@Z ; std::vector<intrusive_ptr<CSkeletonWallmark,intrusive_base>,xalloc<intrusive_ptr<CSkeletonWallmark,intrusive_base> > >::push_back
PUBLIC	?reserve@?$vector@V?$intrusive_ptr@VCSkeletonWallmark@@Uintrusive_base@@@@V?$xalloc@V?$intrusive_ptr@VCSkeletonWallmark@@Uintrusive_base@@@@@@@std@@QAEXI@Z ; std::vector<intrusive_ptr<CSkeletonWallmark,intrusive_base>,xalloc<intrusive_ptr<CSkeletonWallmark,intrusive_base> > >::reserve
PUBLIC	?begin@?$vector@V?$intrusive_ptr@VCSkeletonWallmark@@Uintrusive_base@@@@V?$xalloc@V?$intrusive_ptr@VCSkeletonWallmark@@Uintrusive_base@@@@@@@std@@QAE?AV?$_Vector_iterator@V?$_Vector_val@U?$_Simple_types@V?$intrusive_ptr@VCSkeletonWallmark@@Uintrusive_base@@@@@std@@@std@@@2@XZ ; std::vector<intrusive_ptr<CSkeletonWallmark,intrusive_base>,xalloc<intrusive_ptr<CSkeletonWallmark,intrusive_base> > >::begin
PUBLIC	?end@?$vector@V?$intrusive_ptr@VCSkeletonWallmark@@Uintrusive_base@@@@V?$xalloc@V?$intrusive_ptr@VCSkeletonWallmark@@Uintrusive_base@@@@@@@std@@QAE?AV?$_Vector_iterator@V?$_Vector_val@U?$_Simple_types@V?$intrusive_ptr@VCSkeletonWallmark@@Uintrusive_base@@@@@std@@@std@@@2@XZ ; std::vector<intrusive_ptr<CSkeletonWallmark,intrusive_base>,xalloc<intrusive_ptr<CSkeletonWallmark,intrusive_base> > >::end
PUBLIC	??0?$xr_vector@V?$intrusive_ptr@VCSkeletonWallmark@@Uintrusive_base@@@@V?$xalloc@V?$intrusive_ptr@VCSkeletonWallmark@@Uintrusive_base@@@@@@@@QAE@XZ ; xr_vector<intrusive_ptr<CSkeletonWallmark,intrusive_base>,xalloc<intrusive_ptr<CSkeletonWallmark,intrusive_base> > >::xr_vector<intrusive_ptr<CSkeletonWallmark,intrusive_base>,xalloc<intrusive_ptr<CSkeletonWallmark,intrusive_base> > >
PUBLIC	?clear@?$xr_vector@V?$intrusive_ptr@VCSkeletonWallmark@@Uintrusive_base@@@@V?$xalloc@V?$intrusive_ptr@VCSkeletonWallmark@@Uintrusive_base@@@@@@@@QAEXXZ ; xr_vector<intrusive_ptr<CSkeletonWallmark,intrusive_base>,xalloc<intrusive_ptr<CSkeletonWallmark,intrusive_base> > >::clear
PUBLIC	??9?$_Vector_const_iterator@V?$_Vector_val@U?$_Simple_types@PAUwm_slot@WallmarksEngine@@@std@@@std@@@std@@QBE_NABV01@@Z ; std::_Vector_const_iterator<std::_Vector_val<std::_Simple_types<WallmarksEngine::wm_slot *> > >::operator!=
PUBLIC	??D?$_Vector_iterator@V?$_Vector_val@U?$_Simple_types@PAUwm_slot@WallmarksEngine@@@std@@@std@@@std@@QBEAAPAUwm_slot@WallmarksEngine@@XZ ; std::_Vector_iterator<std::_Vector_val<std::_Simple_types<WallmarksEngine::wm_slot *> > >::operator*
PUBLIC	??E?$_Vector_iterator@V?$_Vector_val@U?$_Simple_types@PAUwm_slot@WallmarksEngine@@@std@@@std@@@std@@QAE?AV01@H@Z ; std::_Vector_iterator<std::_Vector_val<std::_Simple_types<WallmarksEngine::wm_slot *> > >::operator++
PUBLIC	??9?$_Vector_const_iterator@V?$_Vector_val@U?$_Simple_types@PAUstatic_wallmark@CWallmarksEngine@@@std@@@std@@@std@@QBE_NABV01@@Z ; std::_Vector_const_iterator<std::_Vector_val<std::_Simple_types<CWallmarksEngine::static_wallmark *> > >::operator!=
PUBLIC	??D?$_Vector_iterator@V?$_Vector_val@U?$_Simple_types@PAUstatic_wallmark@CWallmarksEngine@@@std@@@std@@@std@@QBEAAPAUstatic_wallmark@CWallmarksEngine@@XZ ; std::_Vector_iterator<std::_Vector_val<std::_Simple_types<CWallmarksEngine::static_wallmark *> > >::operator*
PUBLIC	??E?$_Vector_iterator@V?$_Vector_val@U?$_Simple_types@PAUstatic_wallmark@CWallmarksEngine@@@std@@@std@@@std@@QAE?AV01@H@Z ; std::_Vector_iterator<std::_Vector_val<std::_Simple_types<CWallmarksEngine::static_wallmark *> > >::operator++
PUBLIC	??D?$_Vector_iterator@V?$_Vector_val@U?$_Simple_types@ULIT@FVF@@@std@@@std@@@std@@QBEAAULIT@FVF@@XZ ; std::_Vector_iterator<std::_Vector_val<std::_Simple_types<FVF::LIT> > >::operator*
PUBLIC	??9?$_Vector_const_iterator@V?$_Vector_val@U?$_Simple_types@V?$intrusive_ptr@VCSkeletonWallmark@@Uintrusive_base@@@@@std@@@std@@@std@@QBE_NABV01@@Z ; std::_Vector_const_iterator<std::_Vector_val<std::_Simple_types<intrusive_ptr<CSkeletonWallmark,intrusive_base> > > >::operator!=
PUBLIC	??D?$_Vector_iterator@V?$_Vector_val@U?$_Simple_types@V?$intrusive_ptr@VCSkeletonWallmark@@Uintrusive_base@@@@@std@@@std@@@std@@QBEAAV?$intrusive_ptr@VCSkeletonWallmark@@Uintrusive_base@@@@XZ ; std::_Vector_iterator<std::_Vector_val<std::_Simple_types<intrusive_ptr<CSkeletonWallmark,intrusive_base> > > >::operator*
PUBLIC	??E?$_Vector_iterator@V?$_Vector_val@U?$_Simple_types@V?$intrusive_ptr@VCSkeletonWallmark@@Uintrusive_base@@@@@std@@@std@@@std@@QAE?AV01@H@Z ; std::_Vector_iterator<std::_Vector_val<std::_Simple_types<intrusive_ptr<CSkeletonWallmark,intrusive_base> > > >::operator++
PUBLIC	?Render@CWallmarksEngine@@QAEXXZ		; CWallmarksEngine::Render
PUBLIC	?FlushStream@@YAXV?$resptr_core@USGeometry@@Uresptrcode_geom@@@@V?$resptr_core@UShader@@Uresptrcode_shader@@@@AAIAAPAULIT@FVF@@3H@Z ; FlushStream
PUBLIC	?BeginStream@@YAXV?$resptr_core@USGeometry@@Uresptrcode_geom@@@@AAIAAPAULIT@FVF@@2@Z ; BeginStream
PUBLIC	?AddSkeletonWallmark@CWallmarksEngine@@QAEXV?$intrusive_ptr@VCSkeletonWallmark@@Uintrusive_base@@@@@Z ; CWallmarksEngine::AddSkeletonWallmark
PUBLIC	?AddSkeletonWallmark@CWallmarksEngine@@QAEXPBU?$_matrix@M@@PAVCKinematics@@AAV?$resptr_core@UShader@@Uresptrcode_shader@@@@ABU?$_vector3@M@@3M@Z ; CWallmarksEngine::AddSkeletonWallmark
PUBLIC	?AddStaticWallmark@CWallmarksEngine@@QAEXPAVTRI@CDB@@PBU?$_vector3@M@@ABU4@V?$resptr_core@UShader@@Uresptrcode_shader@@@@M@Z ; CWallmarksEngine::AddStaticWallmark
PUBLIC	?AddWallmark_internal@CWallmarksEngine@@AAEXPAVTRI@CDB@@PBU?$_vector3@M@@ABU4@V?$resptr_core@UShader@@Uresptrcode_shader@@@@M@Z ; CWallmarksEngine::AddWallmark_internal
PUBLIC	?BuildMatrix@CWallmarksEngine@@AAEXAAU?$_matrix@M@@MABU?$_vector3@M@@@Z ; CWallmarksEngine::BuildMatrix
PUBLIC	?RecurseTri@CWallmarksEngine@@AAEXIAAU?$_matrix@M@@AAUstatic_wallmark@1@@Z ; CWallmarksEngine::RecurseTri
PUBLIC	?static_wm_render@CWallmarksEngine@@AAEXPAUstatic_wallmark@1@AAPAULIT@FVF@@@Z ; CWallmarksEngine::static_wm_render
PUBLIC	?static_wm_destroy@CWallmarksEngine@@AAEXPAUstatic_wallmark@1@@Z ; CWallmarksEngine::static_wm_destroy
PUBLIC	?static_wm_allocate@CWallmarksEngine@@AAEPAUstatic_wallmark@1@XZ ; CWallmarksEngine::static_wm_allocate
PUBLIC	?clear@CWallmarksEngine@@QAEXXZ			; CWallmarksEngine::clear
PUBLIC	??1CWallmarksEngine@@QAE@XZ			; CWallmarksEngine::~CWallmarksEngine
PUBLIC	??1?$xr_vector@PAUwm_slot@WallmarksEngine@@V?$xalloc@PAUwm_slot@WallmarksEngine@@@@@@QAE@XZ ; xr_vector<WallmarksEngine::wm_slot *,xalloc<WallmarksEngine::wm_slot *> >::~xr_vector<WallmarksEngine::wm_slot *,xalloc<WallmarksEngine::wm_slot *> >
PUBLIC	??0CWallmarksEngine@@QAE@XZ			; CWallmarksEngine::CWallmarksEngine
PUBLIC	?AppendSlot@CWallmarksEngine@@AAEPAUwm_slot@WallmarksEngine@@V?$resptr_core@UShader@@Uresptrcode_shader@@@@@Z ; CWallmarksEngine::AppendSlot
PUBLIC	?FindSlot@CWallmarksEngine@@AAEPAUwm_slot@WallmarksEngine@@V?$resptr_core@UShader@@Uresptrcode_shader@@@@@Z ; CWallmarksEngine::FindSlot
PUBLIC	??8@YA_NPBUwm_slot@WallmarksEngine@@ABV?$resptr_core@UShader@@Uresptrcode_shader@@@@@Z ; operator==
PUBLIC	??1?$xr_vector@V?$intrusive_ptr@VCSkeletonWallmark@@Uintrusive_base@@@@V?$xalloc@V?$intrusive_ptr@VCSkeletonWallmark@@Uintrusive_base@@@@@@@@QAE@XZ ; xr_vector<intrusive_ptr<CSkeletonWallmark,intrusive_base>,xalloc<intrusive_ptr<CSkeletonWallmark,intrusive_base> > >::~xr_vector<intrusive_ptr<CSkeletonWallmark,intrusive_base>,xalloc<intrusive_ptr<CSkeletonWallmark,intrusive_base> > >
PUBLIC	??1?$xr_vector@PAUstatic_wallmark@CWallmarksEngine@@V?$xalloc@PAUstatic_wallmark@CWallmarksEngine@@@@@@QAE@XZ ; xr_vector<CWallmarksEngine::static_wallmark *,xalloc<CWallmarksEngine::static_wallmark *> >::~xr_vector<CWallmarksEngine::static_wallmark *,xalloc<CWallmarksEngine::static_wallmark *> >
PUBLIC	??0wm_slot@WallmarksEngine@@QAE@V?$resptr_core@UShader@@Uresptrcode_shader@@@@@Z ; WallmarksEngine::wm_slot::wm_slot
__ehfuncinfo$?Render@CWallmarksEngine@@QAEXXZ DD 019930522H
	DD	02H
	DD	FLAT:__unwindtable$?Render@CWallmarksEngine@@QAEXXZ
	DD	01H
	DD	FLAT:__tryblocktable$?Render@CWallmarksEngine@@QAEXXZ
	DD	2 DUP(00H)
	DD	00H
	DD	00H
__unwindtable$?Render@CWallmarksEngine@@QAEXXZ DD 0ffffffffH
	DD	00H
	DD	0ffffffffH
	DD	00H
__tryblocktable$?Render@CWallmarksEngine@@QAEXXZ DD 00H
	DD	00H
	DD	01H
	DD	01H
	DD	FLAT:__catchsym$?Render@CWallmarksEngine@@QAEXXZ$2
__catchsym$?Render@CWallmarksEngine@@QAEXXZ$2 DD 00H
	DD	00H
	DD	00H
	DD	FLAT:__catch$?Render@CWallmarksEngine@@QAEXXZ$0
;	COMDAT xdata$x
xdata$x	SEGMENT
__ehfuncinfo$?_Reallocate_exactly@?$vector@V?$intrusive_ptr@VCSkeletonWallmark@@Uintrusive_base@@@@V?$xalloc@V?$intrusive_ptr@VCSkeletonWallmark@@Uintrusive_base@@@@@@@std@@AAEXI@Z DD 019930522H
	DD	02H
	DD	FLAT:__unwindtable$?_Reallocate_exactly@?$vector@V?$intrusive_ptr@VCSkeletonWallmark@@Uintrusive_base@@@@V?$xalloc@V?$intrusive_ptr@VCSkeletonWallmark@@Uintrusive_base@@@@@@@std@@AAEXI@Z
	DD	01H
	DD	FLAT:__tryblocktable$?_Reallocate_exactly@?$vector@V?$intrusive_ptr@VCSkeletonWallmark@@Uintrusive_base@@@@V?$xalloc@V?$intrusive_ptr@VCSkeletonWallmark@@Uintrusive_base@@@@@@@std@@AAEXI@Z
	DD	2 DUP(00H)
	DD	00H
	DD	00H
__unwindtable$?_Reallocate_exactly@?$vector@V?$intrusive_ptr@VCSkeletonWallmark@@Uintrusive_base@@@@V?$xalloc@V?$intrusive_ptr@VCSkeletonWallmark@@Uintrusive_base@@@@@@@std@@AAEXI@Z DD 0ffffffffH
	DD	00H
	DD	0ffffffffH
	DD	00H
__tryblocktable$?_Reallocate_exactly@?$vector@V?$intrusive_ptr@VCSkeletonWallmark@@Uintrusive_base@@@@V?$xalloc@V?$intrusive_ptr@VCSkeletonWallmark@@Uintrusive_base@@@@@@@std@@AAEXI@Z DD 00H
	DD	00H
	DD	01H
	DD	01H
	DD	FLAT:__catchsym$?_Reallocate_exactly@?$vector@V?$intrusive_ptr@VCSkeletonWallmark@@Uintrusive_base@@@@V?$xalloc@V?$intrusive_ptr@VCSkeletonWallmark@@Uintrusive_base@@@@@@@std@@AAEXI@Z$2
__catchsym$?_Reallocate_exactly@?$vector@V?$intrusive_ptr@VCSkeletonWallmark@@Uintrusive_base@@@@V?$xalloc@V?$intrusive_ptr@VCSkeletonWallmark@@Uintrusive_base@@@@@@@std@@AAEXI@Z$2 DD 00H
	DD	00H
	DD	00H
	DD	FLAT:__catch$?_Reallocate_exactly@?$vector@V?$intrusive_ptr@VCSkeletonWallmark@@Uintrusive_base@@@@V?$xalloc@V?$intrusive_ptr@VCSkeletonWallmark@@Uintrusive_base@@@@@@@std@@AAEXI@Z$0
xdata$x	ENDS
;	COMDAT xdata$x
xdata$x	SEGMENT
__ehfuncinfo$?_Reallocate_exactly@?$vector@PAUwm_slot@WallmarksEngine@@V?$xalloc@PAUwm_slot@WallmarksEngine@@@@@std@@AAEXI@Z DD 019930522H
	DD	02H
	DD	FLAT:__unwindtable$?_Reallocate_exactly@?$vector@PAUwm_slot@WallmarksEngine@@V?$xalloc@PAUwm_slot@WallmarksEngine@@@@@std@@AAEXI@Z
	DD	01H
	DD	FLAT:__tryblocktable$?_Reallocate_exactly@?$vector@PAUwm_slot@WallmarksEngine@@V?$xalloc@PAUwm_slot@WallmarksEngine@@@@@std@@AAEXI@Z
	DD	2 DUP(00H)
	DD	00H
	DD	00H
__unwindtable$?_Reallocate_exactly@?$vector@PAUwm_slot@WallmarksEngine@@V?$xalloc@PAUwm_slot@WallmarksEngine@@@@@std@@AAEXI@Z DD 0ffffffffH
	DD	00H
	DD	0ffffffffH
	DD	00H
__tryblocktable$?_Reallocate_exactly@?$vector@PAUwm_slot@WallmarksEngine@@V?$xalloc@PAUwm_slot@WallmarksEngine@@@@@std@@AAEXI@Z DD 00H
	DD	00H
	DD	01H
	DD	01H
	DD	FLAT:__catchsym$?_Reallocate_exactly@?$vector@PAUwm_slot@WallmarksEngine@@V?$xalloc@PAUwm_slot@WallmarksEngine@@@@@std@@AAEXI@Z$2
__catchsym$?_Reallocate_exactly@?$vector@PAUwm_slot@WallmarksEngine@@V?$xalloc@PAUwm_slot@WallmarksEngine@@@@@std@@AAEXI@Z$2 DD 00H
	DD	00H
	DD	00H
	DD	FLAT:__catch$?_Reallocate_exactly@?$vector@PAUwm_slot@WallmarksEngine@@V?$xalloc@PAUwm_slot@WallmarksEngine@@@@@std@@AAEXI@Z$0
xdata$x	ENDS
;	COMDAT xdata$x
xdata$x	SEGMENT
__ehfuncinfo$?_Reallocate_exactly@?$vector@PAUstatic_wallmark@CWallmarksEngine@@V?$xalloc@PAUstatic_wallmark@CWallmarksEngine@@@@@std@@AAEXI@Z DD 019930522H
	DD	02H
	DD	FLAT:__unwindtable$?_Reallocate_exactly@?$vector@PAUstatic_wallmark@CWallmarksEngine@@V?$xalloc@PAUstatic_wallmark@CWallmarksEngine@@@@@std@@AAEXI@Z
	DD	01H
	DD	FLAT:__tryblocktable$?_Reallocate_exactly@?$vector@PAUstatic_wallmark@CWallmarksEngine@@V?$xalloc@PAUstatic_wallmark@CWallmarksEngine@@@@@std@@AAEXI@Z
	DD	2 DUP(00H)
	DD	00H
	DD	00H
__unwindtable$?_Reallocate_exactly@?$vector@PAUstatic_wallmark@CWallmarksEngine@@V?$xalloc@PAUstatic_wallmark@CWallmarksEngine@@@@@std@@AAEXI@Z DD 0ffffffffH
	DD	00H
	DD	0ffffffffH
	DD	00H
__tryblocktable$?_Reallocate_exactly@?$vector@PAUstatic_wallmark@CWallmarksEngine@@V?$xalloc@PAUstatic_wallmark@CWallmarksEngine@@@@@std@@AAEXI@Z DD 00H
	DD	00H
	DD	01H
	DD	01H
	DD	FLAT:__catchsym$?_Reallocate_exactly@?$vector@PAUstatic_wallmark@CWallmarksEngine@@V?$xalloc@PAUstatic_wallmark@CWallmarksEngine@@@@@std@@AAEXI@Z$2
__catchsym$?_Reallocate_exactly@?$vector@PAUstatic_wallmark@CWallmarksEngine@@V?$xalloc@PAUstatic_wallmark@CWallmarksEngine@@@@@std@@AAEXI@Z$2 DD 00H
	DD	00H
	DD	00H
	DD	FLAT:__catch$?_Reallocate_exactly@?$vector@PAUstatic_wallmark@CWallmarksEngine@@V?$xalloc@PAUstatic_wallmark@CWallmarksEngine@@@@@std@@AAEXI@Z$0
xdata$x	ENDS
;	COMDAT xdata$x
xdata$x	SEGMENT
__ehfuncinfo$??$_Emplace_reallocate@ABV?$intrusive_ptr@VCSkeletonWallmark@@Uintrusive_base@@@@@?$vector@V?$intrusive_ptr@VCSkeletonWallmark@@Uintrusive_base@@@@V?$xalloc@V?$intrusive_ptr@VCSkeletonWallmark@@Uintrusive_base@@@@@@@std@@QAEPAV?$intrusive_ptr@VCSkeletonWallmark@@Uintrusive_base@@@@QAV2@ABV2@@Z DD 019930522H
	DD	02H
	DD	FLAT:__unwindtable$??$_Emplace_reallocate@ABV?$intrusive_ptr@VCSkeletonWallmark@@Uintrusive_base@@@@@?$vector@V?$intrusive_ptr@VCSkeletonWallmark@@Uintrusive_base@@@@V?$xalloc@V?$intrusive_ptr@VCSkeletonWallmark@@Uintrusive_base@@@@@@@std@@QAEPAV?$intrusive_ptr@VCSkeletonWallmark@@Uintrusive_base@@@@QAV2@ABV2@@Z
	DD	01H
	DD	FLAT:__tryblocktable$??$_Emplace_reallocate@ABV?$intrusive_ptr@VCSkeletonWallmark@@Uintrusive_base@@@@@?$vector@V?$intrusive_ptr@VCSkeletonWallmark@@Uintrusive_base@@@@V?$xalloc@V?$intrusive_ptr@VCSkeletonWallmark@@Uintrusive_base@@@@@@@std@@QAEPAV?$intrusive_ptr@VCSkeletonWallmark@@Uintrusive_base@@@@QAV2@ABV2@@Z
	DD	2 DUP(00H)
	DD	00H
	DD	00H
__unwindtable$??$_Emplace_reallocate@ABV?$intrusive_ptr@VCSkeletonWallmark@@Uintrusive_base@@@@@?$vector@V?$intrusive_ptr@VCSkeletonWallmark@@Uintrusive_base@@@@V?$xalloc@V?$intrusive_ptr@VCSkeletonWallmark@@Uintrusive_base@@@@@@@std@@QAEPAV?$intrusive_ptr@VCSkeletonWallmark@@Uintrusive_base@@@@QAV2@ABV2@@Z DD 0ffffffffH
	DD	00H
	DD	0ffffffffH
	DD	00H
__tryblocktable$??$_Emplace_reallocate@ABV?$intrusive_ptr@VCSkeletonWallmark@@Uintrusive_base@@@@@?$vector@V?$intrusive_ptr@VCSkeletonWallmark@@Uintrusive_base@@@@V?$xalloc@V?$intrusive_ptr@VCSkeletonWallmark@@Uintrusive_base@@@@@@@std@@QAEPAV?$intrusive_ptr@VCSkeletonWallmark@@Uintrusive_base@@@@QAV2@ABV2@@Z DD 00H
	DD	00H
	DD	01H
	DD	01H
	DD	FLAT:__catchsym$??$_Emplace_reallocate@ABV?$intrusive_ptr@VCSkeletonWallmark@@Uintrusive_base@@@@@?$vector@V?$intrusive_ptr@VCSkeletonWallmark@@Uintrusive_base@@@@V?$xalloc@V?$intrusive_ptr@VCSkeletonWallmark@@Uintrusive_base@@@@@@@std@@QAEPAV?$intrusive_ptr@VCSkeletonWallmark@@Uintrusive_base@@@@QAV2@ABV2@@Z$2
__catchsym$??$_Emplace_reallocate@ABV?$intrusive_ptr@VCSkeletonWallmark@@Uintrusive_base@@@@@?$vector@V?$intrusive_ptr@VCSkeletonWallmark@@Uintrusive_base@@@@V?$xalloc@V?$intrusive_ptr@VCSkeletonWallmark@@Uintrusive_base@@@@@@@std@@QAEPAV?$intrusive_ptr@VCSkeletonWallmark@@Uintrusive_base@@@@QAV2@ABV2@@Z$2 DD 00H
	DD	00H
	DD	00H
	DD	FLAT:__catch$??$_Emplace_reallocate@ABV?$intrusive_ptr@VCSkeletonWallmark@@Uintrusive_base@@@@@?$vector@V?$intrusive_ptr@VCSkeletonWallmark@@Uintrusive_base@@@@V?$xalloc@V?$intrusive_ptr@VCSkeletonWallmark@@Uintrusive_base@@@@@@@std@@QAEPAV?$intrusive_ptr@VCSkeletonWallmark@@Uintrusive_base@@@@QAV2@ABV2@@Z$0
xdata$x	ENDS
;	COMDAT xdata$x
xdata$x	SEGMENT
__ehfuncinfo$??$_Emplace_reallocate@PAUwm_slot@WallmarksEngine@@@?$vector@PAUwm_slot@WallmarksEngine@@V?$xalloc@PAUwm_slot@WallmarksEngine@@@@@std@@QAEPAPAUwm_slot@WallmarksEngine@@QAPAU23@$$QAPAU23@@Z DD 019930522H
	DD	02H
	DD	FLAT:__unwindtable$??$_Emplace_reallocate@PAUwm_slot@WallmarksEngine@@@?$vector@PAUwm_slot@WallmarksEngine@@V?$xalloc@PAUwm_slot@WallmarksEngine@@@@@std@@QAEPAPAUwm_slot@WallmarksEngine@@QAPAU23@$$QAPAU23@@Z
	DD	01H
	DD	FLAT:__tryblocktable$??$_Emplace_reallocate@PAUwm_slot@WallmarksEngine@@@?$vector@PAUwm_slot@WallmarksEngine@@V?$xalloc@PAUwm_slot@WallmarksEngine@@@@@std@@QAEPAPAUwm_slot@WallmarksEngine@@QAPAU23@$$QAPAU23@@Z
	DD	2 DUP(00H)
	DD	00H
	DD	00H
__unwindtable$??$_Emplace_reallocate@PAUwm_slot@WallmarksEngine@@@?$vector@PAUwm_slot@WallmarksEngine@@V?$xalloc@PAUwm_slot@WallmarksEngine@@@@@std@@QAEPAPAUwm_slot@WallmarksEngine@@QAPAU23@$$QAPAU23@@Z DD 0ffffffffH
	DD	00H
	DD	0ffffffffH
	DD	00H
__tryblocktable$??$_Emplace_reallocate@PAUwm_slot@WallmarksEngine@@@?$vector@PAUwm_slot@WallmarksEngine@@V?$xalloc@PAUwm_slot@WallmarksEngine@@@@@std@@QAEPAPAUwm_slot@WallmarksEngine@@QAPAU23@$$QAPAU23@@Z DD 00H
	DD	00H
	DD	01H
	DD	01H
	DD	FLAT:__catchsym$??$_Emplace_reallocate@PAUwm_slot@WallmarksEngine@@@?$vector@PAUwm_slot@WallmarksEngine@@V?$xalloc@PAUwm_slot@WallmarksEngine@@@@@std@@QAEPAPAUwm_slot@WallmarksEngine@@QAPAU23@$$QAPAU23@@Z$2
__catchsym$??$_Emplace_reallocate@PAUwm_slot@WallmarksEngine@@@?$vector@PAUwm_slot@WallmarksEngine@@V?$xalloc@PAUwm_slot@WallmarksEngine@@@@@std@@QAEPAPAUwm_slot@WallmarksEngine@@QAPAU23@$$QAPAU23@@Z$2 DD 00H
	DD	00H
	DD	00H
	DD	FLAT:__catch$??$_Emplace_reallocate@PAUwm_slot@WallmarksEngine@@@?$vector@PAUwm_slot@WallmarksEngine@@V?$xalloc@PAUwm_slot@WallmarksEngine@@@@@std@@QAEPAPAUwm_slot@WallmarksEngine@@QAPAU23@$$QAPAU23@@Z$0
xdata$x	ENDS
;	COMDAT xdata$x
xdata$x	SEGMENT
__ehfuncinfo$??$_Emplace_reallocate@ABQAUstatic_wallmark@CWallmarksEngine@@@?$vector@PAUstatic_wallmark@CWallmarksEngine@@V?$xalloc@PAUstatic_wallmark@CWallmarksEngine@@@@@std@@QAEPAPAUstatic_wallmark@CWallmarksEngine@@QAPAU23@ABQAU23@@Z DD 019930522H
	DD	02H
	DD	FLAT:__unwindtable$??$_Emplace_reallocate@ABQAUstatic_wallmark@CWallmarksEngine@@@?$vector@PAUstatic_wallmark@CWallmarksEngine@@V?$xalloc@PAUstatic_wallmark@CWallmarksEngine@@@@@std@@QAEPAPAUstatic_wallmark@CWallmarksEngine@@QAPAU23@ABQAU23@@Z
	DD	01H
	DD	FLAT:__tryblocktable$??$_Emplace_reallocate@ABQAUstatic_wallmark@CWallmarksEngine@@@?$vector@PAUstatic_wallmark@CWallmarksEngine@@V?$xalloc@PAUstatic_wallmark@CWallmarksEngine@@@@@std@@QAEPAPAUstatic_wallmark@CWallmarksEngine@@QAPAU23@ABQAU23@@Z
	DD	2 DUP(00H)
	DD	00H
	DD	00H
__unwindtable$??$_Emplace_reallocate@ABQAUstatic_wallmark@CWallmarksEngine@@@?$vector@PAUstatic_wallmark@CWallmarksEngine@@V?$xalloc@PAUstatic_wallmark@CWallmarksEngine@@@@@std@@QAEPAPAUstatic_wallmark@CWallmarksEngine@@QAPAU23@ABQAU23@@Z DD 0ffffffffH
	DD	00H
	DD	0ffffffffH
	DD	00H
__tryblocktable$??$_Emplace_reallocate@ABQAUstatic_wallmark@CWallmarksEngine@@@?$vector@PAUstatic_wallmark@CWallmarksEngine@@V?$xalloc@PAUstatic_wallmark@CWallmarksEngine@@@@@std@@QAEPAPAUstatic_wallmark@CWallmarksEngine@@QAPAU23@ABQAU23@@Z DD 00H
	DD	00H
	DD	01H
	DD	01H
	DD	FLAT:__catchsym$??$_Emplace_reallocate@ABQAUstatic_wallmark@CWallmarksEngine@@@?$vector@PAUstatic_wallmark@CWallmarksEngine@@V?$xalloc@PAUstatic_wallmark@CWallmarksEngine@@@@@std@@QAEPAPAUstatic_wallmark@CWallmarksEngine@@QAPAU23@ABQAU23@@Z$2
__catchsym$??$_Emplace_reallocate@ABQAUstatic_wallmark@CWallmarksEngine@@@?$vector@PAUstatic_wallmark@CWallmarksEngine@@V?$xalloc@PAUstatic_wallmark@CWallmarksEngine@@@@@std@@QAEPAPAUstatic_wallmark@CWallmarksEngine@@QAPAU23@ABQAU23@@Z$2 DD 00H
	DD	00H
	DD	00H
	DD	FLAT:__catch$??$_Emplace_reallocate@ABQAUstatic_wallmark@CWallmarksEngine@@@?$vector@PAUstatic_wallmark@CWallmarksEngine@@V?$xalloc@PAUstatic_wallmark@CWallmarksEngine@@@@@std@@QAEPAPAUstatic_wallmark@CWallmarksEngine@@QAPAU23@ABQAU23@@Z$0
xdata$x	ENDS
;	COMDAT xdata$x
xdata$x	SEGMENT
__ehfuncinfo$??$_Emplace_reallocate@ABULIT@FVF@@@?$vector@ULIT@FVF@@V?$xalloc@ULIT@FVF@@@@@std@@QAEPAULIT@FVF@@QAU23@ABU23@@Z DD 019930522H
	DD	02H
	DD	FLAT:__unwindtable$??$_Emplace_reallocate@ABULIT@FVF@@@?$vector@ULIT@FVF@@V?$xalloc@ULIT@FVF@@@@@std@@QAEPAULIT@FVF@@QAU23@ABU23@@Z
	DD	01H
	DD	FLAT:__tryblocktable$??$_Emplace_reallocate@ABULIT@FVF@@@?$vector@ULIT@FVF@@V?$xalloc@ULIT@FVF@@@@@std@@QAEPAULIT@FVF@@QAU23@ABU23@@Z
	DD	2 DUP(00H)
	DD	00H
	DD	00H
__unwindtable$??$_Emplace_reallocate@ABULIT@FVF@@@?$vector@ULIT@FVF@@V?$xalloc@ULIT@FVF@@@@@std@@QAEPAULIT@FVF@@QAU23@ABU23@@Z DD 0ffffffffH
	DD	00H
	DD	0ffffffffH
	DD	00H
__tryblocktable$??$_Emplace_reallocate@ABULIT@FVF@@@?$vector@ULIT@FVF@@V?$xalloc@ULIT@FVF@@@@@std@@QAEPAULIT@FVF@@QAU23@ABU23@@Z DD 00H
	DD	00H
	DD	01H
	DD	01H
	DD	FLAT:__catchsym$??$_Emplace_reallocate@ABULIT@FVF@@@?$vector@ULIT@FVF@@V?$xalloc@ULIT@FVF@@@@@std@@QAEPAULIT@FVF@@QAU23@ABU23@@Z$2
__catchsym$??$_Emplace_reallocate@ABULIT@FVF@@@?$vector@ULIT@FVF@@V?$xalloc@ULIT@FVF@@@@@std@@QAEPAULIT@FVF@@QAU23@ABU23@@Z$2 DD 00H
	DD	00H
	DD	00H
	DD	FLAT:__catch$??$_Emplace_reallocate@ABULIT@FVF@@@?$vector@ULIT@FVF@@V?$xalloc@ULIT@FVF@@@@@std@@QAEPAULIT@FVF@@QAU23@ABU23@@Z$0
xdata$x	ENDS
;	COMDAT xdata$x
xdata$x	SEGMENT
__ehfuncinfo$??$_release@VCSkeletonWallmark@@@intrusive_base@@QAEXPAVCSkeletonWallmark@@@Z DD 019930522H
	DD	02H
	DD	FLAT:__unwindtable$??$_release@VCSkeletonWallmark@@@intrusive_base@@QAEXPAVCSkeletonWallmark@@@Z
	DD	01H
	DD	FLAT:__tryblocktable$??$_release@VCSkeletonWallmark@@@intrusive_base@@QAEXPAVCSkeletonWallmark@@@Z
	DD	2 DUP(00H)
	DD	00H
	DD	00H
__unwindtable$??$_release@VCSkeletonWallmark@@@intrusive_base@@QAEXPAVCSkeletonWallmark@@@Z DD 0ffffffffH
	DD	00H
	DD	0ffffffffH
	DD	00H
__tryblocktable$??$_release@VCSkeletonWallmark@@@intrusive_base@@QAEXPAVCSkeletonWallmark@@@Z DD 00H
	DD	00H
	DD	01H
	DD	01H
	DD	FLAT:__catchsym$??$_release@VCSkeletonWallmark@@@intrusive_base@@QAEXPAVCSkeletonWallmark@@@Z$2
__catchsym$??$_release@VCSkeletonWallmark@@@intrusive_base@@QAEXPAVCSkeletonWallmark@@@Z$2 DD 00H
	DD	00H
	DD	00H
	DD	FLAT:__catch$??$_release@VCSkeletonWallmark@@@intrusive_base@@QAEXPAVCSkeletonWallmark@@@Z$0
; Function compile flags: /Ogtpy
; File I:\Vitalya\mine\NSProjectX\layers\xrRender\WallmarksEngine.cpp
; File I:\Vitalya\mine\NSProjectX\xrCore\xr_resource.h
; File I:\Vitalya\mine\NSProjectX\layers\xrRender\WallmarksEngine.cpp
; File I:\Vitalya\mine\NSProjectX\xrCore\xr_resource.h
; File C:\Program Files\Microsoft Visual Studio\2022\Community\VC\Tools\MSVC\14.29.30133\include\vector
; File I:\Vitalya\mine\NSProjectX\layers\xrRender\WallmarksEngine.cpp
; File I:\Vitalya\mine\NSProjectX\xrCore\xr_resource.h
; File C:\Program Files\Microsoft Visual Studio\2022\Community\VC\Tools\MSVC\14.29.30133\include\vector
; File I:\Vitalya\mine\NSProjectX\xrCore\xr_resource.h
; File I:\Vitalya\mine\NSProjectX\layers\xrRender\WallmarksEngine.cpp
;	COMDAT ??0wm_slot@WallmarksEngine@@QAE@V?$resptr_core@UShader@@Uresptrcode_shader@@@@@Z
_TEXT	SEGMENT
_sh$ = 8						; size = 4
??0wm_slot@WallmarksEngine@@QAE@V?$resptr_core@UShader@@Uresptrcode_shader@@@@@Z PROC ; WallmarksEngine::wm_slot::wm_slot, COMDAT
; _this$ = ecx

; 22   : 						wm_slot		(ref_shader sh)	{shader=sh;static_items.reserve(256);skeleton_items.reserve(256);}

	push	ebx
	mov	ebx, ecx
	push	ebp
; File I:\Vitalya\mine\NSProjectX\xrCore\xr_resource.h

; 48   : 	ICF		T *			_get	() const							{	return p_;																					}

	mov	ebp, DWORD PTR _sh$[esp+4]
; File I:\Vitalya\mine\NSProjectX\layers\xrRender\WallmarksEngine.cpp

; 22   : 						wm_slot		(ref_shader sh)	{shader=sh;static_items.reserve(256);skeleton_items.reserve(256);}

	push	esi
; File I:\Vitalya\mine\NSProjectX\xrCore\xr_resource.h

; 61   : 						resptr_core		()												{	p_ = 0;						}

	mov	DWORD PTR [ebx], 0
; File C:\Program Files\Microsoft Visual Studio\2022\Community\VC\Tools\MSVC\14.29.30133\include\vector

; 390  :     _CONSTEXPR20_CONTAINER _Vector_val() noexcept : _Myfirst(), _Mylast(), _Myend() {}

	mov	DWORD PTR [ebx+4], 0
	mov	DWORD PTR [ebx+8], 0
	mov	DWORD PTR [ebx+12], 0
	mov	DWORD PTR [ebx+16], 0
	mov	DWORD PTR [ebx+20], 0
	mov	DWORD PTR [ebx+24], 0
; File I:\Vitalya\mine\NSProjectX\layers\xrRender\WallmarksEngine.cpp

; 22   : 						wm_slot		(ref_shader sh)	{shader=sh;static_items.reserve(256);skeleton_items.reserve(256);}

	push	edi
; File I:\Vitalya\mine\NSProjectX\xrCore\xr_resource.h

; 48   : 	ICF		T *			_get	() const							{	return p_;																					}

	test	ebp, ebp

; 46   : 	ICF		void		_set	(T * rhs) 							{	if (0!=rhs) rhs->dwReference++;	_dec(); p_ = rhs;											}

	je	SHORT $LN28@wm_slot
	inc	DWORD PTR [ebp]
$LN28@wm_slot:
	call	DWORD PTR __imp_?_dec@?$resptr_base@UShader@@@@IAEXXZ
	mov	DWORD PTR [ebx], ebp
; File C:\Program Files\Microsoft Visual Studio\2022\Community\VC\Tools\MSVC\14.29.30133\include\vector

; 1546 :         return static_cast<size_type>(_My_data._Myend - _My_data._Myfirst);

	mov	eax, DWORD PTR [ebx+12]
	sub	eax, DWORD PTR [ebx+4]
	sar	eax, 2

; 1358 :         if (_Newcapacity > capacity()) { // something to do (reserve() never shrinks)

	cmp	eax, 256				; 00000100H
	jae	SHORT $LN31@wm_slot

; 1359 :             if (_Newcapacity > max_size()) {
; 1360 :                 _Xlength();
; 1361 :             }
; 1362 : 
; 1363 :             _Reallocate_exactly(_Newcapacity);

	push	ecx
	lea	ecx, DWORD PTR [ebx+4]
	call	?_Reallocate_exactly@?$vector@PAUstatic_wallmark@CWallmarksEngine@@V?$xalloc@PAUstatic_wallmark@CWallmarksEngine@@@@@std@@AAEXI@Z ; std::vector<CWallmarksEngine::static_wallmark *,xalloc<CWallmarksEngine::static_wallmark *> >::_Reallocate_exactly
$LN31@wm_slot:

; 1546 :         return static_cast<size_type>(_My_data._Myend - _My_data._Myfirst);

	mov	eax, DWORD PTR [ebx+24]
	sub	eax, DWORD PTR [ebx+16]
	sar	eax, 2

; 1358 :         if (_Newcapacity > capacity()) { // something to do (reserve() never shrinks)

	cmp	eax, 256				; 00000100H
	jae	SHORT $LN38@wm_slot

; 1359 :             if (_Newcapacity > max_size()) {
; 1360 :                 _Xlength();
; 1361 :             }
; 1362 : 
; 1363 :             _Reallocate_exactly(_Newcapacity);

	push	ecx
	lea	ecx, DWORD PTR [ebx+16]
	call	?_Reallocate_exactly@?$vector@V?$intrusive_ptr@VCSkeletonWallmark@@Uintrusive_base@@@@V?$xalloc@V?$intrusive_ptr@VCSkeletonWallmark@@Uintrusive_base@@@@@@@std@@AAEXI@Z ; std::vector<intrusive_ptr<CSkeletonWallmark,intrusive_base>,xalloc<intrusive_ptr<CSkeletonWallmark,intrusive_base> > >::_Reallocate_exactly
$LN38@wm_slot:
; File I:\Vitalya\mine\NSProjectX\xrCore\xr_resource.h

; 64   : 						~resptr_core	()												{	_dec();						}

	lea	ecx, DWORD PTR _sh$[esp+12]
	call	DWORD PTR __imp_?_dec@?$resptr_base@UShader@@@@IAEXXZ
; File I:\Vitalya\mine\NSProjectX\layers\xrRender\WallmarksEngine.cpp

; 22   : 						wm_slot		(ref_shader sh)	{shader=sh;static_items.reserve(256);skeleton_items.reserve(256);}

	pop	edi
	pop	esi
	pop	ebp
	mov	eax, ebx
	pop	ebx
	ret	4
??0wm_slot@WallmarksEngine@@QAE@V?$resptr_core@UShader@@Uresptrcode_shader@@@@@Z ENDP ; WallmarksEngine::wm_slot::wm_slot
_TEXT	ENDS
; Function compile flags: /Ogtpy
; File C:\Program Files\Microsoft Visual Studio\2022\Community\VC\Tools\MSVC\14.29.30133\include\vector
; File I:\Vitalya\mine\NSProjectX\xrCore\xrMemory.h
; File C:\Program Files\Microsoft Visual Studio\2022\Community\VC\Tools\MSVC\14.29.30133\include\vector
;	COMDAT ??1?$xr_vector@PAUstatic_wallmark@CWallmarksEngine@@V?$xalloc@PAUstatic_wallmark@CWallmarksEngine@@@@@@QAE@XZ
_TEXT	SEGMENT
??1?$xr_vector@PAUstatic_wallmark@CWallmarksEngine@@V?$xalloc@PAUstatic_wallmark@CWallmarksEngine@@@@@@QAE@XZ PROC ; xr_vector<CWallmarksEngine::static_wallmark *,xalloc<CWallmarksEngine::static_wallmark *> >::~xr_vector<CWallmarksEngine::static_wallmark *,xalloc<CWallmarksEngine::static_wallmark *> >, COMDAT
; _this$ = ecx

; 1750 :         if (_Myfirst) { // destroy and deallocate old array

	push	esi
	mov	esi, ecx
	mov	eax, DWORD PTR [esi]
	test	eax, eax
	je	SHORT $LN6@xr_vector
; File I:\Vitalya\mine\NSProjectX\xrCore\xrMemory.h

; 109  : 	IC void		xr_free		(T* &P)					{	if (P) { Memory.mem_free((void*)P); P=NULL;	};	}

	mov	ecx, DWORD PTR __imp_?Memory@@3VxrMemory@@A
	push	eax
	call	DWORD PTR __imp_?mem_free@xrMemory@@QAEXPAX@Z
; File C:\Program Files\Microsoft Visual Studio\2022\Community\VC\Tools\MSVC\14.29.30133\include\vector

; 1754 :             _Myfirst = nullptr;

	mov	DWORD PTR [esi], 0

; 1755 :             _Mylast  = nullptr;

	mov	DWORD PTR [esi+4], 0

; 1756 :             _Myend   = nullptr;

	mov	DWORD PTR [esi+8], 0
$LN6@xr_vector:
	pop	esi
	ret	0
??1?$xr_vector@PAUstatic_wallmark@CWallmarksEngine@@V?$xalloc@PAUstatic_wallmark@CWallmarksEngine@@@@@@QAE@XZ ENDP ; xr_vector<CWallmarksEngine::static_wallmark *,xalloc<CWallmarksEngine::static_wallmark *> >::~xr_vector<CWallmarksEngine::static_wallmark *,xalloc<CWallmarksEngine::static_wallmark *> >
_TEXT	ENDS
; Function compile flags: /Ogtpy
; File C:\Program Files\Microsoft Visual Studio\2022\Community\VC\Tools\MSVC\14.29.30133\include\vector
; File I:\Vitalya\mine\NSProjectX\xrCore\xrMemory.h
; File C:\Program Files\Microsoft Visual Studio\2022\Community\VC\Tools\MSVC\14.29.30133\include\vector
;	COMDAT ??1?$xr_vector@V?$intrusive_ptr@VCSkeletonWallmark@@Uintrusive_base@@@@V?$xalloc@V?$intrusive_ptr@VCSkeletonWallmark@@Uintrusive_base@@@@@@@@QAE@XZ
_TEXT	SEGMENT
??1?$xr_vector@V?$intrusive_ptr@VCSkeletonWallmark@@Uintrusive_base@@@@V?$xalloc@V?$intrusive_ptr@VCSkeletonWallmark@@Uintrusive_base@@@@@@@@QAE@XZ PROC ; xr_vector<intrusive_ptr<CSkeletonWallmark,intrusive_base>,xalloc<intrusive_ptr<CSkeletonWallmark,intrusive_base> > >::~xr_vector<intrusive_ptr<CSkeletonWallmark,intrusive_base>,xalloc<intrusive_ptr<CSkeletonWallmark,intrusive_base> > >, COMDAT
; _this$ = ecx

; 1750 :         if (_Myfirst) { // destroy and deallocate old array

	push	esi
	mov	esi, ecx
	mov	eax, DWORD PTR [esi]
	test	eax, eax
	je	SHORT $LN6@xr_vector
; File I:\Vitalya\mine\NSProjectX\xrCore\xrMemory.h

; 109  : 	IC void		xr_free		(T* &P)					{	if (P) { Memory.mem_free((void*)P); P=NULL;	};	}

	mov	ecx, DWORD PTR __imp_?Memory@@3VxrMemory@@A
	push	eax
	call	DWORD PTR __imp_?mem_free@xrMemory@@QAEXPAX@Z
; File C:\Program Files\Microsoft Visual Studio\2022\Community\VC\Tools\MSVC\14.29.30133\include\vector

; 1754 :             _Myfirst = nullptr;

	mov	DWORD PTR [esi], 0

; 1755 :             _Mylast  = nullptr;

	mov	DWORD PTR [esi+4], 0

; 1756 :             _Myend   = nullptr;

	mov	DWORD PTR [esi+8], 0
$LN6@xr_vector:
	pop	esi
	ret	0
??1?$xr_vector@V?$intrusive_ptr@VCSkeletonWallmark@@Uintrusive_base@@@@V?$xalloc@V?$intrusive_ptr@VCSkeletonWallmark@@Uintrusive_base@@@@@@@@QAE@XZ ENDP ; xr_vector<intrusive_ptr<CSkeletonWallmark,intrusive_base>,xalloc<intrusive_ptr<CSkeletonWallmark,intrusive_base> > >::~xr_vector<intrusive_ptr<CSkeletonWallmark,intrusive_base>,xalloc<intrusive_ptr<CSkeletonWallmark,intrusive_base> > >
_TEXT	ENDS
; Function compile flags: /Ogtpy
; File I:\Vitalya\mine\NSProjectX\layers\xrRender\WallmarksEngine.cpp
; File I:\Vitalya\mine\NSProjectX\xrCore\xr_resource.h
; File I:\Vitalya\mine\NSProjectX\layers\xrRender\WallmarksEngine.cpp
;	COMDAT ??8@YA_NPBUwm_slot@WallmarksEngine@@ABV?$resptr_core@UShader@@Uresptrcode_shader@@@@@Z
_TEXT	SEGMENT
??8@YA_NPBUwm_slot@WallmarksEngine@@ABV?$resptr_core@UShader@@Uresptrcode_shader@@@@@Z PROC ; operator==, COMDAT
; _slot$ = ecx
; _shader$ = edx
; File I:\Vitalya\mine\NSProjectX\xrCore\xr_resource.h

; 90   : template<class T, class U, typename D>	inline bool operator	==	(resptr_core<T,D> const & a, resptr_core<U,D> const & b)		{ return a._get() == b._get();						}

	mov	eax, DWORD PTR [ecx]
	cmp	eax, DWORD PTR [edx]
	sete	al
; File I:\Vitalya\mine\NSProjectX\layers\xrRender\WallmarksEngine.cpp

; 33   : IC bool operator == (const CWallmarksEngine::wm_slot* slot, const ref_shader& shader){return slot->shader==shader;}

	ret	0
??8@YA_NPBUwm_slot@WallmarksEngine@@ABV?$resptr_core@UShader@@Uresptrcode_shader@@@@@Z ENDP ; operator==
_TEXT	ENDS
; Function compile flags: /Ogtpy
; File I:\Vitalya\mine\NSProjectX\layers\xrRender\WallmarksEngine.cpp
; File C:\Program Files\Microsoft Visual Studio\2022\Community\VC\Tools\MSVC\14.29.30133\include\xutility
; File I:\Vitalya\mine\NSProjectX\xrCore\xr_resource.h
; File C:\Program Files\Microsoft Visual Studio\2022\Community\VC\Tools\MSVC\14.29.30133\include\xutility
; File I:\Vitalya\mine\NSProjectX\xrCore\xr_resource.h
; File I:\Vitalya\mine\NSProjectX\layers\xrRender\WallmarksEngine.cpp
; File I:\Vitalya\mine\NSProjectX\xrCore\xr_resource.h
; File I:\Vitalya\mine\NSProjectX\layers\xrRender\WallmarksEngine.cpp
; File I:\Vitalya\mine\NSProjectX\xrCore\xr_resource.h
; File I:\Vitalya\mine\NSProjectX\layers\xrRender\WallmarksEngine.cpp
; File I:\Vitalya\mine\NSProjectX\xrCore\xr_resource.h
; File I:\Vitalya\mine\NSProjectX\layers\xrRender\WallmarksEngine.cpp
_TEXT	SEGMENT
_shader$ = 8						; size = 4
?FindSlot@CWallmarksEngine@@AAEPAUwm_slot@WallmarksEngine@@V?$resptr_core@UShader@@Uresptrcode_shader@@@@@Z PROC ; CWallmarksEngine::FindSlot
; _this$ = ecx

; 35   : {

	push	esi
; File C:\Program Files\Microsoft Visual Studio\2022\Community\VC\Tools\MSVC\14.29.30133\include\xutility

; 5227 :     _Seek_wrapped(_First, _Find_unchecked(_Get_unwrapped(_First), _Get_unwrapped(_Last), _Val));

	mov	esi, DWORD PTR [ecx+16]

; 5221 :     return _Find_unchecked1(_First, _Last, _Val, bool_constant<_Memchr_in_find_is_safe<_InIt, _Ty>>{});

	mov	ecx, DWORD PTR [ecx+12]

; 5185 :     for (; _First != _Last; ++_First) {

	cmp	ecx, esi
	je	SHORT $LN3@FindSlot
	mov	eax, DWORD PTR _shader$[esp]
	npad	1
$LL24@FindSlot:
; File I:\Vitalya\mine\NSProjectX\xrCore\xr_resource.h

; 48   : 	ICF		T *			_get	() const							{	return p_;																					}

	mov	edx, DWORD PTR [ecx]

; 90   : template<class T, class U, typename D>	inline bool operator	==	(resptr_core<T,D> const & a, resptr_core<U,D> const & b)		{ return a._get() == b._get();						}

	cmp	DWORD PTR [edx], eax
; File C:\Program Files\Microsoft Visual Studio\2022\Community\VC\Tools\MSVC\14.29.30133\include\xutility

; 5186 :         if (*_First == _Val) {

	je	SHORT $LN52@FindSlot

; 5185 :     for (; _First != _Last; ++_First) {

	add	ecx, 4
	cmp	ecx, esi
	jne	SHORT $LL24@FindSlot
$LN3@FindSlot:
; File I:\Vitalya\mine\NSProjectX\xrCore\xr_resource.h

; 64   : 						~resptr_core	()												{	_dec();						}

	lea	ecx, DWORD PTR _shader$[esp]
; File I:\Vitalya\mine\NSProjectX\layers\xrRender\WallmarksEngine.cpp

; 37   : 	return						(it!=marks.end())?*it:0;

	xor	esi, esi
; File I:\Vitalya\mine\NSProjectX\xrCore\xr_resource.h

; 64   : 						~resptr_core	()												{	_dec();						}

	call	DWORD PTR __imp_?_dec@?$resptr_base@UShader@@@@IAEXXZ
; File I:\Vitalya\mine\NSProjectX\layers\xrRender\WallmarksEngine.cpp

; 37   : 	return						(it!=marks.end())?*it:0;

	mov	eax, esi
	pop	esi

; 38   : }

	ret	4
$LN52@FindSlot:
; File I:\Vitalya\mine\NSProjectX\xrCore\xr_resource.h

; 64   : 						~resptr_core	()												{	_dec();						}

	lea	ecx, DWORD PTR _shader$[esp]
; File I:\Vitalya\mine\NSProjectX\layers\xrRender\WallmarksEngine.cpp

; 37   : 	return						(it!=marks.end())?*it:0;

	mov	esi, edx
; File I:\Vitalya\mine\NSProjectX\xrCore\xr_resource.h

; 64   : 						~resptr_core	()												{	_dec();						}

	call	DWORD PTR __imp_?_dec@?$resptr_base@UShader@@@@IAEXXZ
; File I:\Vitalya\mine\NSProjectX\layers\xrRender\WallmarksEngine.cpp

; 37   : 	return						(it!=marks.end())?*it:0;

	mov	eax, esi
	pop	esi

; 38   : }

	ret	4
?FindSlot@CWallmarksEngine@@AAEPAUwm_slot@WallmarksEngine@@V?$resptr_core@UShader@@Uresptrcode_shader@@@@@Z ENDP ; CWallmarksEngine::FindSlot
_TEXT	ENDS
; Function compile flags: /Ogtpy
; File I:\Vitalya\mine\NSProjectX\layers\xrRender\WallmarksEngine.cpp
; File I:\Vitalya\mine\NSProjectX\xrCore\xrMemory_subst_msvc.h
; File I:\Vitalya\mine\NSProjectX\xrCore\xr_resource.h
; File I:\Vitalya\mine\NSProjectX\xrCore\xrMemory_subst_msvc.h
; File I:\Vitalya\mine\NSProjectX\xrCore\xr_resource.h
; File C:\Program Files\Microsoft Visual Studio\2022\Community\VC\Tools\MSVC\14.29.30133\include\vector
; File I:\Vitalya\mine\NSProjectX\xrCore\xr_resource.h
; File C:\Program Files\Microsoft Visual Studio\2022\Community\VC\Tools\MSVC\14.29.30133\include\vector
; File I:\Vitalya\mine\NSProjectX\xrCore\xr_resource.h
; File I:\Vitalya\mine\NSProjectX\layers\xrRender\WallmarksEngine.cpp
; File C:\Program Files\Microsoft Visual Studio\2022\Community\VC\Tools\MSVC\14.29.30133\include\vector
; File I:\Vitalya\mine\NSProjectX\layers\xrRender\WallmarksEngine.cpp
; File C:\Program Files\Microsoft Visual Studio\2022\Community\VC\Tools\MSVC\14.29.30133\include\vector
; File I:\Vitalya\mine\NSProjectX\layers\xrRender\WallmarksEngine.cpp
; File I:\Vitalya\mine\NSProjectX\xrCore\xr_resource.h
; File I:\Vitalya\mine\NSProjectX\layers\xrRender\WallmarksEngine.cpp
; File I:\Vitalya\mine\NSProjectX\xrCore\xr_resource.h
; File I:\Vitalya\mine\NSProjectX\layers\xrRender\WallmarksEngine.cpp
_TEXT	SEGMENT
$T1 = -8						; size = 4
$T2 = -8						; size = 4
_this$1$ = -4						; size = 4
_shader$ = 8						; size = 4
?AppendSlot@CWallmarksEngine@@AAEPAUwm_slot@WallmarksEngine@@V?$resptr_core@UShader@@Uresptrcode_shader@@@@@Z PROC ; CWallmarksEngine::AppendSlot
; _this$ = ecx

; 40   : {

	sub	esp, 8
	push	ebx
	push	ebp
	push	esi
	push	edi
	mov	DWORD PTR _this$1$[esp+24], ecx
; File I:\Vitalya\mine\NSProjectX\xrCore\xrMemory_subst_msvc.h

; 74   : 	T* ptr	= (T*)Memory.mem_alloc(sizeof(T));

	mov	ecx, DWORD PTR __imp_?Memory@@3VxrMemory@@A
	push	28					; 0000001cH
	call	DWORD PTR __imp_?mem_alloc@xrMemory@@QAEPAXI@Z
; File I:\Vitalya\mine\NSProjectX\xrCore\xr_resource.h

; 63   : 						resptr_core		(const self & rhs)								{	p_ = rhs.p_; _inc();		}

	mov	esi, DWORD PTR _shader$[esp+20]
; File I:\Vitalya\mine\NSProjectX\xrCore\xrMemory_subst_msvc.h

; 75   : 	return new (ptr) T(p1);

	mov	ebx, eax
; File I:\Vitalya\mine\NSProjectX\xrCore\xr_resource.h

; 63   : 						resptr_core		(const self & rhs)								{	p_ = rhs.p_; _inc();		}

	mov	DWORD PTR $T1[esp+24], esi

; 43   : 	void				_inc	()									{	if (0==p_) return;	p_->dwReference++;														}

	test	esi, esi
	je	SHORT $LN7@AppendSlot
	inc	DWORD PTR [esi]
	mov	esi, DWORD PTR $T1[esp+24]
$LN7@AppendSlot:

; 61   : 						resptr_core		()												{	p_ = 0;						}

	mov	DWORD PTR [ebx], 0
; File C:\Program Files\Microsoft Visual Studio\2022\Community\VC\Tools\MSVC\14.29.30133\include\vector

; 390  :     _CONSTEXPR20_CONTAINER _Vector_val() noexcept : _Myfirst(), _Mylast(), _Myend() {}

	mov	DWORD PTR [ebx+4], 0
	mov	DWORD PTR [ebx+8], 0
	mov	DWORD PTR [ebx+12], 0
	mov	DWORD PTR [ebx+16], 0
	mov	DWORD PTR [ebx+20], 0
	mov	DWORD PTR [ebx+24], 0
; File I:\Vitalya\mine\NSProjectX\xrCore\xr_resource.h

; 48   : 	ICF		T *			_get	() const							{	return p_;																					}

	test	esi, esi

; 46   : 	ICF		void		_set	(T * rhs) 							{	if (0!=rhs) rhs->dwReference++;	_dec(); p_ = rhs;											}

	je	SHORT $LN37@AppendSlot
	inc	DWORD PTR [esi]
$LN37@AppendSlot:
	mov	ecx, ebx
	call	DWORD PTR __imp_?_dec@?$resptr_base@UShader@@@@IAEXXZ
	mov	DWORD PTR [ebx], esi
; File C:\Program Files\Microsoft Visual Studio\2022\Community\VC\Tools\MSVC\14.29.30133\include\vector

; 1546 :         return static_cast<size_type>(_My_data._Myend - _My_data._Myfirst);

	mov	eax, DWORD PTR [ebx+12]
	sub	eax, DWORD PTR [ebx+4]
	sar	eax, 2

; 1358 :         if (_Newcapacity > capacity()) { // something to do (reserve() never shrinks)

	cmp	eax, 256				; 00000100H
	jae	SHORT $LN40@AppendSlot

; 1359 :             if (_Newcapacity > max_size()) {
; 1360 :                 _Xlength();
; 1361 :             }
; 1362 : 
; 1363 :             _Reallocate_exactly(_Newcapacity);

	push	ecx
	lea	ecx, DWORD PTR [ebx+4]
	call	?_Reallocate_exactly@?$vector@PAUstatic_wallmark@CWallmarksEngine@@V?$xalloc@PAUstatic_wallmark@CWallmarksEngine@@@@@std@@AAEXI@Z ; std::vector<CWallmarksEngine::static_wallmark *,xalloc<CWallmarksEngine::static_wallmark *> >::_Reallocate_exactly
$LN40@AppendSlot:

; 1546 :         return static_cast<size_type>(_My_data._Myend - _My_data._Myfirst);

	mov	eax, DWORD PTR [ebx+24]
	sub	eax, DWORD PTR [ebx+16]
	sar	eax, 2

; 1358 :         if (_Newcapacity > capacity()) { // something to do (reserve() never shrinks)

	cmp	eax, 256				; 00000100H
	jae	SHORT $LN47@AppendSlot

; 1359 :             if (_Newcapacity > max_size()) {
; 1360 :                 _Xlength();
; 1361 :             }
; 1362 : 
; 1363 :             _Reallocate_exactly(_Newcapacity);

	push	ecx
	lea	ecx, DWORD PTR [ebx+16]
	call	?_Reallocate_exactly@?$vector@V?$intrusive_ptr@VCSkeletonWallmark@@Uintrusive_base@@@@V?$xalloc@V?$intrusive_ptr@VCSkeletonWallmark@@Uintrusive_base@@@@@@@std@@AAEXI@Z ; std::vector<intrusive_ptr<CSkeletonWallmark,intrusive_base>,xalloc<intrusive_ptr<CSkeletonWallmark,intrusive_base> > >::_Reallocate_exactly
$LN47@AppendSlot:
; File I:\Vitalya\mine\NSProjectX\xrCore\xr_resource.h

; 64   : 						~resptr_core	()												{	_dec();						}

	lea	ecx, DWORD PTR $T1[esp+24]
	call	DWORD PTR __imp_?_dec@?$resptr_base@UShader@@@@IAEXXZ
; File I:\Vitalya\mine\NSProjectX\layers\xrRender\WallmarksEngine.cpp

; 41   : 	marks.push_back				(xr_new<wm_slot>(shader));

	mov	esi, DWORD PTR _this$1$[esp+24]
; File C:\Program Files\Microsoft Visual Studio\2022\Community\VC\Tools\MSVC\14.29.30133\include\vector

; 730  :         if (_Mylast != _My_data._Myend) {

	mov	eax, DWORD PTR [esi+16]
; File I:\Vitalya\mine\NSProjectX\layers\xrRender\WallmarksEngine.cpp

; 41   : 	marks.push_back				(xr_new<wm_slot>(shader));

	lea	ecx, DWORD PTR [esi+12]
	mov	DWORD PTR $T2[esp+24], ebx
; File C:\Program Files\Microsoft Visual Studio\2022\Community\VC\Tools\MSVC\14.29.30133\include\vector

; 730  :         if (_Mylast != _My_data._Myend) {

	cmp	eax, DWORD PTR [ecx+8]
	je	SHORT $LN59@AppendSlot

; 713  :         _Alty_traits::construct(_Getal(), _Unfancy(_Mylast), _STD forward<_Valty>(_Val)...);

	mov	DWORD PTR [eax], ebx

; 714  :         _Orphan_range(_Mylast, _Mylast);
; 715  :         _Ty& _Result = *_Mylast;
; 716  :         ++_Mylast;

	add	DWORD PTR [ecx+4], 4

; 731  :             return _Emplace_back_with_unused_capacity(_STD forward<_Valty>(_Val)...);

	jmp	SHORT $LN58@AppendSlot
$LN59@AppendSlot:

; 732  :         }
; 733  : 
; 734  :         _Ty& _Result = *_Emplace_reallocate(_Mylast, _STD forward<_Valty>(_Val)...);

	lea	edx, DWORD PTR $T2[esp+24]
	push	edx
	push	eax
	call	??$_Emplace_reallocate@PAUwm_slot@WallmarksEngine@@@?$vector@PAUwm_slot@WallmarksEngine@@V?$xalloc@PAUwm_slot@WallmarksEngine@@@@@std@@QAEPAPAUwm_slot@WallmarksEngine@@QAPAU23@$$QAPAU23@@Z ; std::vector<WallmarksEngine::wm_slot *,xalloc<WallmarksEngine::wm_slot *> >::_Emplace_reallocate<WallmarksEngine::wm_slot *>
$LN58@AppendSlot:
; File I:\Vitalya\mine\NSProjectX\layers\xrRender\WallmarksEngine.cpp

; 42   : 	return marks.back			();

	mov	eax, DWORD PTR [esi+16]
; File I:\Vitalya\mine\NSProjectX\xrCore\xr_resource.h

; 64   : 						~resptr_core	()												{	_dec();						}

	lea	ecx, DWORD PTR _shader$[esp+20]
; File I:\Vitalya\mine\NSProjectX\layers\xrRender\WallmarksEngine.cpp

; 42   : 	return marks.back			();

	mov	esi, DWORD PTR [eax-4]
; File I:\Vitalya\mine\NSProjectX\xrCore\xr_resource.h

; 64   : 						~resptr_core	()												{	_dec();						}

	call	DWORD PTR __imp_?_dec@?$resptr_base@UShader@@@@IAEXXZ
; File I:\Vitalya\mine\NSProjectX\layers\xrRender\WallmarksEngine.cpp

; 43   : }

	pop	edi
	mov	eax, esi
	pop	esi
	pop	ebp
	pop	ebx
	add	esp, 8
	ret	4
?AppendSlot@CWallmarksEngine@@AAEPAUwm_slot@WallmarksEngine@@V?$resptr_core@UShader@@Uresptrcode_shader@@@@@Z ENDP ; CWallmarksEngine::AppendSlot
_TEXT	ENDS
; Function compile flags: /Ogtpy
; File I:\Vitalya\mine\NSProjectX\layers\xrRender\WallmarksEngine.cpp
; File C:\Program Files\Microsoft Visual Studio\2022\Community\VC\Tools\MSVC\14.29.30133\include\vector
; File I:\Vitalya\mine\NSProjectX\xrCore\xr_resource.h
; File I:\Vitalya\mine\NSProjectX\xrCore\FixedVector.h
; File I:\Vitalya\mine\NSProjectX\layers\xrRender\WallmarksEngine.cpp
; File C:\Program Files\Microsoft Visual Studio\2022\Community\VC\Tools\MSVC\14.29.30133\include\vector
; File I:\Vitalya\mine\NSProjectX\layers\xrRender\WallmarksEngine.cpp
; File C:\Program Files\Microsoft Visual Studio\2022\Community\VC\Tools\MSVC\14.29.30133\include\vector
; File I:\Vitalya\mine\NSProjectX\layers\xrRender\WallmarksEngine.cpp
_TEXT	SEGMENT
??0CWallmarksEngine@@QAE@XZ PROC			; CWallmarksEngine::CWallmarksEngine
; _this$ = ecx

; 53   : {

	push	ebx
	push	esi
	mov	esi, ecx
	push	edi
	lea	ecx, DWORD PTR [esi+1444]
; File C:\Program Files\Microsoft Visual Studio\2022\Community\VC\Tools\MSVC\14.29.30133\include\vector

; 390  :     _CONSTEXPR20_CONTAINER _Vector_val() noexcept : _Myfirst(), _Mylast(), _Myend() {}

	mov	DWORD PTR [esi], 0
	mov	DWORD PTR [esi+4], 0
	mov	DWORD PTR [esi+8], 0
	mov	DWORD PTR [esi+12], 0
	mov	DWORD PTR [esi+16], 0
	mov	DWORD PTR [esi+20], 0
; File I:\Vitalya\mine\NSProjectX\xrCore\xr_resource.h

; 61   : 						resptr_core		()												{	p_ = 0;						}

	mov	DWORD PTR [esi+24], 0
; File I:\Vitalya\mine\NSProjectX\xrCore\FixedVector.h

; 21   : 	svector() : count(0) 

	mov	DWORD PTR [esi+860], 0
	mov	DWORD PTR [esi+1440], 0
; File I:\Vitalya\mine\NSProjectX\layers\xrRender\WallmarksEngine.cpp

; 53   : {

	call	DWORD PTR __imp_??0xrXRC@@QAE@XZ
	lea	ecx, DWORD PTR [esi+1468]
	call	DWORD PTR __imp_??0Collector@CDB@@QAE@XZ
	lea	ecx, DWORD PTR [esi+1504]
; File C:\Program Files\Microsoft Visual Studio\2022\Community\VC\Tools\MSVC\14.29.30133\include\vector

; 390  :     _CONSTEXPR20_CONTAINER _Vector_val() noexcept : _Myfirst(), _Mylast(), _Myend() {}

	mov	DWORD PTR [esi+1492], 0
	mov	DWORD PTR [esi+1496], 0
	mov	DWORD PTR [esi+1500], 0
; File I:\Vitalya\mine\NSProjectX\layers\xrRender\WallmarksEngine.cpp

; 53   : {

	call	DWORD PTR __imp_??0xrCriticalSection@@QAE@XZ
; File C:\Program Files\Microsoft Visual Studio\2022\Community\VC\Tools\MSVC\14.29.30133\include\vector

; 1546 :         return static_cast<size_type>(_My_data._Myend - _My_data._Myfirst);

	mov	eax, DWORD PTR [esi+8]
	sub	eax, DWORD PTR [esi]
	sar	eax, 2

; 1358 :         if (_Newcapacity > capacity()) { // something to do (reserve() never shrinks)

	cmp	eax, 256				; 00000100H
	jae	SHORT $LN34@CWallmarks

; 1359 :             if (_Newcapacity > max_size()) {
; 1360 :                 _Xlength();
; 1361 :             }
; 1362 : 
; 1363 :             _Reallocate_exactly(_Newcapacity);

	push	ecx
	mov	ecx, esi
	call	?_Reallocate_exactly@?$vector@PAUstatic_wallmark@CWallmarksEngine@@V?$xalloc@PAUstatic_wallmark@CWallmarksEngine@@@@@std@@AAEXI@Z ; std::vector<CWallmarksEngine::static_wallmark *,xalloc<CWallmarksEngine::static_wallmark *> >::_Reallocate_exactly
$LN34@CWallmarks:

; 1546 :         return static_cast<size_type>(_My_data._Myend - _My_data._Myfirst);

	mov	eax, DWORD PTR [esi+20]
	sub	eax, DWORD PTR [esi+12]
	sar	eax, 2

; 1358 :         if (_Newcapacity > capacity()) { // something to do (reserve() never shrinks)

	cmp	eax, 256				; 00000100H
	jae	SHORT $LN41@CWallmarks

; 1359 :             if (_Newcapacity > max_size()) {
; 1360 :                 _Xlength();
; 1361 :             }
; 1362 : 
; 1363 :             _Reallocate_exactly(_Newcapacity);

	push	ecx
	lea	ecx, DWORD PTR [esi+12]
	call	?_Reallocate_exactly@?$vector@PAUwm_slot@WallmarksEngine@@V?$xalloc@PAUwm_slot@WallmarksEngine@@@@@std@@AAEXI@Z ; std::vector<WallmarksEngine::wm_slot *,xalloc<WallmarksEngine::wm_slot *> >::_Reallocate_exactly
$LN41@CWallmarks:
; File I:\Vitalya\mine\NSProjectX\layers\xrRender\WallmarksEngine.cpp

; 56   : 	hGeom.create			(FVF::F_LIT, RCache.Vertex.Buffer(), NULL);

	mov	eax, DWORD PTR __imp_?RCache@@3VCBackend@@A
	lea	ecx, DWORD PTR [esi+24]
	push	0
	push	DWORD PTR [eax]
	push	322					; 00000142H
	call	DWORD PTR __imp_?create@resptrcode_geom@@QAEXIPAUIDirect3DVertexBuffer9@@PAUIDirect3DIndexBuffer9@@@Z

; 57   : }

	pop	edi
	mov	eax, esi
	pop	esi
	pop	ebx
	ret	0
??0CWallmarksEngine@@QAE@XZ ENDP			; CWallmarksEngine::CWallmarksEngine
_TEXT	ENDS
; Function compile flags: /Ogtpy
; File C:\Program Files\Microsoft Visual Studio\2022\Community\VC\Tools\MSVC\14.29.30133\include\vector
; File I:\Vitalya\mine\NSProjectX\xrCore\xrMemory.h
; File C:\Program Files\Microsoft Visual Studio\2022\Community\VC\Tools\MSVC\14.29.30133\include\vector
;	COMDAT ??1?$xr_vector@PAUwm_slot@WallmarksEngine@@V?$xalloc@PAUwm_slot@WallmarksEngine@@@@@@QAE@XZ
_TEXT	SEGMENT
??1?$xr_vector@PAUwm_slot@WallmarksEngine@@V?$xalloc@PAUwm_slot@WallmarksEngine@@@@@@QAE@XZ PROC ; xr_vector<WallmarksEngine::wm_slot *,xalloc<WallmarksEngine::wm_slot *> >::~xr_vector<WallmarksEngine::wm_slot *,xalloc<WallmarksEngine::wm_slot *> >, COMDAT
; _this$ = ecx

; 1750 :         if (_Myfirst) { // destroy and deallocate old array

	push	esi
	mov	esi, ecx
	mov	eax, DWORD PTR [esi]
	test	eax, eax
	je	SHORT $LN6@xr_vector
; File I:\Vitalya\mine\NSProjectX\xrCore\xrMemory.h

; 109  : 	IC void		xr_free		(T* &P)					{	if (P) { Memory.mem_free((void*)P); P=NULL;	};	}

	mov	ecx, DWORD PTR __imp_?Memory@@3VxrMemory@@A
	push	eax
	call	DWORD PTR __imp_?mem_free@xrMemory@@QAEXPAX@Z
; File C:\Program Files\Microsoft Visual Studio\2022\Community\VC\Tools\MSVC\14.29.30133\include\vector

; 1754 :             _Myfirst = nullptr;

	mov	DWORD PTR [esi], 0

; 1755 :             _Mylast  = nullptr;

	mov	DWORD PTR [esi+4], 0

; 1756 :             _Myend   = nullptr;

	mov	DWORD PTR [esi+8], 0
$LN6@xr_vector:
	pop	esi
	ret	0
??1?$xr_vector@PAUwm_slot@WallmarksEngine@@V?$xalloc@PAUwm_slot@WallmarksEngine@@@@@@QAE@XZ ENDP ; xr_vector<WallmarksEngine::wm_slot *,xalloc<WallmarksEngine::wm_slot *> >::~xr_vector<WallmarksEngine::wm_slot *,xalloc<WallmarksEngine::wm_slot *> >
_TEXT	ENDS
; Function compile flags: /Ogtpy
; File I:\Vitalya\mine\NSProjectX\layers\xrRender\WallmarksEngine.cpp
; File I:\Vitalya\mine\NSProjectX\xrCore\xr_resource.h
; File I:\Vitalya\mine\NSProjectX\layers\xrRender\WallmarksEngine.cpp
; File I:\Vitalya\mine\NSProjectX\xrCore\xr_resource.h
; File I:\Vitalya\mine\NSProjectX\layers\xrRender\WallmarksEngine.cpp
; File C:\Program Files\Microsoft Visual Studio\2022\Community\VC\Tools\MSVC\14.29.30133\include\vector
; File I:\Vitalya\mine\NSProjectX\xrCore\xrMemory.h
; File C:\Program Files\Microsoft Visual Studio\2022\Community\VC\Tools\MSVC\14.29.30133\include\vector
; File I:\Vitalya\mine\NSProjectX\layers\xrRender\WallmarksEngine.cpp
; File I:\Vitalya\mine\NSProjectX\xrCore\xr_resource.h
; File C:\Program Files\Microsoft Visual Studio\2022\Community\VC\Tools\MSVC\14.29.30133\include\vector
; File I:\Vitalya\mine\NSProjectX\xrCore\xrMemory.h
; File C:\Program Files\Microsoft Visual Studio\2022\Community\VC\Tools\MSVC\14.29.30133\include\vector
; File I:\Vitalya\mine\NSProjectX\xrCore\xrMemory.h
; File C:\Program Files\Microsoft Visual Studio\2022\Community\VC\Tools\MSVC\14.29.30133\include\vector
; File I:\Vitalya\mine\NSProjectX\layers\xrRender\WallmarksEngine.cpp
_TEXT	SEGMENT
??1CWallmarksEngine@@QAE@XZ PROC			; CWallmarksEngine::~CWallmarksEngine
; _this$ = ecx

; 60   : {

	push	ebx
	push	esi
	push	edi
	mov	esi, ecx

; 61   : 	clear			();

	call	?clear@CWallmarksEngine@@QAEXXZ		; CWallmarksEngine::clear
; File I:\Vitalya\mine\NSProjectX\xrCore\xr_resource.h

; 46   : 	ICF		void		_set	(T * rhs) 							{	if (0!=rhs) rhs->dwReference++;	_dec(); p_ = rhs;											}

	lea	ecx, DWORD PTR [esi+24]
	call	DWORD PTR __imp_?_dec@?$resptr_base@USGeometry@@@@IAEXXZ
; File I:\Vitalya\mine\NSProjectX\layers\xrRender\WallmarksEngine.cpp

; 63   : }

	lea	ecx, DWORD PTR [esi+1504]
; File I:\Vitalya\mine\NSProjectX\xrCore\xr_resource.h

; 46   : 	ICF		void		_set	(T * rhs) 							{	if (0!=rhs) rhs->dwReference++;	_dec(); p_ = rhs;											}

	mov	DWORD PTR [esi+24], 0
; File I:\Vitalya\mine\NSProjectX\layers\xrRender\WallmarksEngine.cpp

; 63   : }

	call	DWORD PTR __imp_??1xrCriticalSection@@QAE@XZ
; File C:\Program Files\Microsoft Visual Studio\2022\Community\VC\Tools\MSVC\14.29.30133\include\vector

; 1750 :         if (_Myfirst) { // destroy and deallocate old array

	mov	eax, DWORD PTR [esi+1492]
	mov	edi, DWORD PTR __imp_?mem_free@xrMemory@@QAEXPAX@Z
	test	eax, eax
	je	SHORT $LN13@CWallmarks
; File I:\Vitalya\mine\NSProjectX\xrCore\xrMemory.h

; 109  : 	IC void		xr_free		(T* &P)					{	if (P) { Memory.mem_free((void*)P); P=NULL;	};	}

	mov	ecx, DWORD PTR __imp_?Memory@@3VxrMemory@@A
	push	eax
	call	edi
; File C:\Program Files\Microsoft Visual Studio\2022\Community\VC\Tools\MSVC\14.29.30133\include\vector

; 1754 :             _Myfirst = nullptr;

	mov	DWORD PTR [esi+1492], 0

; 1755 :             _Mylast  = nullptr;

	mov	DWORD PTR [esi+1496], 0

; 1756 :             _Myend   = nullptr;

	mov	DWORD PTR [esi+1500], 0
$LN13@CWallmarks:
; File I:\Vitalya\mine\NSProjectX\layers\xrRender\WallmarksEngine.cpp

; 63   : }

	lea	ecx, DWORD PTR [esi+1468]
	call	DWORD PTR __imp_??1Collector@CDB@@QAE@XZ
	lea	ecx, DWORD PTR [esi+1444]
	call	DWORD PTR __imp_??1xrXRC@@QAE@XZ
; File I:\Vitalya\mine\NSProjectX\xrCore\xr_resource.h

; 64   : 						~resptr_core	()												{	_dec();						}

	lea	ecx, DWORD PTR [esi+24]
	call	DWORD PTR __imp_?_dec@?$resptr_base@USGeometry@@@@IAEXXZ
; File C:\Program Files\Microsoft Visual Studio\2022\Community\VC\Tools\MSVC\14.29.30133\include\vector

; 1750 :         if (_Myfirst) { // destroy and deallocate old array

	mov	eax, DWORD PTR [esi+12]
	test	eax, eax
	je	SHORT $LN27@CWallmarks
; File I:\Vitalya\mine\NSProjectX\xrCore\xrMemory.h

; 109  : 	IC void		xr_free		(T* &P)					{	if (P) { Memory.mem_free((void*)P); P=NULL;	};	}

	mov	ecx, DWORD PTR __imp_?Memory@@3VxrMemory@@A
	push	eax
	call	edi
; File C:\Program Files\Microsoft Visual Studio\2022\Community\VC\Tools\MSVC\14.29.30133\include\vector

; 1754 :             _Myfirst = nullptr;

	mov	DWORD PTR [esi+12], 0

; 1755 :             _Mylast  = nullptr;

	mov	DWORD PTR [esi+16], 0

; 1756 :             _Myend   = nullptr;

	mov	DWORD PTR [esi+20], 0
$LN27@CWallmarks:

; 1750 :         if (_Myfirst) { // destroy and deallocate old array

	mov	eax, DWORD PTR [esi]
	test	eax, eax
	je	SHORT $LN39@CWallmarks
; File I:\Vitalya\mine\NSProjectX\xrCore\xrMemory.h

; 109  : 	IC void		xr_free		(T* &P)					{	if (P) { Memory.mem_free((void*)P); P=NULL;	};	}

	mov	ecx, DWORD PTR __imp_?Memory@@3VxrMemory@@A
	push	eax
	call	edi
; File C:\Program Files\Microsoft Visual Studio\2022\Community\VC\Tools\MSVC\14.29.30133\include\vector

; 1754 :             _Myfirst = nullptr;

	mov	DWORD PTR [esi], 0

; 1755 :             _Mylast  = nullptr;

	mov	DWORD PTR [esi+4], 0

; 1756 :             _Myend   = nullptr;

	mov	DWORD PTR [esi+8], 0
$LN39@CWallmarks:
	pop	edi
; File I:\Vitalya\mine\NSProjectX\layers\xrRender\WallmarksEngine.cpp

; 63   : }

	pop	esi
	pop	ebx
	ret	0
??1CWallmarksEngine@@QAE@XZ ENDP			; CWallmarksEngine::~CWallmarksEngine
_TEXT	ENDS
; Function compile flags: /Ogtpy
; File I:\Vitalya\mine\NSProjectX\layers\xrRender\WallmarksEngine.cpp
; File C:\Program Files\Microsoft Visual Studio\2022\Community\VC\Tools\MSVC\14.29.30133\include\vector
; File I:\Vitalya\mine\NSProjectX\layers\xrRender\WallmarksEngine.cpp
; File C:\Program Files\Microsoft Visual Studio\2022\Community\VC\Tools\MSVC\14.29.30133\include\vector
; File I:\Vitalya\mine\NSProjectX\layers\xrRender\WallmarksEngine.cpp
; File C:\Program Files\Microsoft Visual Studio\2022\Community\VC\Tools\MSVC\14.29.30133\include\vector
; File I:\Vitalya\mine\NSProjectX\layers\xrRender\WallmarksEngine.cpp
; File C:\Program Files\Microsoft Visual Studio\2022\Community\VC\Tools\MSVC\14.29.30133\include\vector
; File I:\Vitalya\mine\NSProjectX\layers\xrRender\WallmarksEngine.cpp
; File I:\Vitalya\mine\NSProjectX\xrCore\xrMemory_subst_msvc.h
; File C:\Program Files\Microsoft Visual Studio\2022\Community\VC\Tools\MSVC\14.29.30133\include\vector
; File I:\Vitalya\mine\NSProjectX\xrCore\xrMemory.h
; File C:\Program Files\Microsoft Visual Studio\2022\Community\VC\Tools\MSVC\14.29.30133\include\vector
; File I:\Vitalya\mine\NSProjectX\xrCore\xrMemory.h
; File C:\Program Files\Microsoft Visual Studio\2022\Community\VC\Tools\MSVC\14.29.30133\include\vector
; File I:\Vitalya\mine\NSProjectX\xrCore\xr_resource.h
; File I:\Vitalya\mine\NSProjectX\xrCore\xrMemory_subst_msvc.h
; File I:\Vitalya\mine\NSProjectX\layers\xrRender\WallmarksEngine.cpp
; File C:\Program Files\Microsoft Visual Studio\2022\Community\VC\Tools\MSVC\14.29.30133\include\vector
; File I:\Vitalya\mine\NSProjectX\layers\xrRender\WallmarksEngine.cpp
; File I:\Vitalya\mine\NSProjectX\xrCore\xrMemory_subst_msvc.h
; File I:\Vitalya\mine\NSProjectX\layers\xrRender\WallmarksEngine.cpp
; File C:\Program Files\Microsoft Visual Studio\2022\Community\VC\Tools\MSVC\14.29.30133\include\vector
; File I:\Vitalya\mine\NSProjectX\layers\xrRender\WallmarksEngine.cpp
; File I:\Vitalya\mine\NSProjectX\xrCore\xrMemory_subst_msvc.h
; File C:\Program Files\Microsoft Visual Studio\2022\Community\VC\Tools\MSVC\14.29.30133\include\vector
; File I:\Vitalya\mine\NSProjectX\xrCore\xrMemory_subst_msvc.h
; File C:\Program Files\Microsoft Visual Studio\2022\Community\VC\Tools\MSVC\14.29.30133\include\vector
; File I:\Vitalya\mine\NSProjectX\xrCore\xrMemory.h
; File C:\Program Files\Microsoft Visual Studio\2022\Community\VC\Tools\MSVC\14.29.30133\include\vector
; File I:\Vitalya\mine\NSProjectX\xrCore\xrMemory_subst_msvc.h
; File C:\Program Files\Microsoft Visual Studio\2022\Community\VC\Tools\MSVC\14.29.30133\include\vector
; File I:\Vitalya\mine\NSProjectX\layers\xrRender\WallmarksEngine.cpp
; File C:\Program Files\Microsoft Visual Studio\2022\Community\VC\Tools\MSVC\14.29.30133\include\vector
; File I:\Vitalya\mine\NSProjectX\layers\xrRender\WallmarksEngine.cpp
; File C:\Program Files\Microsoft Visual Studio\2022\Community\VC\Tools\MSVC\14.29.30133\include\vector
; File I:\Vitalya\mine\NSProjectX\layers\xrRender\WallmarksEngine.cpp
_TEXT	SEGMENT
_W$ = -4						; size = 4
?clear@CWallmarksEngine@@QAEXXZ PROC			; CWallmarksEngine::clear
; _this$ = ecx

; 66   : {

	push	ecx

; 68   : 		for (WMSlotVecIt p_it=marks.begin(); p_it!=marks.end(); p_it++){

	mov	edx, DWORD PTR __imp_?mem_free@xrMemory@@QAEXPAX@Z
	push	ebx
	push	ebp
	push	esi
	push	edi
	mov	edi, ecx
; File C:\Program Files\Microsoft Visual Studio\2022\Community\VC\Tools\MSVC\14.29.30133\include\vector

; 41   :     _CONSTEXPR20_CONTAINER _Vector_const_iterator(_Tptr _Parg, const _Container_base* _Pvector) noexcept : _Ptr(_Parg) {

	mov	ebp, DWORD PTR [edi+12]

; 150  :         return _Ptr == _Right._Ptr;

	cmp	ebp, DWORD PTR [edi+16]
; File I:\Vitalya\mine\NSProjectX\layers\xrRender\WallmarksEngine.cpp

; 68   : 		for (WMSlotVecIt p_it=marks.begin(); p_it!=marks.end(); p_it++){

	je	$LN3@clear
	npad	7
$LL4@clear:
; File C:\Program Files\Microsoft Visual Studio\2022\Community\VC\Tools\MSVC\14.29.30133\include\vector

; 1463 :         return iterator(_My_data._Myfirst, _STD addressof(_My_data));

	mov	ebx, DWORD PTR [ebp]

; 41   :     _CONSTEXPR20_CONTAINER _Vector_const_iterator(_Tptr _Parg, const _Container_base* _Pvector) noexcept : _Ptr(_Parg) {

	mov	esi, DWORD PTR [ebx+4]

; 150  :         return _Ptr == _Right._Ptr;

	cmp	esi, DWORD PTR [ebx+8]
; File I:\Vitalya\mine\NSProjectX\layers\xrRender\WallmarksEngine.cpp

; 69   : 			for (StaticWMVecIt m_it=(*p_it)->static_items.begin(); m_it!=(*p_it)->static_items.end(); m_it++)

	je	SHORT $LN154@clear
	npad	5
$LL7@clear:
; File C:\Program Files\Microsoft Visual Studio\2022\Community\VC\Tools\MSVC\14.29.30133\include\vector

; 730  :         if (_Mylast != _My_data._Myend) {

	mov	eax, DWORD PTR [edi+4]
; File I:\Vitalya\mine\NSProjectX\layers\xrRender\WallmarksEngine.cpp

; 70   : 				static_wm_destroy	(*m_it);

	mov	ecx, DWORD PTR [esi]
	mov	DWORD PTR _W$[esp+20], ecx
; File C:\Program Files\Microsoft Visual Studio\2022\Community\VC\Tools\MSVC\14.29.30133\include\vector

; 730  :         if (_Mylast != _My_data._Myend) {

	cmp	eax, DWORD PTR [edi+8]
	je	SHORT $LN57@clear

; 713  :         _Alty_traits::construct(_Getal(), _Unfancy(_Mylast), _STD forward<_Valty>(_Val)...);

	mov	DWORD PTR [eax], ecx

; 714  :         _Orphan_range(_Mylast, _Mylast);
; 715  :         _Ty& _Result = *_Mylast;
; 716  :         ++_Mylast;

	add	DWORD PTR [edi+4], 4

; 731  :             return _Emplace_back_with_unused_capacity(_STD forward<_Valty>(_Val)...);

	jmp	SHORT $LN5@clear
$LN57@clear:

; 732  :         }
; 733  : 
; 734  :         _Ty& _Result = *_Emplace_reallocate(_Mylast, _STD forward<_Valty>(_Val)...);

	lea	ecx, DWORD PTR _W$[esp+20]
	push	ecx
	push	eax
	mov	ecx, edi
	call	??$_Emplace_reallocate@ABQAUstatic_wallmark@CWallmarksEngine@@@?$vector@PAUstatic_wallmark@CWallmarksEngine@@V?$xalloc@PAUstatic_wallmark@CWallmarksEngine@@@@@std@@QAEPAPAUstatic_wallmark@CWallmarksEngine@@QAPAU23@ABQAU23@@Z ; std::vector<CWallmarksEngine::static_wallmark *,xalloc<CWallmarksEngine::static_wallmark *> >::_Emplace_reallocate<CWallmarksEngine::static_wallmark * const &>
$LN5@clear:

; 1473 :         return iterator(_My_data._Mylast, _STD addressof(_My_data));

	mov	ebx, DWORD PTR [ebp]

; 74   :         ++_Ptr;

	add	esi, 4

; 150  :         return _Ptr == _Right._Ptr;

	cmp	esi, DWORD PTR [ebx+8]
; File I:\Vitalya\mine\NSProjectX\layers\xrRender\WallmarksEngine.cpp

; 69   : 			for (StaticWMVecIt m_it=(*p_it)->static_items.begin(); m_it!=(*p_it)->static_items.end(); m_it++)

	jne	SHORT $LL7@clear
	mov	edx, DWORD PTR __imp_?mem_free@xrMemory@@QAEXPAX@Z
$LN154@clear:
; File I:\Vitalya\mine\NSProjectX\xrCore\xrMemory_subst_msvc.h

; 151  : 	if (ptr) 

	test	ebx, ebx
	je	SHORT $LN2@clear
; File C:\Program Files\Microsoft Visual Studio\2022\Community\VC\Tools\MSVC\14.29.30133\include\vector

; 1750 :         if (_Myfirst) { // destroy and deallocate old array

	mov	eax, DWORD PTR [ebx+16]
	test	eax, eax
	je	SHORT $LN76@clear
; File I:\Vitalya\mine\NSProjectX\xrCore\xrMemory.h

; 109  : 	IC void		xr_free		(T* &P)					{	if (P) { Memory.mem_free((void*)P); P=NULL;	};	}

	mov	ecx, DWORD PTR __imp_?Memory@@3VxrMemory@@A
	push	eax
	call	edx
; File C:\Program Files\Microsoft Visual Studio\2022\Community\VC\Tools\MSVC\14.29.30133\include\vector

; 1754 :             _Myfirst = nullptr;

	mov	DWORD PTR [ebx+16], 0

; 1755 :             _Mylast  = nullptr;

	mov	DWORD PTR [ebx+20], 0

; 1756 :             _Myend   = nullptr;

	mov	DWORD PTR [ebx+24], 0
$LN76@clear:

; 1750 :         if (_Myfirst) { // destroy and deallocate old array

	mov	eax, DWORD PTR [ebx+4]
	mov	esi, DWORD PTR __imp_?mem_free@xrMemory@@QAEXPAX@Z
	test	eax, eax
	je	SHORT $LN88@clear
; File I:\Vitalya\mine\NSProjectX\xrCore\xrMemory.h

; 109  : 	IC void		xr_free		(T* &P)					{	if (P) { Memory.mem_free((void*)P); P=NULL;	};	}

	mov	ecx, DWORD PTR __imp_?Memory@@3VxrMemory@@A
	push	eax
	call	esi
; File C:\Program Files\Microsoft Visual Studio\2022\Community\VC\Tools\MSVC\14.29.30133\include\vector

; 1754 :             _Myfirst = nullptr;

	mov	DWORD PTR [ebx+4], 0

; 1755 :             _Mylast  = nullptr;

	mov	DWORD PTR [ebx+8], 0

; 1756 :             _Myend   = nullptr;

	mov	DWORD PTR [ebx+12], 0
$LN88@clear:
; File I:\Vitalya\mine\NSProjectX\xrCore\xr_resource.h

; 64   : 						~resptr_core	()												{	_dec();						}

	mov	ecx, ebx
	call	DWORD PTR __imp_?_dec@?$resptr_base@UShader@@@@IAEXXZ
; File I:\Vitalya\mine\NSProjectX\xrCore\xrMemory_subst_msvc.h

; 144  : 		Memory.mem_free	(ptr);

	push	DWORD PTR [ebp]
	mov	ecx, DWORD PTR __imp_?Memory@@3VxrMemory@@A
	call	esi

; 154  : 		ptr = nullptr;

	mov	DWORD PTR [ebp], 0
$LN2@clear:
; File I:\Vitalya\mine\NSProjectX\layers\xrRender\WallmarksEngine.cpp

; 68   : 		for (WMSlotVecIt p_it=marks.begin(); p_it!=marks.end(); p_it++){

	mov	edx, DWORD PTR __imp_?mem_free@xrMemory@@QAEXPAX@Z
; File C:\Program Files\Microsoft Visual Studio\2022\Community\VC\Tools\MSVC\14.29.30133\include\vector

; 74   :         ++_Ptr;

	add	ebp, 4

; 150  :         return _Ptr == _Right._Ptr;

	cmp	ebp, DWORD PTR [edi+16]
; File I:\Vitalya\mine\NSProjectX\layers\xrRender\WallmarksEngine.cpp

; 68   : 		for (WMSlotVecIt p_it=marks.begin(); p_it!=marks.end(); p_it++){

	jne	$LL4@clear
; File I:\Vitalya\mine\NSProjectX\xrCore\xrMemory_subst_msvc.h

; 154  : 		ptr = nullptr;

	mov	ebp, DWORD PTR [edi+12]
$LN3@clear:
; File I:\Vitalya\mine\NSProjectX\layers\xrRender\WallmarksEngine.cpp

; 73   : 		marks.clear	();

	mov	DWORD PTR [edi+16], ebp

; 76   : 		for (u32 it=0; it<static_pool.size(); it++)

	xor	ebx, ebx
; File C:\Program Files\Microsoft Visual Studio\2022\Community\VC\Tools\MSVC\14.29.30133\include\vector

; 1536 :         return static_cast<size_type>(_My_data._Mylast - _My_data._Myfirst);

	mov	eax, DWORD PTR [edi+4]
	mov	ecx, DWORD PTR [edi]
	sub	eax, ecx
	sar	eax, 2
; File I:\Vitalya\mine\NSProjectX\layers\xrRender\WallmarksEngine.cpp

; 76   : 		for (u32 it=0; it<static_pool.size(); it++)

	test	eax, eax
	je	SHORT $LN157@clear
	npad	6
$LL10@clear:
; File I:\Vitalya\mine\NSProjectX\xrCore\xrMemory_subst_msvc.h

; 151  : 	if (ptr) 

	mov	esi, DWORD PTR [ecx+ebx*4]
; File C:\Program Files\Microsoft Visual Studio\2022\Community\VC\Tools\MSVC\14.29.30133\include\vector

; 119  :         _Ptr += _Off;

	lea	ebp, DWORD PTR [ecx+ebx*4]
; File I:\Vitalya\mine\NSProjectX\xrCore\xrMemory_subst_msvc.h

; 151  : 	if (ptr) 

	test	esi, esi
	je	SHORT $LN8@clear
; File C:\Program Files\Microsoft Visual Studio\2022\Community\VC\Tools\MSVC\14.29.30133\include\vector

; 1750 :         if (_Myfirst) { // destroy and deallocate old array

	mov	eax, DWORD PTR [esi+16]
	test	eax, eax
	je	SHORT $LN133@clear
; File I:\Vitalya\mine\NSProjectX\xrCore\xrMemory.h

; 109  : 	IC void		xr_free		(T* &P)					{	if (P) { Memory.mem_free((void*)P); P=NULL;	};	}

	mov	ecx, DWORD PTR __imp_?Memory@@3VxrMemory@@A
	push	eax
	call	edx
; File C:\Program Files\Microsoft Visual Studio\2022\Community\VC\Tools\MSVC\14.29.30133\include\vector

; 1754 :             _Myfirst = nullptr;

	mov	DWORD PTR [esi+16], 0

; 1755 :             _Mylast  = nullptr;

	mov	DWORD PTR [esi+20], 0

; 1756 :             _Myend   = nullptr;

	mov	DWORD PTR [esi+24], 0
	mov	esi, DWORD PTR [ebp]
$LN133@clear:
; File I:\Vitalya\mine\NSProjectX\xrCore\xrMemory_subst_msvc.h

; 144  : 		Memory.mem_free	(ptr);

	mov	ecx, DWORD PTR __imp_?Memory@@3VxrMemory@@A
	push	esi
	mov	esi, DWORD PTR __imp_?mem_free@xrMemory@@QAEXPAX@Z
	call	esi

; 154  : 		ptr = nullptr;

	mov	DWORD PTR [ebp], 0
$LN8@clear:
; File C:\Program Files\Microsoft Visual Studio\2022\Community\VC\Tools\MSVC\14.29.30133\include\vector

; 1536 :         return static_cast<size_type>(_My_data._Mylast - _My_data._Myfirst);

	mov	eax, DWORD PTR [edi+4]
; File I:\Vitalya\mine\NSProjectX\layers\xrRender\WallmarksEngine.cpp

; 76   : 		for (u32 it=0; it<static_pool.size(); it++)

	inc	ebx
; File C:\Program Files\Microsoft Visual Studio\2022\Community\VC\Tools\MSVC\14.29.30133\include\vector

; 1536 :         return static_cast<size_type>(_My_data._Mylast - _My_data._Myfirst);

	mov	ecx, DWORD PTR [edi]
	sub	eax, ecx
; File I:\Vitalya\mine\NSProjectX\layers\xrRender\WallmarksEngine.cpp

; 76   : 		for (u32 it=0; it<static_pool.size(); it++)

	mov	edx, DWORD PTR __imp_?mem_free@xrMemory@@QAEXPAX@Z
; File C:\Program Files\Microsoft Visual Studio\2022\Community\VC\Tools\MSVC\14.29.30133\include\vector

; 1536 :         return static_cast<size_type>(_My_data._Mylast - _My_data._Myfirst);

	sar	eax, 2
; File I:\Vitalya\mine\NSProjectX\layers\xrRender\WallmarksEngine.cpp

; 76   : 		for (u32 it=0; it<static_pool.size(); it++)

	cmp	ebx, eax
	jb	SHORT $LL10@clear
$LN157@clear:

; 77   : 			xr_delete		(static_pool[it]);
; 78   : 		static_pool.clear	();
; 79   : 	}
; 80   : }

	mov	DWORD PTR [edi+4], ecx
	pop	edi
	pop	esi
	pop	ebp
	pop	ebx
	pop	ecx
	ret	0
?clear@CWallmarksEngine@@QAEXXZ ENDP			; CWallmarksEngine::clear
_TEXT	ENDS
; Function compile flags: /Ogtpy
; File I:\Vitalya\mine\NSProjectX\layers\xrRender\WallmarksEngine.cpp
; File C:\Program Files\Microsoft Visual Studio\2022\Community\VC\Tools\MSVC\14.29.30133\include\vector
; File I:\Vitalya\mine\NSProjectX\layers\xrRender\WallmarksEngine.cpp
; File I:\Vitalya\mine\NSProjectX\xrCore\xrMemory_subst_msvc.h
; File C:\Program Files\Microsoft Visual Studio\2022\Community\VC\Tools\MSVC\14.29.30133\include\vector
; File I:\Vitalya\mine\NSProjectX\layers\xrRender\WallmarksEngine.cpp
; File C:\Program Files\Microsoft Visual Studio\2022\Community\VC\Tools\MSVC\14.29.30133\include\vector
; File I:\Vitalya\mine\NSProjectX\layers\xrRender\WallmarksEngine.cpp
_TEXT	SEGMENT
?static_wm_allocate@CWallmarksEngine@@AAEPAUstatic_wallmark@1@XZ PROC ; CWallmarksEngine::static_wm_allocate
; _this$ = ecx

; 84   : {

	mov	edx, ecx
; File C:\Program Files\Microsoft Visual Studio\2022\Community\VC\Tools\MSVC\14.29.30133\include\vector

; 1531 :         return _My_data._Myfirst == _My_data._Mylast;

	mov	ecx, DWORD PTR [edx+4]
	cmp	DWORD PTR [edx], ecx
; File I:\Vitalya\mine\NSProjectX\layers\xrRender\WallmarksEngine.cpp

; 86   : 	if (static_pool.empty())  W = xr_new<static_wallmark> ();

	jne	SHORT $LN2@static_wm_
; File I:\Vitalya\mine\NSProjectX\xrCore\xrMemory_subst_msvc.h

; 68   : 	T* ptr	= (T*)Memory.mem_alloc(sizeof(T));

	mov	ecx, DWORD PTR __imp_?Memory@@3VxrMemory@@A
	push	32					; 00000020H
	call	DWORD PTR __imp_?mem_alloc@xrMemory@@QAEPAXI@Z

; 69   : 	return new (ptr) T();

	mov	DWORD PTR [eax], 0
	mov	DWORD PTR [eax+4], 0
	mov	DWORD PTR [eax+8], 0
	mov	DWORD PTR [eax+12], 0
	mov	DWORD PTR [eax+20], 0
	mov	DWORD PTR [eax+24], 0
; File C:\Program Files\Microsoft Visual Studio\2022\Community\VC\Tools\MSVC\14.29.30133\include\vector

; 390  :     _CONSTEXPR20_CONTAINER _Vector_val() noexcept : _Myfirst(), _Mylast(), _Myend() {}

	mov	DWORD PTR [eax+16], 0
	mov	DWORD PTR [eax+20], 0
	mov	DWORD PTR [eax+24], 0
; File I:\Vitalya\mine\NSProjectX\layers\xrRender\WallmarksEngine.cpp

; 90   : 	W->verts.clear		();

	mov	ecx, DWORD PTR [eax+16]
	mov	DWORD PTR [eax+28], 1133903872		; 43960000H
	mov	DWORD PTR [eax+20], ecx

; 91   : 	return W;
; 92   : }

	ret	0
$LN2@static_wm_:

; 87   : 	else					{ W = static_pool.back(); static_pool.pop_back(); }

	mov	eax, DWORD PTR [ecx-4]
; File C:\Program Files\Microsoft Visual Studio\2022\Community\VC\Tools\MSVC\14.29.30133\include\vector

; 1611 :         return _My_data._Mylast[-1];

	add	ecx, -4					; fffffffcH

; 1390 :         --_Mylast;

	mov	DWORD PTR [edx+4], ecx
; File I:\Vitalya\mine\NSProjectX\layers\xrRender\WallmarksEngine.cpp

; 90   : 	W->verts.clear		();

	mov	ecx, DWORD PTR [eax+16]
	mov	DWORD PTR [eax+28], 1133903872		; 43960000H
	mov	DWORD PTR [eax+20], ecx

; 91   : 	return W;
; 92   : }

	ret	0
?static_wm_allocate@CWallmarksEngine@@AAEPAUstatic_wallmark@1@XZ ENDP ; CWallmarksEngine::static_wm_allocate
_TEXT	ENDS
; Function compile flags: /Ogtpy
; File I:\Vitalya\mine\NSProjectX\layers\xrRender\WallmarksEngine.cpp
; File C:\Program Files\Microsoft Visual Studio\2022\Community\VC\Tools\MSVC\14.29.30133\include\vector
; File I:\Vitalya\mine\NSProjectX\layers\xrRender\WallmarksEngine.cpp
; File C:\Program Files\Microsoft Visual Studio\2022\Community\VC\Tools\MSVC\14.29.30133\include\vector
; File I:\Vitalya\mine\NSProjectX\layers\xrRender\WallmarksEngine.cpp
_TEXT	SEGMENT
_W$ = 8							; size = 4
?static_wm_destroy@CWallmarksEngine@@AAEXPAUstatic_wallmark@1@@Z PROC ; CWallmarksEngine::static_wm_destroy
; _this$ = ecx
; File C:\Program Files\Microsoft Visual Studio\2022\Community\VC\Tools\MSVC\14.29.30133\include\vector

; 730  :         if (_Mylast != _My_data._Myend) {

	mov	edx, DWORD PTR [ecx+4]
	cmp	edx, DWORD PTR [ecx+8]
	je	SHORT $LN6@static_wm_

; 713  :         _Alty_traits::construct(_Getal(), _Unfancy(_Mylast), _STD forward<_Valty>(_Val)...);

	mov	eax, DWORD PTR _W$[esp-4]
	mov	DWORD PTR [edx], eax

; 714  :         _Orphan_range(_Mylast, _Mylast);
; 715  :         _Ty& _Result = *_Mylast;
; 716  :         ++_Mylast;

	add	DWORD PTR [ecx+4], 4
; File I:\Vitalya\mine\NSProjectX\layers\xrRender\WallmarksEngine.cpp

; 97   : }

	ret	4
$LN6@static_wm_:
; File C:\Program Files\Microsoft Visual Studio\2022\Community\VC\Tools\MSVC\14.29.30133\include\vector

; 734  :         _Ty& _Result = *_Emplace_reallocate(_Mylast, _STD forward<_Valty>(_Val)...);

	lea	eax, DWORD PTR _W$[esp-4]
	push	eax
	push	edx
	call	??$_Emplace_reallocate@ABQAUstatic_wallmark@CWallmarksEngine@@@?$vector@PAUstatic_wallmark@CWallmarksEngine@@V?$xalloc@PAUstatic_wallmark@CWallmarksEngine@@@@@std@@QAEPAPAUstatic_wallmark@CWallmarksEngine@@QAPAU23@ABQAU23@@Z ; std::vector<CWallmarksEngine::static_wallmark *,xalloc<CWallmarksEngine::static_wallmark *> >::_Emplace_reallocate<CWallmarksEngine::static_wallmark * const &>
; File I:\Vitalya\mine\NSProjectX\layers\xrRender\WallmarksEngine.cpp

; 97   : }

	ret	4
?static_wm_destroy@CWallmarksEngine@@AAEXPAUstatic_wallmark@1@@Z ENDP ; CWallmarksEngine::static_wm_destroy
_TEXT	ENDS
; Function compile flags: /Ogtpy
; File I:\Vitalya\mine\NSProjectX\layers\xrRender\WallmarksEngine.cpp
; File I:\Vitalya\mine\NSProjectX\xrCore\_bitwise.h
; File I:\Vitalya\mine\NSProjectX\layers\xrRender\WallmarksEngine.cpp
; File I:\Vitalya\mine\NSProjectX\xrCore\_bitwise.h
; File I:\Vitalya\mine\NSProjectX\xrCore\vector.h
; File I:\Vitalya\mine\NSProjectX\layers\xrRender\WallmarksEngine.cpp
; File I:\Vitalya\mine\NSProjectX\xrCore\_color.h
; File I:\Vitalya\mine\NSProjectX\layers\xrRender\WallmarksEngine.cpp
; File I:\Vitalya\mine\NSProjectX\xrCore\_vector3d.h
; File I:\Vitalya\mine\NSProjectX\layers\xrRender\WallmarksEngine.cpp
; File I:\Vitalya\mine\NSProjectX\xrCore\_vector2.h
; File I:\Vitalya\mine\NSProjectX\layers\xrRender\WallmarksEngine.cpp
; File I:\Vitalya\mine\NSProjectX\xrCore\_vector2.h
; File I:\Vitalya\mine\NSProjectX\layers\xrRender\WallmarksEngine.cpp
_TEXT	SEGMENT
_a$1 = 8						; size = 4
_W$ = 8							; size = 4
_V$ = 12						; size = 4
?static_wm_render@CWallmarksEngine@@AAEXPAUstatic_wallmark@1@AAPAULIT@FVF@@@Z PROC ; CWallmarksEngine::static_wm_render
; _this$dead$ = ecx

; 101  : 	float		a		= 1-(W->ttl/ps_r__WallmarkTTL);
; 102  : 	int			aC		= iFloor	( a * 255.f);	clamp	(aC,0,255);

	movss	xmm0, DWORD PTR __real@437f0000
; File I:\Vitalya\mine\NSProjectX\xrCore\_bitwise.h

; 84   :     int exponent	= (127 + 31) - ((a >> 23) & 0xFF);

	mov	ecx, 158				; 0000009eH
; File I:\Vitalya\mine\NSProjectX\layers\xrRender\WallmarksEngine.cpp

; 100  : {

	push	ebx

; 101  : 	float		a		= 1-(W->ttl/ps_r__WallmarkTTL);
; 102  : 	int			aC		= iFloor	( a * 255.f);	clamp	(aC,0,255);

	mov	ebx, DWORD PTR _W$[esp]
	push	esi
	push	edi
	movss	xmm1, DWORD PTR [ebx+28]
	mulss	xmm1, DWORD PTR __real@3f59999a
	subss	xmm0, xmm1
; File I:\Vitalya\mine\NSProjectX\xrCore\_bitwise.h

; 83   :     int a			= *(const int*)(&x);

	movss	DWORD PTR _a$1[esp+8], xmm0

; 84   :     int exponent	= (127 + 31) - ((a >> 23) & 0xFF);

	mov	esi, DWORD PTR _a$1[esp+8]
	mov	eax, esi
	sar	eax, 23					; 00000017H

; 85   :     int r			= (((u32)(a) << 8) | (1U << 31)) >> exponent;

	mov	edi, esi
	movzx	eax, al
	or	edi, -8388608				; ff800000H
	sub	ecx, eax
	shl	edi, 8
	shr	edi, cl

; 86   :     exponent		+= 31-127;
; 87   :     {
; 88   :         int imask	=	(!(((( (1<<(exponent)))-1)>>8)&a));

	mov	eax, 1
	sub	ecx, 96					; 00000060H

; 89   :         exponent	-=	(31-127)+32;
; 90   :         exponent	>>=	31;
; 91   :         a			>>=	31;

	mov	edx, esi
	shl	eax, cl
	dec	eax
	sar	edx, 31					; 0000001fH
	sar	eax, 8
	and	eax, esi
	neg	eax
	sbb	eax, eax
	inc	eax
	and	eax, edx

; 92   :         r			-=	(imask&a);

	sub	edi, eax
	lea	eax, DWORD PTR [ecx+64]
	sar	eax, 31					; 0000001fH

; 93   :         r			&=	exponent;

	and	edi, eax
	xor	edi, edx
; File I:\Vitalya\mine\NSProjectX\xrCore\vector.h

; 92   : 	if( val<_low ) val = _low; else if( val>_high ) val = _high;

	jge	SHORT $LN9@static_wm_
	xor	edi, edi
	jmp	SHORT $LN11@static_wm_
$LN9@static_wm_:
	mov	eax, 255				; 000000ffH
	cmp	edi, eax
	cmovg	edi, eax
$LN11@static_wm_:
; File I:\Vitalya\mine\NSProjectX\layers\xrRender\WallmarksEngine.cpp

; 105  : 	FVF::LIT*	E		= &*W->verts.end	();

	mov	esi, DWORD PTR [ebx+20]
; File I:\Vitalya\mine\NSProjectX\xrCore\_color.h

; 5    : ICF u32	color_argb	(u32 a, u32 r, u32 g, u32 b)	{	return ((a&0xff)<<24)|((r&0xff)<<16)|((g&0xff)<<8)|(b&0xff);	}

	mov	ecx, DWORD PTR [ebx+16]
	shl	edi, 24					; 00000018H
	or	edi, 8421504				; 00808080H
; File I:\Vitalya\mine\NSProjectX\layers\xrRender\WallmarksEngine.cpp

; 106  : 	for (; S!=E; S++, V++){

	cmp	ecx, esi
	je	SHORT $LN3@static_wm_
	mov	edx, DWORD PTR _V$[esp+8]
$LL4@static_wm_:

; 107  : 		V->p.set		(S->p);

	mov	eax, DWORD PTR [edx]
; File I:\Vitalya\mine\NSProjectX\xrCore\_vector3d.h

; 24   : 	ICF SelfRef	set(const _vector3<float> &v)			{ x = T(v.x);	y = T(v.y);	z = T(v.z);	return *this;	};

	fld	DWORD PTR [ecx]
	fstp	DWORD PTR [eax]
	fld	DWORD PTR [ecx+4]
	fstp	DWORD PTR [eax+4]
	fld	DWORD PTR [ecx+8]
	fstp	DWORD PTR [eax+8]
; File I:\Vitalya\mine\NSProjectX\layers\xrRender\WallmarksEngine.cpp

; 108  : 		V->color		= C;

	mov	DWORD PTR [eax+12], edi

; 109  : 		V->t.set		(S->t);

	mov	eax, DWORD PTR [edx]
; File I:\Vitalya\mine\NSProjectX\xrCore\_vector2.h

; 18   : 	IC SelfRef set(const Self &p)					{ x=p.x; y=p.y;					return *this;	}

	fld	DWORD PTR [ecx+16]
	fstp	DWORD PTR [eax+16]
	fld	DWORD PTR [ecx+20]
; File I:\Vitalya\mine\NSProjectX\layers\xrRender\WallmarksEngine.cpp

; 106  : 	for (; S!=E; S++, V++){

	add	ecx, 24					; 00000018H
; File I:\Vitalya\mine\NSProjectX\xrCore\_vector2.h

; 18   : 	IC SelfRef set(const Self &p)					{ x=p.x; y=p.y;					return *this;	}

	fstp	DWORD PTR [eax+20]
; File I:\Vitalya\mine\NSProjectX\layers\xrRender\WallmarksEngine.cpp

; 106  : 	for (; S!=E; S++, V++){

	add	eax, 24					; 00000018H
	mov	DWORD PTR [edx], eax
	cmp	ecx, esi
	jne	SHORT $LL4@static_wm_
$LN3@static_wm_:
	pop	edi

; 110  : 	}
; 111  : }

	pop	esi
	pop	ebx
	ret	8
?static_wm_render@CWallmarksEngine@@AAEXPAUstatic_wallmark@1@AAPAULIT@FVF@@@Z ENDP ; CWallmarksEngine::static_wm_render
_TEXT	ENDS
; Function compile flags: /Ogtpy
; File I:\Vitalya\mine\NSProjectX\layers\xrRender\WallmarksEngine.cpp
; File I:\Vitalya\mine\NSProjectX\xrCore\FixedVector.h
; File I:\Vitalya\mine\NSProjectX\layers\xrRender\WallmarksEngine.cpp
; File I:\Vitalya\mine\NSProjectX\xrCore\FixedVector.h
; File I:\Vitalya\mine\NSProjectX\layers\xrRender\WallmarksEngine.cpp
; File I:\Vitalya\mine\NSProjectX\xrCore\FixedVector.h
; File I:\Vitalya\mine\NSProjectX\layers\xrRender\WallmarksEngine.cpp
; File I:\Vitalya\mine\NSProjectX\xrCore\FixedVector.h
; File I:\Vitalya\mine\NSProjectX\layers\xrRender\WallmarksEngine.cpp
; File I:\Vitalya\mine\NSProjectX\xrCore\FixedVector.h
; File I:\Vitalya\mine\NSProjectX\layers\xrRender\WallmarksEngine.cpp
; File I:\Vitalya\mine\NSProjectX\xrCore\FixedVector.h
; File I:\Vitalya\mine\NSProjectX\layers\xrRender\WallmarksEngine.cpp
; File I:\Vitalya\mine\NSProjectX\xrCore\_matrix.h
; File I:\Vitalya\mine\NSProjectX\xrEngine\fvf.h
; File I:\Vitalya\mine\NSProjectX\layers\xrRender\WallmarksEngine.cpp
; File I:\Vitalya\mine\NSProjectX\xrCore\_matrix.h
; File I:\Vitalya\mine\NSProjectX\xrEngine\fvf.h
; File I:\Vitalya\mine\NSProjectX\xrCore\_matrix.h
; File I:\Vitalya\mine\NSProjectX\xrEngine\fvf.h
; File I:\Vitalya\mine\NSProjectX\layers\xrRender\WallmarksEngine.cpp
; File I:\Vitalya\mine\NSProjectX\xrCore\_vector3d.h
; File I:\Vitalya\mine\NSProjectX\xrCore\_matrix.h
; File I:\Vitalya\mine\NSProjectX\xrCore\_vector3d.h
; File I:\Vitalya\mine\NSProjectX\xrCore\_matrix.h
; File I:\Vitalya\mine\NSProjectX\layers\xrRender\WallmarksEngine.cpp
; File I:\Vitalya\mine\NSProjectX\xrCore\_vector3d.h
; File I:\Vitalya\mine\NSProjectX\xrCore\_matrix.h
; File I:\Vitalya\mine\NSProjectX\xrEngine\fvf.h
; File I:\Vitalya\mine\NSProjectX\xrCore\_matrix.h
; File I:\Vitalya\mine\NSProjectX\xrCore\_vector3d.h
; File I:\Vitalya\mine\NSProjectX\layers\xrRender\WallmarksEngine.cpp
; File I:\Vitalya\mine\NSProjectX\xrCore\_vector2.h
; File I:\Vitalya\mine\NSProjectX\xrCore\_matrix.h
; File I:\Vitalya\mine\NSProjectX\xrCore\_vector3d.h
; File I:\Vitalya\mine\NSProjectX\xrCore\_matrix.h
; File I:\Vitalya\mine\NSProjectX\xrCore\_vector3d.h
; File I:\Vitalya\mine\NSProjectX\xrCore\_matrix.h
; File I:\Vitalya\mine\NSProjectX\xrCore\_vector2.h
; File I:\Vitalya\mine\NSProjectX\xrCore\_matrix.h
; File I:\Vitalya\mine\NSProjectX\layers\xrRender\WallmarksEngine.cpp
; File I:\Vitalya\mine\NSProjectX\xrCore\_vector2.h
; File I:\Vitalya\mine\NSProjectX\xrCore\_matrix.h
; File I:\Vitalya\mine\NSProjectX\xrEngine\fvf.h
; File I:\Vitalya\mine\NSProjectX\xrCore\_vector2.h
; File I:\Vitalya\mine\NSProjectX\xrCore\_matrix.h
; File I:\Vitalya\mine\NSProjectX\layers\xrRender\WallmarksEngine.cpp
; File I:\Vitalya\mine\NSProjectX\xrCore\_vector2.h
; File I:\Vitalya\mine\NSProjectX\layers\xrRender\WallmarksEngine.cpp
; File I:\Vitalya\mine\NSProjectX\xrCore\_vector2.h
; File I:\Vitalya\mine\NSProjectX\layers\xrRender\WallmarksEngine.cpp
; File I:\Vitalya\mine\NSProjectX\xrCore\_matrix.h
; File I:\Vitalya\mine\NSProjectX\xrEngine\fvf.h
; File I:\Vitalya\mine\NSProjectX\xrCore\_matrix.h
; File C:\Program Files\Microsoft Visual Studio\2022\Community\VC\Tools\MSVC\14.29.30133\include\vector
; File I:\Vitalya\mine\NSProjectX\xrCore\_matrix.h
; File I:\Vitalya\mine\NSProjectX\xrCore\_vector3d.h
; File I:\Vitalya\mine\NSProjectX\xrEngine\fvf.h
; File I:\Vitalya\mine\NSProjectX\xrCore\_matrix.h
; File I:\Vitalya\mine\NSProjectX\layers\xrRender\WallmarksEngine.cpp
; File I:\Vitalya\mine\NSProjectX\xrCore\_vector2.h
; File I:\Vitalya\mine\NSProjectX\xrCore\_matrix.h
; File I:\Vitalya\mine\NSProjectX\xrCore\_vector2.h
; File I:\Vitalya\mine\NSProjectX\layers\xrRender\WallmarksEngine.cpp
; File I:\Vitalya\mine\NSProjectX\xrCore\_vector2.h
; File C:\Program Files\Microsoft Visual Studio\2022\Community\VC\Tools\MSVC\14.29.30133\include\vector
; File I:\Vitalya\mine\NSProjectX\xrCore\_stl_extensions.h
; File C:\Program Files\Microsoft Visual Studio\2022\Community\VC\Tools\MSVC\14.29.30133\include\vector
; File I:\Vitalya\mine\NSProjectX\xrCore\_stl_extensions.h
; File C:\Program Files\Microsoft Visual Studio\2022\Community\VC\Tools\MSVC\14.29.30133\include\vector
; File I:\Vitalya\mine\NSProjectX\xrCore\_stl_extensions.h
; File C:\Program Files\Microsoft Visual Studio\2022\Community\VC\Tools\MSVC\14.29.30133\include\vector
; File I:\Vitalya\mine\NSProjectX\layers\xrRender\WallmarksEngine.cpp
; File I:\Vitalya\mine\NSProjectX\xrCore\_vector3d.h
; File I:\Vitalya\mine\NSProjectX\layers\xrRender\WallmarksEngine.cpp
; File I:\Vitalya\mine\NSProjectX\xrCore\_vector3d.h
; File I:\Vitalya\mine\NSProjectX\layers\xrRender\WallmarksEngine.cpp
; File I:\Vitalya\mine\NSProjectX\xrCore\_vector3d.h
; File C:\Program Files (x86)\Windows Kits\10\Include\10.0.22000.0\ucrt\corecrt_math.h
; File I:\Vitalya\mine\NSProjectX\xrCore\_vector3d.h
; File I:\Vitalya\mine\NSProjectX\layers\xrRender\WallmarksEngine.cpp
; File I:\Vitalya\mine\NSProjectX\xrCore\_vector3d.h
; File I:\Vitalya\mine\NSProjectX\layers\xrRender\WallmarksEngine.cpp
_TEXT	SEGMENT
_i$1$ = -136						; size = 4
_T$1$ = -136						; size = 4
_v_data$1$ = -132					; size = 4
_test_normal$1$sroa$825$1$ = -128			; size = 4
_V0$4$ = -128						; size = 4
_V1$2 = -124						; size = 24
tv1725 = -100						; size = 4
_this$1$ = -96						; size = 4
_V0$5$ = -92						; size = 4
_V0$2$ = -88						; size = 4
_V0$3$ = -84						; size = 4
_V0$6$ = -80						; size = 4
tv1611 = -76						; size = 4
tv1612 = -72						; size = 4
tv1613 = -68						; size = 4
tv1614 = -64						; size = 4
tv1615 = -60						; size = 4
_P$1$ = -56						; size = 4
tv1750 = -52						; size = 4
_V0$3 = -48						; size = 24
_V2$4 = -24						; size = 24
_t$ = 8							; size = 4
_mView$ = 12						; size = 4
_W$ = 16						; size = 4
?RecurseTri@CWallmarksEngine@@AAEXIAAU?$_matrix@M@@AAUstatic_wallmark@1@@Z PROC ; CWallmarksEngine::RecurseTri
; _this$ = ecx

; 114  : {

	sub	esp, 136				; 00000088H
	push	ebx
	push	ebp
	mov	ebp, ecx
	push	esi
	push	edi
	mov	DWORD PTR _this$1$[esp+152], ebp

; 115  : 	CDB::TRI*	T			= sml_collector.getT()+t;

	lea	esi, DWORD PTR [ebp+1468]
	mov	ecx, esi
	mov	DWORD PTR tv1750[esp+152], esi
	call	DWORD PTR __imp_?getT@Collector@CDB@@QAEPAVTRI@2@XZ
	mov	ebx, eax
	mov	eax, DWORD PTR _t$[esp+148]
	shl	eax, 4
	add	ebx, eax
	mov	DWORD PTR _T$1$[esp+152], ebx

; 116  : 	if (T->dummy)			return;

	cmp	DWORD PTR [ebx+12], 0
	jne	$LN6@RecurseTri

; 117  : 	T->dummy				= 0xffffffff;
; 118  : 	
; 119  : 	// Some vars
; 120  : 	u32*		v_ids		= T->verts;
; 121  : 	Fvector*	v_data		= sml_collector.getV();

	mov	ecx, esi
	mov	DWORD PTR [ebx+12], -1
	call	DWORD PTR __imp_?getV@Collector@CDB@@QAEPAU?$_vector3@M@@XZ

; 122  : 	sml_poly_src.clear		();

	mov	DWORD PTR [ebp+1440], 0

; 123  : 	sml_poly_src.push_back	(v_data[v_ids[0]]);

	mov	ecx, DWORD PTR [ebx]
	lea	ebx, DWORD PTR [ebp+864]
	mov	DWORD PTR _v_data$1$[esp+152], eax
	lea	ecx, DWORD PTR [ecx+ecx*2]
	mov	edx, DWORD PTR [eax+ecx*4]
	mov	esi, DWORD PTR [eax+ecx*4+4]
	mov	ecx, DWORD PTR [eax+ecx*4+8]
; File I:\Vitalya\mine\NSProjectX\xrCore\FixedVector.h

; 35   : 	IC void		push_back(value_type e)		{ VERIFY(count<dim); array[count++]=e;	}

	mov	eax, DWORD PTR [ebx+576]
	lea	eax, DWORD PTR [eax+eax*2]
	mov	DWORD PTR [ebx+eax*4], edx
	mov	DWORD PTR [ebx+eax*4+4], esi
	mov	DWORD PTR [ebx+eax*4+8], ecx
	inc	DWORD PTR [ebx+576]
	mov	edi, DWORD PTR [ebx+576]
; File I:\Vitalya\mine\NSProjectX\layers\xrRender\WallmarksEngine.cpp

; 124  : 	sml_poly_src.push_back	(v_data[v_ids[1]]);

	mov	eax, DWORD PTR _T$1$[esp+152]
	mov	esi, DWORD PTR _v_data$1$[esp+152]
	mov	eax, DWORD PTR [eax+4]
	lea	eax, DWORD PTR [eax+eax*2]
	mov	ecx, DWORD PTR [esi+eax*4]
	mov	edx, DWORD PTR [esi+eax*4+4]
	mov	esi, DWORD PTR [esi+eax*4+8]
; File I:\Vitalya\mine\NSProjectX\xrCore\FixedVector.h

; 35   : 	IC void		push_back(value_type e)		{ VERIFY(count<dim); array[count++]=e;	}

	lea	eax, DWORD PTR [edi+edi*2]
	mov	DWORD PTR [ebx+eax*4], ecx
	mov	DWORD PTR [ebx+eax*4+4], edx
	mov	DWORD PTR [ebx+eax*4+8], esi
	inc	DWORD PTR [ebx+576]
; File I:\Vitalya\mine\NSProjectX\layers\xrRender\WallmarksEngine.cpp

; 125  : 	sml_poly_src.push_back	(v_data[v_ids[2]]);

	mov	eax, DWORD PTR _T$1$[esp+152]
; File I:\Vitalya\mine\NSProjectX\xrCore\FixedVector.h

; 35   : 	IC void		push_back(value_type e)		{ VERIFY(count<dim); array[count++]=e;	}

	mov	edi, DWORD PTR [ebx+576]
; File I:\Vitalya\mine\NSProjectX\layers\xrRender\WallmarksEngine.cpp

; 125  : 	sml_poly_src.push_back	(v_data[v_ids[2]]);

	mov	esi, DWORD PTR _v_data$1$[esp+152]
	mov	eax, DWORD PTR [eax+8]
	lea	eax, DWORD PTR [eax+eax*2]
	mov	ecx, DWORD PTR [esi+eax*4]
	mov	edx, DWORD PTR [esi+eax*4+4]
	mov	esi, DWORD PTR [esi+eax*4+8]
; File I:\Vitalya\mine\NSProjectX\xrCore\FixedVector.h

; 35   : 	IC void		push_back(value_type e)		{ VERIFY(count<dim); array[count++]=e;	}

	lea	eax, DWORD PTR [edi+edi*2]
	mov	DWORD PTR [ebx+eax*4], ecx
; File I:\Vitalya\mine\NSProjectX\layers\xrRender\WallmarksEngine.cpp

; 128  : 	sPoly* P = sml_clipper.ClipPoly	(sml_poly_src, sml_poly_dest);

	lea	ecx, DWORD PTR [ebp+40]
; File I:\Vitalya\mine\NSProjectX\xrCore\FixedVector.h

; 35   : 	IC void		push_back(value_type e)		{ VERIFY(count<dim); array[count++]=e;	}

	mov	DWORD PTR [ebx+eax*4+4], edx
	mov	DWORD PTR [ebx+eax*4+8], esi
; File I:\Vitalya\mine\NSProjectX\layers\xrRender\WallmarksEngine.cpp

; 128  : 	sPoly* P = sml_clipper.ClipPoly	(sml_poly_src, sml_poly_dest);

	lea	eax, DWORD PTR [ebp+284]
; File I:\Vitalya\mine\NSProjectX\xrCore\FixedVector.h

; 35   : 	IC void		push_back(value_type e)		{ VERIFY(count<dim); array[count++]=e;	}

	inc	DWORD PTR [ebx+576]
; File I:\Vitalya\mine\NSProjectX\layers\xrRender\WallmarksEngine.cpp

; 128  : 	sPoly* P = sml_clipper.ClipPoly	(sml_poly_src, sml_poly_dest);

	push	eax
	push	ebx
	mov	DWORD PTR [ebp+860], 0
	call	DWORD PTR __imp_?ClipPoly@CFrustum@@QBEPAV?$svector@U?$_vector3@M@@$0DA@@@AAV2@0@Z
	mov	ecx, eax
	mov	DWORD PTR _P$1$[esp+152], ecx

; 129  : 	
; 130  : 	//. todo
; 131  : 	// uv_gen = mView * []
; 132  : 	// UV = pos*uv_gen
; 133  : 
; 134  : 	if (P) {

	test	ecx, ecx
	je	$LN6@RecurseTri
; File I:\Vitalya\mine\NSProjectX\xrCore\_matrix.h

; 499  : 		dest.x = v.x*_11 + v.y*_21 + v.z*_31 + _41;

	mov	eax, DWORD PTR _mView$[esp+148]
; File I:\Vitalya\mine\NSProjectX\xrEngine\fvf.h

; 32   : 		IC void		set(const Fvector& _p, u32 C, float u, float v) { p.set(_p); color = C; t.set(u, v); }

	xor	edx, edx
; File I:\Vitalya\mine\NSProjectX\layers\xrRender\WallmarksEngine.cpp

; 144  : 		for (u32 i=2; i<P->size(); i++)

	cmp	DWORD PTR [ecx+576], 2
; File I:\Vitalya\mine\NSProjectX\xrCore\_matrix.h

; 499  : 		dest.x = v.x*_11 + v.y*_21 + v.z*_31 + _41;

	movss	xmm4, DWORD PTR [ecx+4]
	movss	xmm2, DWORD PTR [ecx]
	movss	xmm1, DWORD PTR [eax]
	movss	xmm0, DWORD PTR [eax+16]
	movss	xmm3, DWORD PTR [ecx+8]
	mulss	xmm0, xmm4
; File I:\Vitalya\mine\NSProjectX\xrEngine\fvf.h

; 32   : 		IC void		set(const Fvector& _p, u32 C, float u, float v) { p.set(_p); color = C; t.set(u, v); }

	mov	DWORD PTR _V0$3[esp+164], 0
; File I:\Vitalya\mine\NSProjectX\xrCore\_matrix.h

; 499  : 		dest.x = v.x*_11 + v.y*_21 + v.z*_31 + _41;

	mulss	xmm1, xmm2
; File I:\Vitalya\mine\NSProjectX\xrEngine\fvf.h

; 32   : 		IC void		set(const Fvector& _p, u32 C, float u, float v) { p.set(_p); color = C; t.set(u, v); }

	mov	DWORD PTR _V1$2[esp+164], edx
; File I:\Vitalya\mine\NSProjectX\layers\xrRender\WallmarksEngine.cpp

; 142  : 		V1.set				((*P)[1],0,(1+UV.x)*.5f,(1-UV.y)*.5f);

	movss	xmm5, DWORD PTR __real@3f800000
; File I:\Vitalya\mine\NSProjectX\xrCore\_vector3d.h

; 24   : 	ICF SelfRef	set(const _vector3<float> &v)			{ x = T(v.x);	y = T(v.y);	z = T(v.z);	return *this;	};

	movss	DWORD PTR _V0$3[esp+156], xmm4
; File I:\Vitalya\mine\NSProjectX\xrCore\_matrix.h

; 499  : 		dest.x = v.x*_11 + v.y*_21 + v.z*_31 + _41;

	addss	xmm1, xmm0
; File I:\Vitalya\mine\NSProjectX\xrCore\_vector3d.h

; 24   : 	ICF SelfRef	set(const _vector3<float> &v)			{ x = T(v.x);	y = T(v.y);	z = T(v.z);	return *this;	};

	movss	DWORD PTR _V0$3[esp+152], xmm2
; File I:\Vitalya\mine\NSProjectX\xrCore\_matrix.h

; 499  : 		dest.x = v.x*_11 + v.y*_21 + v.z*_31 + _41;

	movss	xmm0, DWORD PTR [eax+32]
	mulss	xmm0, xmm3
; File I:\Vitalya\mine\NSProjectX\layers\xrRender\WallmarksEngine.cpp

; 144  : 		for (u32 i=2; i<P->size(); i++)

	mov	DWORD PTR _i$1$[esp+152], 2
	movss	xmm6, DWORD PTR __real@3f000000
; File I:\Vitalya\mine\NSProjectX\xrCore\_vector3d.h

; 24   : 	ICF SelfRef	set(const _vector3<float> &v)			{ x = T(v.x);	y = T(v.y);	z = T(v.z);	return *this;	};

	movss	DWORD PTR _V0$3[esp+160], xmm3
; File I:\Vitalya\mine\NSProjectX\xrCore\_matrix.h

; 499  : 		dest.x = v.x*_11 + v.y*_21 + v.z*_31 + _41;

	addss	xmm0, DWORD PTR [eax+48]
; File I:\Vitalya\mine\NSProjectX\xrEngine\fvf.h

; 32   : 		IC void		set(const Fvector& _p, u32 C, float u, float v) { p.set(_p); color = C; t.set(u, v); }

	addss	xmm1, xmm0
; File I:\Vitalya\mine\NSProjectX\xrCore\_matrix.h

; 500  : 		dest.y = v.x*_12 + v.y*_22 + v.z*_32 + _42;

	movss	xmm0, DWORD PTR [eax+20]
	mulss	xmm0, xmm4

; 499  : 		dest.x = v.x*_11 + v.y*_21 + v.z*_31 + _41;

	movss	xmm4, DWORD PTR [ecx+12]
; File I:\Vitalya\mine\NSProjectX\xrCore\_vector3d.h

; 24   : 	ICF SelfRef	set(const _vector3<float> &v)			{ x = T(v.x);	y = T(v.y);	z = T(v.z);	return *this;	};

	movss	DWORD PTR _V1$2[esp+152], xmm4
; File I:\Vitalya\mine\NSProjectX\layers\xrRender\WallmarksEngine.cpp

; 140  : 		V0.set				((*P)[0],0,(1+UV.x)*.5f,(1-UV.y)*.5f);

	addss	xmm1, DWORD PTR __real@3f800000
	mulss	xmm1, DWORD PTR __real@3f000000
; File I:\Vitalya\mine\NSProjectX\xrCore\_vector2.h

; 15   : 	IC SelfRef set(float _u, float _v)				{ x=T(_u); y=T(_v);				return *this;	}

	movss	DWORD PTR _V0$3[esp+168], xmm1
; File I:\Vitalya\mine\NSProjectX\xrCore\_matrix.h

; 500  : 		dest.y = v.x*_12 + v.y*_22 + v.z*_32 + _42;

	movss	xmm1, DWORD PTR [eax+4]
	mulss	xmm1, xmm2

; 499  : 		dest.x = v.x*_11 + v.y*_21 + v.z*_31 + _41;

	movss	xmm2, DWORD PTR [ecx+16]
; File I:\Vitalya\mine\NSProjectX\xrCore\_vector3d.h

; 24   : 	ICF SelfRef	set(const _vector3<float> &v)			{ x = T(v.x);	y = T(v.y);	z = T(v.z);	return *this;	};

	movss	DWORD PTR _V1$2[esp+156], xmm2
; File I:\Vitalya\mine\NSProjectX\xrCore\_matrix.h

; 500  : 		dest.y = v.x*_12 + v.y*_22 + v.z*_32 + _42;

	addss	xmm1, xmm0
	movss	xmm0, DWORD PTR [eax+36]
	mulss	xmm0, xmm3

; 499  : 		dest.x = v.x*_11 + v.y*_21 + v.z*_31 + _41;

	movss	xmm3, DWORD PTR [ecx+20]
; File I:\Vitalya\mine\NSProjectX\xrCore\_vector3d.h

; 24   : 	ICF SelfRef	set(const _vector3<float> &v)			{ x = T(v.x);	y = T(v.y);	z = T(v.z);	return *this;	};

	movss	DWORD PTR _V1$2[esp+160], xmm3
; File I:\Vitalya\mine\NSProjectX\xrCore\_matrix.h

; 500  : 		dest.y = v.x*_12 + v.y*_22 + v.z*_32 + _42;

	addss	xmm0, DWORD PTR [eax+52]
	addss	xmm1, xmm0
; File I:\Vitalya\mine\NSProjectX\xrCore\_vector2.h

; 15   : 	IC SelfRef set(float _u, float _v)				{ x=T(_u); y=T(_v);				return *this;	}

	movss	xmm0, DWORD PTR __real@3f800000
	subss	xmm0, xmm1
; File I:\Vitalya\mine\NSProjectX\xrCore\_matrix.h

; 499  : 		dest.x = v.x*_11 + v.y*_21 + v.z*_31 + _41;

	movaps	xmm1, xmm4
	mulss	xmm1, DWORD PTR [eax]

; 500  : 		dest.y = v.x*_12 + v.y*_22 + v.z*_32 + _42;

	mulss	xmm4, DWORD PTR [eax+4]
; File I:\Vitalya\mine\NSProjectX\layers\xrRender\WallmarksEngine.cpp

; 140  : 		V0.set				((*P)[0],0,(1+UV.x)*.5f,(1-UV.y)*.5f);

	mulss	xmm0, DWORD PTR __real@3f000000
; File I:\Vitalya\mine\NSProjectX\xrCore\_vector2.h

; 15   : 	IC SelfRef set(float _u, float _v)				{ x=T(_u); y=T(_v);				return *this;	}

	movss	DWORD PTR _V0$3[esp+172], xmm0
; File I:\Vitalya\mine\NSProjectX\xrCore\_matrix.h

; 499  : 		dest.x = v.x*_11 + v.y*_21 + v.z*_31 + _41;

	movaps	xmm0, xmm2
	mulss	xmm0, DWORD PTR [eax+16]

; 500  : 		dest.y = v.x*_12 + v.y*_22 + v.z*_32 + _42;

	mulss	xmm2, DWORD PTR [eax+20]
	addss	xmm1, xmm0
	movaps	xmm0, xmm3
	mulss	xmm0, DWORD PTR [eax+32]
	mulss	xmm3, DWORD PTR [eax+36]
	addss	xmm4, xmm2
	addss	xmm0, DWORD PTR [eax+48]
	addss	xmm3, DWORD PTR [eax+52]
; File I:\Vitalya\mine\NSProjectX\xrEngine\fvf.h

; 32   : 		IC void		set(const Fvector& _p, u32 C, float u, float v) { p.set(_p); color = C; t.set(u, v); }

	addss	xmm1, xmm0
; File I:\Vitalya\mine\NSProjectX\xrCore\_vector2.h

; 15   : 	IC SelfRef set(float _u, float _v)				{ x=T(_u); y=T(_v);				return *this;	}

	movaps	xmm0, xmm5
; File I:\Vitalya\mine\NSProjectX\xrCore\_matrix.h

; 500  : 		dest.y = v.x*_12 + v.y*_22 + v.z*_32 + _42;

	addss	xmm4, xmm3
; File I:\Vitalya\mine\NSProjectX\layers\xrRender\WallmarksEngine.cpp

; 142  : 		V1.set				((*P)[1],0,(1+UV.x)*.5f,(1-UV.y)*.5f);

	addss	xmm1, xmm5
; File I:\Vitalya\mine\NSProjectX\xrCore\_vector2.h

; 15   : 	IC SelfRef set(float _u, float _v)				{ x=T(_u); y=T(_v);				return *this;	}

	subss	xmm0, xmm4
; File I:\Vitalya\mine\NSProjectX\layers\xrRender\WallmarksEngine.cpp

; 142  : 		V1.set				((*P)[1],0,(1+UV.x)*.5f,(1-UV.y)*.5f);

	mulss	xmm1, DWORD PTR __real@3f000000
	mulss	xmm0, xmm6
; File I:\Vitalya\mine\NSProjectX\xrCore\_vector2.h

; 15   : 	IC SelfRef set(float _u, float _v)				{ x=T(_u); y=T(_v);				return *this;	}

	movss	DWORD PTR _V1$2[esp+168], xmm1
	movss	DWORD PTR _V1$2[esp+172], xmm0
; File I:\Vitalya\mine\NSProjectX\layers\xrRender\WallmarksEngine.cpp

; 144  : 		for (u32 i=2; i<P->size(); i++)

	jbe	$LN3@RecurseTri
; File I:\Vitalya\mine\NSProjectX\xrCore\_matrix.h

; 499  : 		dest.x = v.x*_11 + v.y*_21 + v.z*_31 + _41;

	mov	ebp, DWORD PTR _V0$3[esp+168]
	lea	eax, DWORD PTR [ecx+32]
	mov	ecx, DWORD PTR _V0$3[esp+172]
	mov	ebx, DWORD PTR _W$[esp+148]
	mov	edi, DWORD PTR _V1$2[esp+172]
	mov	DWORD PTR _V0$6$[esp+152], ebp
	mov	ebp, DWORD PTR _V0$3[esp+160]
	mov	DWORD PTR _V0$3$[esp+152], ebp
	mov	ebp, DWORD PTR _V0$3[esp+156]
	mov	DWORD PTR _V0$2$[esp+152], ebp
	mov	ebp, DWORD PTR _V0$3[esp+152]
	mov	DWORD PTR _V0$5$[esp+152], ebp
	mov	ebp, DWORD PTR _mView$[esp+148]
	mov	DWORD PTR tv1725[esp+152], eax
	mov	DWORD PTR _V0$4$[esp+152], ecx
	npad	8
$LL4@RecurseTri:
	movss	xmm3, DWORD PTR [eax-4]
	movss	xmm2, DWORD PTR [eax-8]
	movaps	xmm1, xmm3
	mulss	xmm1, DWORD PTR [ebp+16]
	movaps	xmm0, xmm2
; File I:\Vitalya\mine\NSProjectX\xrEngine\fvf.h

; 32   : 		IC void		set(const Fvector& _p, u32 C, float u, float v) { p.set(_p); color = C; t.set(u, v); }

	mov	DWORD PTR _V2$4[esp+164], 0
; File I:\Vitalya\mine\NSProjectX\xrCore\_matrix.h

; 499  : 		dest.x = v.x*_11 + v.y*_21 + v.z*_31 + _41;

	mulss	xmm0, DWORD PTR [ebp]
	movss	xmm4, DWORD PTR [eax]
; File C:\Program Files\Microsoft Visual Studio\2022\Community\VC\Tools\MSVC\14.29.30133\include\vector

; 730  :         if (_Mylast != _My_data._Myend) {

	mov	eax, DWORD PTR [ebx+20]
; File I:\Vitalya\mine\NSProjectX\xrCore\_matrix.h

; 499  : 		dest.x = v.x*_11 + v.y*_21 + v.z*_31 + _41;

	addss	xmm1, xmm0
	movaps	xmm0, xmm4
	mulss	xmm0, DWORD PTR [ebp+32]
	movss	DWORD PTR tv1612[esp+152], xmm3
	movss	DWORD PTR tv1611[esp+152], xmm2
	addss	xmm0, DWORD PTR [ebp+48]
	movss	DWORD PTR tv1613[esp+152], xmm4
; File I:\Vitalya\mine\NSProjectX\xrCore\_vector3d.h

; 24   : 	ICF SelfRef	set(const _vector3<float> &v)			{ x = T(v.x);	y = T(v.y);	z = T(v.z);	return *this;	};

	movss	DWORD PTR _V2$4[esp+152], xmm2
	movss	DWORD PTR _V2$4[esp+156], xmm3
	movss	DWORD PTR _V2$4[esp+160], xmm4
; File I:\Vitalya\mine\NSProjectX\xrEngine\fvf.h

; 32   : 		IC void		set(const Fvector& _p, u32 C, float u, float v) { p.set(_p); color = C; t.set(u, v); }

	addss	xmm1, xmm0
; File I:\Vitalya\mine\NSProjectX\xrCore\_matrix.h

; 500  : 		dest.y = v.x*_12 + v.y*_22 + v.z*_32 + _42;

	movaps	xmm0, xmm3
	mulss	xmm0, DWORD PTR [ebp+20]
; File I:\Vitalya\mine\NSProjectX\layers\xrRender\WallmarksEngine.cpp

; 147  : 			V2.set				((*P)[i],0,(1+UV.x)*.5f,(1-UV.y)*.5f);

	addss	xmm1, xmm5
	mulss	xmm1, xmm6
	movss	DWORD PTR tv1614[esp+152], xmm1
; File I:\Vitalya\mine\NSProjectX\xrCore\_vector2.h

; 15   : 	IC SelfRef set(float _u, float _v)				{ x=T(_u); y=T(_v);				return *this;	}

	movss	DWORD PTR _V2$4[esp+168], xmm1
; File I:\Vitalya\mine\NSProjectX\xrCore\_matrix.h

; 500  : 		dest.y = v.x*_12 + v.y*_22 + v.z*_32 + _42;

	movaps	xmm1, xmm2
	mulss	xmm1, DWORD PTR [ebp+4]
	addss	xmm1, xmm0
	movaps	xmm0, xmm4
	mulss	xmm0, DWORD PTR [ebp+36]
	addss	xmm0, DWORD PTR [ebp+52]
	addss	xmm1, xmm0
; File I:\Vitalya\mine\NSProjectX\xrCore\_vector2.h

; 15   : 	IC SelfRef set(float _u, float _v)				{ x=T(_u); y=T(_v);				return *this;	}

	movaps	xmm0, xmm5
	subss	xmm0, xmm1
; File I:\Vitalya\mine\NSProjectX\layers\xrRender\WallmarksEngine.cpp

; 147  : 			V2.set				((*P)[i],0,(1+UV.x)*.5f,(1-UV.y)*.5f);

	mulss	xmm0, xmm6
	movss	DWORD PTR tv1615[esp+152], xmm0
; File I:\Vitalya\mine\NSProjectX\xrCore\_vector2.h

; 15   : 	IC SelfRef set(float _u, float _v)				{ x=T(_u); y=T(_v);				return *this;	}

	movss	DWORD PTR _V2$4[esp+172], xmm0
; File C:\Program Files\Microsoft Visual Studio\2022\Community\VC\Tools\MSVC\14.29.30133\include\vector

; 730  :         if (_Mylast != _My_data._Myend) {

	cmp	eax, DWORD PTR [ebx+24]
	je	SHORT $LN85@RecurseTri
; File I:\Vitalya\mine\NSProjectX\xrCore\_stl_extensions.h

; 84   : 							void					construct		(pointer p, const T& _Val)				{	::new((void*)p) value_type (_Val); }

	mov	ebp, DWORD PTR _V0$5$[esp+152]
	mov	DWORD PTR [eax], ebp
	mov	ebp, DWORD PTR _V0$2$[esp+152]
	mov	DWORD PTR [eax+4], ebp
	mov	ebp, DWORD PTR _V0$3$[esp+152]
	mov	DWORD PTR [eax+8], ebp
	mov	ebp, DWORD PTR _V0$6$[esp+152]
	mov	DWORD PTR [eax+12], 0
	mov	DWORD PTR [eax+16], ebp
	mov	DWORD PTR [eax+20], ecx
; File C:\Program Files\Microsoft Visual Studio\2022\Community\VC\Tools\MSVC\14.29.30133\include\vector

; 716  :         ++_Mylast;

	add	DWORD PTR [ebx+20], 24			; 00000018H

; 731  :             return _Emplace_back_with_unused_capacity(_STD forward<_Valty>(_Val)...);

	jmp	SHORT $LN161@RecurseTri
$LN85@RecurseTri:

; 732  :         }
; 733  : 
; 734  :         _Ty& _Result = *_Emplace_reallocate(_Mylast, _STD forward<_Valty>(_Val)...);

	lea	ecx, DWORD PTR _V0$3[esp+152]
	push	ecx
	push	eax
	lea	ecx, DWORD PTR [ebx+16]
	call	??$_Emplace_reallocate@ABULIT@FVF@@@?$vector@ULIT@FVF@@V?$xalloc@ULIT@FVF@@@@@std@@QAEPAULIT@FVF@@QAU23@ABU23@@Z ; std::vector<FVF::LIT,xalloc<FVF::LIT> >::_Emplace_reallocate<FVF::LIT const &>
	mov	edx, DWORD PTR _V1$2[esp+164]
$LN161@RecurseTri:

; 730  :         if (_Mylast != _My_data._Myend) {

	mov	eax, DWORD PTR [ebx+20]
	cmp	eax, DWORD PTR [ebx+24]
	je	SHORT $LN96@RecurseTri
; File I:\Vitalya\mine\NSProjectX\xrCore\_stl_extensions.h

; 84   : 							void					construct		(pointer p, const T& _Val)				{	::new((void*)p) value_type (_Val); }

	mov	ecx, DWORD PTR _V1$2[esp+152]
	mov	DWORD PTR [eax], ecx
	mov	ecx, DWORD PTR _V1$2[esp+156]
	mov	DWORD PTR [eax+4], ecx
	mov	ecx, DWORD PTR _V1$2[esp+160]
	mov	DWORD PTR [eax+8], ecx
	mov	ecx, DWORD PTR _V1$2[esp+168]
	mov	DWORD PTR [eax+12], edx
	mov	DWORD PTR [eax+16], ecx
	mov	DWORD PTR [eax+20], edi
; File C:\Program Files\Microsoft Visual Studio\2022\Community\VC\Tools\MSVC\14.29.30133\include\vector

; 716  :         ++_Mylast;

	add	DWORD PTR [ebx+20], 24			; 00000018H

; 731  :             return _Emplace_back_with_unused_capacity(_STD forward<_Valty>(_Val)...);

	jmp	SHORT $LN162@RecurseTri
$LN96@RecurseTri:

; 732  :         }
; 733  : 
; 734  :         _Ty& _Result = *_Emplace_reallocate(_Mylast, _STD forward<_Valty>(_Val)...);

	lea	ecx, DWORD PTR _V1$2[esp+152]
	push	ecx
	push	eax
	lea	ecx, DWORD PTR [ebx+16]
	call	??$_Emplace_reallocate@ABULIT@FVF@@@?$vector@ULIT@FVF@@V?$xalloc@ULIT@FVF@@@@@std@@QAEPAULIT@FVF@@QAU23@ABU23@@Z ; std::vector<FVF::LIT,xalloc<FVF::LIT> >::_Emplace_reallocate<FVF::LIT const &>
$LN162@RecurseTri:

; 730  :         if (_Mylast != _My_data._Myend) {

	mov	eax, DWORD PTR [ebx+20]
	cmp	eax, DWORD PTR [ebx+24]
	je	SHORT $LN107@RecurseTri
; File I:\Vitalya\mine\NSProjectX\xrCore\_stl_extensions.h

; 84   : 							void					construct		(pointer p, const T& _Val)				{	::new((void*)p) value_type (_Val); }

	movss	xmm0, DWORD PTR tv1611[esp+152]
	movss	DWORD PTR [eax], xmm0
	movss	xmm0, DWORD PTR tv1612[esp+152]
	movss	DWORD PTR [eax+4], xmm0
	movss	xmm0, DWORD PTR tv1613[esp+152]
	movss	DWORD PTR [eax+8], xmm0
	movss	xmm0, DWORD PTR tv1614[esp+152]
	mov	DWORD PTR [eax+12], 0
	movss	DWORD PTR [eax+16], xmm0
	movss	xmm0, DWORD PTR tv1615[esp+152]
	movss	DWORD PTR [eax+20], xmm0
; File C:\Program Files\Microsoft Visual Studio\2022\Community\VC\Tools\MSVC\14.29.30133\include\vector

; 716  :         ++_Mylast;

	add	DWORD PTR [ebx+20], 24			; 00000018H

; 731  :             return _Emplace_back_with_unused_capacity(_STD forward<_Valty>(_Val)...);

	jmp	SHORT $LN106@RecurseTri
$LN107@RecurseTri:

; 732  :         }
; 733  : 
; 734  :         _Ty& _Result = *_Emplace_reallocate(_Mylast, _STD forward<_Valty>(_Val)...);

	lea	ecx, DWORD PTR _V2$4[esp+152]
	push	ecx
	push	eax
	lea	ecx, DWORD PTR [ebx+16]
	call	??$_Emplace_reallocate@ABULIT@FVF@@@?$vector@ULIT@FVF@@V?$xalloc@ULIT@FVF@@@@@std@@QAEPAULIT@FVF@@QAU23@ABU23@@Z ; std::vector<FVF::LIT,xalloc<FVF::LIT> >::_Emplace_reallocate<FVF::LIT const &>
$LN106@RecurseTri:
; File I:\Vitalya\mine\NSProjectX\layers\xrRender\WallmarksEngine.cpp

; 151  : 			V1					= V2;

	mov	eax, DWORD PTR _V2$4[esp+152]
	xor	edx, edx
	mov	ebp, DWORD PTR _P$1$[esp+152]
	mov	ecx, DWORD PTR _i$1$[esp+152]
	mov	edi, DWORD PTR _V2$4[esp+172]
	inc	ecx
	movss	xmm5, DWORD PTR __real@3f800000
	movss	xmm6, DWORD PTR __real@3f000000
	mov	DWORD PTR _V1$2[esp+152], eax
	mov	eax, DWORD PTR _V2$4[esp+156]
	mov	DWORD PTR _V1$2[esp+156], eax
	mov	eax, DWORD PTR _V2$4[esp+160]
	mov	DWORD PTR _V1$2[esp+160], eax
	mov	eax, DWORD PTR _V2$4[esp+168]
	mov	DWORD PTR _V1$2[esp+168], eax
	mov	eax, DWORD PTR tv1725[esp+152]
	add	eax, 12					; 0000000cH
	mov	DWORD PTR _i$1$[esp+152], ecx
	cmp	ecx, DWORD PTR [ebp+576]
	mov	ebp, DWORD PTR _mView$[esp+148]
	mov	ecx, DWORD PTR _V0$4$[esp+152]
	mov	DWORD PTR _V1$2[esp+164], edx
	mov	DWORD PTR _V1$2[esp+172], edi
	mov	DWORD PTR tv1725[esp+152], eax
	jb	$LL4@RecurseTri
	mov	ebp, DWORD PTR _this$1$[esp+152]
$LN3@RecurseTri:

; 152  : 		}
; 153  : 		
; 154  : 		// recurse
; 155  : 		for (i=0; i<3; i++)

	mov	eax, DWORD PTR _t$[esp+148]
	mov	ebx, 3
	lea	esi, DWORD PTR [eax+eax*2]
	shl	esi, 2
$LL7@RecurseTri:

; 156  : 		{
; 157  : 			u32 adj					= sml_adjacency[3*t+i];

	mov	eax, DWORD PTR [ebp+1492]
	mov	edi, DWORD PTR [esi+eax]

; 158  : 			if (0xffffffff==adj)	continue;

	cmp	edi, -1
	je	$LN5@RecurseTri

; 159  : 			CDB::TRI*	SML			= sml_collector.getT() + adj;

	mov	ecx, DWORD PTR tv1750[esp+152]
	call	DWORD PTR __imp_?getT@Collector@CDB@@QAEPAVTRI@2@XZ
; File I:\Vitalya\mine\NSProjectX\xrCore\_vector3d.h

; 36   : 	ICF	SelfRef	sub(const Self &a, const Self &v)		{ x=a.x-v.x;y=a.y-v.y;	z=a.z-v.z;		return *this;	};

	mov	ebp, DWORD PTR _v_data$1$[esp+152]
; File I:\Vitalya\mine\NSProjectX\layers\xrRender\WallmarksEngine.cpp

; 159  : 			CDB::TRI*	SML			= sml_collector.getT() + adj;

	mov	ecx, edi
	shl	ecx, 4
	add	eax, ecx

; 163  : 			test_normal.mknormal	(v_data[v_ids[0]],v_data[v_ids[1]],v_data[v_ids[2]]);

	mov	ecx, DWORD PTR [eax+8]
	lea	edx, DWORD PTR [ecx+ecx*2]
	mov	ecx, DWORD PTR [eax+4]
	mov	eax, DWORD PTR [eax]
	lea	ecx, DWORD PTR [ecx+ecx*2]
; File I:\Vitalya\mine\NSProjectX\xrCore\_vector3d.h

; 36   : 	ICF	SelfRef	sub(const Self &a, const Self &v)		{ x=a.x-v.x;y=a.y-v.y;	z=a.z-v.z;		return *this;	};

	movss	xmm2, DWORD PTR [ebp+ecx*4]
; File I:\Vitalya\mine\NSProjectX\layers\xrRender\WallmarksEngine.cpp

; 163  : 			test_normal.mknormal	(v_data[v_ids[0]],v_data[v_ids[1]],v_data[v_ids[2]]);

	lea	eax, DWORD PTR [eax+eax*2]
; File I:\Vitalya\mine\NSProjectX\xrCore\_vector3d.h

; 36   : 	ICF	SelfRef	sub(const Self &a, const Self &v)		{ x=a.x-v.x;y=a.y-v.y;	z=a.z-v.z;		return *this;	};

	movss	xmm1, DWORD PTR [ebp+ecx*4+4]
	movaps	xmm6, xmm2
	movss	xmm0, DWORD PTR [ebp+ecx*4+8]
	movaps	xmm5, xmm1
	subss	xmm5, DWORD PTR [ebp+eax*4+4]
	subss	xmm6, DWORD PTR [ebp+eax*4]
	mov	ecx, ebp
	movaps	xmm3, xmm0

; 201  : 		if (magnitude> std::numeric_limits<T>::min()) {

	mov	ebp, DWORD PTR _this$1$[esp+152]

; 36   : 	ICF	SelfRef	sub(const Self &a, const Self &v)		{ x=a.x-v.x;y=a.y-v.y;	z=a.z-v.z;		return *this;	};

	movss	xmm7, DWORD PTR [ecx+edx*4+4]
	subss	xmm3, DWORD PTR [ecx+eax*4+8]
	movss	xmm4, DWORD PTR [ecx+edx*4]
	subss	xmm7, xmm1
	movss	xmm1, DWORD PTR [ecx+edx*4+8]
	subss	xmm4, xmm2
	subss	xmm1, xmm0

; 273  : 		x = v1.y  * v2.z  - v1.z  * v2.y ;

	movaps	xmm0, xmm7

; 274  : 		y = v1.z  * v2.x  - v1.x  * v2.z ;

	mulss	xmm7, xmm6
	mulss	xmm0, xmm3

; 36   : 	ICF	SelfRef	sub(const Self &a, const Self &v)		{ x=a.x-v.x;y=a.y-v.y;	z=a.z-v.z;		return *this;	};

	movaps	xmm2, xmm1
	mulss	xmm2, xmm5

; 274  : 		y = v1.z  * v2.x  - v1.x  * v2.z ;

	mulss	xmm1, xmm6
	subss	xmm2, xmm0
	movss	DWORD PTR _test_normal$1$sroa$825$1$[esp+152], xmm2
	movaps	xmm2, xmm4
	mulss	xmm2, xmm3

; 275  : 		z = v1.x  * v2.y  - v1.y  * v2.x ;

	mulss	xmm4, xmm5
	subss	xmm2, xmm1
	movss	xmm1, DWORD PTR _test_normal$1$sroa$825$1$[esp+152]
	movaps	xmm3, xmm1
	subss	xmm7, xmm4
	mulss	xmm3, xmm1

; 200  : 		T magnitude=x*x + y*y + z*z;

	movaps	xmm0, xmm2
	mulss	xmm0, xmm2
	addss	xmm3, xmm0
	movaps	xmm0, xmm7
	mulss	xmm0, xmm7
	addss	xmm3, xmm0

; 201  : 		if (magnitude> std::numeric_limits<T>::min()) {

	comiss	xmm3, DWORD PTR __real@00800000
	jbe	SHORT $LN143@RecurseTri

; 202  : 			magnitude=_sqrt(1/magnitude);

	movss	xmm0, DWORD PTR __real@3f800000
	divss	xmm0, xmm3
; File C:\Program Files (x86)\Windows Kits\10\Include\10.0.22000.0\ucrt\corecrt_math.h

; 764  :             return (float)sqrt(_X);

	sqrtss	xmm0, xmm0
; File I:\Vitalya\mine\NSProjectX\xrCore\_vector3d.h

; 202  : 			magnitude=_sqrt(1/magnitude);

	mulss	xmm1, xmm0

; 203  : 			x *= magnitude;

	mulss	xmm2, xmm0

; 204  : 			y *= magnitude;

	mulss	xmm7, xmm0
$LN143@RecurseTri:

; 268  : 	{	return x*v.x + y*v.y + z*v.z; }

	mulss	xmm2, DWORD PTR [ebp+32]
	mulss	xmm1, DWORD PTR [ebp+28]
	mulss	xmm7, DWORD PTR [ebp+36]
; File I:\Vitalya\mine\NSProjectX\layers\xrRender\WallmarksEngine.cpp

; 165  : 			if (cosa<0.034899f)		continue;	// cos(88)

	movss	xmm0, DWORD PTR __real@3d0ef241
; File I:\Vitalya\mine\NSProjectX\xrCore\_vector3d.h

; 268  : 	{	return x*v.x + y*v.y + z*v.z; }

	addss	xmm2, xmm1
	addss	xmm2, xmm7
; File I:\Vitalya\mine\NSProjectX\layers\xrRender\WallmarksEngine.cpp

; 165  : 			if (cosa<0.034899f)		continue;	// cos(88)

	comiss	xmm0, xmm2
	ja	SHORT $LN5@RecurseTri

; 166  : 			RecurseTri				(adj,mView,W);

	push	DWORD PTR _W$[esp+148]
	mov	ecx, ebp
	push	DWORD PTR _mView$[esp+152]
	push	edi
	call	?RecurseTri@CWallmarksEngine@@AAEXIAAU?$_matrix@M@@AAUstatic_wallmark@1@@Z ; CWallmarksEngine::RecurseTri
$LN5@RecurseTri:

; 152  : 		}
; 153  : 		
; 154  : 		// recurse
; 155  : 		for (i=0; i<3; i++)

	add	esi, 4
	sub	ebx, 1
	jne	$LL7@RecurseTri
$LN6@RecurseTri:

; 167  : 		}
; 168  : 	}
; 169  : }

	pop	edi
	pop	esi
	pop	ebp
	pop	ebx
	add	esp, 136				; 00000088H
	ret	12					; 0000000cH
?RecurseTri@CWallmarksEngine@@AAEXIAAU?$_matrix@M@@AAUstatic_wallmark@1@@Z ENDP ; CWallmarksEngine::RecurseTri
_TEXT	ENDS
; Function compile flags: /Ogtpy
; File I:\Vitalya\mine\NSProjectX\layers\xrRender\WallmarksEngine.cpp
; File I:\Vitalya\mine\NSProjectX\xrCore\_vector3d.h
; File I:\Vitalya\mine\NSProjectX\layers\xrRender\WallmarksEngine.cpp
; File I:\Vitalya\mine\NSProjectX\xrCore\_vector3d.h
; File C:\Program Files (x86)\Windows Kits\10\Include\10.0.22000.0\ucrt\corecrt_math.h
; File I:\Vitalya\mine\NSProjectX\layers\xrRender\WallmarksEngine.cpp
; File I:\Vitalya\mine\NSProjectX\xrCore\_vector3d.h
; File I:\Vitalya\mine\NSProjectX\layers\xrRender\WallmarksEngine.cpp
; File I:\Vitalya\mine\NSProjectX\xrCore\_vector3d.h
; File I:\Vitalya\mine\NSProjectX\layers\xrRender\WallmarksEngine.cpp
; File I:\Vitalya\mine\NSProjectX\xrCore\_vector3d.h
; File I:\Vitalya\mine\NSProjectX\layers\xrRender\WallmarksEngine.cpp
; File I:\Vitalya\mine\NSProjectX\xrCore\_vector3d.h
; File I:\Vitalya\mine\NSProjectX\layers\xrRender\WallmarksEngine.cpp
; File I:\Vitalya\mine\NSProjectX\xrCore\_vector3d.h
; File I:\Vitalya\mine\NSProjectX\layers\xrRender\WallmarksEngine.cpp
; File I:\Vitalya\mine\NSProjectX\xrCore\_vector3d.h
; File I:\Vitalya\mine\NSProjectX\layers\xrRender\WallmarksEngine.cpp
; File I:\Vitalya\mine\NSProjectX\xrCore\_vector3d.h
; File I:\Vitalya\mine\NSProjectX\xrCore\_matrix.h
; File I:\Vitalya\mine\NSProjectX\layers\xrRender\WallmarksEngine.cpp
_TEXT	SEGMENT
tv1310 = -44						; size = 4
tv1311 = -40						; size = 4
tv1312 = -36						; size = 4
tv1313 = -32						; size = 4
tv1314 = -28						; size = 4
_up$ = -24						; size = 12
_at$ = -12						; size = 12
_mView$ = 8						; size = 4
_invsz$ = 12						; size = 4
_from$ = 16						; size = 4
?BuildMatrix@CWallmarksEngine@@AAEXAAU?$_matrix@M@@MABU?$_vector3@M@@@Z PROC ; CWallmarksEngine::BuildMatrix
; _this$ = ecx

; 172  : {

	push	ebp
	mov	ebp, esp
	and	esp, -8					; fffffff8H
	sub	esp, 44					; 0000002cH
; File I:\Vitalya\mine\NSProjectX\xrCore\_vector3d.h

; 36   : 	ICF	SelfRef	sub(const Self &a, const Self &v)		{ x=a.x-v.x;y=a.y-v.y;	z=a.z-v.z;		return *this;	};

	mov	eax, DWORD PTR _from$[ebp]

; 23   : 	ICF	SelfRef	set(T _x, T _y, T _z)					{ x = _x;		y = _y;		z = _z;		return *this;	};

	xorps	xmm7, xmm7

; 36   : 	ICF	SelfRef	sub(const Self &a, const Self &v)		{ x=a.x-v.x;y=a.y-v.y;	z=a.z-v.z;		return *this;	};

	movss	xmm6, DWORD PTR [ecx+28]
	movss	xmm2, DWORD PTR [ecx+32]
	movss	xmm5, DWORD PTR [ecx+36]
	movss	xmm0, DWORD PTR [eax]
	subss	xmm0, xmm6

; 23   : 	ICF	SelfRef	set(T _x, T _y, T _z)					{ x = _x;		y = _y;		z = _z;		return *this;	};

	movss	xmm1, DWORD PTR __real@3f800000
; File I:\Vitalya\mine\NSProjectX\layers\xrRender\WallmarksEngine.cpp

; 172  : {

	push	esi
; File I:\Vitalya\mine\NSProjectX\xrCore\_vector3d.h

; 36   : 	ICF	SelfRef	sub(const Self &a, const Self &v)		{ x=a.x-v.x;y=a.y-v.y;	z=a.z-v.z;		return *this;	};

	movss	DWORD PTR _at$[esp+48], xmm0
	movss	xmm0, DWORD PTR [eax+4]
	subss	xmm0, xmm2
	movss	DWORD PTR _at$[esp+52], xmm0
	movss	xmm0, DWORD PTR [eax+8]
	subss	xmm0, xmm5
	movss	DWORD PTR _at$[esp+56], xmm0
; File C:\Program Files (x86)\Windows Kits\10\Include\10.0.22000.0\ucrt\corecrt_math.h

; 676  :             return (float)fabs(_X);

	movaps	xmm0, xmm2
	andps	xmm0, DWORD PTR __xmm@7fffffff7fffffff7fffffff7fffffff
; File I:\Vitalya\mine\NSProjectX\layers\xrRender\WallmarksEngine.cpp

; 178  : 	if (_abs(sml_normal.y)>.99f) y.set(1,0,0);

	comiss	xmm0, DWORD PTR __real@3f7d70a4
	jbe	SHORT $LN2@BuildMatri
; File I:\Vitalya\mine\NSProjectX\xrCore\_vector3d.h

; 23   : 	ICF	SelfRef	set(T _x, T _y, T _z)					{ x = _x;		y = _y;		z = _z;		return *this;	};

	movaps	xmm7, xmm1
	xorps	xmm1, xmm1
$LN2@BuildMatri:

; 275  : 		z = v1.x  * v2.y  - v1.y  * v2.x ;

	movaps	xmm0, xmm6
; File I:\Vitalya\mine\NSProjectX\layers\xrRender\WallmarksEngine.cpp

; 181  : 	mView.build_camera	(from,at,up);

	mov	esi, DWORD PTR _mView$[ebp]
; File I:\Vitalya\mine\NSProjectX\xrCore\_vector3d.h

; 275  : 		z = v1.x  * v2.y  - v1.y  * v2.x ;

	mulss	xmm0, xmm1
	movaps	xmm3, xmm5
	mulss	xmm2, xmm7
	movaps	xmm4, xmm5
	mulss	xmm3, xmm7

; 273  : 		x = v1.y  * v2.z  - v1.z  * v2.y ;

	movss	xmm7, DWORD PTR [ecx+32]

; 275  : 		z = v1.x  * v2.y  - v1.y  * v2.x ;

	subss	xmm2, xmm0
	mulss	xmm4, xmm1
; File I:\Vitalya\mine\NSProjectX\layers\xrRender\WallmarksEngine.cpp

; 181  : 	mView.build_camera	(from,at,up);

	lea	ecx, DWORD PTR _up$[esp+48]
	push	ecx
; File I:\Vitalya\mine\NSProjectX\xrCore\_vector3d.h

; 274  : 		y = v1.z  * v2.x  - v1.x  * v2.z ;

	xorps	xmm3, DWORD PTR __xmm@80000000800000008000000080000000

; 273  : 		x = v1.y  * v2.z  - v1.z  * v2.y ;

	movaps	xmm0, xmm5
	mulss	xmm0, xmm3
; File I:\Vitalya\mine\NSProjectX\layers\xrRender\WallmarksEngine.cpp

; 181  : 	mView.build_camera	(from,at,up);

	lea	ecx, DWORD PTR _at$[esp+52]
	push	ecx
; File I:\Vitalya\mine\NSProjectX\xrCore\_vector3d.h

; 273  : 		x = v1.y  * v2.z  - v1.z  * v2.y ;

	movaps	xmm1, xmm7

; 274  : 		y = v1.z  * v2.x  - v1.x  * v2.z ;

	mulss	xmm5, xmm4
; File I:\Vitalya\mine\NSProjectX\layers\xrRender\WallmarksEngine.cpp

; 181  : 	mView.build_camera	(from,at,up);

	mov	ecx, esi
; File I:\Vitalya\mine\NSProjectX\xrCore\_vector3d.h

; 273  : 		x = v1.y  * v2.z  - v1.z  * v2.y ;

	mulss	xmm1, xmm2
; File I:\Vitalya\mine\NSProjectX\layers\xrRender\WallmarksEngine.cpp

; 181  : 	mView.build_camera	(from,at,up);

	push	eax
; File I:\Vitalya\mine\NSProjectX\xrCore\_vector3d.h

; 275  : 		z = v1.x  * v2.y  - v1.y  * v2.x ;

	mulss	xmm7, xmm4
	subss	xmm1, xmm0
	movaps	xmm0, xmm6
	mulss	xmm0, xmm2
	mulss	xmm6, xmm3
	subss	xmm5, xmm0
	movss	DWORD PTR _up$[esp+60], xmm1
	subss	xmm6, xmm7
	movss	DWORD PTR _up$[esp+64], xmm5
	movss	DWORD PTR _up$[esp+68], xmm6
; File I:\Vitalya\mine\NSProjectX\layers\xrRender\WallmarksEngine.cpp

; 181  : 	mView.build_camera	(from,at,up);

	call	?build_camera@?$_matrix@M@@QAEAAU1@ABU?$_vector3@M@@00@Z ; _matrix<float>::build_camera
; File I:\Vitalya\mine\NSProjectX\xrCore\_vector3d.h

; 24   : 	ICF SelfRef	set(const _vector3<float> &v)			{ x = T(v.x);	y = T(v.y);	z = T(v.z);	return *this;	};

	movss	xmm1, DWORD PTR [esi+4]
	movss	xmm2, DWORD PTR [esi+8]
	movss	xmm3, DWORD PTR [esi+16]
	movss	xmm4, DWORD PTR [esi+20]
	movss	xmm5, DWORD PTR [esi+24]
	movss	xmm6, DWORD PTR [esi+32]
; File I:\Vitalya\mine\NSProjectX\xrCore\_matrix.h

; 111  : 		m[0][0] = A.m[0][0] * B.m[0][0] + A.m[1][0] * B.m[0][1] + A.m[2][0] * B.m[0][2];

	movss	xmm7, DWORD PTR _invsz$[ebp]
	movaps	xmm0, xmm7
	mulss	xmm1, xmm7
	mulss	xmm0, DWORD PTR [esi]

; 112  : 		m[0][1] = A.m[0][1] * B.m[0][0] + A.m[1][1] * B.m[0][1] + A.m[2][1] * B.m[0][2];
; 113  : 		m[0][2] = A.m[0][2] * B.m[0][0] + A.m[1][2] * B.m[0][1] + A.m[2][2] * B.m[0][2];

	mulss	xmm2, xmm7
	movss	DWORD PTR [esi], xmm0
	movss	DWORD PTR [esi+4], xmm1
	movss	DWORD PTR [esi+8], xmm2

; 114  : 		m[0][3] = 0;

	mov	DWORD PTR [esi+12], 0

; 115  : 
; 116  : 		m[1][0] = A.m[0][0] * B.m[1][0] + A.m[1][0] * B.m[1][1] + A.m[2][0] * B.m[1][2];

	mulss	xmm3, xmm7

; 117  : 		m[1][1] = A.m[0][1] * B.m[1][0] + A.m[1][1] * B.m[1][1] + A.m[2][1] * B.m[1][2];
; 118  : 		m[1][2] = A.m[0][2] * B.m[1][0] + A.m[1][2] * B.m[1][1] + A.m[2][2] * B.m[1][2];
; 119  : 		m[1][3] = 0;

	mov	DWORD PTR [esi+28], 0
	mulss	xmm4, xmm7
	movss	DWORD PTR [esi+16], xmm3
	mulss	xmm5, xmm7
	movss	DWORD PTR [esi+20], xmm4

; 120  : 
; 121  : 		m[2][0] = A.m[0][0] * B.m[2][0] + A.m[1][0] * B.m[2][1] + A.m[2][0] * B.m[2][2];

	mulss	xmm6, xmm7
	movss	DWORD PTR [esi+24], xmm5
	movss	DWORD PTR [esi+32], xmm6
	movss	xmm0, DWORD PTR [esi+36]
	mulss	xmm0, xmm7

; 122  : 		m[2][1] = A.m[0][1] * B.m[2][0] + A.m[1][1] * B.m[2][1] + A.m[2][1] * B.m[2][2];

	movss	DWORD PTR [esi+36], xmm0

; 123  : 		m[2][2] = A.m[0][2] * B.m[2][0] + A.m[1][2] * B.m[2][1] + A.m[2][2] * B.m[2][2];

	movss	xmm0, DWORD PTR [esi+40]
	mulss	xmm0, xmm7

; 124  : 		m[2][3] = 0;

	mov	DWORD PTR [esi+44], 0
	movss	DWORD PTR [esi+40], xmm0

; 125  : 
; 126  : 		m[3][0] = A.m[0][0] * B.m[3][0] + A.m[1][0] * B.m[3][1] + A.m[2][0] * B.m[3][2] + A.m[3][0];

	movss	xmm0, DWORD PTR [esi+48]
	mulss	xmm0, xmm7
	movss	DWORD PTR [esi+48], xmm0
	movss	xmm0, DWORD PTR [esi+52]
	mulss	xmm0, xmm7

; 127  : 		m[3][1] = A.m[0][1] * B.m[3][0] + A.m[1][1] * B.m[3][1] + A.m[2][1] * B.m[3][2] + A.m[3][1];

	movss	DWORD PTR [esi+52], xmm0

; 128  : 		m[3][2] = A.m[0][2] * B.m[3][0] + A.m[1][2] * B.m[3][1] + A.m[2][2] * B.m[3][2] + A.m[3][2];

	movss	xmm0, DWORD PTR [esi+56]
	mulss	xmm0, xmm7

; 129  : 		m[3][3] = 1;

	mov	DWORD PTR [esi+60], 1065353216		; 3f800000H
	movss	DWORD PTR [esi+56], xmm0
; File I:\Vitalya\mine\NSProjectX\layers\xrRender\WallmarksEngine.cpp

; 184  : }

	pop	esi
	mov	esp, ebp
	pop	ebp
	ret	12					; 0000000cH
?BuildMatrix@CWallmarksEngine@@AAEXAAU?$_matrix@M@@MABU?$_vector3@M@@@Z ENDP ; CWallmarksEngine::BuildMatrix
_TEXT	ENDS
; Function compile flags: /Ogtpy
; File I:\Vitalya\mine\NSProjectX\layers\xrRender\WallmarksEngine.cpp
; File I:\Vitalya\mine\NSProjectX\xrCore\_vector3d.h
; File I:\Vitalya\mine\NSProjectX\layers\xrRender\WallmarksEngine.cpp
; File I:\Vitalya\mine\NSProjectX\xrCore\_vector3d.h
; File I:\Vitalya\mine\NSProjectX\layers\xrRender\WallmarksEngine.cpp
; File I:\Vitalya\mine\NSProjectX\xrCore\_vector3d.h
; File I:\Vitalya\mine\NSProjectX\layers\xrRender\WallmarksEngine.cpp
; File I:\Vitalya\mine\NSProjectX\xrCore\_vector3d.h
; File I:\Vitalya\mine\NSProjectX\layers\xrRender\WallmarksEngine.cpp
; File I:\Vitalya\mine\NSProjectX\xrCore\_vector3d.h
; File I:\Vitalya\mine\NSProjectX\layers\xrRender\WallmarksEngine.cpp
; File I:\Vitalya\mine\NSProjectX\xrCore\_vector3d.h
; File I:\Vitalya\mine\NSProjectX\xrCDB\xrCDB.h
; File I:\Vitalya\mine\NSProjectX\layers\xrRender\WallmarksEngine.cpp
; File I:\Vitalya\mine\NSProjectX\xrCore\_vector3d.h
; File I:\Vitalya\mine\NSProjectX\layers\xrRender\WallmarksEngine.cpp
; File I:\Vitalya\mine\NSProjectX\xrCore\_vector3d.h
; File I:\Vitalya\mine\NSProjectX\layers\xrRender\WallmarksEngine.cpp
; File I:\Vitalya\mine\NSProjectX\xrCore\_vector3d.h
; File I:\Vitalya\mine\NSProjectX\xrEngine\xr_area.h
; File I:\Vitalya\mine\NSProjectX\xrCore\_vector3d.h
; File I:\Vitalya\mine\NSProjectX\xrEngine\xr_area.h
; File I:\Vitalya\mine\NSProjectX\xrCore\_vector3d.h
; File I:\Vitalya\mine\NSProjectX\xrEngine\xr_area.h
; File I:\Vitalya\mine\NSProjectX\xrCore\_vector3d.h
; File I:\Vitalya\mine\NSProjectX\layers\xrRender\WallmarksEngine.cpp
; File I:\Vitalya\mine\NSProjectX\xrCore\_vector3d.h
; File I:\Vitalya\mine\NSProjectX\layers\xrRender\WallmarksEngine.cpp
; File C:\Program Files\Microsoft Visual Studio\2022\Community\VC\Tools\MSVC\14.29.30133\include\vector
; File I:\Vitalya\mine\NSProjectX\layers\xrRender\WallmarksEngine.cpp
; File I:\Vitalya\mine\NSProjectX\xrCDB\xrCDB.h
; File I:\Vitalya\mine\NSProjectX\layers\xrRender\WallmarksEngine.cpp
; File I:\Vitalya\mine\NSProjectX\xrCore\_vector3d.h
; File I:\Vitalya\mine\NSProjectX\layers\xrRender\WallmarksEngine.cpp
; File I:\Vitalya\mine\NSProjectX\xrCore\_vector3d.h
; File I:\Vitalya\mine\NSProjectX\layers\xrRender\WallmarksEngine.cpp
; File I:\Vitalya\mine\NSProjectX\xrCore\_vector3d.h
; File I:\Vitalya\mine\NSProjectX\layers\xrRender\WallmarksEngine.cpp
; File I:\Vitalya\mine\NSProjectX\xrCore\_vector3d.h
; File C:\Program Files (x86)\Windows Kits\10\Include\10.0.22000.0\ucrt\corecrt_math.h
; File I:\Vitalya\mine\NSProjectX\xrCore\_vector3d.h
; File I:\Vitalya\mine\NSProjectX\layers\xrRender\WallmarksEngine.cpp
; File I:\Vitalya\mine\NSProjectX\xrCore\_vector3d.h
; File I:\Vitalya\mine\NSProjectX\layers\xrRender\WallmarksEngine.cpp
; File I:\Vitalya\mine\NSProjectX\xrCore\_vector3d.h
; File I:\Vitalya\mine\NSProjectX\layers\xrRender\WallmarksEngine.cpp
; File I:\Vitalya\mine\NSProjectX\xrCore\_vector3d.h
; File I:\Vitalya\mine\NSProjectX\layers\xrRender\WallmarksEngine.cpp
; File I:\Vitalya\mine\NSProjectX\xrCore\_random.h
; File I:\Vitalya\mine\NSProjectX\layers\xrRender\WallmarksEngine.cpp
; File I:\Vitalya\mine\NSProjectX\xrCore\_random.h
; File I:\Vitalya\mine\NSProjectX\layers\xrRender\WallmarksEngine.cpp
; File I:\Vitalya\mine\NSProjectX\xrCore\_matrix.h
; File I:\Vitalya\mine\NSProjectX\layers\xrRender\WallmarksEngine.cpp
; File I:\Vitalya\mine\NSProjectX\xrCore\_matrix.h
; File I:\Vitalya\mine\NSProjectX\xrCore\_vector3d.h
; File I:\Vitalya\mine\NSProjectX\xrCore\_random.h
; File I:\Vitalya\mine\NSProjectX\xrCore\_vector3d.h
; File I:\Vitalya\mine\NSProjectX\xrCore\_matrix.h
; File I:\Vitalya\mine\NSProjectX\xrCore\_vector3d.h
; File I:\Vitalya\mine\NSProjectX\xrCore\_matrix.h
; File I:\Vitalya\mine\NSProjectX\xrCore\_vector3d.h
; File I:\Vitalya\mine\NSProjectX\xrCore\_random.h
; File I:\Vitalya\mine\NSProjectX\xrCore\_matrix.h
; File I:\Vitalya\mine\NSProjectX\layers\xrRender\WallmarksEngine.cpp
; File C:\Program Files (x86)\Windows Kits\10\Include\10.0.22000.0\ucrt\corecrt_math.h
; File I:\Vitalya\mine\NSProjectX\xrCore\_vector3d.h
; File C:\Program Files (x86)\Windows Kits\10\Include\10.0.22000.0\ucrt\corecrt_math.h
; File I:\Vitalya\mine\NSProjectX\xrCore\_matrix.h
; File I:\Vitalya\mine\NSProjectX\layers\xrRender\WallmarksEngine.cpp
; File C:\Program Files\Microsoft Visual Studio\2022\Community\VC\Tools\MSVC\14.29.30133\include\vector
; File I:\Vitalya\mine\NSProjectX\layers\xrRender\WallmarksEngine.cpp
; File I:\Vitalya\mine\NSProjectX\xrCore\xrMemory_subst_msvc.h
; File C:\Program Files\Microsoft Visual Studio\2022\Community\VC\Tools\MSVC\14.29.30133\include\vector
; File I:\Vitalya\mine\NSProjectX\layers\xrRender\WallmarksEngine.cpp
; File C:\Program Files\Microsoft Visual Studio\2022\Community\VC\Tools\MSVC\14.29.30133\include\vector
; File I:\Vitalya\mine\NSProjectX\layers\xrRender\WallmarksEngine.cpp
; File C:\Program Files\Microsoft Visual Studio\2022\Community\VC\Tools\MSVC\14.29.30133\include\vector
; File I:\Vitalya\mine\NSProjectX\layers\xrRender\WallmarksEngine.cpp
; File C:\Program Files\Microsoft Visual Studio\2022\Community\VC\Tools\MSVC\14.29.30133\include\vector
; File I:\Vitalya\mine\NSProjectX\layers\xrRender\WallmarksEngine.cpp
; File C:\Program Files\Microsoft Visual Studio\2022\Community\VC\Tools\MSVC\14.29.30133\include\vector
; File I:\Vitalya\mine\NSProjectX\xrCore\xr_resource.h
; File C:\Program Files\Microsoft Visual Studio\2022\Community\VC\Tools\MSVC\14.29.30133\include\vector
; File I:\Vitalya\mine\NSProjectX\xrCore\xr_resource.h
; File I:\Vitalya\mine\NSProjectX\layers\xrRender\WallmarksEngine.cpp
; File C:\Program Files\Microsoft Visual Studio\2022\Community\VC\Tools\MSVC\14.29.30133\include\vector
; File I:\Vitalya\mine\NSProjectX\xrCore\_vector3d.h
; File I:\Vitalya\mine\NSProjectX\layers\xrRender\WallmarksEngine.cpp
; File I:\Vitalya\mine\NSProjectX\xrCore\_vector3d.h
; File I:\Vitalya\mine\NSProjectX\xrCore\_fbox.h
; File I:\Vitalya\mine\NSProjectX\layers\xrRender\WallmarksEngine.cpp
; File I:\Vitalya\mine\NSProjectX\xrCore\_vector3d.h
; File I:\Vitalya\mine\NSProjectX\xrCore\_std_extensions.h
; File I:\Vitalya\mine\NSProjectX\xrCore\_vector3d.h
; File I:\Vitalya\mine\NSProjectX\xrCore\_std_extensions.h
; File I:\Vitalya\mine\NSProjectX\xrCore\_vector3d.h
; File I:\Vitalya\mine\NSProjectX\xrCore\_std_extensions.h
; File I:\Vitalya\mine\NSProjectX\xrCore\_vector3d.h
; File I:\Vitalya\mine\NSProjectX\xrCore\_std_extensions.h
; File I:\Vitalya\mine\NSProjectX\xrCore\_vector3d.h
; File I:\Vitalya\mine\NSProjectX\xrCore\_std_extensions.h
; File I:\Vitalya\mine\NSProjectX\layers\xrRender\WallmarksEngine.cpp
; File I:\Vitalya\mine\NSProjectX\xrCore\_vector3d.h
; File I:\Vitalya\mine\NSProjectX\layers\xrRender\WallmarksEngine.cpp
; File I:\Vitalya\mine\NSProjectX\xrCore\_fbox.h
; File I:\Vitalya\mine\NSProjectX\xrCore\_vector3d.h
; File I:\Vitalya\mine\NSProjectX\xrCore\_fbox.h
; File I:\Vitalya\mine\NSProjectX\xrCore\_vector3d.h
; File I:\Vitalya\mine\NSProjectX\xrCore\_fbox.h
; File I:\Vitalya\mine\NSProjectX\xrCore\_vector3d.h
; File I:\Vitalya\mine\NSProjectX\layers\xrRender\WallmarksEngine.cpp
; File I:\Vitalya\mine\NSProjectX\xrCore\_vector3d.h
; File C:\Program Files (x86)\Windows Kits\10\Include\10.0.22000.0\ucrt\corecrt_math.h
; File I:\Vitalya\mine\NSProjectX\layers\xrRender\WallmarksEngine.cpp
; File I:\Vitalya\mine\NSProjectX\xrCore\_fbox.h
; File I:\Vitalya\mine\NSProjectX\layers\xrRender\WallmarksEngine.cpp
; File I:\Vitalya\mine\NSProjectX\xrCore\xr_resource.h
; File C:\Program Files\Microsoft Visual Studio\2022\Community\VC\Tools\MSVC\14.29.30133\include\xutility
; File I:\Vitalya\mine\NSProjectX\xrCore\xr_resource.h
; File C:\Program Files\Microsoft Visual Studio\2022\Community\VC\Tools\MSVC\14.29.30133\include\xutility
; File I:\Vitalya\mine\NSProjectX\layers\xrRender\WallmarksEngine.cpp
; File I:\Vitalya\mine\NSProjectX\xrCore\xr_resource.h
; File I:\Vitalya\mine\NSProjectX\layers\xrRender\WallmarksEngine.cpp
; File I:\Vitalya\mine\NSProjectX\xrCore\xr_resource.h
; File I:\Vitalya\mine\NSProjectX\layers\xrRender\WallmarksEngine.cpp
; File C:\Program Files\Microsoft Visual Studio\2022\Community\VC\Tools\MSVC\14.29.30133\include\vector
; File I:\Vitalya\mine\NSProjectX\layers\xrRender\WallmarksEngine.cpp
; File C:\Program Files\Microsoft Visual Studio\2022\Community\VC\Tools\MSVC\14.29.30133\include\vector
; File I:\Vitalya\mine\NSProjectX\xrCore\xr_resource.h
; File I:\Vitalya\mine\NSProjectX\layers\xrRender\WallmarksEngine.cpp
; File I:\Vitalya\mine\NSProjectX\xrCore\xr_resource.h
; File I:\Vitalya\mine\NSProjectX\layers\xrRender\WallmarksEngine.cpp
; File C:\Program Files\Microsoft Visual Studio\2022\Community\VC\Tools\MSVC\14.29.30133\include\vector
; File I:\Vitalya\mine\NSProjectX\layers\xrRender\WallmarksEngine.cpp
; File I:\Vitalya\mine\NSProjectX\xrCore\_vector3d.h
; File C:\Program Files (x86)\Windows Kits\10\Include\10.0.22000.0\ucrt\corecrt_math.h
; File I:\Vitalya\mine\NSProjectX\xrCore\_vector3d.h
; File C:\Program Files (x86)\Windows Kits\10\Include\10.0.22000.0\ucrt\corecrt_math.h
; File I:\Vitalya\mine\NSProjectX\xrCore\_vector3d.h
; File C:\Program Files (x86)\Windows Kits\10\Include\10.0.22000.0\ucrt\corecrt_math.h
; File I:\Vitalya\mine\NSProjectX\xrCore\_vector3d.h
; File C:\Program Files\Microsoft Visual Studio\2022\Community\VC\Tools\MSVC\14.29.30133\include\vector
; File I:\Vitalya\mine\NSProjectX\layers\xrRender\WallmarksEngine.cpp
; File C:\Program Files\Microsoft Visual Studio\2022\Community\VC\Tools\MSVC\14.29.30133\include\vector
; File I:\Vitalya\mine\NSProjectX\layers\xrRender\WallmarksEngine.cpp
; File C:\Program Files\Microsoft Visual Studio\2022\Community\VC\Tools\MSVC\14.29.30133\include\vector
; File I:\Vitalya\mine\NSProjectX\xrCore\xr_resource.h
; File C:\Program Files\Microsoft Visual Studio\2022\Community\VC\Tools\MSVC\14.29.30133\include\vector
; File I:\Vitalya\mine\NSProjectX\layers\xrRender\WallmarksEngine.cpp
; File I:\Vitalya\mine\NSProjectX\xrCore\xr_resource.h
; File I:\Vitalya\mine\NSProjectX\layers\xrRender\WallmarksEngine.cpp
; File C:\Program Files\Microsoft Visual Studio\2022\Community\VC\Tools\MSVC\14.29.30133\include\vector
; File I:\Vitalya\mine\NSProjectX\xrCore\xr_resource.h
; File I:\Vitalya\mine\NSProjectX\layers\xrRender\WallmarksEngine.cpp
; File I:\Vitalya\mine\NSProjectX\xrCore\xr_resource.h
; File I:\Vitalya\mine\NSProjectX\layers\xrRender\WallmarksEngine.cpp
; File C:\Program Files\Microsoft Visual Studio\2022\Community\VC\Tools\MSVC\14.29.30133\include\vector
; File I:\Vitalya\mine\NSProjectX\xrCore\xr_resource.h
; File I:\Vitalya\mine\NSProjectX\layers\xrRender\WallmarksEngine.cpp
_TEXT	SEGMENT
_triCount$1$ = -112					; size = 4
tv2359 = -112						; size = 4
_W$ = -112						; size = 4
_bb$5$ = -108						; size = 4
__My_data$1$ = -108					; size = 4
$T1 = -108						; size = 4
_sina$2 = -108						; size = 4
_this$1$ = -104						; size = 4
$T3 = -100						; size = 4
_tris$1$ = -100						; size = 4
$T4 = -96						; size = 4
_N$$sroa$1491$1$ = -96					; size = 4
_slot$1$ = -96						; size = 4
tv3539 = -96						; size = 4
tv3373 = -96						; size = 4
_W$ = -96						; size = 4
_W$ = -96						; size = 4
$T5 = -92						; size = 4
_bbd$6 = -88						; size = 12
_bbc$7 = -76						; size = 12
_mView$ = -64						; size = 64
_pTri$ = 8						; size = 4
_pVerts$ = 12						; size = 4
_contact_point$ = 16					; size = 4
_hShader$ = 20						; size = 4
_sz$ = 24						; size = 4
?AddWallmark_internal@CWallmarksEngine@@AAEXPAVTRI@CDB@@PBU?$_vector3@M@@ABU4@V?$resptr_core@UShader@@Uresptrcode_shader@@@@M@Z PROC ; CWallmarksEngine::AddWallmark_internal
; _this$ = ecx

; 187  : {

	push	ebp
	mov	ebp, esp
	and	esp, -8					; fffffff8H
	sub	esp, 112				; 00000070H
; File I:\Vitalya\mine\NSProjectX\xrCore\_vector3d.h

; 24   : 	ICF SelfRef	set(const _vector3<float> &v)			{ x = T(v.x);	y = T(v.y);	z = T(v.z);	return *this;	};

	mov	eax, DWORD PTR _contact_point$[ebp]
; File I:\Vitalya\mine\NSProjectX\layers\xrRender\WallmarksEngine.cpp

; 194  : 		bb_query.grow		(sz*2.5f);

	movss	xmm7, DWORD PTR _sz$[ebp]
	mulss	xmm7, DWORD PTR __real@40200000
	push	esi
; File I:\Vitalya\mine\NSProjectX\xrCore\_vector3d.h

; 35   : 	ICF SelfRef	sub(T s)								{ x-=s;		y-=s;		z-=s;			return *this;	};

	movss	xmm4, DWORD PTR [eax]
; File I:\Vitalya\mine\NSProjectX\layers\xrRender\WallmarksEngine.cpp

; 187  : {

	mov	esi, ecx
; File I:\Vitalya\mine\NSProjectX\xrCore\_vector3d.h

; 35   : 	ICF SelfRef	sub(T s)								{ x-=s;		y-=s;		z-=s;			return *this;	};

	movss	xmm5, DWORD PTR [eax+4]
	movss	xmm6, DWORD PTR [eax+8]
	subss	xmm4, xmm7
	subss	xmm5, xmm7
; File I:\Vitalya\mine\NSProjectX\layers\xrRender\WallmarksEngine.cpp

; 187  : {

	mov	DWORD PTR _this$1$[esp+116], esi
; File I:\Vitalya\mine\NSProjectX\xrCore\_vector3d.h

; 30   : 	ICF SelfRef	add(T s)								{ x+=s;		y+=s;		z+=s;			return *this;	};

	movaps	xmm1, xmm7

; 35   : 	ICF SelfRef	sub(T s)								{ x-=s;		y-=s;		z-=s;			return *this;	};

	subss	xmm6, xmm7

; 30   : 	ICF SelfRef	add(T s)								{ x+=s;		y+=s;		z+=s;			return *this;	};

	addss	xmm1, DWORD PTR [eax]
	movaps	xmm0, xmm7
; File I:\Vitalya\mine\NSProjectX\layers\xrRender\WallmarksEngine.cpp

; 197  : 		xrc.box_query		(g_pGameLevel->ObjectSpace.GetStaticModel(),bbc,bbd);

	lea	ecx, DWORD PTR [esi+1444]
; File I:\Vitalya\mine\NSProjectX\xrCore\_vector3d.h

; 30   : 	ICF SelfRef	add(T s)								{ x+=s;		y+=s;		z+=s;			return *this;	};

	addss	xmm0, DWORD PTR [eax+4]
	addss	xmm7, DWORD PTR [eax+8]
; File I:\Vitalya\mine\NSProjectX\layers\xrRender\WallmarksEngine.cpp

; 187  : {

	push	edi
; File I:\Vitalya\mine\NSProjectX\xrCore\_vector3d.h

; 36   : 	ICF	SelfRef	sub(const Self &a, const Self &v)		{ x=a.x-v.x;y=a.y-v.y;	z=a.z-v.z;		return *this;	};

	subss	xmm1, xmm4
; File I:\Vitalya\mine\NSProjectX\xrCDB\xrCDB.h

; 148  : 		ICF void		box_options		(u32 f)	{	box_mode = f;		}

	mov	DWORD PTR [esi+1448], 8
; File I:\Vitalya\mine\NSProjectX\layers\xrRender\WallmarksEngine.cpp

; 197  : 		xrc.box_query		(g_pGameLevel->ObjectSpace.GetStaticModel(),bbc,bbd);

	lea	eax, DWORD PTR _bbd$6[esp+120]
; File I:\Vitalya\mine\NSProjectX\xrCore\_vector3d.h

; 36   : 	ICF	SelfRef	sub(const Self &a, const Self &v)		{ x=a.x-v.x;y=a.y-v.y;	z=a.z-v.z;		return *this;	};

	subss	xmm0, xmm5
	subss	xmm7, xmm6
; File I:\Vitalya\mine\NSProjectX\layers\xrRender\WallmarksEngine.cpp

; 197  : 		xrc.box_query		(g_pGameLevel->ObjectSpace.GetStaticModel(),bbc,bbd);

	push	eax
; File I:\Vitalya\mine\NSProjectX\xrCore\_vector3d.h

; 36   : 	ICF	SelfRef	sub(const Self &a, const Self &v)		{ x=a.x-v.x;y=a.y-v.y;	z=a.z-v.z;		return *this;	};

	mulss	xmm1, DWORD PTR __real@3f000000
; File I:\Vitalya\mine\NSProjectX\layers\xrRender\WallmarksEngine.cpp

; 197  : 		xrc.box_query		(g_pGameLevel->ObjectSpace.GetStaticModel(),bbc,bbd);

	lea	eax, DWORD PTR _bbc$7[esp+124]
	push	eax
; File I:\Vitalya\mine\NSProjectX\xrCore\_vector3d.h

; 40   : 	ICF SelfRef	mul(T s)								{ x*=s;		y*=s;		z*=s;			return *this;	};

	mulss	xmm0, DWORD PTR __real@3f000000
; File I:\Vitalya\mine\NSProjectX\xrEngine\xr_area.h

; 61   : 	CDB::MODEL* GetStaticModel() { return &Static; }

	mov	eax, DWORD PTR __imp_?g_pGameLevel@@3PAVIGame_Level@@A
; File I:\Vitalya\mine\NSProjectX\xrCore\_vector3d.h

; 40   : 	ICF SelfRef	mul(T s)								{ x*=s;		y*=s;		z*=s;			return *this;	};

	mulss	xmm7, DWORD PTR __real@3f000000
	movss	DWORD PTR _bbd$6[esp+128], xmm1

; 31   : 	ICF SelfRef	add(const Self &a, const Self &v)		{ x=a.x+v.x;y=a.y+v.y;	z=a.z+v.z;		return *this;	};

	addss	xmm1, xmm4
; File I:\Vitalya\mine\NSProjectX\xrEngine\xr_area.h

; 61   : 	CDB::MODEL* GetStaticModel() { return &Static; }

	mov	eax, DWORD PTR [eax]
; File I:\Vitalya\mine\NSProjectX\xrCore\_vector3d.h

; 40   : 	ICF SelfRef	mul(T s)								{ x*=s;		y*=s;		z*=s;			return *this;	};

	movss	DWORD PTR _bbd$6[esp+132], xmm0
; File I:\Vitalya\mine\NSProjectX\xrEngine\xr_area.h

; 61   : 	CDB::MODEL* GetStaticModel() { return &Static; }

	add	eax, 172				; 000000acH
; File I:\Vitalya\mine\NSProjectX\xrCore\_vector3d.h

; 40   : 	ICF SelfRef	mul(T s)								{ x*=s;		y*=s;		z*=s;			return *this;	};

	movss	DWORD PTR _bbd$6[esp+136], xmm7

; 31   : 	ICF SelfRef	add(const Self &a, const Self &v)		{ x=a.x+v.x;y=a.y+v.y;	z=a.z+v.z;		return *this;	};

	addss	xmm0, xmm5
	addss	xmm7, xmm6
; File I:\Vitalya\mine\NSProjectX\layers\xrRender\WallmarksEngine.cpp

; 197  : 		xrc.box_query		(g_pGameLevel->ObjectSpace.GetStaticModel(),bbc,bbd);

	push	eax
; File I:\Vitalya\mine\NSProjectX\xrCore\_vector3d.h

; 31   : 	ICF SelfRef	add(const Self &a, const Self &v)		{ x=a.x+v.x;y=a.y+v.y;	z=a.z+v.z;		return *this;	};

	movss	DWORD PTR _bbc$7[esp+132], xmm1
	movss	DWORD PTR _bbc$7[esp+136], xmm0
	movss	DWORD PTR _bbc$7[esp+140], xmm7
; File I:\Vitalya\mine\NSProjectX\layers\xrRender\WallmarksEngine.cpp

; 197  : 		xrc.box_query		(g_pGameLevel->ObjectSpace.GetStaticModel(),bbc,bbd);

	call	DWORD PTR __imp_?box_query@xrXRC@@QAEXPBVMODEL@CDB@@ABU?$_vector3@M@@1@Z
; File C:\Program Files\Microsoft Visual Studio\2022\Community\VC\Tools\MSVC\14.29.30133\include\vector

; 1536 :         return static_cast<size_type>(_My_data._Mylast - _My_data._Myfirst);

	mov	eax, DWORD PTR [esi+1460]
	lea	ecx, DWORD PTR [esi+1456]
	sub	eax, DWORD PTR [ecx]
	sar	eax, 3
	imul	eax, eax, -1227133513
	mov	DWORD PTR __My_data$1$[esp+120], ecx
	mov	DWORD PTR _triCount$1$[esp+120], eax
; File I:\Vitalya\mine\NSProjectX\layers\xrRender\WallmarksEngine.cpp

; 199  : 		if (0==triCount)	return;

	test	eax, eax
	je	$LN391@AddWallmar

; 200  : 		CDB::TRI* tris		= g_pGameLevel->ObjectSpace.GetStaticTris();

	mov	eax, DWORD PTR __imp_?g_pGameLevel@@3PAVIGame_Level@@A
	mov	eax, DWORD PTR [eax]
	mov	eax, DWORD PTR [eax+184]
	mov	DWORD PTR _tris$1$[esp+120], eax

; 201  : 		sml_collector.clear	();

	lea	eax, DWORD PTR [esi+1468]
	mov	ecx, eax
	mov	DWORD PTR tv3373[esp+120], eax
	call	DWORD PTR __imp_?clear@Collector@CDB@@QAEXXZ

; 202  : 		sml_collector.add_face_packed_D	(pVerts[pTri->verts[0]],pVerts[pTri->verts[1]],pVerts[pTri->verts[2]],0);

	mov	edi, DWORD PTR _pVerts$[ebp]
	fld	DWORD PTR __real@3727c5ac
	push	ecx
	mov	ecx, DWORD PTR _pTri$[ebp]
	fstp	DWORD PTR [esp]
	push	0
	mov	eax, DWORD PTR [ecx+8]
	lea	eax, DWORD PTR [eax+eax*2]
	lea	eax, DWORD PTR [edi+eax*4]
	push	eax
	mov	eax, DWORD PTR [ecx+4]
	lea	eax, DWORD PTR [eax+eax*2]
	lea	eax, DWORD PTR [edi+eax*4]
	push	eax
	mov	eax, DWORD PTR [ecx]
	lea	ecx, DWORD PTR [esi+1468]
	lea	eax, DWORD PTR [eax+eax*2]
	lea	eax, DWORD PTR [edi+eax*4]
	push	eax
	call	DWORD PTR __imp_?add_face_packed_D@Collector@CDB@@QAEXABU?$_vector3@M@@00IM@Z

; 203  : 		for (u32 t=0; t<triCount; t++)	{

	cmp	DWORD PTR _triCount$1$[esp+120], 0
	jbe	SHORT $LN3@AddWallmar
; File I:\Vitalya\mine\NSProjectX\xrCDB\xrCDB.h

; 86   : 		IC TRI*					get_tris		()			{ return tris;		}

	xor	esi, esi
	npad	2
$LL4@AddWallmar:

; 154  : 		ICF RESULT*		r_begin			()	{	return &*rd.begin();		};

	mov	ecx, DWORD PTR __My_data$1$[esp+120]
	lea	eax, DWORD PTR $T5[esp+120]
	push	eax
	call	?begin@?$vector@URESULT@CDB@@V?$xalloc@URESULT@CDB@@@@@std@@QAE?AV?$_Vector_iterator@V?$_Vector_val@U?$_Simple_types@URESULT@CDB@@@std@@@std@@@2@XZ ; std::vector<CDB::RESULT,xalloc<CDB::RESULT> >::begin
; File I:\Vitalya\mine\NSProjectX\layers\xrRender\WallmarksEngine.cpp

; 204  : 			CDB::TRI*	T	= tris+xrc.r_begin()[t].id;

	mov	eax, DWORD PTR [eax]
	mov	ecx, DWORD PTR [esi+eax+40]
	shl	ecx, 4
	add	ecx, DWORD PTR _tris$1$[esp+120]

; 205  : 			if (T==pTri)	continue;

	cmp	ecx, DWORD PTR _pTri$[ebp]
	je	SHORT $LN2@AddWallmar

; 206  : 			sml_collector.add_face_packed_D		(pVerts[T->verts[0]],pVerts[T->verts[1]],pVerts[T->verts[2]],0);

	mov	eax, DWORD PTR [ecx+8]
	fld	DWORD PTR __real@3727c5ac
	push	ecx
	fstp	DWORD PTR [esp]
	lea	eax, DWORD PTR [eax+eax*2]
	lea	eax, DWORD PTR [edi+eax*4]
	push	0
	push	eax
	mov	eax, DWORD PTR [ecx+4]
	lea	eax, DWORD PTR [eax+eax*2]
	lea	eax, DWORD PTR [edi+eax*4]
	push	eax
	mov	eax, DWORD PTR [ecx]
	mov	ecx, DWORD PTR tv3373[esp+136]
	lea	eax, DWORD PTR [eax+eax*2]
	lea	eax, DWORD PTR [edi+eax*4]
	push	eax
	call	DWORD PTR __imp_?add_face_packed_D@Collector@CDB@@QAEXABU?$_vector3@M@@00IM@Z
$LN2@AddWallmar:

; 203  : 		for (u32 t=0; t<triCount; t++)	{

	add	esi, 56					; 00000038H
	sub	DWORD PTR _triCount$1$[esp+120], 1
	jne	SHORT $LL4@AddWallmar
	mov	esi, DWORD PTR _this$1$[esp+120]
$LN3@AddWallmar:

; 207  : 		}
; 208  : 		sml_collector.calc_adjacency	(sml_adjacency);

	lea	eax, DWORD PTR [esi+1492]
	push	eax
	lea	ecx, DWORD PTR [esi+1468]
	call	DWORD PTR __imp_?calc_adjacency@Collector@CDB@@QAEXAAV?$xr_vector@IV?$xalloc@I@@@@@Z

; 213  : 	N.mknormal			(pVerts[pTri->verts[0]],pVerts[pTri->verts[1]],pVerts[pTri->verts[2]]);

	mov	ecx, DWORD PTR _pTri$[ebp]
	mov	eax, DWORD PTR [ecx+8]
	lea	edx, DWORD PTR [eax+eax*2]
	mov	eax, DWORD PTR [ecx+4]
; File I:\Vitalya\mine\NSProjectX\xrCore\_vector3d.h

; 36   : 	ICF	SelfRef	sub(const Self &a, const Self &v)		{ x=a.x-v.x;y=a.y-v.y;	z=a.z-v.z;		return *this;	};

	movss	xmm2, DWORD PTR [edi+edx*4+4]
	movss	xmm1, DWORD PTR [edi+edx*4+8]
	movss	xmm4, DWORD PTR [edi+edx*4]
; File I:\Vitalya\mine\NSProjectX\layers\xrRender\WallmarksEngine.cpp

; 213  : 	N.mknormal			(pVerts[pTri->verts[0]],pVerts[pTri->verts[1]],pVerts[pTri->verts[2]]);

	lea	ecx, DWORD PTR [eax+eax*2]
	mov	eax, DWORD PTR _pTri$[ebp]
; File I:\Vitalya\mine\NSProjectX\xrCore\_vector3d.h

; 36   : 	ICF	SelfRef	sub(const Self &a, const Self &v)		{ x=a.x-v.x;y=a.y-v.y;	z=a.z-v.z;		return *this;	};

	movss	xmm5, DWORD PTR [edi+ecx*4+4]
	subss	xmm1, DWORD PTR [edi+ecx*4+8]
	subss	xmm2, DWORD PTR [edi+ecx*4+4]
; File I:\Vitalya\mine\NSProjectX\layers\xrRender\WallmarksEngine.cpp

; 213  : 	N.mknormal			(pVerts[pTri->verts[0]],pVerts[pTri->verts[1]],pVerts[pTri->verts[2]]);

	mov	eax, DWORD PTR [eax]
; File I:\Vitalya\mine\NSProjectX\xrCore\_vector3d.h

; 36   : 	ICF	SelfRef	sub(const Self &a, const Self &v)		{ x=a.x-v.x;y=a.y-v.y;	z=a.z-v.z;		return *this;	};

	movss	xmm3, DWORD PTR [edi+ecx*4+8]
	subss	xmm4, DWORD PTR [edi+ecx*4]
	movss	xmm6, DWORD PTR [edi+ecx*4]
; File I:\Vitalya\mine\NSProjectX\layers\xrRender\WallmarksEngine.cpp

; 213  : 	N.mknormal			(pVerts[pTri->verts[0]],pVerts[pTri->verts[1]],pVerts[pTri->verts[2]]);

	lea	eax, DWORD PTR [eax+eax*2]
; File I:\Vitalya\mine\NSProjectX\xrCore\_vector3d.h

; 273  : 		x = v1.y  * v2.z  - v1.z  * v2.y ;

	movaps	xmm0, xmm2

; 36   : 	ICF	SelfRef	sub(const Self &a, const Self &v)		{ x=a.x-v.x;y=a.y-v.y;	z=a.z-v.z;		return *this;	};

	subss	xmm5, DWORD PTR [edi+eax*4+4]
	subss	xmm3, DWORD PTR [edi+eax*4+8]
	subss	xmm6, DWORD PTR [edi+eax*4]
	movaps	xmm7, xmm5

; 275  : 		z = v1.x  * v2.y  - v1.y  * v2.x ;

	mulss	xmm5, xmm4
	mulss	xmm0, xmm3

; 36   : 	ICF	SelfRef	sub(const Self &a, const Self &v)		{ x=a.x-v.x;y=a.y-v.y;	z=a.z-v.z;		return *this;	};

	mulss	xmm7, xmm1

; 273  : 		x = v1.y  * v2.z  - v1.z  * v2.y ;

	subss	xmm7, xmm0
	movaps	xmm0, xmm4
	mulss	xmm0, xmm3
	movss	DWORD PTR _N$$sroa$1491$1$[esp+120], xmm0

; 274  : 		y = v1.z  * v2.x  - v1.x  * v2.z ;

	movaps	xmm0, xmm6
	movss	xmm3, DWORD PTR _N$$sroa$1491$1$[esp+120]
	mulss	xmm0, xmm1
	mulss	xmm6, xmm2
	subss	xmm3, xmm0

; 201  : 		if (magnitude> std::numeric_limits<T>::min()) {

	movss	xmm2, DWORD PTR __real@3f800000
	movaps	xmm0, xmm7
	mulss	xmm0, xmm7

; 275  : 		z = v1.x  * v2.y  - v1.y  * v2.x ;

	subss	xmm6, xmm5
	movaps	xmm1, xmm3
	mulss	xmm1, xmm3

; 200  : 		T magnitude=x*x + y*y + z*z;

	addss	xmm1, xmm0
	movaps	xmm0, xmm6
	mulss	xmm0, xmm6
	addss	xmm1, xmm0

; 201  : 		if (magnitude> std::numeric_limits<T>::min()) {

	comiss	xmm1, DWORD PTR __real@00800000
	jbe	SHORT $LN82@AddWallmar

; 202  : 			magnitude=_sqrt(1/magnitude);

	movaps	xmm0, xmm2
	divss	xmm0, xmm1
; File C:\Program Files (x86)\Windows Kits\10\Include\10.0.22000.0\ucrt\corecrt_math.h

; 764  :             return (float)sqrt(_X);

	sqrtss	xmm1, xmm0
; File I:\Vitalya\mine\NSProjectX\xrCore\_vector3d.h

; 202  : 			magnitude=_sqrt(1/magnitude);

	movaps	xmm0, xmm1

; 203  : 			x *= magnitude;
; 204  : 			y *= magnitude;

	mulss	xmm6, xmm1
	mulss	xmm7, xmm0
	mulss	xmm3, xmm0
$LN82@AddWallmar:
; File I:\Vitalya\mine\NSProjectX\layers\xrRender\WallmarksEngine.cpp

; 218  : 	BuildMatrix			(mView,1/sz,contact_point);

	push	DWORD PTR _contact_point$[ebp]
	movaps	xmm0, xmm2
; File I:\Vitalya\mine\NSProjectX\xrCore\_vector3d.h

; 24   : 	ICF SelfRef	set(const _vector3<float> &v)			{ x = T(v.x);	y = T(v.y);	z = T(v.z);	return *this;	};

	movss	DWORD PTR [esi+28], xmm7
; File I:\Vitalya\mine\NSProjectX\layers\xrRender\WallmarksEngine.cpp

; 218  : 	BuildMatrix			(mView,1/sz,contact_point);

	divss	xmm0, DWORD PTR _sz$[ebp]
	push	ecx
	lea	eax, DWORD PTR _mView$[esp+128]
	mov	ecx, esi
; File I:\Vitalya\mine\NSProjectX\xrCore\_vector3d.h

; 24   : 	ICF SelfRef	set(const _vector3<float> &v)			{ x = T(v.x);	y = T(v.y);	z = T(v.z);	return *this;	};

	movss	DWORD PTR [esi+32], xmm3
; File I:\Vitalya\mine\NSProjectX\layers\xrRender\WallmarksEngine.cpp

; 218  : 	BuildMatrix			(mView,1/sz,contact_point);

	movss	DWORD PTR [esp], xmm0
	push	eax
; File I:\Vitalya\mine\NSProjectX\xrCore\_vector3d.h

; 24   : 	ICF SelfRef	set(const _vector3<float> &v)			{ x = T(v.x);	y = T(v.y);	z = T(v.z);	return *this;	};

	movss	DWORD PTR [esi+36], xmm6
; File I:\Vitalya\mine\NSProjectX\layers\xrRender\WallmarksEngine.cpp

; 218  : 	BuildMatrix			(mView,1/sz,contact_point);

	call	?BuildMatrix@CWallmarksEngine@@AAEXAAU?$_matrix@M@@MABU?$_vector3@M@@@Z ; CWallmarksEngine::BuildMatrix
; File I:\Vitalya\mine\NSProjectX\xrCore\_random.h

; 39   : 	IC 	float	randF	()							{ return float(randI())/maxF();	}

	mov	ecx, DWORD PTR __imp_?Random@@3VCRandom@@A
	call	?randI@CRandom@@QAEHXZ			; CRandom::randI
	mov	DWORD PTR tv3539[esp+120], eax
; File I:\Vitalya\mine\NSProjectX\layers\xrRender\WallmarksEngine.cpp

; 221  : 	sml_clipper.CreateFromMatrix	(mView,FRUSTUM_P_LRTB);

	lea	ecx, DWORD PTR [esi+40]
; File I:\Vitalya\mine\NSProjectX\xrCore\_random.h

; 39   : 	IC 	float	randF	()							{ return float(randI())/maxF();	}

	fild	DWORD PTR tv3539[esp+120]
; File I:\Vitalya\mine\NSProjectX\layers\xrRender\WallmarksEngine.cpp

; 221  : 	sml_clipper.CreateFromMatrix	(mView,FRUSTUM_P_LRTB);

	lea	eax, DWORD PTR _mView$[esp+120]
; File I:\Vitalya\mine\NSProjectX\xrCore\_matrix.h

; 114  : 		m[0][3] = 0;

	mov	DWORD PTR _mView$[esp+132], 0
; File I:\Vitalya\mine\NSProjectX\layers\xrRender\WallmarksEngine.cpp

; 221  : 	sml_clipper.CreateFromMatrix	(mView,FRUSTUM_P_LRTB);

	push	15					; 0000000fH
; File I:\Vitalya\mine\NSProjectX\xrCore\_matrix.h

; 119  : 		m[1][3] = 0;

	mov	DWORD PTR _mView$[esp+152], 0
; File I:\Vitalya\mine\NSProjectX\xrCore\_vector3d.h

; 24   : 	ICF SelfRef	set(const _vector3<float> &v)			{ x = T(v.x);	y = T(v.y);	z = T(v.z);	return *this;	};

	movss	xmm3, DWORD PTR _mView$[esp+124]
; File I:\Vitalya\mine\NSProjectX\xrCore\_random.h

; 40   : 	IC 	float	randF	(float max)					{ return randF()*max; }

	fmul	DWORD PTR __real@37b2ba28
; File I:\Vitalya\mine\NSProjectX\xrCore\_vector3d.h

; 24   : 	ICF SelfRef	set(const _vector3<float> &v)			{ x = T(v.x);	y = T(v.y);	z = T(v.z);	return *this;	};

	movaps	xmm0, xmm3
; File I:\Vitalya\mine\NSProjectX\xrCore\_matrix.h

; 111  : 		m[0][0] = A.m[0][0] * B.m[0][0] + A.m[1][0] * B.m[0][1] + A.m[2][0] * B.m[0][2];

	movss	xmm2, DWORD PTR _mView$[esp+128]
; File I:\Vitalya\mine\NSProjectX\xrCore\_vector3d.h

; 24   : 	ICF SelfRef	set(const _vector3<float> &v)			{ x = T(v.x);	y = T(v.y);	z = T(v.z);	return *this;	};

	movss	xmm4, DWORD PTR _mView$[esp+140]
; File I:\Vitalya\mine\NSProjectX\xrCore\_matrix.h

; 111  : 		m[0][0] = A.m[0][0] * B.m[0][0] + A.m[1][0] * B.m[0][1] + A.m[2][0] * B.m[0][2];

	movaps	xmm1, xmm2
; File I:\Vitalya\mine\NSProjectX\xrCore\_vector3d.h

; 24   : 	ICF SelfRef	set(const _vector3<float> &v)			{ x = T(v.x);	y = T(v.y);	z = T(v.z);	return *this;	};

	movss	xmm5, DWORD PTR _mView$[esp+156]
	movss	xmm6, DWORD PTR _mView$[esp+172]
; File I:\Vitalya\mine\NSProjectX\xrCore\_random.h

; 41   : 	IC 	float	randF	(float min,float max)		{ return min+randF(max-min); }

	fsub	DWORD PTR __real@3eb2b8c3
; File I:\Vitalya\mine\NSProjectX\xrCore\_matrix.h

; 124  : 		m[2][3] = 0;

	mov	DWORD PTR _mView$[esp+168], 0

; 128  : 		m[3][2] = A.m[0][2] * B.m[3][0] + A.m[1][2] * B.m[3][1] + A.m[2][2] * B.m[3][2] + A.m[3][2];
; 129  : 		m[3][3] = 1;

	mov	DWORD PTR _mView$[esp+184], 1065353216	; 3f800000H
; File I:\Vitalya\mine\NSProjectX\layers\xrRender\WallmarksEngine.cpp

; 221  : 	sml_clipper.CreateFromMatrix	(mView,FRUSTUM_P_LRTB);

	push	eax
; File C:\Program Files (x86)\Windows Kits\10\Include\10.0.22000.0\ucrt\corecrt_math.h

; 653  :             return (float)cos(_X);

	fld	ST(0)
	fcos
	fstp	DWORD PTR tv2359[esp+128]
; File I:\Vitalya\mine\NSProjectX\xrCore\_vector3d.h

; 24   : 	ICF SelfRef	set(const _vector3<float> &v)			{ x = T(v.x);	y = T(v.y);	z = T(v.z);	return *this;	};

	mulss	xmm0, DWORD PTR tv2359[esp+128]
; File C:\Program Files (x86)\Windows Kits\10\Include\10.0.22000.0\ucrt\corecrt_math.h

; 754  :             return (float)sin(_X);

	fsin
; File I:\Vitalya\mine\NSProjectX\xrCore\_matrix.h

; 112  : 		m[0][1] = A.m[0][1] * B.m[0][0] + A.m[1][1] * B.m[0][1] + A.m[2][1] * B.m[0][2];

	mulss	xmm2, DWORD PTR tv2359[esp+128]

; 289  : 		T sina	= _sin(Angle);

	fstp	DWORD PTR _sina$2[esp+128]

; 290  : 		i.set		(cosa,	sina,	0	);	_14 = 0;
; 291  : 		j.set		(-sina,	cosa,	0	);	_24 = 0;

	movss	xmm7, DWORD PTR _sina$2[esp+128]
	xorps	xmm7, DWORD PTR __xmm@80000000800000008000000080000000

; 111  : 		m[0][0] = A.m[0][0] * B.m[0][0] + A.m[1][0] * B.m[0][1] + A.m[2][0] * B.m[0][2];

	mulss	xmm3, DWORD PTR _sina$2[esp+128]
	mulss	xmm1, xmm7

; 112  : 		m[0][1] = A.m[0][1] * B.m[0][0] + A.m[1][1] * B.m[0][1] + A.m[2][1] * B.m[0][2];

	addss	xmm2, xmm3

; 115  : 
; 116  : 		m[1][0] = A.m[0][0] * B.m[1][0] + A.m[1][0] * B.m[1][1] + A.m[2][0] * B.m[1][2];

	movss	xmm3, DWORD PTR _sina$2[esp+128]
	addss	xmm1, xmm0
	movaps	xmm0, xmm7
	mulss	xmm0, DWORD PTR _mView$[esp+148]
	movss	DWORD PTR _mView$[esp+132], xmm2
	movss	DWORD PTR _mView$[esp+128], xmm1
	movaps	xmm1, xmm4
	mulss	xmm1, DWORD PTR tv2359[esp+128]
	mulss	xmm4, xmm3
	addss	xmm1, xmm0

; 117  : 		m[1][1] = A.m[0][1] * B.m[1][0] + A.m[1][1] * B.m[1][1] + A.m[2][1] * B.m[1][2];

	movss	xmm0, DWORD PTR tv2359[esp+128]
	mulss	xmm0, DWORD PTR _mView$[esp+148]
	addss	xmm4, xmm0
	movss	DWORD PTR _mView$[esp+144], xmm1

; 119  : 		m[1][3] = 0;

	movaps	xmm1, xmm5

; 120  : 
; 121  : 		m[2][0] = A.m[0][0] * B.m[2][0] + A.m[1][0] * B.m[2][1] + A.m[2][0] * B.m[2][2];

	movaps	xmm0, xmm7
	mulss	xmm0, DWORD PTR _mView$[esp+164]

; 125  : 
; 126  : 		m[3][0] = A.m[0][0] * B.m[3][0] + A.m[1][0] * B.m[3][1] + A.m[2][0] * B.m[3][2] + A.m[3][0];

	mulss	xmm7, DWORD PTR _mView$[esp+180]
	movss	DWORD PTR _mView$[esp+148], xmm4
	movss	xmm4, DWORD PTR tv2359[esp+128]
	mulss	xmm1, xmm4
	mulss	xmm5, xmm3
	addss	xmm1, xmm0
	movaps	xmm0, xmm4
	mulss	xmm0, DWORD PTR _mView$[esp+164]
	addss	xmm5, xmm0
	movss	DWORD PTR _mView$[esp+160], xmm1
	movaps	xmm0, xmm6
	mulss	xmm6, xmm3
	mulss	xmm0, xmm4

; 127  : 		m[3][1] = A.m[0][1] * B.m[3][0] + A.m[1][1] * B.m[3][1] + A.m[2][1] * B.m[3][2] + A.m[3][1];

	mulss	xmm4, DWORD PTR _mView$[esp+180]
	addss	xmm0, xmm7
	movss	DWORD PTR _mView$[esp+164], xmm5
	addss	xmm6, xmm4
	movss	DWORD PTR _mView$[esp+176], xmm0
	movss	DWORD PTR _mView$[esp+180], xmm6
; File I:\Vitalya\mine\NSProjectX\layers\xrRender\WallmarksEngine.cpp

; 221  : 	sml_clipper.CreateFromMatrix	(mView,FRUSTUM_P_LRTB);

	call	DWORD PTR __imp_?CreateFromMatrix@CFrustum@@QAEXAAU?$_matrix@M@@I@Z
; File C:\Program Files\Microsoft Visual Studio\2022\Community\VC\Tools\MSVC\14.29.30133\include\vector

; 1531 :         return _My_data._Myfirst == _My_data._Mylast;

	mov	eax, DWORD PTR [esi+4]
	cmp	DWORD PTR [esi], eax
; File I:\Vitalya\mine\NSProjectX\layers\xrRender\WallmarksEngine.cpp

; 86   : 	if (static_pool.empty())  W = xr_new<static_wallmark> ();

	jne	SHORT $LN178@AddWallmar
; File I:\Vitalya\mine\NSProjectX\xrCore\xrMemory_subst_msvc.h

; 68   : 	T* ptr	= (T*)Memory.mem_alloc(sizeof(T));

	mov	ecx, DWORD PTR __imp_?Memory@@3VxrMemory@@A
	push	32					; 00000020H
	call	DWORD PTR __imp_?mem_alloc@xrMemory@@QAEPAXI@Z
	mov	edi, eax

; 69   : 	return new (ptr) T();

	mov	DWORD PTR [edi], 0
	mov	DWORD PTR [edi+4], 0
	mov	DWORD PTR [edi+8], 0
	mov	DWORD PTR [edi+12], 0
	mov	DWORD PTR [edi+20], 0
	mov	DWORD PTR [edi+24], 0
; File C:\Program Files\Microsoft Visual Studio\2022\Community\VC\Tools\MSVC\14.29.30133\include\vector

; 390  :     _CONSTEXPR20_CONTAINER _Vector_val() noexcept : _Myfirst(), _Mylast(), _Myend() {}

	mov	DWORD PTR [edi+16], 0
	mov	DWORD PTR [edi+20], 0
	mov	DWORD PTR [edi+24], 0
; File I:\Vitalya\mine\NSProjectX\layers\xrRender\WallmarksEngine.cpp

; 86   : 	if (static_pool.empty())  W = xr_new<static_wallmark> ();

	jmp	SHORT $LN179@AddWallmar
$LN178@AddWallmar:

; 87   : 	else					{ W = static_pool.back(); static_pool.pop_back(); }

	mov	edi, DWORD PTR [eax-4]
; File C:\Program Files\Microsoft Visual Studio\2022\Community\VC\Tools\MSVC\14.29.30133\include\vector

; 1611 :         return _My_data._Mylast[-1];

	add	eax, -4					; fffffffcH

; 1390 :         --_Mylast;

	mov	DWORD PTR [esi+4], eax
$LN179@AddWallmar:
; File I:\Vitalya\mine\NSProjectX\layers\xrRender\WallmarksEngine.cpp

; 90   : 	W->verts.clear		();

	mov	eax, DWORD PTR [edi+16]

; 225  : 	RecurseTri			(0,mView,*W);

	mov	ecx, esi

; 90   : 	W->verts.clear		();

	mov	DWORD PTR [edi+20], eax

; 225  : 	RecurseTri			(0,mView,*W);

	lea	eax, DWORD PTR _mView$[esp+120]
	push	edi
	push	eax
	push	0

; 89   : 	W->ttl				= ps_r__WallmarkTTL;

	mov	DWORD PTR [edi+28], 1133903872		; 43960000H

; 222  : 
; 223  : 	// create wallmark
; 224  : 	static_wallmark* W	= static_wm_allocate();

	mov	DWORD PTR _W$[esp+132], edi

; 225  : 	RecurseTri			(0,mView,*W);

	call	?RecurseTri@CWallmarksEngine@@AAEXIAAU?$_matrix@M@@AAUstatic_wallmark@1@@Z ; CWallmarksEngine::RecurseTri
; File C:\Program Files\Microsoft Visual Studio\2022\Community\VC\Tools\MSVC\14.29.30133\include\vector

; 1536 :         return static_cast<size_type>(_My_data._Mylast - _My_data._Myfirst);

	mov	eax, DWORD PTR [edi+20]
	mov	ecx, DWORD PTR [edi+16]
	sub	eax, ecx
	sar	eax, 3
	imul	eax, eax, -1431655765
; File I:\Vitalya\mine\NSProjectX\layers\xrRender\WallmarksEngine.cpp

; 228  : 	if (W->verts.size()<3) { static_wm_destroy(W); return; }

	cmp	eax, 3
	jae	SHORT $LN13@AddWallmar
; File C:\Program Files\Microsoft Visual Studio\2022\Community\VC\Tools\MSVC\14.29.30133\include\vector

; 730  :         if (_Mylast != _My_data._Myend) {

	mov	eax, DWORD PTR [esi+4]
; File I:\Vitalya\mine\NSProjectX\layers\xrRender\WallmarksEngine.cpp

; 228  : 	if (W->verts.size()<3) { static_wm_destroy(W); return; }

	mov	DWORD PTR _W$[esp+120], edi
; File C:\Program Files\Microsoft Visual Studio\2022\Community\VC\Tools\MSVC\14.29.30133\include\vector

; 730  :         if (_Mylast != _My_data._Myend) {

	cmp	eax, DWORD PTR [esi+8]
	je	SHORT $LN208@AddWallmar

; 713  :         _Alty_traits::construct(_Getal(), _Unfancy(_Mylast), _STD forward<_Valty>(_Val)...);

	mov	DWORD PTR [eax], edi
; File I:\Vitalya\mine\NSProjectX\xrCore\xr_resource.h

; 64   : 						~resptr_core	()												{	_dec();						}

	lea	ecx, DWORD PTR _hShader$[ebp]
; File C:\Program Files\Microsoft Visual Studio\2022\Community\VC\Tools\MSVC\14.29.30133\include\vector

; 716  :         ++_Mylast;

	add	DWORD PTR [esi+4], 4
; File I:\Vitalya\mine\NSProjectX\xrCore\xr_resource.h

; 64   : 						~resptr_core	()												{	_dec();						}

	call	DWORD PTR __imp_?_dec@?$resptr_base@UShader@@@@IAEXXZ
; File I:\Vitalya\mine\NSProjectX\layers\xrRender\WallmarksEngine.cpp

; 260  : }

	pop	edi
	pop	esi
	mov	esp, ebp
	pop	ebp
	ret	20					; 00000014H
$LN208@AddWallmar:
; File C:\Program Files\Microsoft Visual Studio\2022\Community\VC\Tools\MSVC\14.29.30133\include\vector

; 734  :         _Ty& _Result = *_Emplace_reallocate(_Mylast, _STD forward<_Valty>(_Val)...);

	lea	ecx, DWORD PTR _W$[esp+120]
	push	ecx
	mov	ecx, esi
	jmp	$LN420@AddWallmar
$LN13@AddWallmar:
; File I:\Vitalya\mine\NSProjectX\xrCore\_vector3d.h

; 23   : 	ICF	SelfRef	set(T _x, T _y, T _z)					{ x = _x;		y = _y;		z = _z;		return *this;	};

	movss	xmm2, DWORD PTR __real@ff7fffff
	movss	xmm1, DWORD PTR __real@7f7fffff
	movaps	xmm6, xmm2
; File I:\Vitalya\mine\NSProjectX\layers\xrRender\WallmarksEngine.cpp

; 233  : 		FVF::LIT* E=&*W->verts.end		();

	mov	eax, DWORD PTR [edi+20]
; File I:\Vitalya\mine\NSProjectX\xrCore\_vector3d.h

; 23   : 	ICF	SelfRef	set(T _x, T _y, T _z)					{ x = _x;		y = _y;		z = _z;		return *this;	};

	movaps	xmm0, xmm1
	movss	DWORD PTR _bb$5$[esp+120], xmm2
	movaps	xmm7, xmm1
; File I:\Vitalya\mine\NSProjectX\xrCore\_fbox.h

; 37   : 	IC	SelfRef	invalidate	()								{ min.set(type_max(T),type_max(T),type_max(T)); max.set(type_min(T),type_min(T),type_min(T));	return *this;	}

	movaps	xmm3, xmm1
	movaps	xmm4, xmm2
	movaps	xmm5, xmm2
; File I:\Vitalya\mine\NSProjectX\layers\xrRender\WallmarksEngine.cpp

; 234  : 		for (; I!=E; I++)	bb.modify	(I->p);

	cmp	ecx, eax
	je	SHORT $LN6@AddWallmar
	npad	7
$LL7@AddWallmar:
; File I:\Vitalya\mine\NSProjectX\xrCore\_vector3d.h

; 53   : 	IC	SelfRef	min(const Self &v)						{ x = _min(x,v.x);	y = _min(y,v.y);	z = _min(z,v.z);			return *this;	}

	movss	xmm3, DWORD PTR [ecx]
; File I:\Vitalya\mine\NSProjectX\xrCore\_std_extensions.h

; 93   : template <class T>	IC T		_min	(T a, T b)	{ return a<b?a:b;	}

	comiss	xmm3, xmm1
	ja	SHORT $LN251@AddWallmar
	movaps	xmm1, xmm3
$LN251@AddWallmar:
; File I:\Vitalya\mine\NSProjectX\xrCore\_vector3d.h

; 53   : 	IC	SelfRef	min(const Self &v)						{ x = _min(x,v.x);	y = _min(y,v.y);	z = _min(z,v.z);			return *this;	}

	movss	xmm4, DWORD PTR [ecx+4]
; File I:\Vitalya\mine\NSProjectX\xrCore\_std_extensions.h

; 93   : template <class T>	IC T		_min	(T a, T b)	{ return a<b?a:b;	}

	comiss	xmm4, xmm0
	ja	SHORT $LN255@AddWallmar
	movaps	xmm0, xmm4
$LN255@AddWallmar:
; File I:\Vitalya\mine\NSProjectX\xrCore\_vector3d.h

; 53   : 	IC	SelfRef	min(const Self &v)						{ x = _min(x,v.x);	y = _min(y,v.y);	z = _min(z,v.z);			return *this;	}

	movss	xmm5, DWORD PTR [ecx+8]
; File I:\Vitalya\mine\NSProjectX\xrCore\_std_extensions.h

; 93   : template <class T>	IC T		_min	(T a, T b)	{ return a<b?a:b;	}

	comiss	xmm5, xmm7
	ja	SHORT $LN259@AddWallmar
	movaps	xmm7, xmm5
$LN259@AddWallmar:

; 94   : template <class T>	IC T		_max	(T a, T b)	{ return a>b?a:b;	}

	comiss	xmm2, xmm3
; File I:\Vitalya\mine\NSProjectX\xrCore\_vector3d.h

; 53   : 	IC	SelfRef	min(const Self &v)						{ x = _min(x,v.x);	y = _min(y,v.y);	z = _min(z,v.z);			return *this;	}

	movss	DWORD PTR $T4[esp+120], xmm7
; File I:\Vitalya\mine\NSProjectX\xrCore\_std_extensions.h

; 94   : template <class T>	IC T		_max	(T a, T b)	{ return a>b?a:b;	}

	ja	SHORT $LN265@AddWallmar
	movaps	xmm2, xmm3
$LN265@AddWallmar:
	movss	xmm3, DWORD PTR _bb$5$[esp+120]
	comiss	xmm3, xmm4
	jbe	SHORT $LN268@AddWallmar
	movss	DWORD PTR _bb$5$[esp+120], xmm3
	jmp	SHORT $LN269@AddWallmar
$LN268@AddWallmar:
	movaps	xmm3, xmm4
	movss	DWORD PTR _bb$5$[esp+120], xmm4
$LN269@AddWallmar:
	comiss	xmm6, xmm5
; File I:\Vitalya\mine\NSProjectX\xrCore\_vector3d.h

; 55   : 	IC	SelfRef	max(const Self &v)						{ x = _max(x,v.x);	y = _max(y,v.y);	z = _max(z,v.z);			return *this;	}

	movss	DWORD PTR $T3[esp+120], xmm3
; File I:\Vitalya\mine\NSProjectX\xrCore\_std_extensions.h

; 94   : template <class T>	IC T		_max	(T a, T b)	{ return a>b?a:b;	}

	ja	SHORT $LN273@AddWallmar
	movaps	xmm6, xmm5
$LN273@AddWallmar:
; File I:\Vitalya\mine\NSProjectX\layers\xrRender\WallmarksEngine.cpp

; 234  : 		for (; I!=E; I++)	bb.modify	(I->p);

	add	ecx, 24					; 00000018H
; File I:\Vitalya\mine\NSProjectX\xrCore\_vector3d.h

; 55   : 	IC	SelfRef	max(const Self &v)						{ x = _max(x,v.x);	y = _max(y,v.y);	z = _max(z,v.z);			return *this;	}

	movaps	xmm4, xmm6
; File I:\Vitalya\mine\NSProjectX\layers\xrRender\WallmarksEngine.cpp

; 234  : 		for (; I!=E; I++)	bb.modify	(I->p);

	cmp	ecx, eax
	jne	SHORT $LL7@AddWallmar
	movss	xmm3, DWORD PTR $T4[esp+120]
	movss	xmm5, DWORD PTR $T3[esp+120]
$LN6@AddWallmar:
; File I:\Vitalya\mine\NSProjectX\xrCore\_fbox.h

; 97   : 		C.x = (min.x + max.x) * 0.5f;

	movss	xmm6, DWORD PTR __real@3f000000

; 98   : 		C.y = (min.y + max.y) * 0.5f;

	addss	xmm0, xmm5
	addss	xmm1, xmm2

; 99   : 		C.z = (min.z + max.z) * 0.5f;

	addss	xmm3, xmm4
	mulss	xmm0, xmm6
	mulss	xmm1, xmm6
	movss	DWORD PTR [edi+4], xmm0
; File I:\Vitalya\mine\NSProjectX\xrCore\_vector3d.h

; 287  : 	{	return (x-v.x)*(x-v.x) + (y-v.y)*(y-v.y) + (z-v.z)*(z-v.z);	}

	subss	xmm0, xmm5
; File I:\Vitalya\mine\NSProjectX\xrCore\_fbox.h

; 99   : 		C.z = (min.z + max.z) * 0.5f;

	mulss	xmm3, xmm6
	movss	DWORD PTR [edi], xmm1
; File I:\Vitalya\mine\NSProjectX\xrCore\_vector3d.h

; 287  : 	{	return (x-v.x)*(x-v.x) + (y-v.y)*(y-v.y) + (z-v.z)*(z-v.z);	}

	subss	xmm1, xmm2
; File I:\Vitalya\mine\NSProjectX\xrCore\_fbox.h

; 99   : 		C.z = (min.z + max.z) * 0.5f;

	movss	DWORD PTR [edi+8], xmm3
; File I:\Vitalya\mine\NSProjectX\xrCore\_vector3d.h

; 287  : 	{	return (x-v.x)*(x-v.x) + (y-v.y)*(y-v.y) + (z-v.z)*(z-v.z);	}

	subss	xmm3, xmm4
	mulss	xmm0, xmm0
	mulss	xmm1, xmm1
	mulss	xmm3, xmm3
	addss	xmm0, xmm1
; File I:\Vitalya\mine\NSProjectX\layers\xrRender\WallmarksEngine.cpp

; 238  : 	if (W->bounds.R < 1.f)	

	movss	xmm1, DWORD PTR __real@3f800000
; File I:\Vitalya\mine\NSProjectX\xrCore\_vector3d.h

; 287  : 	{	return (x-v.x)*(x-v.x) + (y-v.y)*(y-v.y) + (z-v.z)*(z-v.z);	}

	addss	xmm0, xmm3
; File C:\Program Files (x86)\Windows Kits\10\Include\10.0.22000.0\ucrt\corecrt_math.h

; 764  :             return (float)sqrt(_X);

	sqrtss	xmm0, xmm0
; File I:\Vitalya\mine\NSProjectX\layers\xrRender\WallmarksEngine.cpp

; 238  : 	if (W->bounds.R < 1.f)	

	comiss	xmm1, xmm0
; File I:\Vitalya\mine\NSProjectX\xrCore\_fbox.h

; 116  : 		R = C.distance_to	(max);

	movss	DWORD PTR [edi+12], xmm0
; File I:\Vitalya\mine\NSProjectX\layers\xrRender\WallmarksEngine.cpp

; 238  : 	if (W->bounds.R < 1.f)	

	jbe	$LN391@AddWallmar
; File I:\Vitalya\mine\NSProjectX\xrCore\xr_resource.h

; 63   : 						resptr_core		(const self & rhs)								{	p_ = rhs.p_; _inc();		}

	mov	eax, DWORD PTR _hShader$[ebp]
	mov	DWORD PTR $T1[esp+120], eax

; 43   : 	void				_inc	()									{	if (0==p_) return;	p_->dwReference++;														}

	test	eax, eax
	je	SHORT $LN288@AddWallmar
	inc	DWORD PTR [eax]
	mov	eax, DWORD PTR $T1[esp+120]
$LN288@AddWallmar:
; File C:\Program Files\Microsoft Visual Studio\2022\Community\VC\Tools\MSVC\14.29.30133\include\xutility

; 5221 :     return _Find_unchecked1(_First, _Last, _Val, bool_constant<_Memchr_in_find_is_safe<_InIt, _Ty>>{});

	mov	edx, DWORD PTR [esi+12]

; 5185 :     for (; _First != _Last; ++_First) {

	cmp	edx, DWORD PTR [esi+16]
	je	SHORT $LN293@AddWallmar
$LL314@AddWallmar:
; File I:\Vitalya\mine\NSProjectX\xrCore\xr_resource.h

; 48   : 	ICF		T *			_get	() const							{	return p_;																					}

	mov	ecx, DWORD PTR [edx]

; 90   : template<class T, class U, typename D>	inline bool operator	==	(resptr_core<T,D> const & a, resptr_core<U,D> const & b)		{ return a._get() == b._get();						}

	cmp	DWORD PTR [ecx], eax
; File C:\Program Files\Microsoft Visual Studio\2022\Community\VC\Tools\MSVC\14.29.30133\include\xutility

; 5186 :         if (*_First == _Val) {

	je	SHORT $LN419@AddWallmar

; 5185 :     for (; _First != _Last; ++_First) {

	add	edx, 4
	cmp	edx, DWORD PTR [esi+16]
	jne	SHORT $LL314@AddWallmar
$LN293@AddWallmar:
; File I:\Vitalya\mine\NSProjectX\layers\xrRender\WallmarksEngine.cpp

; 37   : 	return						(it!=marks.end())?*it:0;

	lea	ecx, DWORD PTR $T1[esp+120]
	call	DWORD PTR __imp_?_dec@?$resptr_base@UShader@@@@IAEXXZ
$LN16@AddWallmar:
; File I:\Vitalya\mine\NSProjectX\xrCore\xr_resource.h

; 63   : 						resptr_core		(const self & rhs)								{	p_ = rhs.p_; _inc();		}

	mov	eax, DWORD PTR _hShader$[ebp]
; File I:\Vitalya\mine\NSProjectX\layers\xrRender\WallmarksEngine.cpp

; 254  : 			slot		= AppendSlot(hShader);

	push	ecx
	mov	ecx, esp
; File I:\Vitalya\mine\NSProjectX\xrCore\xr_resource.h

; 63   : 						resptr_core		(const self & rhs)								{	p_ = rhs.p_; _inc();		}

	mov	DWORD PTR [ecx], eax

; 43   : 	void				_inc	()									{	if (0==p_) return;	p_->dwReference++;														}

	mov	eax, DWORD PTR _hShader$[ebp]
	test	eax, eax
	je	SHORT $LN386@AddWallmar
	inc	DWORD PTR [eax]
$LN386@AddWallmar:
; File I:\Vitalya\mine\NSProjectX\layers\xrRender\WallmarksEngine.cpp

; 254  : 			slot		= AppendSlot(hShader);

	mov	ecx, esi
	call	?AppendSlot@CWallmarksEngine@@AAEPAUwm_slot@WallmarksEngine@@V?$resptr_core@UShader@@Uresptrcode_shader@@@@@Z ; CWallmarksEngine::AppendSlot
	mov	edx, eax
$LN17@AddWallmar:
; File C:\Program Files\Microsoft Visual Studio\2022\Community\VC\Tools\MSVC\14.29.30133\include\vector

; 730  :         if (_Mylast != _My_data._Myend) {

	mov	eax, DWORD PTR [edx+8]
; File I:\Vitalya\mine\NSProjectX\layers\xrRender\WallmarksEngine.cpp

; 258  : 		slot->static_items.push_back(W);

	lea	ecx, DWORD PTR [edx+4]
; File C:\Program Files\Microsoft Visual Studio\2022\Community\VC\Tools\MSVC\14.29.30133\include\vector

; 730  :         if (_Mylast != _My_data._Myend) {

	cmp	eax, DWORD PTR [ecx+8]
	je	$LN392@AddWallmar

; 713  :         _Alty_traits::construct(_Getal(), _Unfancy(_Mylast), _STD forward<_Valty>(_Val)...);

	mov	DWORD PTR [eax], edi

; 716  :         ++_Mylast;

	add	DWORD PTR [ecx+4], 4
; File I:\Vitalya\mine\NSProjectX\xrCore\xr_resource.h

; 64   : 						~resptr_core	()												{	_dec();						}

	lea	ecx, DWORD PTR _hShader$[ebp]
	call	DWORD PTR __imp_?_dec@?$resptr_base@UShader@@@@IAEXXZ
; File I:\Vitalya\mine\NSProjectX\layers\xrRender\WallmarksEngine.cpp

; 260  : }

	pop	edi
	pop	esi
	mov	esp, ebp
	pop	ebp
	ret	20					; 00000014H
$LN419@AddWallmar:

; 37   : 	return						(it!=marks.end())?*it:0;

	mov	DWORD PTR _slot$1$[esp+120], ecx
; File I:\Vitalya\mine\NSProjectX\xrCore\xr_resource.h

; 64   : 						~resptr_core	()												{	_dec();						}

	lea	ecx, DWORD PTR $T1[esp+120]
	call	DWORD PTR __imp_?_dec@?$resptr_base@UShader@@@@IAEXXZ
; File I:\Vitalya\mine\NSProjectX\layers\xrRender\WallmarksEngine.cpp

; 242  : 		if (slot){

	mov	edx, DWORD PTR _slot$1$[esp+120]
	test	edx, edx
	je	SHORT $LN16@AddWallmar
; File C:\Program Files\Microsoft Visual Studio\2022\Community\VC\Tools\MSVC\14.29.30133\include\vector

; 41   :     _CONSTEXPR20_CONTAINER _Vector_const_iterator(_Tptr _Parg, const _Container_base* _Pvector) noexcept : _Ptr(_Parg) {

	mov	esi, DWORD PTR [edx+4]
	mov	eax, DWORD PTR [edx+8]

; 150  :         return _Ptr == _Right._Ptr;

	cmp	esi, eax
; File I:\Vitalya\mine\NSProjectX\layers\xrRender\WallmarksEngine.cpp

; 245  : 			for (; it!=end; it++)	{

	je	SHORT $LN17@AddWallmar
	movss	xmm3, DWORD PTR [edi]
	movss	xmm1, DWORD PTR __xmm@7fffffff7fffffff7fffffff7fffffff
	movss	xmm2, DWORD PTR __real@3ca3d70a
$LL10@AddWallmar:

; 246  : 				static_wallmark* wm		=	*it;

	mov	ecx, DWORD PTR [esi]
; File I:\Vitalya\mine\NSProjectX\xrCore\_vector3d.h

; 58   : 	ICF BOOL	similar(const Self &v, T E=EPS_L) const	{ return _abs(x-v.x)<E && _abs(y-v.y)<E && _abs(z-v.z)<E;};

	movss	xmm0, DWORD PTR [ecx]
	subss	xmm0, xmm3
; File C:\Program Files (x86)\Windows Kits\10\Include\10.0.22000.0\ucrt\corecrt_math.h

; 676  :             return (float)fabs(_X);

	andps	xmm0, xmm1
; File I:\Vitalya\mine\NSProjectX\xrCore\_vector3d.h

; 58   : 	ICF BOOL	similar(const Self &v, T E=EPS_L) const	{ return _abs(x-v.x)<E && _abs(y-v.y)<E && _abs(z-v.z)<E;};

	comiss	xmm2, xmm0
	jbe	SHORT $LN359@AddWallmar
	movss	xmm0, DWORD PTR [ecx+4]
	subss	xmm0, DWORD PTR [edi+4]
; File C:\Program Files (x86)\Windows Kits\10\Include\10.0.22000.0\ucrt\corecrt_math.h

; 676  :             return (float)fabs(_X);

	andps	xmm0, xmm1
; File I:\Vitalya\mine\NSProjectX\xrCore\_vector3d.h

; 58   : 	ICF BOOL	similar(const Self &v, T E=EPS_L) const	{ return _abs(x-v.x)<E && _abs(y-v.y)<E && _abs(z-v.z)<E;};

	comiss	xmm2, xmm0
	jbe	SHORT $LN359@AddWallmar
	movss	xmm0, DWORD PTR [ecx+8]
	subss	xmm0, DWORD PTR [edi+8]
; File C:\Program Files (x86)\Windows Kits\10\Include\10.0.22000.0\ucrt\corecrt_math.h

; 676  :             return (float)fabs(_X);

	andps	xmm0, xmm1
; File I:\Vitalya\mine\NSProjectX\xrCore\_vector3d.h

; 58   : 	ICF BOOL	similar(const Self &v, T E=EPS_L) const	{ return _abs(x-v.x)<E && _abs(y-v.y)<E && _abs(z-v.z)<E;};

	comiss	xmm2, xmm0
	ja	SHORT $LN403@AddWallmar
$LN359@AddWallmar:
; File C:\Program Files\Microsoft Visual Studio\2022\Community\VC\Tools\MSVC\14.29.30133\include\vector

; 74   :         ++_Ptr;

	add	esi, 4

; 150  :         return _Ptr == _Right._Ptr;

	cmp	esi, eax
; File I:\Vitalya\mine\NSProjectX\layers\xrRender\WallmarksEngine.cpp

; 245  : 			for (; it!=end; it++)	{

	jne	SHORT $LL10@AddWallmar
	jmp	$LN17@AddWallmar
$LN403@AddWallmar:
; File C:\Program Files\Microsoft Visual Studio\2022\Community\VC\Tools\MSVC\14.29.30133\include\vector

; 730  :         if (_Mylast != _My_data._Myend) {

	mov	eax, DWORD PTR _this$1$[esp+120]
; File I:\Vitalya\mine\NSProjectX\layers\xrRender\WallmarksEngine.cpp

; 248  : 					static_wm_destroy	(wm);

	mov	DWORD PTR _W$[esp+120], ecx
; File C:\Program Files\Microsoft Visual Studio\2022\Community\VC\Tools\MSVC\14.29.30133\include\vector

; 730  :         if (_Mylast != _My_data._Myend) {

	mov	edx, DWORD PTR [eax+4]
	cmp	edx, DWORD PTR [eax+8]
	je	SHORT $LN378@AddWallmar

; 713  :         _Alty_traits::construct(_Getal(), _Unfancy(_Mylast), _STD forward<_Valty>(_Val)...);

	mov	DWORD PTR [edx], ecx
; File I:\Vitalya\mine\NSProjectX\xrCore\xr_resource.h

; 64   : 						~resptr_core	()												{	_dec();						}

	lea	ecx, DWORD PTR _hShader$[ebp]
; File C:\Program Files\Microsoft Visual Studio\2022\Community\VC\Tools\MSVC\14.29.30133\include\vector

; 716  :         ++_Mylast;

	add	DWORD PTR [eax+4], 4
; File I:\Vitalya\mine\NSProjectX\layers\xrRender\WallmarksEngine.cpp

; 249  : 					*it					=	W;

	mov	DWORD PTR [esi], edi
; File I:\Vitalya\mine\NSProjectX\xrCore\xr_resource.h

; 64   : 						~resptr_core	()												{	_dec();						}

	call	DWORD PTR __imp_?_dec@?$resptr_base@UShader@@@@IAEXXZ
; File I:\Vitalya\mine\NSProjectX\layers\xrRender\WallmarksEngine.cpp

; 260  : }

	pop	edi
	pop	esi
	mov	esp, ebp
	pop	ebp
	ret	20					; 00000014H
$LN378@AddWallmar:
; File C:\Program Files\Microsoft Visual Studio\2022\Community\VC\Tools\MSVC\14.29.30133\include\vector

; 734  :         _Ty& _Result = *_Emplace_reallocate(_Mylast, _STD forward<_Valty>(_Val)...);

	lea	ecx, DWORD PTR _W$[esp+120]
	push	ecx
	push	edx
	mov	ecx, eax
	call	??$_Emplace_reallocate@ABQAUstatic_wallmark@CWallmarksEngine@@@?$vector@PAUstatic_wallmark@CWallmarksEngine@@V?$xalloc@PAUstatic_wallmark@CWallmarksEngine@@@@@std@@QAEPAPAUstatic_wallmark@CWallmarksEngine@@QAPAU23@ABQAU23@@Z ; std::vector<CWallmarksEngine::static_wallmark *,xalloc<CWallmarksEngine::static_wallmark *> >::_Emplace_reallocate<CWallmarksEngine::static_wallmark * const &>
; File I:\Vitalya\mine\NSProjectX\xrCore\xr_resource.h

; 64   : 						~resptr_core	()												{	_dec();						}

	lea	ecx, DWORD PTR _hShader$[ebp]
; File I:\Vitalya\mine\NSProjectX\layers\xrRender\WallmarksEngine.cpp

; 249  : 					*it					=	W;

	mov	DWORD PTR [esi], edi
; File I:\Vitalya\mine\NSProjectX\xrCore\xr_resource.h

; 64   : 						~resptr_core	()												{	_dec();						}

	call	DWORD PTR __imp_?_dec@?$resptr_base@UShader@@@@IAEXXZ
; File I:\Vitalya\mine\NSProjectX\layers\xrRender\WallmarksEngine.cpp

; 260  : }

	pop	edi
	pop	esi
	mov	esp, ebp
	pop	ebp
	ret	20					; 00000014H
$LN392@AddWallmar:
; File C:\Program Files\Microsoft Visual Studio\2022\Community\VC\Tools\MSVC\14.29.30133\include\vector

; 734  :         _Ty& _Result = *_Emplace_reallocate(_Mylast, _STD forward<_Valty>(_Val)...);

	lea	edx, DWORD PTR _W$[esp+120]
	push	edx
$LN420@AddWallmar:
; File I:\Vitalya\mine\NSProjectX\xrCore\xr_resource.h

; 64   : 						~resptr_core	()												{	_dec();						}

	push	eax
	call	??$_Emplace_reallocate@ABQAUstatic_wallmark@CWallmarksEngine@@@?$vector@PAUstatic_wallmark@CWallmarksEngine@@V?$xalloc@PAUstatic_wallmark@CWallmarksEngine@@@@@std@@QAEPAPAUstatic_wallmark@CWallmarksEngine@@QAPAU23@ABQAU23@@Z ; std::vector<CWallmarksEngine::static_wallmark *,xalloc<CWallmarksEngine::static_wallmark *> >::_Emplace_reallocate<CWallmarksEngine::static_wallmark * const &>
$LN391@AddWallmar:
	lea	ecx, DWORD PTR _hShader$[ebp]
	call	DWORD PTR __imp_?_dec@?$resptr_base@UShader@@@@IAEXXZ
; File I:\Vitalya\mine\NSProjectX\layers\xrRender\WallmarksEngine.cpp

; 260  : }

	pop	edi
	pop	esi
	mov	esp, ebp
	pop	ebp
	ret	20					; 00000014H
?AddWallmark_internal@CWallmarksEngine@@AAEXPAVTRI@CDB@@PBU?$_vector3@M@@ABU4@V?$resptr_core@UShader@@Uresptrcode_shader@@@@M@Z ENDP ; CWallmarksEngine::AddWallmark_internal
_TEXT	ENDS
; Function compile flags: /Ogtpy
; File I:\Vitalya\mine\NSProjectX\layers\xrRender\WallmarksEngine.cpp
; File I:\Vitalya\mine\NSProjectX\xrCore\_vector3d.h
; File I:\Vitalya\mine\NSProjectX\layers\xrRender\WallmarksEngine.cpp
; File I:\Vitalya\mine\NSProjectX\xrCore\_vector3d.h
; File I:\Vitalya\mine\NSProjectX\layers\xrRender\WallmarksEngine.cpp
; File I:\Vitalya\mine\NSProjectX\xrCore\xr_resource.h
; File I:\Vitalya\mine\NSProjectX\layers\xrRender\WallmarksEngine.cpp
; File I:\Vitalya\mine\NSProjectX\xrCore\xr_resource.h
; File I:\Vitalya\mine\NSProjectX\layers\xrRender\WallmarksEngine.cpp
; File I:\Vitalya\mine\NSProjectX\xrCore\xr_resource.h
; File I:\Vitalya\mine\NSProjectX\layers\xrRender\WallmarksEngine.cpp
_TEXT	SEGMENT
_pTri$ = 8						; size = 4
_pVerts$ = 12						; size = 4
_contact_point$ = 16					; size = 4
_hShader$ = 20						; size = 4
_sz$ = 24						; size = 4
?AddStaticWallmark@CWallmarksEngine@@QAEXPAVTRI@CDB@@PBU?$_vector3@M@@ABU4@V?$resptr_core@UShader@@Uresptrcode_shader@@@@M@Z PROC ; CWallmarksEngine::AddStaticWallmark
; _this$ = ecx

; 265  : 	if (contact_point.distance_to_sqr(Device.vCameraPosition) > _sqr(100.f))	return;

	mov	eax, DWORD PTR __imp_?Device@@3VCRenderDevice@@A
	push	ebx
	push	esi
	push	edi
; File I:\Vitalya\mine\NSProjectX\xrCore\_vector3d.h

; 287  : 	{	return (x-v.x)*(x-v.x) + (y-v.y)*(y-v.y) + (z-v.z)*(z-v.z);	}

	mov	edi, DWORD PTR _contact_point$[esp+8]
; File I:\Vitalya\mine\NSProjectX\layers\xrRender\WallmarksEngine.cpp

; 263  : {

	mov	ebx, ecx
; File I:\Vitalya\mine\NSProjectX\xrCore\_vector3d.h

; 287  : 	{	return (x-v.x)*(x-v.x) + (y-v.y)*(y-v.y) + (z-v.z)*(z-v.z);	}

	movss	xmm1, DWORD PTR [edi+4]
	movss	xmm2, DWORD PTR [edi]
	subss	xmm2, DWORD PTR [eax+488]
	subss	xmm1, DWORD PTR [eax+492]
	movss	xmm0, DWORD PTR [edi+8]
	subss	xmm0, DWORD PTR [eax+496]
	mulss	xmm2, xmm2
	mulss	xmm1, xmm1
	mulss	xmm0, xmm0
	addss	xmm2, xmm1
	addss	xmm2, xmm0
; File I:\Vitalya\mine\NSProjectX\layers\xrRender\WallmarksEngine.cpp

; 265  : 	if (contact_point.distance_to_sqr(Device.vCameraPosition) > _sqr(100.f))	return;

	comiss	xmm2, DWORD PTR __real@461c4000
	ja	SHORT $LN4@AddStaticW

; 266  : 
; 267  : 	// Physics may add wallmarks in parallel with rendering
; 268  : 	lock.Enter				();

	lea	ecx, DWORD PTR [ebx+1504]
	call	DWORD PTR __imp_?Enter@xrCriticalSection@@QAEXXZ
; File I:\Vitalya\mine\NSProjectX\xrCore\xr_resource.h

; 63   : 						resptr_core		(const self & rhs)								{	p_ = rhs.p_; _inc();		}

	mov	eax, DWORD PTR _hShader$[esp+8]
; File I:\Vitalya\mine\NSProjectX\layers\xrRender\WallmarksEngine.cpp

; 269  : 	AddWallmark_internal	(pTri,pVerts,contact_point,hShader,sz);

	sub	esp, 8
	fld	DWORD PTR _sz$[esp+16]
	mov	ecx, esp
	fstp	DWORD PTR [esp+4]
; File I:\Vitalya\mine\NSProjectX\xrCore\xr_resource.h

; 63   : 						resptr_core		(const self & rhs)								{	p_ = rhs.p_; _inc();		}

	mov	DWORD PTR [ecx], eax

; 43   : 	void				_inc	()									{	if (0==p_) return;	p_->dwReference++;														}

	mov	eax, DWORD PTR _hShader$[esp+16]
	test	eax, eax
	je	SHORT $LN13@AddStaticW
	inc	DWORD PTR [eax]
$LN13@AddStaticW:
; File I:\Vitalya\mine\NSProjectX\layers\xrRender\WallmarksEngine.cpp

; 269  : 	AddWallmark_internal	(pTri,pVerts,contact_point,hShader,sz);

	push	edi
	push	DWORD PTR _pVerts$[esp+20]
	mov	ecx, ebx
	push	DWORD PTR _pTri$[esp+24]
	call	?AddWallmark_internal@CWallmarksEngine@@AAEXPAVTRI@CDB@@PBU?$_vector3@M@@ABU4@V?$resptr_core@UShader@@Uresptrcode_shader@@@@M@Z ; CWallmarksEngine::AddWallmark_internal

; 270  : 	lock.Leave				();

	lea	ecx, DWORD PTR [ebx+1504]
	call	DWORD PTR __imp_?Leave@xrCriticalSection@@QAEXXZ
$LN4@AddStaticW:
; File I:\Vitalya\mine\NSProjectX\xrCore\xr_resource.h

; 64   : 						~resptr_core	()												{	_dec();						}

	lea	ecx, DWORD PTR _hShader$[esp+8]
	call	DWORD PTR __imp_?_dec@?$resptr_base@UShader@@@@IAEXXZ
; File I:\Vitalya\mine\NSProjectX\layers\xrRender\WallmarksEngine.cpp

; 271  : }

	pop	edi
	pop	esi
	pop	ebx
	ret	20					; 00000014H
?AddStaticWallmark@CWallmarksEngine@@QAEXPAVTRI@CDB@@PBU?$_vector3@M@@ABU4@V?$resptr_core@UShader@@Uresptrcode_shader@@@@M@Z ENDP ; CWallmarksEngine::AddStaticWallmark
_TEXT	ENDS
; Function compile flags: /Ogtpy
; File I:\Vitalya\mine\NSProjectX\layers\xrRender\WallmarksEngine.cpp
; File I:\Vitalya\mine\NSProjectX\xrCore\_vector3d.h
; File I:\Vitalya\mine\NSProjectX\layers\xrRender\WallmarksEngine.cpp
; File I:\Vitalya\mine\NSProjectX\xrCore\xr_resource.h
; File I:\Vitalya\mine\NSProjectX\layers\xrRender\WallmarksEngine.cpp
; File I:\Vitalya\mine\NSProjectX\xrCore\xr_resource.h
; File I:\Vitalya\mine\NSProjectX\layers\xrRender\WallmarksEngine.cpp
; File I:\Vitalya\mine\NSProjectX\xrCore\xr_resource.h
; File I:\Vitalya\mine\NSProjectX\layers\xrRender\WallmarksEngine.cpp
_TEXT	SEGMENT
_xf$ = 8						; size = 4
_obj$ = 12						; size = 4
_sh$ = 16						; size = 4
_start$ = 20						; size = 4
_dir$ = 24						; size = 4
_size$ = 28						; size = 4
?AddSkeletonWallmark@CWallmarksEngine@@QAEXPBU?$_matrix@M@@PAVCKinematics@@AAV?$resptr_core@UShader@@Uresptrcode_shader@@@@ABU?$_vector3@M@@3M@Z PROC ; CWallmarksEngine::AddSkeletonWallmark
; _this$ = ecx

; 275  : 	if( 0==g_r || ::RImplementation.phase != CRender::PHASE_NORMAL)				return;

	cmp	DWORD PTR ?g_r@@3IA, 0			; g_r
	push	esi
	push	edi
	je	$LN6@AddSkeleto
	cmp	DWORD PTR ?RImplementation@@3VCRender@@A+292, 0
	jne	$LN6@AddSkeleto

; 277  : 	if (xf->c.distance_to_sqr(Device.vCameraPosition) > _sqr(50.f))				return;

	mov	edi, DWORD PTR _xf$[esp+4]
	mov	eax, DWORD PTR __imp_?Device@@3VCRenderDevice@@A
; File I:\Vitalya\mine\NSProjectX\xrCore\_vector3d.h

; 287  : 	{	return (x-v.x)*(x-v.x) + (y-v.y)*(y-v.y) + (z-v.z)*(z-v.z);	}

	movss	xmm1, DWORD PTR [edi+52]
	movss	xmm2, DWORD PTR [edi+48]
	subss	xmm2, DWORD PTR [eax+488]
	subss	xmm1, DWORD PTR [eax+492]
	movss	xmm0, DWORD PTR [edi+56]
	subss	xmm0, DWORD PTR [eax+496]
	mulss	xmm2, xmm2
	mulss	xmm1, xmm1
	mulss	xmm0, xmm0
	addss	xmm2, xmm1
	addss	xmm2, xmm0
; File I:\Vitalya\mine\NSProjectX\layers\xrRender\WallmarksEngine.cpp

; 277  : 	if (xf->c.distance_to_sqr(Device.vCameraPosition) > _sqr(50.f))				return;

	comiss	xmm2, DWORD PTR __real@451c4000
	ja	SHORT $LN6@AddSkeleto

; 278  : 
; 279  : 	VERIFY					(obj&&xf&&(size>EPS_L));
; 280  : 	lock.Enter				();

	lea	esi, DWORD PTR [ecx+1504]
	mov	ecx, esi
	call	DWORD PTR __imp_?Enter@xrCriticalSection@@QAEXXZ
; File I:\Vitalya\mine\NSProjectX\xrCore\xr_resource.h

; 63   : 						resptr_core		(const self & rhs)								{	p_ = rhs.p_; _inc();		}

	mov	eax, DWORD PTR _sh$[esp+4]
; File I:\Vitalya\mine\NSProjectX\layers\xrRender\WallmarksEngine.cpp

; 281  : 	obj->AddWallmark		(xf,start,dir,sh,size);

	sub	esp, 8
	fld	DWORD PTR _size$[esp+12]
	mov	ecx, esp
; File I:\Vitalya\mine\NSProjectX\xrCore\xr_resource.h

; 63   : 						resptr_core		(const self & rhs)								{	p_ = rhs.p_; _inc();		}

	mov	eax, DWORD PTR [eax]
	mov	DWORD PTR [ecx], eax
; File I:\Vitalya\mine\NSProjectX\layers\xrRender\WallmarksEngine.cpp

; 281  : 	obj->AddWallmark		(xf,start,dir,sh,size);

	fstp	DWORD PTR [esp+4]
; File I:\Vitalya\mine\NSProjectX\xrCore\xr_resource.h

; 43   : 	void				_inc	()									{	if (0==p_) return;	p_->dwReference++;														}

	test	eax, eax
	je	SHORT $LN15@AddSkeleto
	inc	DWORD PTR [eax]
$LN15@AddSkeleto:
; File I:\Vitalya\mine\NSProjectX\layers\xrRender\WallmarksEngine.cpp

; 281  : 	obj->AddWallmark		(xf,start,dir,sh,size);

	push	DWORD PTR _dir$[esp+12]
	mov	ecx, DWORD PTR _obj$[esp+16]
	push	DWORD PTR _start$[esp+16]
	push	edi
	call	DWORD PTR __imp_?AddWallmark@CKinematics@@QAEXPBU?$_matrix@M@@ABU?$_vector3@M@@1V?$resptr_core@UShader@@Uresptrcode_shader@@@@M@Z

; 282  : 	lock.Leave				();

	mov	ecx, esi
	call	DWORD PTR __imp_?Leave@xrCriticalSection@@QAEXXZ
$LN6@AddSkeleto:

; 283  : }

	pop	edi
	pop	esi
