; Listing generated by Microsoft (R) Optimizing Compiler Version 19.29.30146.0 

	TITLE	i:\vitalya\mine\nsprojectx\nspx_build\intermediate\release-win32\xrrender_r1\xrrender_console.obj
	.686P
	.XMM
	include listing.inc
	.model	flat

INCLUDELIB OLDNAMES

PUBLIC	?ps_r__WallmarkSHIFT_V@@3MA			; ps_r__WallmarkSHIFT_V
PUBLIC	?ps_r__WallmarkSHIFT@@3MA			; ps_r__WallmarkSHIFT
PUBLIC	?ps_r__WallmarkTTL@@3MA				; ps_r__WallmarkTTL
PUBLIC	??_C@_07NLJCBFAF@Minimum@			; `string'
PUBLIC	??_C@_03CMIMKEEK@Low@				; `string'
PUBLIC	??_C@_07MCAEODGB@Default@			; `string'
PUBLIC	??_C@_04PHMMJPOJ@High@				; `string'
PUBLIC	??_C@_07DNPCLKOE@Maximum@			; `string'
PUBLIC	??_C@_07GDPLEOIL@Extreme@			; `string'
PUBLIC	??_C@_05IBHCIMEH@Ultra@				; `string'
PUBLIC	??_C@_0BE@NNEJNGLG@st_opt_eff_disabled@		; `string'
PUBLIC	??_C@_0BD@ENJGPEE@st_opt_eff_default@		; `string'
PUBLIC	??_C@_0BF@HEJJKJFG@st_opt_eff_cinematic@	; `string'
PUBLIC	??_C@_0L@HCBKDILD@st_opt_off@			; `string'
PUBLIC	??_C@_0M@DDNOGFBI@st_opt_dlaa@			; `string'
PUBLIC	??_C@_0BO@GENMAAIH@st_opt_dlaa_force_edge_detect@ ; `string'
PUBLIC	??_C@_0M@JGGFPGLA@st_opt_fxaa@			; `string'
PUBLIC	??_C@_0L@DMKHIPMC@st_opt_low@			; `string'
PUBLIC	??_C@_0O@ICGJDCIF@st_opt_medium@		; `string'
PUBLIC	??_C@_0M@BELPLPNA@st_opt_high@			; `string'
PUBLIC	??_C@_0N@NOJEHHGP@st_opt_ultra@			; `string'
PUBLIC	??_C@_0M@HHOHEEMN@st_opt_ssao@			; `string'
PUBLIC	??_C@_0M@KNBJINHI@st_opt_hdao@			; `string'
PUBLIC	??_C@_0M@IIHCNCKE@st_opt_hbao@			; `string'
PUBLIC	??_C@_0P@BEMJJEFD@st_opt_extreme@		; `string'
PUBLIC	??_C@_0P@LPJKIMND@st_opt_disable@		; `string'
PUBLIC	??_C@_0L@BLJGDNAN@st_opt_min@			; `string'
PUBLIC	??_C@_0L@OBHJNFIH@st_opt_mid@			; `string'
PUBLIC	??_C@_0L@JBNNJGC@st_opt_max@			; `string'
PUBLIC	??_C@_0L@FCFHAKLB@full_frame@			; `string'
PUBLIC	??_C@_0O@OGOGJLIO@gbuffer_color@		; `string'
PUBLIC	??_C@_0BB@JDGONEGD@gbuffer_position@		; `string'
PUBLIC	??_C@_0P@MJMAPBJG@gbuffer_normal@		; `string'
PUBLIC	??_C@_0O@CEEFGHPD@gbuffer_gloss@		; `string'
PUBLIC	??_C@_0BD@GDNLIEHD@gbuffer_hemisphere@		; `string'
PUBLIC	??_C@_0BB@NOOGCHKK@gbuffer_material@		; `string'
PUBLIC	??_C@_0O@FFFHECHC@gbuffer_split@		; `string'
PUBLIC	??_C@_0BC@LCEMBAKG@accumulator_light@		; `string'
PUBLIC	??_C@_0BF@BNAEKDKI@accumulator_specular@	; `string'
PUBLIC	??_C@_0N@IGCKPDGF@real_time_ao@			; `string'
PUBLIC	??_C@_0BH@CIMHIFCL@real_time_ao_with_hemi@	; `string'
PUBLIC	??_C@_0CE@CCBNNAB@split_with_real_time_ao_and_wit@ ; `string'
PUBLIC	??_C@_0CC@PCPAFHKF@split_with_hemisphere_and_witho@ ; `string'
PUBLIC	??_C@_0BF@DBBEEHKL@split_ao_blur_stages@	; `string'
PUBLIC	??_C@_0BD@OLEBFLGI@full_ao_with_light@		; `string'
PUBLIC	??_C@_08BEHKFNNO@disabled@			; `string'
PUBLIC	??_C@_0L@JCBFJPMJ@uv_checker@			; `string'
PUBLIC	??_C@_05PMAELIEO@white@				; `string'
PUBLIC	??_C@_0BG@PCFGJOBJ@st_opt_normal_mapping@	; `string'
PUBLIC	??_C@_0BI@JPMFBHKB@st_opt_parallax_mapping@	; `string'
PUBLIC	??_C@_0BO@GABOMOIM@st_opt_steep_parallax_mapping@ ; `string'
PUBLIC	??_C@_0BG@IKMCPCOD@?$HO?5Valid?5arguments?3?5?$CFs@ ; `string'
PUBLIC	??_C@_03MCADLMAF@off@				; `string'
PUBLIC	??_C@_08GJNPJIKN@?$CFf?0?$CFf?0?$CFf@		; `string'
PUBLIC	??_C@_0CH@NHPGHHO@vector3?5in?5range?5?$FL?$CFf?0?$CFf?0?$CFf?$FN?9?$FL?$CFf@ ; `string'
PUBLIC	??_C@_04FGOLMPIL@oren@				; `string'
PUBLIC	??_C@_04BHKHNCPC@blin@				; `string'
PUBLIC	??_C@_05OHONJDAO@phong@				; `string'
PUBLIC	??_C@_05MPIFAIJC@metal@				; `string'
PUBLIC	??_C@_0CP@CHANKGHI@?$CK?5material?5set?5to?5?$FL?$CFs?$FN?9?$FL?$CFs?$FN?0?5wi@ ; `string'
PUBLIC	??_C@_02DKCKIIND@?$CFs@				; `string'
PUBLIC	??_C@_0BC@ELKOCAOA@rspec_minimum?4ltx@		; `string'
PUBLIC	??_C@_0O@OHALDFON@rspec_low?4ltx@		; `string'
PUBLIC	??_C@_0BC@NNDMKIK@rspec_default?4ltx@		; `string'
PUBLIC	??_C@_0P@KCGCMGAH@rspec_high?4ltx@		; `string'
PUBLIC	??_C@_0BC@NLNNDAAK@rspec_maximum?4ltx@		; `string'
PUBLIC	??_C@_0BC@FHEEMLOJ@rspec_extreme?4ltx@		; `string'
PUBLIC	??_C@_0BA@JAPHILEA@rspec_ultra?4ltx@		; `string'
PUBLIC	??_C@_0O@MGNGOECP@$game_config$@		; `string'
PUBLIC	??_C@_01CLKCMJKC@?5@				; `string'
PUBLIC	??_C@_08KOFGEFOI@cfg_load@			; `string'
PUBLIC	??_C@_0BB@OMKBNKEA@eff_disabled?4ltx@		; `string'
PUBLIC	??_C@_0BA@HEEBMDDC@eff_default?4ltx@		; `string'
PUBLIC	??_C@_0BC@KLFFOME@eff_cinematic?4ltx@		; `string'
PUBLIC	??_C@_0DB@JNCBIEHJ@float?5value?5greater?5or?5equal?5to@ ; `string'
PUBLIC	??_C@_0CB@HLGFEFOB@?$HO?5Invalid?5syntax?5in?5call?5to?5?8?$CFs@ ; `string'
PUBLIC	??_C@_0N@BLMMPPGO@r2_dof_focus@			; `string'
PUBLIC	??_C@_0CO@FPIHCIBJ@float?5value?5less?5or?5equal?5to?5r2@ ; `string'
PUBLIC	??_C@_0CM@HGBJKDAK@float?5value?5less?5or?5equal?5to?5r2@ ; `string'
PUBLIC	??_C@_0L@PEDLENCP@r2_dof_far@			; `string'
PUBLIC	??_C@_0CP@JANGOKPM@float?5value?5greater?5or?5equal?5to@ ; `string'
PUBLIC	??_C@_0M@BHFONMNP@r2_dof_near@			; `string'
PUBLIC	??_C@_0N@DHDFIBKO@x?5?$DM?$DN?5y?5?9?50?41@	; `string'
PUBLIC	??_C@_0N@GECMFPMI@y?5?$DM?$DN?5z?5?9?50?41@	; `string'
PUBLIC	??_C@_0O@JMGALPCM@r2_soft_water@		; `string'
PUBLIC	??_C@_0BC@NBMFAMGH@r2_soft_particles@		; `string'
PUBLIC	??_C@_0M@BELPDFE@r2_soft_fog@			; `string'
PUBLIC	??_C@_0L@GJJNHKHO@r2_aa_type@			; `string'
PUBLIC	??_C@_0O@KEPAFGFD@r2_aa_quality@		; `string'
PUBLIC	??_C@_0L@DJKCABCD@r2_ao_type@			; `string'
PUBLIC	??_C@_0O@LKDJGGOA@r2_ao_quality@		; `string'
PUBLIC	??_C@_0L@LCINICNB@r2_ao_blur@			; `string'
PUBLIC	??_C@_0M@LKENIEPF@r2_vignette@			; `string'
PUBLIC	??_C@_0BI@IFGPEKAF@r2_chromatic_abberation@	; `string'
PUBLIC	??_C@_08DMLFIHOD@r2_bloom@			; `string'
PUBLIC	??_C@_06COPNDPFH@r2_dof@			; `string'
PUBLIC	??_C@_0O@GBCGFHMD@r2_dof_kernel@		; `string'
PUBLIC	??_C@_0L@HNJPLGJP@r2_dof_sky@			; `string'
PUBLIC	??_C@_0P@CGHLLEAH@r2_dof_enabled@		; `string'
PUBLIC	??_C@_0P@NBDFKIOK@r2_dof_quality@		; `string'
PUBLIC	??_C@_0BB@NPGGANOC@r2_mblur_enabled@		; `string'
PUBLIC	??_C@_0O@LHFKPGKB@r2_sun_shafts@		; `string'
PUBLIC	??_C@_0P@PGDLHACC@r2_sun_quality@		; `string'
PUBLIC	??_C@_0BE@BBHAFBEM@r2_shadow_filtering@		; `string'
PUBLIC	??_C@_0N@FJLMNEMI@r2_bump_mode@			; `string'
PUBLIC	??_C@_0BF@GMKHMCNC@r2_tdetail_bump_mode@	; `string'
PUBLIC	??_C@_0BF@DOBOIFBH@r2_terrain_bump_mode@	; `string'
PUBLIC	??_C@_0BA@GOMGGOCF@r2_debug_render@		; `string'
PUBLIC	??_C@_0BC@BMNFJEOH@r2_debug_textures@		; `string'
PUBLIC	??_C@_0P@MGJLOEKN@r2_gbuffer_opt@		; `string'
PUBLIC	??_C@_07JBEOPPGL@_preset@			; `string'
PUBLIC	??_C@_0L@ENOICHIN@eff_preset@			; `string'
PUBLIC	??_C@_0L@CMHOPIGK@screenshot@			; `string'
PUBLIC	??_C@_0BA@CENFKEKB@r__geometry_lod@		; `string'
PUBLIC	??_C@_0BC@DANJBJKC@r__detail_density@		; `string'
PUBLIC	??_C@_0M@JGACHMFM@r__tf_aniso@			; `string'
PUBLIC	??_C@_0N@JIHDKHEJ@r1_ssa_lod_a@			; `string'
PUBLIC	??_C@_0N@LDFOPEIK@r1_ssa_lod_b@			; `string'
PUBLIC	??_C@_0P@IBLMPJJ@r1_lmodel_lerp@		; `string'
PUBLIC	??_C@_0O@DIJFHNPN@r1_tf_mipbias@		; `string'
PUBLIC	??_C@_0L@KNMKIKMK@r1_dlights@			; `string'
PUBLIC	??_C@_0BA@JMFDABEK@r1_dlights_clip@		; `string'
PUBLIC	??_C@_08OFILMMPN@r1_pps_u@			; `string'
PUBLIC	??_C@_08MOKGJPDO@r1_pps_v@			; `string'
PUBLIC	??_C@_0BD@CHFOIAN@r1_glows_per_frame@		; `string'
PUBLIC	??_C@_0N@OPONHFLJ@r2_ssa_lod_a@			; `string'
PUBLIC	??_C@_0N@MEMACGHK@r2_ssa_lod_b@			; `string'
PUBLIC	??_C@_0O@IFFPBBDD@r2_tf_mipbias@		; `string'
PUBLIC	??_C@_04HOKCJHEG@r2em@				; `string'
PUBLIC	??_C@_0L@GKHFLLMN@r2_tonemap@			; `string'
PUBLIC	??_C@_0BG@DKEHMNL@r2_tonemap_middlegray@	; `string'
PUBLIC	??_C@_0BG@COMDBLNN@r2_tonemap_adaptation@	; `string'
PUBLIC	??_C@_0BC@DJLHNEGE@r2_tonemap_lowlum@		; `string'
PUBLIC	??_C@_0BC@ODFKDFHA@r2_tonemap_amount@		; `string'
PUBLIC	??_C@_0BJ@HGCLEGPI@r2_ls_bloom_kernel_scale@	; `string'
PUBLIC	??_C@_0BF@FLLMCMAK@r2_ls_bloom_kernel_g@	; `string'
PUBLIC	??_C@_0BF@CGMLNIEP@r2_ls_bloom_kernel_b@	; `string'
PUBLIC	??_C@_0BG@BIIDMCFP@r2_ls_bloom_threshold@	; `string'
PUBLIC	??_C@_0BC@NEOJDHJH@r2_ls_bloom_speed@		; `string'
PUBLIC	??_C@_0BB@BDAPAEPI@r2_ls_bloom_fast@		; `string'
PUBLIC	??_C@_0BB@BHKGBIFL@r2_ls_dsm_kernel@		; `string'
PUBLIC	??_C@_0BB@JIJKPBC@r2_ls_psm_kernel@		; `string'
PUBLIC	??_C@_0BB@JAGLMJBD@r2_ls_ssm_kernel@		; `string'
PUBLIC	??_C@_0P@IDPGFAFN@r2_ls_squality@		; `string'
PUBLIC	??_C@_08KHLGMPHA@r2_zfill@			; `string'
PUBLIC	??_C@_0P@GIAIFPI@r2_zfill_depth@		; `string'
PUBLIC	??_C@_0BD@NBIDPHBC@r2_allow_r1_lights@		; `string'
PUBLIC	??_C@_0BA@NEBNPKHE@r2_gloss_factor@		; `string'
PUBLIC	??_C@_0N@FNIHMPCL@r2_use_nvdbt@			; `string'
PUBLIC	??_C@_05ELAEOCAF@r2_mt@				; `string'
PUBLIC	??_C@_06DKFLPMNP@r2_sun@			; `string'
PUBLIC	??_C@_0P@OGOPJOHI@r2_sun_details@		; `string'
PUBLIC	??_C@_0N@DELFLGKF@r2_sun_focus@			; `string'
PUBLIC	??_C@_0L@IFFANCGE@r2_sun_tsm@			; `string'
PUBLIC	??_C@_0BA@NDACNPOL@r2_sun_tsm_proj@		; `string'
PUBLIC	??_C@_0BA@NPKEEPIF@r2_sun_tsm_bias@		; `string'
PUBLIC	??_C@_0M@BGLJAOD@r2_sun_near@			; `string'
PUBLIC	??_C@_0L@KNLIDEPA@r2_sun_far@			; `string'
PUBLIC	??_C@_0BD@HELOELJN@r2_sun_near_border@		; `string'
PUBLIC	??_C@_0BH@CCODHIAG@r2_sun_depth_far_scale@	; `string'
PUBLIC	??_C@_0BG@CDNBHKKJ@r2_sun_depth_far_bias@	; `string'
PUBLIC	??_C@_0BI@DJGNHAOC@r2_sun_depth_near_scale@	; `string'
PUBLIC	??_C@_0BH@KMHMOFPM@r2_sun_depth_near_bias@	; `string'
PUBLIC	??_C@_0BA@JCCJEEPN@r2_sun_lumscale@		; `string'
PUBLIC	??_C@_0BF@HMGLMHHD@r2_sun_lumscale_hemi@	; `string'
PUBLIC	??_C@_0BE@HHMFBPMP@r2_sun_lumscale_amb@		; `string'
PUBLIC	??_C@_05HFKLPNHF@r2_aa@				; `string'
PUBLIC	??_C@_0N@MOHLHCAB@r2_aa_kernel@			; `string'
PUBLIC	??_C@_08LMINAMIB@r2_mblur@			; `string'
PUBLIC	??_C@_05LJPPALMP@r2_gi@				; `string'
PUBLIC	??_C@_0L@NFIKPEK@r2_gi_clip@			; `string'
PUBLIC	??_C@_0M@BCNPDIO@r2_gi_depth@			; `string'
PUBLIC	??_C@_0O@DBJOANLH@r2_gi_photons@		; `string'
PUBLIC	??_C@_0L@MAPLEEJC@r2_gi_refl@			; `string'
PUBLIC	??_C@_0O@FEFLOHBD@r2_wait_sleep@		; `string'
PUBLIC	??_C@_0BH@PBLJAFPD@r2_shadow_cascede_zcul@	; `string'
PUBLIC	??_C@_0BG@BGKBFPCC@r2_shadow_cascede_old@	; `string'
PUBLIC	??_C@_0BC@EOKBNEJE@r2_ls_depth_scale@		; `string'
PUBLIC	??_C@_0BB@GHOIAFPN@r2_ls_depth_bias@		; `string'
PUBLIC	??_C@_0O@PNKBKNBO@r2_parallax_h@		; `string'
PUBLIC	??_C@_0P@NKBDHKNF@r2_slight_fade@		; `string'
PUBLIC	??_C@_0M@PDEMKMML@r2_aa_break@			; `string'
PUBLIC	??_C@_0N@IOPOGGKI@r2_aa_weight@			; `string'
PUBLIC	?ps_r__Detail_density@@3MA			; ps_r__Detail_density
PUBLIC	??_R2CCC_Dof@@8					; CCC_Dof::`RTTI Base Class Array'
PUBLIC	??_R2CCC_Vector3@@8				; CCC_Vector3::`RTTI Base Class Array'
PUBLIC	??_R2CCC_DofFocus@@8				; CCC_DofFocus::`RTTI Base Class Array'
PUBLIC	??_R2CCC_DofNear@@8				; CCC_DofNear::`RTTI Base Class Array'
PUBLIC	??_R2CCC_DofFar@@8				; CCC_DofFar::`RTTI Base Class Array'
PUBLIC	??_R2CCC_EffPreset@@8				; CCC_EffPreset::`RTTI Base Class Array'
PUBLIC	??_R2CCC_Preset@@8				; CCC_Preset::`RTTI Base Class Array'
PUBLIC	??_R2CCC_Token@@8				; CCC_Token::`RTTI Base Class Array'
PUBLIC	??_R2CCC_Screenshot@@8				; CCC_Screenshot::`RTTI Base Class Array'
PUBLIC	??_R2CCC_R2GM@@8				; CCC_R2GM::`RTTI Base Class Array'
PUBLIC	??_R2CCC_tf_MipBias@@8				; CCC_tf_MipBias::`RTTI Base Class Array'
PUBLIC	??_R2CCC_Float@@8				; CCC_Float::`RTTI Base Class Array'
PUBLIC	??_R2CCC_tf_Aniso@@8				; CCC_tf_Aniso::`RTTI Base Class Array'
PUBLIC	??_R2CCC_Integer@@8				; CCC_Integer::`RTTI Base Class Array'
PUBLIC	??_R2IConsole_Command@@8			; IConsole_Command::`RTTI Base Class Array'
PUBLIC	??_R1A@?0A@EA@CCC_Dof@@8			; CCC_Dof::`RTTI Base Class Descriptor at (0,-1,0,64)'
PUBLIC	??_R1A@?0A@EA@CCC_Vector3@@8			; CCC_Vector3::`RTTI Base Class Descriptor at (0,-1,0,64)'
PUBLIC	??_R1A@?0A@EA@CCC_DofFocus@@8			; CCC_DofFocus::`RTTI Base Class Descriptor at (0,-1,0,64)'
PUBLIC	??_R1A@?0A@EA@CCC_DofNear@@8			; CCC_DofNear::`RTTI Base Class Descriptor at (0,-1,0,64)'
PUBLIC	??_R1A@?0A@EA@CCC_DofFar@@8			; CCC_DofFar::`RTTI Base Class Descriptor at (0,-1,0,64)'
PUBLIC	??_R1A@?0A@EA@CCC_EffPreset@@8			; CCC_EffPreset::`RTTI Base Class Descriptor at (0,-1,0,64)'
PUBLIC	??_R1A@?0A@EA@CCC_Preset@@8			; CCC_Preset::`RTTI Base Class Descriptor at (0,-1,0,64)'
PUBLIC	??_R1A@?0A@EA@CCC_Token@@8			; CCC_Token::`RTTI Base Class Descriptor at (0,-1,0,64)'
PUBLIC	??_R1A@?0A@EA@CCC_Screenshot@@8			; CCC_Screenshot::`RTTI Base Class Descriptor at (0,-1,0,64)'
PUBLIC	??_R1A@?0A@EA@CCC_R2GM@@8			; CCC_R2GM::`RTTI Base Class Descriptor at (0,-1,0,64)'
PUBLIC	??_R1A@?0A@EA@CCC_tf_MipBias@@8			; CCC_tf_MipBias::`RTTI Base Class Descriptor at (0,-1,0,64)'
PUBLIC	??_R1A@?0A@EA@CCC_Float@@8			; CCC_Float::`RTTI Base Class Descriptor at (0,-1,0,64)'
PUBLIC	??_R1A@?0A@EA@CCC_tf_Aniso@@8			; CCC_tf_Aniso::`RTTI Base Class Descriptor at (0,-1,0,64)'
PUBLIC	??_R1A@?0A@EA@CCC_Integer@@8			; CCC_Integer::`RTTI Base Class Descriptor at (0,-1,0,64)'
PUBLIC	??_R1A@?0A@EA@IConsole_Command@@8		; IConsole_Command::`RTTI Base Class Descriptor at (0,-1,0,64)'
PUBLIC	??_R3CCC_Vector3@@8				; CCC_Vector3::`RTTI Class Hierarchy Descriptor'
PUBLIC	??_R0?AVCCC_Vector3@@@8				; CCC_Vector3 `RTTI Type Descriptor'
PUBLIC	??_R3CCC_Dof@@8					; CCC_Dof::`RTTI Class Hierarchy Descriptor'
PUBLIC	??_R0?AVCCC_Dof@@@8				; CCC_Dof `RTTI Type Descriptor'
PUBLIC	??_R3CCC_DofFocus@@8				; CCC_DofFocus::`RTTI Class Hierarchy Descriptor'
PUBLIC	??_R0?AVCCC_DofFocus@@@8			; CCC_DofFocus `RTTI Type Descriptor'
PUBLIC	??_R3CCC_DofNear@@8				; CCC_DofNear::`RTTI Class Hierarchy Descriptor'
PUBLIC	??_R0?AVCCC_DofNear@@@8				; CCC_DofNear `RTTI Type Descriptor'
PUBLIC	??_R3CCC_DofFar@@8				; CCC_DofFar::`RTTI Class Hierarchy Descriptor'
PUBLIC	??_R0?AVCCC_DofFar@@@8				; CCC_DofFar `RTTI Type Descriptor'
PUBLIC	??_R3CCC_EffPreset@@8				; CCC_EffPreset::`RTTI Class Hierarchy Descriptor'
PUBLIC	??_R0?AVCCC_EffPreset@@@8			; CCC_EffPreset `RTTI Type Descriptor'
PUBLIC	??_R3CCC_Token@@8				; CCC_Token::`RTTI Class Hierarchy Descriptor'
PUBLIC	??_R0?AVCCC_Token@@@8				; CCC_Token `RTTI Type Descriptor'
PUBLIC	??_R3CCC_Preset@@8				; CCC_Preset::`RTTI Class Hierarchy Descriptor'
PUBLIC	??_R0?AVCCC_Preset@@@8				; CCC_Preset `RTTI Type Descriptor'
PUBLIC	??_R3CCC_Screenshot@@8				; CCC_Screenshot::`RTTI Class Hierarchy Descriptor'
PUBLIC	??_R0?AVCCC_Screenshot@@@8			; CCC_Screenshot `RTTI Type Descriptor'
PUBLIC	??_R3CCC_R2GM@@8				; CCC_R2GM::`RTTI Class Hierarchy Descriptor'
PUBLIC	??_R0?AVCCC_R2GM@@@8				; CCC_R2GM `RTTI Type Descriptor'
PUBLIC	??_R3CCC_Float@@8				; CCC_Float::`RTTI Class Hierarchy Descriptor'
PUBLIC	??_R0?AVCCC_Float@@@8				; CCC_Float `RTTI Type Descriptor'
PUBLIC	??_R3CCC_tf_MipBias@@8				; CCC_tf_MipBias::`RTTI Class Hierarchy Descriptor'
PUBLIC	??_R0?AVCCC_tf_MipBias@@@8			; CCC_tf_MipBias `RTTI Type Descriptor'
PUBLIC	??_R3CCC_Integer@@8				; CCC_Integer::`RTTI Class Hierarchy Descriptor'
PUBLIC	??_R0?AVCCC_Integer@@@8				; CCC_Integer `RTTI Type Descriptor'
PUBLIC	??_R3IConsole_Command@@8			; IConsole_Command::`RTTI Class Hierarchy Descriptor'
PUBLIC	??_R0?AVIConsole_Command@@@8			; IConsole_Command `RTTI Type Descriptor'
PUBLIC	??_R3CCC_tf_Aniso@@8				; CCC_tf_Aniso::`RTTI Class Hierarchy Descriptor'
PUBLIC	??_R0?AVCCC_tf_Aniso@@@8			; CCC_tf_Aniso `RTTI Type Descriptor'
PUBLIC	??_R4CCC_Dof@@6B@				; CCC_Dof::`RTTI Complete Object Locator'
PUBLIC	??_R4CCC_DofFocus@@6B@				; CCC_DofFocus::`RTTI Complete Object Locator'
PUBLIC	??_R4CCC_DofNear@@6B@				; CCC_DofNear::`RTTI Complete Object Locator'
PUBLIC	??_R4CCC_DofFar@@6B@				; CCC_DofFar::`RTTI Complete Object Locator'
PUBLIC	??_R4CCC_EffPreset@@6B@				; CCC_EffPreset::`RTTI Complete Object Locator'
PUBLIC	??_R4CCC_Preset@@6B@				; CCC_Preset::`RTTI Complete Object Locator'
PUBLIC	??_R4CCC_Screenshot@@6B@			; CCC_Screenshot::`RTTI Complete Object Locator'
PUBLIC	??_R4CCC_R2GM@@6B@				; CCC_R2GM::`RTTI Complete Object Locator'
PUBLIC	??_R4CCC_tf_MipBias@@6B@			; CCC_tf_MipBias::`RTTI Complete Object Locator'
PUBLIC	?ps_r__Detail_l_aniso@@3MA			; ps_r__Detail_l_aniso
PUBLIC	?ps_r__Detail_l_ambient@@3MA			; ps_r__Detail_l_ambient
PUBLIC	??_R4CCC_tf_Aniso@@6B@				; CCC_tf_Aniso::`RTTI Complete Object Locator'
PUBLIC	??_7CCC_Dof@@6B@				; CCC_Dof::`vftable'
PUBLIC	??_7CCC_DofFocus@@6B@				; CCC_DofFocus::`vftable'
PUBLIC	??_7CCC_DofNear@@6B@				; CCC_DofNear::`vftable'
PUBLIC	??_7CCC_DofFar@@6B@				; CCC_DofFar::`vftable'
PUBLIC	??_7CCC_EffPreset@@6B@				; CCC_EffPreset::`vftable'
PUBLIC	??_7CCC_Preset@@6B@				; CCC_Preset::`vftable'
PUBLIC	??_7CCC_Screenshot@@6B@				; CCC_Screenshot::`vftable'
PUBLIC	?name@?O@??Execute@CCC_R2GM@@UAEXPBD@Z@4PAPBDA	; `CCC_R2GM::Execute'::`14'::name
PUBLIC	??_7CCC_R2GM@@6B@				; CCC_R2GM::`vftable'
PUBLIC	??_7CCC_tf_MipBias@@6B@				; CCC_tf_MipBias::`vftable'
PUBLIC	??_7CCC_tf_Aniso@@6B@				; CCC_tf_Aniso::`vftable'
PUBLIC	?_OptionsStorage@?1??__local_stdio_scanf_options@@9@4_KA ; `__local_stdio_scanf_options'::`2'::_OptionsStorage
PUBLIC	??_C@_02LIELOMNJ@on@				; `string'
PUBLIC	?ps_r2_gloss_factor@@3MA			; ps_r2_gloss_factor
PUBLIC	?ps_r2_dof_kernel_size@@3MA			; ps_r2_dof_kernel_size
PUBLIC	?ps_r2_dof_sky@@3MA				; ps_r2_dof_sky
PUBLIC	?ps_r2_wait_sleep@@3HA				; ps_r2_wait_sleep
PUBLIC	?ps_r2_zfill@@3MA				; ps_r2_zfill
PUBLIC	?ps_r2_gmaterial@@3MA				; ps_r2_gmaterial
PUBLIC	?ps_r2_sun_lumscale_amb@@3MA			; ps_r2_sun_lumscale_amb
PUBLIC	?ps_r2_sun_lumscale_hemi@@3MA			; ps_r2_sun_lumscale_hemi
PUBLIC	?ps_r2_sun_depth_near_bias@@3MA			; ps_r2_sun_depth_near_bias
PUBLIC	?ps_r2_sun_depth_near_scale@@3MA		; ps_r2_sun_depth_near_scale
PUBLIC	?ps_r2_sun_depth_far_bias@@3MA			; ps_r2_sun_depth_far_bias
PUBLIC	?ps_r2_sun_depth_far_scale@@3MA			; ps_r2_sun_depth_far_scale
PUBLIC	?ps_r2_sun_near_border@@3MA			; ps_r2_sun_near_border
PUBLIC	?ps_r2_sun_far@@3MA				; ps_r2_sun_far
PUBLIC	?ps_r2_sun_near@@3MA				; ps_r2_sun_near
PUBLIC	?ps_r2_sun_tsm_bias@@3MA			; ps_r2_sun_tsm_bias
PUBLIC	?ps_r2_sun_tsm_projection@@3MA			; ps_r2_sun_tsm_projection
PUBLIC	?ps_r2_ls_squality@@3MA				; ps_r2_ls_squality
PUBLIC	?ps_r2_ls_depth_bias@@3MA			; ps_r2_ls_depth_bias
PUBLIC	?ps_r2_ls_depth_scale@@3MA			; ps_r2_ls_depth_scale
PUBLIC	?ps_r2_GI_refl@@3MA				; ps_r2_GI_refl
PUBLIC	?ps_r2_GI_clip@@3MA				; ps_r2_GI_clip
PUBLIC	?ps_r2_GI_photons@@3HA				; ps_r2_GI_photons
PUBLIC	?ps_r2_GI_depth@@3HA				; ps_r2_GI_depth
PUBLIC	?ps_r2_mblur@@3MA				; ps_r2_mblur
PUBLIC	?ps_r2_aa_kernel@@3MA				; ps_r2_aa_kernel
PUBLIC	?ps_r2_aa_weight@@3U?$_vector3@M@@A		; ps_r2_aa_weight
PUBLIC	?ps_r2_aa_barier@@3U?$_vector3@M@@A		; ps_r2_aa_barier
PUBLIC	?ps_r2_ls_bloom_threshold@@3MA			; ps_r2_ls_bloom_threshold
PUBLIC	?ps_r2_ls_ssm_kernel@@3MA			; ps_r2_ls_ssm_kernel
PUBLIC	?ps_r2_ls_psm_kernel@@3MA			; ps_r2_ls_psm_kernel
PUBLIC	?ps_r2_ls_dsm_kernel@@3MA			; ps_r2_ls_dsm_kernel
PUBLIC	?ps_r2_ls_bloom_kernel_scale@@3MA		; ps_r2_ls_bloom_kernel_scale
PUBLIC	?ps_r2_ls_bloom_speed@@3MA			; ps_r2_ls_bloom_speed
PUBLIC	?ps_r2_ls_bloom_kernel_b@@3MA			; ps_r2_ls_bloom_kernel_b
PUBLIC	?ps_r2_ls_bloom_kernel_g@@3MA			; ps_r2_ls_bloom_kernel_g
PUBLIC	?ps_r2_tonemap_amount@@3MA			; ps_r2_tonemap_amount
PUBLIC	?ps_r2_tonemap_low_lum@@3MA			; ps_r2_tonemap_low_lum
PUBLIC	?ps_r2_tonemap_adaptation@@3MA			; ps_r2_tonemap_adaptation
PUBLIC	?ps_r2_tonemap_middlegray@@3MA			; ps_r2_tonemap_middlegray
PUBLIC	?ps_r2_df_parallax_h@@3MA			; ps_r2_df_parallax_h
PUBLIC	?ps_r2_ls_flags_ext@@3U?$_flags@I@@A		; ps_r2_ls_flags_ext
PUBLIC	?ps_r2_pp_flags@@3U?$_flags@I@@A		; ps_r2_pp_flags
PUBLIC	?ps_r2_ls_flags@@3U?$_flags@I@@A		; ps_r2_ls_flags
PUBLIC	?ps_r2_tf_Mipbias@@3MA				; ps_r2_tf_Mipbias
PUBLIC	?ps_r2_ssaLOD_B@@3MA				; ps_r2_ssaLOD_B
PUBLIC	?ps_r2_ssaLOD_A@@3MA				; ps_r2_ssaLOD_A
PUBLIC	?ps_r1_GlowsPerFrame@@3HA			; ps_r1_GlowsPerFrame
PUBLIC	?ps_r1_pps_v@@3MA				; ps_r1_pps_v
PUBLIC	?ps_r1_pps_u@@3MA				; ps_r1_pps_u
PUBLIC	?ps_r1_dlights_clip@@3MA			; ps_r1_dlights_clip
PUBLIC	?ps_r1_lmodel_lerp@@3MA				; ps_r1_lmodel_lerp
PUBLIC	?ps_r1_tf_Mipbias@@3MA				; ps_r1_tf_Mipbias
PUBLIC	?ps_r1_ssaLOD_B@@3MA				; ps_r1_ssaLOD_B
PUBLIC	?ps_r1_ssaLOD_A@@3MA				; ps_r1_ssaLOD_A
PUBLIC	?ps_r__tf_Anisotropic@@3HA			; ps_r__tf_Anisotropic
PUBLIC	?ps_r__ssaHZBvsTEX@@3MA				; ps_r__ssaHZBvsTEX
PUBLIC	?ps_r__ssaDONTSORT@@3MA				; ps_r__ssaDONTSORT
PUBLIC	?ps_r__ssaDISCARD@@3MA				; ps_r__ssaDISCARD
PUBLIC	?ps_r__LOD@@3MA					; ps_r__LOD
PUBLIC	?ps_r__GLOD_ssa_end@@3MA			; ps_r__GLOD_ssa_end
PUBLIC	?ps_r__GLOD_ssa_start@@3MA			; ps_r__GLOD_ssa_start
PUBLIC	?dof_quality_token@@3PAUxr_token@@A		; dof_quality_token
PUBLIC	?ps_dof_quality@@3IA				; ps_dof_quality
PUBLIC	?qsun_shafts_token@@3PAUxr_token@@A		; qsun_shafts_token
PUBLIC	?ps_r_sun_shafts@@3IA				; ps_r_sun_shafts
PUBLIC	?terrain_bump_mode_token@@3PAUxr_token@@A	; terrain_bump_mode_token
PUBLIC	?ps_terrain_bump_mode@@3IA			; ps_terrain_bump_mode
PUBLIC	?tdetail_bump_mode_token@@3PAUxr_token@@A	; tdetail_bump_mode_token
PUBLIC	?ps_tdetail_bump_mode@@3IA			; ps_tdetail_bump_mode
PUBLIC	?bump_mode_token@@3PAUxr_token@@A		; bump_mode_token
PUBLIC	?ps_bump_mode@@3IA				; ps_bump_mode
PUBLIC	?ps_debug_textures_token@@3PAUxr_token@@A	; ps_debug_textures_token
PUBLIC	?ps_debug_textures@@3IA				; ps_debug_textures
PUBLIC	?debug_frame_layers_token@@3PAUxr_token@@A	; debug_frame_layers_token
PUBLIC	?ps_debug_frame_layers@@3IA			; ps_debug_frame_layers
PUBLIC	?shadow_filter_token@@3PAUxr_token@@A		; shadow_filter_token
PUBLIC	?ps_shadow_filtering@@3IA			; ps_shadow_filtering
PUBLIC	?sun_quality_token@@3PAUxr_token@@A		; sun_quality_token
PUBLIC	?ps_sun_quality@@3IA				; ps_sun_quality
PUBLIC	?ao_quality_token@@3PAUxr_token@@A		; ao_quality_token
PUBLIC	?ps_ao_quality@@3IA				; ps_ao_quality
PUBLIC	?ao_token@@3PAUxr_token@@A			; ao_token
PUBLIC	?ps_ao@@3IA					; ps_ao
PUBLIC	?aa_quality_token@@3PAUxr_token@@A		; aa_quality_token
PUBLIC	?ps_aa_quality@@3IA				; ps_aa_quality
PUBLIC	?aa_token@@3PAUxr_token@@A			; aa_token
PUBLIC	?ps_aa@@3IA					; ps_aa
PUBLIC	?qeffpreset_token@@3PAUxr_token@@A		; qeffpreset_token
PUBLIC	?ps_EffPreset@@3IA				; ps_EffPreset
PUBLIC	?qpreset_token@@3PAUxr_token@@A			; qpreset_token
PUBLIC	?ps_Preset@@3IA					; ps_Preset
PUBLIC	?ps_r__Tree_SBC@@3MA				; ps_r__Tree_SBC
PUBLIC	?ps_r__Tree_Wave@@3U?$_vector3@M@@A		; ps_r__Tree_Wave
PUBLIC	?ps_r__Tree_w_speed@@3MA			; ps_r__Tree_w_speed
PUBLIC	?ps_r__Tree_w_amp@@3MA				; ps_r__Tree_w_amp
PUBLIC	?ps_r__Tree_w_rot@@3MA				; ps_r__Tree_w_rot
PUBLIC	?ps_r2_slight_fade@@3MA				; ps_r2_slight_fade
PUBLIC	?ps_r2_lt_smooth@@3MA				; ps_r2_lt_smooth
PUBLIC	?ps_r2_dhemi_scale@@3MA				; ps_r2_dhemi_scale
PUBLIC	?ps_r2_dhemi_count@@3HA				; ps_r2_dhemi_count
PUBLIC	?ps_r2_sun_lumscale@@3MA			; ps_r2_sun_lumscale
PUBLIC	?ps_r1_flags@@3U?$_flags@I@@A			; ps_r1_flags
EXTRN	__imp_??0IConsole_Command@@QAE@PBD@Z:PROC
EXTRN	__imp_??1IConsole_Command@@UAE@XZ:PROC
EXTRN	__imp_?InvalidSyntax@IConsole_Command@@QAEXXZ:PROC
EXTRN	?Status@IConsole_Command@@UAEXAAY0BAA@D@Z:PROC	; IConsole_Command::Status
EXTRN	__imp_?Status@IConsole_Command@@UAEXAAY0BAA@D@Z:PROC
EXTRN	?Info@IConsole_Command@@UAEXAAY0BAA@D@Z:PROC	; IConsole_Command::Info
EXTRN	__imp_?Info@IConsole_Command@@UAEXAAY0BAA@D@Z:PROC
EXTRN	?Save@IConsole_Command@@UAEXPAVIWriter@@@Z:PROC	; IConsole_Command::Save
EXTRN	__imp_?Save@IConsole_Command@@UAEXPAVIWriter@@@Z:PROC
EXTRN	?fill_tips@IConsole_Command@@UAEXAAV?$xr_vector@Vshared_str@@V?$xalloc@Vshared_str@@@@@@I@Z:PROC ; IConsole_Command::fill_tips
EXTRN	__imp_?fill_tips@IConsole_Command@@UAEXAAV?$xr_vector@Vshared_str@@V?$xalloc@Vshared_str@@@@@@I@Z:PROC
EXTRN	__imp_??0CCC_Mask@@QAE@PBDPAU?$_flags@I@@I@Z:PROC
EXTRN	__imp_??1CCC_Mask@@UAE@XZ:PROC
EXTRN	__imp_??0CCC_Token@@QAE@PBDPAIPAUxr_token@@@Z:PROC
EXTRN	__imp_?Execute@CCC_Token@@UAEXPBD@Z:PROC
EXTRN	?Status@CCC_Token@@UAEXAAY0BAA@D@Z:PROC		; CCC_Token::Status
EXTRN	__imp_?Status@CCC_Token@@UAEXAAY0BAA@D@Z:PROC
EXTRN	?Info@CCC_Token@@UAEXAAY0BAA@D@Z:PROC		; CCC_Token::Info
EXTRN	__imp_?Info@CCC_Token@@UAEXAAY0BAA@D@Z:PROC
EXTRN	?GetToken@CCC_Token@@UAEPAUxr_token@@XZ:PROC	; CCC_Token::GetToken
EXTRN	__imp_?GetToken@CCC_Token@@UAEPAUxr_token@@XZ:PROC
EXTRN	?fill_tips@CCC_Token@@UAEXAAV?$xr_vector@Vshared_str@@V?$xalloc@Vshared_str@@@@@@I@Z:PROC ; CCC_Token::fill_tips
EXTRN	__imp_?fill_tips@CCC_Token@@UAEXAAV?$xr_vector@Vshared_str@@V?$xalloc@Vshared_str@@@@@@I@Z:PROC
EXTRN	__imp_??1CCC_Token@@UAE@XZ:PROC
EXTRN	__imp_??0CCC_Float@@QAE@PBDPAMMM@Z:PROC
EXTRN	__imp_?Execute@CCC_Float@@UAEXPBD@Z:PROC
EXTRN	?Status@CCC_Float@@UAEXAAY0BAA@D@Z:PROC		; CCC_Float::Status
EXTRN	__imp_?Status@CCC_Float@@UAEXAAY0BAA@D@Z:PROC
EXTRN	?Info@CCC_Float@@UAEXAAY0BAA@D@Z:PROC		; CCC_Float::Info
EXTRN	__imp_?Info@CCC_Float@@UAEXAAY0BAA@D@Z:PROC
EXTRN	?fill_tips@CCC_Float@@UAEXAAV?$xr_vector@Vshared_str@@V?$xalloc@Vshared_str@@@@@@I@Z:PROC ; CCC_Float::fill_tips
EXTRN	__imp_?fill_tips@CCC_Float@@UAEXAAV?$xr_vector@Vshared_str@@V?$xalloc@Vshared_str@@@@@@I@Z:PROC
EXTRN	__imp_??1CCC_Float@@UAE@XZ:PROC
EXTRN	__imp_??0CCC_Vector3@@QAE@PBDPAU?$_vector3@M@@U1@2@Z:PROC
EXTRN	__imp_?Execute@CCC_Vector3@@UAEXPBD@Z:PROC
EXTRN	?fill_tips@CCC_Vector3@@UAEXAAV?$xr_vector@Vshared_str@@V?$xalloc@Vshared_str@@@@@@I@Z:PROC ; CCC_Vector3::fill_tips
EXTRN	__imp_?fill_tips@CCC_Vector3@@UAEXAAV?$xr_vector@Vshared_str@@V?$xalloc@Vshared_str@@@@@@I@Z:PROC
EXTRN	__imp_??1CCC_Vector3@@UAE@XZ:PROC
EXTRN	__imp_??0CCC_Integer@@QAE@PBDPAHHH@Z:PROC
EXTRN	__imp_?Execute@CCC_Integer@@UAEXPBD@Z:PROC
EXTRN	__imp_?Status@CCC_Integer@@UAEXAAY0BAA@D@Z:PROC
EXTRN	?Info@CCC_Integer@@UAEXAAY0BAA@D@Z:PROC		; CCC_Integer::Info
EXTRN	__imp_?Info@CCC_Integer@@UAEXAAY0BAA@D@Z:PROC
EXTRN	?fill_tips@CCC_Integer@@UAEXAAV?$xr_vector@Vshared_str@@V?$xalloc@Vshared_str@@@@@@I@Z:PROC ; CCC_Integer::fill_tips
EXTRN	__imp_?fill_tips@CCC_Integer@@UAEXAAV?$xr_vector@Vshared_str@@V?$xalloc@Vshared_str@@@@@@I@Z:PROC
EXTRN	__imp_??1CCC_Integer@@UAE@XZ:PROC
EXTRN	?add_to_LRU@IConsole_Command@@UAEXABVshared_str@@@Z:PROC ; IConsole_Command::add_to_LRU
EXTRN	__imp_?add_to_LRU@IConsole_Command@@UAEXABVshared_str@@@Z:PROC
EXTRN	__imp_?AddCommand@CConsole@@QAEXPAVIConsole_Command@@@Z:PROC
EXTRN	__imp____stdio_common_vsprintf:PROC
EXTRN	__imp_?Execute@CConsole@@QAEXPBD@Z:PROC
EXTRN	__imp____stdio_common_vsscanf:PROC
EXTRN	__imp__atof:PROC
EXTRN	__imp_?Console@@3PAVCConsole@@A:DWORD
;	COMDAT ?_OptionsStorage@?1??__local_stdio_scanf_options@@9@4_KA
_BSS	SEGMENT
?_OptionsStorage@?1??__local_stdio_scanf_options@@9@4_KA DQ 01H DUP (?) ; `__local_stdio_scanf_options'::`2'::_OptionsStorage
?ps_r2_wait_sleep@@3HA DD 01H DUP (?)			; ps_r2_wait_sleep
?ps_r2_gmaterial@@3MA DD 01H DUP (?)			; ps_r2_gmaterial
?ps_r2_sun_depth_far_bias@@3MA DD 01H DUP (?)		; ps_r2_sun_depth_far_bias
?ps_r2_tf_Mipbias@@3MA DD 01H DUP (?)			; ps_r2_tf_Mipbias
?ps_r1_pps_v@@3MA DD 01H DUP (?)			; ps_r1_pps_v
?ps_r1_pps_u@@3MA DD 01H DUP (?)			; ps_r1_pps_u
?ps_r1_tf_Mipbias@@3MA DD 01H DUP (?)			; ps_r1_tf_Mipbias
?ps_debug_textures@@3IA DD 01H DUP (?)			; ps_debug_textures
?ps_debug_frame_layers@@3IA DD 01H DUP (?)		; ps_debug_frame_layers
_BSS	ENDS
;	COMDAT ??_C@_02LIELOMNJ@on@
CONST	SEGMENT
??_C@_02LIELOMNJ@on@ DB 'on', 00H			; `string'
CONST	ENDS
;	COMDAT ??_7CCC_tf_Aniso@@6B@
CONST	SEGMENT
??_7CCC_tf_Aniso@@6B@ DD FLAT:??_R4CCC_tf_Aniso@@6B@	; CCC_tf_Aniso::`vftable'
	DD	FLAT:??_ECCC_tf_Aniso@@UAEPAXI@Z
	DD	FLAT:?Execute@CCC_tf_Aniso@@UAEXPBD@Z
	DD	FLAT:?Status@CCC_tf_Aniso@@UAEXAAY0BAA@D@Z
	DD	FLAT:?Info@CCC_Integer@@UAEXAAY0BAA@D@Z
	DD	FLAT:?Save@IConsole_Command@@UAEXPAVIWriter@@@Z
	DD	FLAT:?fill_tips@CCC_Integer@@UAEXAAV?$xr_vector@Vshared_str@@V?$xalloc@Vshared_str@@@@@@I@Z
	DD	FLAT:?add_to_LRU@IConsole_Command@@UAEXABVshared_str@@@Z
CONST	ENDS
;	COMDAT ??_7CCC_tf_MipBias@@6B@
CONST	SEGMENT
??_7CCC_tf_MipBias@@6B@ DD FLAT:??_R4CCC_tf_MipBias@@6B@ ; CCC_tf_MipBias::`vftable'
	DD	FLAT:??_ECCC_tf_MipBias@@UAEPAXI@Z
	DD	FLAT:?Execute@CCC_tf_MipBias@@UAEXPBD@Z
	DD	FLAT:?Status@CCC_tf_MipBias@@UAEXAAY0BAA@D@Z
	DD	FLAT:?Info@CCC_Float@@UAEXAAY0BAA@D@Z
	DD	FLAT:?Save@IConsole_Command@@UAEXPAVIWriter@@@Z
	DD	FLAT:?fill_tips@CCC_Float@@UAEXAAV?$xr_vector@Vshared_str@@V?$xalloc@Vshared_str@@@@@@I@Z
	DD	FLAT:?add_to_LRU@IConsole_Command@@UAEXABVshared_str@@@Z
CONST	ENDS
;	COMDAT ??_7CCC_R2GM@@6B@
CONST	SEGMENT
??_7CCC_R2GM@@6B@ DD FLAT:??_R4CCC_R2GM@@6B@		; CCC_R2GM::`vftable'
	DD	FLAT:??_ECCC_R2GM@@UAEPAXI@Z
	DD	FLAT:?Execute@CCC_R2GM@@UAEXPBD@Z
	DD	FLAT:?Status@CCC_Float@@UAEXAAY0BAA@D@Z
	DD	FLAT:?Info@CCC_Float@@UAEXAAY0BAA@D@Z
	DD	FLAT:?Save@IConsole_Command@@UAEXPAVIWriter@@@Z
	DD	FLAT:?fill_tips@CCC_Float@@UAEXAAV?$xr_vector@Vshared_str@@V?$xalloc@Vshared_str@@@@@@I@Z
	DD	FLAT:?add_to_LRU@IConsole_Command@@UAEXABVshared_str@@@Z
CONST	ENDS
;	COMDAT ?name@?O@??Execute@CCC_R2GM@@UAEXPBD@Z@4PAPBDA
CONST	SEGMENT
?name@?O@??Execute@CCC_R2GM@@UAEXPBD@Z@4PAPBDA DD FLAT:??_C@_04FGOLMPIL@oren@ ; `CCC_R2GM::Execute'::`14'::name
	DD	FLAT:??_C@_04BHKHNCPC@blin@
	DD	FLAT:??_C@_05OHONJDAO@phong@
	DD	FLAT:??_C@_05MPIFAIJC@metal@
CONST	ENDS
;	COMDAT ??_7CCC_Screenshot@@6B@
CONST	SEGMENT
??_7CCC_Screenshot@@6B@ DD FLAT:??_R4CCC_Screenshot@@6B@ ; CCC_Screenshot::`vftable'
	DD	FLAT:??_ECCC_Screenshot@@UAEPAXI@Z
	DD	FLAT:?Execute@CCC_Screenshot@@UAEXPBD@Z
	DD	FLAT:?Status@IConsole_Command@@UAEXAAY0BAA@D@Z
	DD	FLAT:?Info@IConsole_Command@@UAEXAAY0BAA@D@Z
	DD	FLAT:?Save@IConsole_Command@@UAEXPAVIWriter@@@Z
	DD	FLAT:?fill_tips@IConsole_Command@@UAEXAAV?$xr_vector@Vshared_str@@V?$xalloc@Vshared_str@@@@@@I@Z
	DD	FLAT:?add_to_LRU@IConsole_Command@@UAEXABVshared_str@@@Z
CONST	ENDS
;	COMDAT ??_7CCC_Preset@@6B@
CONST	SEGMENT
??_7CCC_Preset@@6B@ DD FLAT:??_R4CCC_Preset@@6B@	; CCC_Preset::`vftable'
	DD	FLAT:??_ECCC_Preset@@UAEPAXI@Z
	DD	FLAT:?Execute@CCC_Preset@@UAEXPBD@Z
	DD	FLAT:?Status@CCC_Token@@UAEXAAY0BAA@D@Z
	DD	FLAT:?Info@CCC_Token@@UAEXAAY0BAA@D@Z
	DD	FLAT:?Save@IConsole_Command@@UAEXPAVIWriter@@@Z
	DD	FLAT:?fill_tips@CCC_Token@@UAEXAAV?$xr_vector@Vshared_str@@V?$xalloc@Vshared_str@@@@@@I@Z
	DD	FLAT:?add_to_LRU@IConsole_Command@@UAEXABVshared_str@@@Z
	DD	FLAT:?GetToken@CCC_Token@@UAEPAUxr_token@@XZ
CONST	ENDS
;	COMDAT ??_7CCC_EffPreset@@6B@
CONST	SEGMENT
??_7CCC_EffPreset@@6B@ DD FLAT:??_R4CCC_EffPreset@@6B@	; CCC_EffPreset::`vftable'
	DD	FLAT:??_ECCC_EffPreset@@UAEPAXI@Z
	DD	FLAT:?Execute@CCC_EffPreset@@UAEXPBD@Z
	DD	FLAT:?Status@CCC_Token@@UAEXAAY0BAA@D@Z
	DD	FLAT:?Info@CCC_Token@@UAEXAAY0BAA@D@Z
	DD	FLAT:?Save@IConsole_Command@@UAEXPAVIWriter@@@Z
	DD	FLAT:?fill_tips@CCC_Token@@UAEXAAV?$xr_vector@Vshared_str@@V?$xalloc@Vshared_str@@@@@@I@Z
	DD	FLAT:?add_to_LRU@IConsole_Command@@UAEXABVshared_str@@@Z
	DD	FLAT:?GetToken@CCC_Token@@UAEPAUxr_token@@XZ
CONST	ENDS
;	COMDAT ??_7CCC_DofFar@@6B@
CONST	SEGMENT
??_7CCC_DofFar@@6B@ DD FLAT:??_R4CCC_DofFar@@6B@	; CCC_DofFar::`vftable'
	DD	FLAT:??_ECCC_DofFar@@UAEPAXI@Z
	DD	FLAT:?Execute@CCC_DofFar@@UAEXPBD@Z
	DD	FLAT:?Status@CCC_Float@@UAEXAAY0BAA@D@Z
	DD	FLAT:?Info@CCC_Float@@UAEXAAY0BAA@D@Z
	DD	FLAT:?Save@CCC_DofFar@@UAEXPAVIWriter@@@Z
	DD	FLAT:?fill_tips@CCC_Float@@UAEXAAV?$xr_vector@Vshared_str@@V?$xalloc@Vshared_str@@@@@@I@Z
	DD	FLAT:?add_to_LRU@IConsole_Command@@UAEXABVshared_str@@@Z
CONST	ENDS
;	COMDAT ??_7CCC_DofNear@@6B@
CONST	SEGMENT
??_7CCC_DofNear@@6B@ DD FLAT:??_R4CCC_DofNear@@6B@	; CCC_DofNear::`vftable'
	DD	FLAT:??_ECCC_DofNear@@UAEPAXI@Z
	DD	FLAT:?Execute@CCC_DofNear@@UAEXPBD@Z
	DD	FLAT:?Status@CCC_Float@@UAEXAAY0BAA@D@Z
	DD	FLAT:?Info@CCC_Float@@UAEXAAY0BAA@D@Z
	DD	FLAT:?Save@CCC_DofNear@@UAEXPAVIWriter@@@Z
	DD	FLAT:?fill_tips@CCC_Float@@UAEXAAV?$xr_vector@Vshared_str@@V?$xalloc@Vshared_str@@@@@@I@Z
	DD	FLAT:?add_to_LRU@IConsole_Command@@UAEXABVshared_str@@@Z
CONST	ENDS
;	COMDAT ??_7CCC_DofFocus@@6B@
CONST	SEGMENT
??_7CCC_DofFocus@@6B@ DD FLAT:??_R4CCC_DofFocus@@6B@	; CCC_DofFocus::`vftable'
	DD	FLAT:??_ECCC_DofFocus@@UAEPAXI@Z
	DD	FLAT:?Execute@CCC_DofFocus@@UAEXPBD@Z
	DD	FLAT:?Status@CCC_Float@@UAEXAAY0BAA@D@Z
	DD	FLAT:?Info@CCC_Float@@UAEXAAY0BAA@D@Z
	DD	FLAT:?Save@CCC_DofFocus@@UAEXPAVIWriter@@@Z
	DD	FLAT:?fill_tips@CCC_Float@@UAEXAAV?$xr_vector@Vshared_str@@V?$xalloc@Vshared_str@@@@@@I@Z
	DD	FLAT:?add_to_LRU@IConsole_Command@@UAEXABVshared_str@@@Z
CONST	ENDS
;	COMDAT ??_7CCC_Dof@@6B@
CONST	SEGMENT
??_7CCC_Dof@@6B@ DD FLAT:??_R4CCC_Dof@@6B@		; CCC_Dof::`vftable'
	DD	FLAT:??_ECCC_Dof@@UAEPAXI@Z
	DD	FLAT:?Execute@CCC_Dof@@UAEXPBD@Z
	DD	FLAT:?Status@CCC_Dof@@UAEXAAY0BAA@D@Z
	DD	FLAT:?Info@CCC_Dof@@UAEXAAY0BAA@D@Z
	DD	FLAT:?Save@IConsole_Command@@UAEXPAVIWriter@@@Z
	DD	FLAT:?fill_tips@CCC_Vector3@@UAEXAAV?$xr_vector@Vshared_str@@V?$xalloc@Vshared_str@@@@@@I@Z
	DD	FLAT:?add_to_LRU@IConsole_Command@@UAEXABVshared_str@@@Z
CONST	ENDS
;	COMDAT ??_R4CCC_tf_Aniso@@6B@
rdata$r	SEGMENT
??_R4CCC_tf_Aniso@@6B@ DD 00H				; CCC_tf_Aniso::`RTTI Complete Object Locator'
	DD	00H
	DD	00H
	DD	FLAT:??_R0?AVCCC_tf_Aniso@@@8
	DD	FLAT:??_R3CCC_tf_Aniso@@8
rdata$r	ENDS
;	COMDAT ??_R4CCC_tf_MipBias@@6B@
rdata$r	SEGMENT
??_R4CCC_tf_MipBias@@6B@ DD 00H				; CCC_tf_MipBias::`RTTI Complete Object Locator'
	DD	00H
	DD	00H
	DD	FLAT:??_R0?AVCCC_tf_MipBias@@@8
	DD	FLAT:??_R3CCC_tf_MipBias@@8
rdata$r	ENDS
;	COMDAT ??_R4CCC_R2GM@@6B@
rdata$r	SEGMENT
??_R4CCC_R2GM@@6B@ DD 00H				; CCC_R2GM::`RTTI Complete Object Locator'
	DD	00H
	DD	00H
	DD	FLAT:??_R0?AVCCC_R2GM@@@8
	DD	FLAT:??_R3CCC_R2GM@@8
rdata$r	ENDS
;	COMDAT ??_R4CCC_Screenshot@@6B@
rdata$r	SEGMENT
??_R4CCC_Screenshot@@6B@ DD 00H				; CCC_Screenshot::`RTTI Complete Object Locator'
	DD	00H
	DD	00H
	DD	FLAT:??_R0?AVCCC_Screenshot@@@8
	DD	FLAT:??_R3CCC_Screenshot@@8
rdata$r	ENDS
;	COMDAT ??_R4CCC_Preset@@6B@
rdata$r	SEGMENT
??_R4CCC_Preset@@6B@ DD 00H				; CCC_Preset::`RTTI Complete Object Locator'
	DD	00H
	DD	00H
	DD	FLAT:??_R0?AVCCC_Preset@@@8
	DD	FLAT:??_R3CCC_Preset@@8
rdata$r	ENDS
;	COMDAT ??_R4CCC_EffPreset@@6B@
rdata$r	SEGMENT
??_R4CCC_EffPreset@@6B@ DD 00H				; CCC_EffPreset::`RTTI Complete Object Locator'
	DD	00H
	DD	00H
	DD	FLAT:??_R0?AVCCC_EffPreset@@@8
	DD	FLAT:??_R3CCC_EffPreset@@8
rdata$r	ENDS
;	COMDAT ??_R4CCC_DofFar@@6B@
rdata$r	SEGMENT
??_R4CCC_DofFar@@6B@ DD 00H				; CCC_DofFar::`RTTI Complete Object Locator'
	DD	00H
	DD	00H
	DD	FLAT:??_R0?AVCCC_DofFar@@@8
	DD	FLAT:??_R3CCC_DofFar@@8
rdata$r	ENDS
;	COMDAT ??_R4CCC_DofNear@@6B@
rdata$r	SEGMENT
??_R4CCC_DofNear@@6B@ DD 00H				; CCC_DofNear::`RTTI Complete Object Locator'
	DD	00H
	DD	00H
	DD	FLAT:??_R0?AVCCC_DofNear@@@8
	DD	FLAT:??_R3CCC_DofNear@@8
rdata$r	ENDS
;	COMDAT ??_R4CCC_DofFocus@@6B@
rdata$r	SEGMENT
??_R4CCC_DofFocus@@6B@ DD 00H				; CCC_DofFocus::`RTTI Complete Object Locator'
	DD	00H
	DD	00H
	DD	FLAT:??_R0?AVCCC_DofFocus@@@8
	DD	FLAT:??_R3CCC_DofFocus@@8
rdata$r	ENDS
;	COMDAT ??_R4CCC_Dof@@6B@
rdata$r	SEGMENT
??_R4CCC_Dof@@6B@ DD 00H				; CCC_Dof::`RTTI Complete Object Locator'
	DD	00H
	DD	00H
	DD	FLAT:??_R0?AVCCC_Dof@@@8
	DD	FLAT:??_R3CCC_Dof@@8
rdata$r	ENDS
;	COMDAT ??_R0?AVCCC_tf_Aniso@@@8
data$rs	SEGMENT
??_R0?AVCCC_tf_Aniso@@@8 DD FLAT:??_7type_info@@6B@	; CCC_tf_Aniso `RTTI Type Descriptor'
	DD	00H
	DB	'.?AVCCC_tf_Aniso@@', 00H
data$rs	ENDS
;	COMDAT ??_R3CCC_tf_Aniso@@8
rdata$r	SEGMENT
??_R3CCC_tf_Aniso@@8 DD 00H				; CCC_tf_Aniso::`RTTI Class Hierarchy Descriptor'
	DD	00H
	DD	03H
	DD	FLAT:??_R2CCC_tf_Aniso@@8
rdata$r	ENDS
;	COMDAT ??_R0?AVIConsole_Command@@@8
data$rs	SEGMENT
??_R0?AVIConsole_Command@@@8 DD FLAT:??_7type_info@@6B@	; IConsole_Command `RTTI Type Descriptor'
	DD	00H
	DB	'.?AVIConsole_Command@@', 00H
data$rs	ENDS
;	COMDAT ??_R3IConsole_Command@@8
rdata$r	SEGMENT
??_R3IConsole_Command@@8 DD 00H				; IConsole_Command::`RTTI Class Hierarchy Descriptor'
	DD	00H
	DD	01H
	DD	FLAT:??_R2IConsole_Command@@8
rdata$r	ENDS
;	COMDAT ??_R0?AVCCC_Integer@@@8
data$rs	SEGMENT
??_R0?AVCCC_Integer@@@8 DD FLAT:??_7type_info@@6B@	; CCC_Integer `RTTI Type Descriptor'
	DD	00H
	DB	'.?AVCCC_Integer@@', 00H
data$rs	ENDS
;	COMDAT ??_R3CCC_Integer@@8
rdata$r	SEGMENT
??_R3CCC_Integer@@8 DD 00H				; CCC_Integer::`RTTI Class Hierarchy Descriptor'
	DD	00H
	DD	02H
	DD	FLAT:??_R2CCC_Integer@@8
rdata$r	ENDS
;	COMDAT ??_R0?AVCCC_tf_MipBias@@@8
data$rs	SEGMENT
??_R0?AVCCC_tf_MipBias@@@8 DD FLAT:??_7type_info@@6B@	; CCC_tf_MipBias `RTTI Type Descriptor'
	DD	00H
	DB	'.?AVCCC_tf_MipBias@@', 00H
data$rs	ENDS
;	COMDAT ??_R3CCC_tf_MipBias@@8
rdata$r	SEGMENT
??_R3CCC_tf_MipBias@@8 DD 00H				; CCC_tf_MipBias::`RTTI Class Hierarchy Descriptor'
	DD	00H
	DD	03H
	DD	FLAT:??_R2CCC_tf_MipBias@@8
rdata$r	ENDS
;	COMDAT ??_R0?AVCCC_Float@@@8
data$rs	SEGMENT
??_R0?AVCCC_Float@@@8 DD FLAT:??_7type_info@@6B@	; CCC_Float `RTTI Type Descriptor'
	DD	00H
	DB	'.?AVCCC_Float@@', 00H
data$rs	ENDS
;	COMDAT ??_R3CCC_Float@@8
rdata$r	SEGMENT
??_R3CCC_Float@@8 DD 00H				; CCC_Float::`RTTI Class Hierarchy Descriptor'
	DD	00H
	DD	02H
	DD	FLAT:??_R2CCC_Float@@8
rdata$r	ENDS
;	COMDAT ??_R0?AVCCC_R2GM@@@8
data$rs	SEGMENT
??_R0?AVCCC_R2GM@@@8 DD FLAT:??_7type_info@@6B@		; CCC_R2GM `RTTI Type Descriptor'
	DD	00H
	DB	'.?AVCCC_R2GM@@', 00H
data$rs	ENDS
;	COMDAT ??_R3CCC_R2GM@@8
rdata$r	SEGMENT
??_R3CCC_R2GM@@8 DD 00H					; CCC_R2GM::`RTTI Class Hierarchy Descriptor'
	DD	00H
	DD	03H
	DD	FLAT:??_R2CCC_R2GM@@8
rdata$r	ENDS
;	COMDAT ??_R0?AVCCC_Screenshot@@@8
data$rs	SEGMENT
??_R0?AVCCC_Screenshot@@@8 DD FLAT:??_7type_info@@6B@	; CCC_Screenshot `RTTI Type Descriptor'
	DD	00H
	DB	'.?AVCCC_Screenshot@@', 00H
data$rs	ENDS
;	COMDAT ??_R3CCC_Screenshot@@8
rdata$r	SEGMENT
??_R3CCC_Screenshot@@8 DD 00H				; CCC_Screenshot::`RTTI Class Hierarchy Descriptor'
	DD	00H
	DD	02H
	DD	FLAT:??_R2CCC_Screenshot@@8
rdata$r	ENDS
;	COMDAT ??_R0?AVCCC_Preset@@@8
data$rs	SEGMENT
??_R0?AVCCC_Preset@@@8 DD FLAT:??_7type_info@@6B@	; CCC_Preset `RTTI Type Descriptor'
	DD	00H
	DB	'.?AVCCC_Preset@@', 00H
data$rs	ENDS
;	COMDAT ??_R3CCC_Preset@@8
rdata$r	SEGMENT
??_R3CCC_Preset@@8 DD 00H				; CCC_Preset::`RTTI Class Hierarchy Descriptor'
	DD	00H
	DD	03H
	DD	FLAT:??_R2CCC_Preset@@8
rdata$r	ENDS
;	COMDAT ??_R0?AVCCC_Token@@@8
data$rs	SEGMENT
??_R0?AVCCC_Token@@@8 DD FLAT:??_7type_info@@6B@	; CCC_Token `RTTI Type Descriptor'
	DD	00H
	DB	'.?AVCCC_Token@@', 00H
data$rs	ENDS
;	COMDAT ??_R3CCC_Token@@8
rdata$r	SEGMENT
??_R3CCC_Token@@8 DD 00H				; CCC_Token::`RTTI Class Hierarchy Descriptor'
	DD	00H
	DD	02H
	DD	FLAT:??_R2CCC_Token@@8
rdata$r	ENDS
;	COMDAT ??_R0?AVCCC_EffPreset@@@8
data$rs	SEGMENT
??_R0?AVCCC_EffPreset@@@8 DD FLAT:??_7type_info@@6B@	; CCC_EffPreset `RTTI Type Descriptor'
	DD	00H
	DB	'.?AVCCC_EffPreset@@', 00H
data$rs	ENDS
;	COMDAT ??_R3CCC_EffPreset@@8
rdata$r	SEGMENT
??_R3CCC_EffPreset@@8 DD 00H				; CCC_EffPreset::`RTTI Class Hierarchy Descriptor'
	DD	00H
	DD	03H
	DD	FLAT:??_R2CCC_EffPreset@@8
rdata$r	ENDS
;	COMDAT ??_R0?AVCCC_DofFar@@@8
data$rs	SEGMENT
??_R0?AVCCC_DofFar@@@8 DD FLAT:??_7type_info@@6B@	; CCC_DofFar `RTTI Type Descriptor'
	DD	00H
	DB	'.?AVCCC_DofFar@@', 00H
data$rs	ENDS
;	COMDAT ??_R3CCC_DofFar@@8
rdata$r	SEGMENT
??_R3CCC_DofFar@@8 DD 00H				; CCC_DofFar::`RTTI Class Hierarchy Descriptor'
	DD	00H
	DD	03H
	DD	FLAT:??_R2CCC_DofFar@@8
rdata$r	ENDS
;	COMDAT ??_R0?AVCCC_DofNear@@@8
data$rs	SEGMENT
??_R0?AVCCC_DofNear@@@8 DD FLAT:??_7type_info@@6B@	; CCC_DofNear `RTTI Type Descriptor'
	DD	00H
	DB	'.?AVCCC_DofNear@@', 00H
data$rs	ENDS
;	COMDAT ??_R3CCC_DofNear@@8
rdata$r	SEGMENT
??_R3CCC_DofNear@@8 DD 00H				; CCC_DofNear::`RTTI Class Hierarchy Descriptor'
	DD	00H
	DD	03H
	DD	FLAT:??_R2CCC_DofNear@@8
rdata$r	ENDS
;	COMDAT ??_R0?AVCCC_DofFocus@@@8
data$rs	SEGMENT
??_R0?AVCCC_DofFocus@@@8 DD FLAT:??_7type_info@@6B@	; CCC_DofFocus `RTTI Type Descriptor'
	DD	00H
	DB	'.?AVCCC_DofFocus@@', 00H
data$rs	ENDS
;	COMDAT ??_R3CCC_DofFocus@@8
rdata$r	SEGMENT
??_R3CCC_DofFocus@@8 DD 00H				; CCC_DofFocus::`RTTI Class Hierarchy Descriptor'
	DD	00H
	DD	03H
	DD	FLAT:??_R2CCC_DofFocus@@8
rdata$r	ENDS
;	COMDAT ??_R0?AVCCC_Dof@@@8
data$rs	SEGMENT
??_R0?AVCCC_Dof@@@8 DD FLAT:??_7type_info@@6B@		; CCC_Dof `RTTI Type Descriptor'
	DD	00H
	DB	'.?AVCCC_Dof@@', 00H
data$rs	ENDS
;	COMDAT ??_R3CCC_Dof@@8
rdata$r	SEGMENT
??_R3CCC_Dof@@8 DD 00H					; CCC_Dof::`RTTI Class Hierarchy Descriptor'
	DD	00H
	DD	03H
	DD	FLAT:??_R2CCC_Dof@@8
rdata$r	ENDS
;	COMDAT ??_R0?AVCCC_Vector3@@@8
data$rs	SEGMENT
??_R0?AVCCC_Vector3@@@8 DD FLAT:??_7type_info@@6B@	; CCC_Vector3 `RTTI Type Descriptor'
	DD	00H
	DB	'.?AVCCC_Vector3@@', 00H
data$rs	ENDS
;	COMDAT ??_R3CCC_Vector3@@8
rdata$r	SEGMENT
??_R3CCC_Vector3@@8 DD 00H				; CCC_Vector3::`RTTI Class Hierarchy Descriptor'
	DD	00H
	DD	02H
	DD	FLAT:??_R2CCC_Vector3@@8
rdata$r	ENDS
;	COMDAT ??_R1A@?0A@EA@IConsole_Command@@8
rdata$r	SEGMENT
??_R1A@?0A@EA@IConsole_Command@@8 DD FLAT:??_R0?AVIConsole_Command@@@8 ; IConsole_Command::`RTTI Base Class Descriptor at (0,-1,0,64)'
	DD	00H
	DD	00H
	DD	0ffffffffH
	DD	00H
	DD	040H
	DD	FLAT:??_R3IConsole_Command@@8
rdata$r	ENDS
;	COMDAT ??_R1A@?0A@EA@CCC_Integer@@8
rdata$r	SEGMENT
??_R1A@?0A@EA@CCC_Integer@@8 DD FLAT:??_R0?AVCCC_Integer@@@8 ; CCC_Integer::`RTTI Base Class Descriptor at (0,-1,0,64)'
	DD	01H
	DD	00H
	DD	0ffffffffH
	DD	00H
	DD	040H
	DD	FLAT:??_R3CCC_Integer@@8
rdata$r	ENDS
;	COMDAT ??_R1A@?0A@EA@CCC_tf_Aniso@@8
rdata$r	SEGMENT
??_R1A@?0A@EA@CCC_tf_Aniso@@8 DD FLAT:??_R0?AVCCC_tf_Aniso@@@8 ; CCC_tf_Aniso::`RTTI Base Class Descriptor at (0,-1,0,64)'
	DD	02H
	DD	00H
	DD	0ffffffffH
	DD	00H
	DD	040H
	DD	FLAT:??_R3CCC_tf_Aniso@@8
rdata$r	ENDS
;	COMDAT ??_R1A@?0A@EA@CCC_Float@@8
rdata$r	SEGMENT
??_R1A@?0A@EA@CCC_Float@@8 DD FLAT:??_R0?AVCCC_Float@@@8 ; CCC_Float::`RTTI Base Class Descriptor at (0,-1,0,64)'
	DD	01H
	DD	00H
	DD	0ffffffffH
	DD	00H
	DD	040H
	DD	FLAT:??_R3CCC_Float@@8
rdata$r	ENDS
;	COMDAT ??_R1A@?0A@EA@CCC_tf_MipBias@@8
rdata$r	SEGMENT
??_R1A@?0A@EA@CCC_tf_MipBias@@8 DD FLAT:??_R0?AVCCC_tf_MipBias@@@8 ; CCC_tf_MipBias::`RTTI Base Class Descriptor at (0,-1,0,64)'
	DD	02H
	DD	00H
	DD	0ffffffffH
	DD	00H
	DD	040H
	DD	FLAT:??_R3CCC_tf_MipBias@@8
rdata$r	ENDS
;	COMDAT ??_R1A@?0A@EA@CCC_R2GM@@8
rdata$r	SEGMENT
??_R1A@?0A@EA@CCC_R2GM@@8 DD FLAT:??_R0?AVCCC_R2GM@@@8	; CCC_R2GM::`RTTI Base Class Descriptor at (0,-1,0,64)'
	DD	02H
	DD	00H
	DD	0ffffffffH
	DD	00H
	DD	040H
	DD	FLAT:??_R3CCC_R2GM@@8
rdata$r	ENDS
;	COMDAT ??_R1A@?0A@EA@CCC_Screenshot@@8
rdata$r	SEGMENT
??_R1A@?0A@EA@CCC_Screenshot@@8 DD FLAT:??_R0?AVCCC_Screenshot@@@8 ; CCC_Screenshot::`RTTI Base Class Descriptor at (0,-1,0,64)'
	DD	01H
	DD	00H
	DD	0ffffffffH
	DD	00H
	DD	040H
	DD	FLAT:??_R3CCC_Screenshot@@8
rdata$r	ENDS
;	COMDAT ??_R1A@?0A@EA@CCC_Token@@8
rdata$r	SEGMENT
??_R1A@?0A@EA@CCC_Token@@8 DD FLAT:??_R0?AVCCC_Token@@@8 ; CCC_Token::`RTTI Base Class Descriptor at (0,-1,0,64)'
	DD	01H
	DD	00H
	DD	0ffffffffH
	DD	00H
	DD	040H
	DD	FLAT:??_R3CCC_Token@@8
rdata$r	ENDS
;	COMDAT ??_R1A@?0A@EA@CCC_Preset@@8
rdata$r	SEGMENT
??_R1A@?0A@EA@CCC_Preset@@8 DD FLAT:??_R0?AVCCC_Preset@@@8 ; CCC_Preset::`RTTI Base Class Descriptor at (0,-1,0,64)'
	DD	02H
	DD	00H
	DD	0ffffffffH
	DD	00H
	DD	040H
	DD	FLAT:??_R3CCC_Preset@@8
rdata$r	ENDS
;	COMDAT ??_R1A@?0A@EA@CCC_EffPreset@@8
rdata$r	SEGMENT
??_R1A@?0A@EA@CCC_EffPreset@@8 DD FLAT:??_R0?AVCCC_EffPreset@@@8 ; CCC_EffPreset::`RTTI Base Class Descriptor at (0,-1,0,64)'
	DD	02H
	DD	00H
	DD	0ffffffffH
	DD	00H
	DD	040H
	DD	FLAT:??_R3CCC_EffPreset@@8
rdata$r	ENDS
;	COMDAT ??_R1A@?0A@EA@CCC_DofFar@@8
rdata$r	SEGMENT
??_R1A@?0A@EA@CCC_DofFar@@8 DD FLAT:??_R0?AVCCC_DofFar@@@8 ; CCC_DofFar::`RTTI Base Class Descriptor at (0,-1,0,64)'
	DD	02H
	DD	00H
	DD	0ffffffffH
	DD	00H
	DD	040H
	DD	FLAT:??_R3CCC_DofFar@@8
rdata$r	ENDS
;	COMDAT ??_R1A@?0A@EA@CCC_DofNear@@8
rdata$r	SEGMENT
??_R1A@?0A@EA@CCC_DofNear@@8 DD FLAT:??_R0?AVCCC_DofNear@@@8 ; CCC_DofNear::`RTTI Base Class Descriptor at (0,-1,0,64)'
	DD	02H
	DD	00H
	DD	0ffffffffH
	DD	00H
	DD	040H
	DD	FLAT:??_R3CCC_DofNear@@8
rdata$r	ENDS
;	COMDAT ??_R1A@?0A@EA@CCC_DofFocus@@8
rdata$r	SEGMENT
??_R1A@?0A@EA@CCC_DofFocus@@8 DD FLAT:??_R0?AVCCC_DofFocus@@@8 ; CCC_DofFocus::`RTTI Base Class Descriptor at (0,-1,0,64)'
	DD	02H
	DD	00H
	DD	0ffffffffH
	DD	00H
	DD	040H
	DD	FLAT:??_R3CCC_DofFocus@@8
rdata$r	ENDS
;	COMDAT ??_R1A@?0A@EA@CCC_Vector3@@8
rdata$r	SEGMENT
??_R1A@?0A@EA@CCC_Vector3@@8 DD FLAT:??_R0?AVCCC_Vector3@@@8 ; CCC_Vector3::`RTTI Base Class Descriptor at (0,-1,0,64)'
	DD	01H
	DD	00H
	DD	0ffffffffH
	DD	00H
	DD	040H
	DD	FLAT:??_R3CCC_Vector3@@8
rdata$r	ENDS
;	COMDAT ??_R1A@?0A@EA@CCC_Dof@@8
rdata$r	SEGMENT
??_R1A@?0A@EA@CCC_Dof@@8 DD FLAT:??_R0?AVCCC_Dof@@@8	; CCC_Dof::`RTTI Base Class Descriptor at (0,-1,0,64)'
	DD	02H
	DD	00H
	DD	0ffffffffH
	DD	00H
	DD	040H
	DD	FLAT:??_R3CCC_Dof@@8
rdata$r	ENDS
;	COMDAT ??_R2IConsole_Command@@8
rdata$r	SEGMENT
??_R2IConsole_Command@@8 DD FLAT:??_R1A@?0A@EA@IConsole_Command@@8 ; IConsole_Command::`RTTI Base Class Array'
rdata$r	ENDS
;	COMDAT ??_R2CCC_Integer@@8
rdata$r	SEGMENT
??_R2CCC_Integer@@8 DD FLAT:??_R1A@?0A@EA@CCC_Integer@@8 ; CCC_Integer::`RTTI Base Class Array'
	DD	FLAT:??_R1A@?0A@EA@IConsole_Command@@8
rdata$r	ENDS
;	COMDAT ??_R2CCC_tf_Aniso@@8
rdata$r	SEGMENT
??_R2CCC_tf_Aniso@@8 DD FLAT:??_R1A@?0A@EA@CCC_tf_Aniso@@8 ; CCC_tf_Aniso::`RTTI Base Class Array'
	DD	FLAT:??_R1A@?0A@EA@CCC_Integer@@8
	DD	FLAT:??_R1A@?0A@EA@IConsole_Command@@8
rdata$r	ENDS
;	COMDAT ??_R2CCC_Float@@8
rdata$r	SEGMENT
??_R2CCC_Float@@8 DD FLAT:??_R1A@?0A@EA@CCC_Float@@8	; CCC_Float::`RTTI Base Class Array'
	DD	FLAT:??_R1A@?0A@EA@IConsole_Command@@8
rdata$r	ENDS
;	COMDAT ??_R2CCC_tf_MipBias@@8
rdata$r	SEGMENT
??_R2CCC_tf_MipBias@@8 DD FLAT:??_R1A@?0A@EA@CCC_tf_MipBias@@8 ; CCC_tf_MipBias::`RTTI Base Class Array'
	DD	FLAT:??_R1A@?0A@EA@CCC_Float@@8
	DD	FLAT:??_R1A@?0A@EA@IConsole_Command@@8
rdata$r	ENDS
;	COMDAT ??_R2CCC_R2GM@@8
rdata$r	SEGMENT
??_R2CCC_R2GM@@8 DD FLAT:??_R1A@?0A@EA@CCC_R2GM@@8	; CCC_R2GM::`RTTI Base Class Array'
	DD	FLAT:??_R1A@?0A@EA@CCC_Float@@8
	DD	FLAT:??_R1A@?0A@EA@IConsole_Command@@8
rdata$r	ENDS
;	COMDAT ??_R2CCC_Screenshot@@8
rdata$r	SEGMENT
??_R2CCC_Screenshot@@8 DD FLAT:??_R1A@?0A@EA@CCC_Screenshot@@8 ; CCC_Screenshot::`RTTI Base Class Array'
	DD	FLAT:??_R1A@?0A@EA@IConsole_Command@@8
rdata$r	ENDS
;	COMDAT ??_R2CCC_Token@@8
rdata$r	SEGMENT
??_R2CCC_Token@@8 DD FLAT:??_R1A@?0A@EA@CCC_Token@@8	; CCC_Token::`RTTI Base Class Array'
	DD	FLAT:??_R1A@?0A@EA@IConsole_Command@@8
rdata$r	ENDS
;	COMDAT ??_R2CCC_Preset@@8
rdata$r	SEGMENT
??_R2CCC_Preset@@8 DD FLAT:??_R1A@?0A@EA@CCC_Preset@@8	; CCC_Preset::`RTTI Base Class Array'
	DD	FLAT:??_R1A@?0A@EA@CCC_Token@@8
	DD	FLAT:??_R1A@?0A@EA@IConsole_Command@@8
rdata$r	ENDS
;	COMDAT ??_R2CCC_EffPreset@@8
rdata$r	SEGMENT
??_R2CCC_EffPreset@@8 DD FLAT:??_R1A@?0A@EA@CCC_EffPreset@@8 ; CCC_EffPreset::`RTTI Base Class Array'
	DD	FLAT:??_R1A@?0A@EA@CCC_Token@@8
	DD	FLAT:??_R1A@?0A@EA@IConsole_Command@@8
rdata$r	ENDS
;	COMDAT ??_R2CCC_DofFar@@8
rdata$r	SEGMENT
??_R2CCC_DofFar@@8 DD FLAT:??_R1A@?0A@EA@CCC_DofFar@@8	; CCC_DofFar::`RTTI Base Class Array'
	DD	FLAT:??_R1A@?0A@EA@CCC_Float@@8
	DD	FLAT:??_R1A@?0A@EA@IConsole_Command@@8
rdata$r	ENDS
;	COMDAT ??_R2CCC_DofNear@@8
rdata$r	SEGMENT
??_R2CCC_DofNear@@8 DD FLAT:??_R1A@?0A@EA@CCC_DofNear@@8 ; CCC_DofNear::`RTTI Base Class Array'
	DD	FLAT:??_R1A@?0A@EA@CCC_Float@@8
	DD	FLAT:??_R1A@?0A@EA@IConsole_Command@@8
rdata$r	ENDS
;	COMDAT ??_R2CCC_DofFocus@@8
rdata$r	SEGMENT
??_R2CCC_DofFocus@@8 DD FLAT:??_R1A@?0A@EA@CCC_DofFocus@@8 ; CCC_DofFocus::`RTTI Base Class Array'
	DD	FLAT:??_R1A@?0A@EA@CCC_Float@@8
	DD	FLAT:??_R1A@?0A@EA@IConsole_Command@@8
rdata$r	ENDS
;	COMDAT ??_R2CCC_Vector3@@8
rdata$r	SEGMENT
??_R2CCC_Vector3@@8 DD FLAT:??_R1A@?0A@EA@CCC_Vector3@@8 ; CCC_Vector3::`RTTI Base Class Array'
	DD	FLAT:??_R1A@?0A@EA@IConsole_Command@@8
rdata$r	ENDS
;	COMDAT ??_R2CCC_Dof@@8
rdata$r	SEGMENT
??_R2CCC_Dof@@8 DD FLAT:??_R1A@?0A@EA@CCC_Dof@@8	; CCC_Dof::`RTTI Base Class Array'
	DD	FLAT:??_R1A@?0A@EA@CCC_Vector3@@8
	DD	FLAT:??_R1A@?0A@EA@IConsole_Command@@8
rdata$r	ENDS
;	COMDAT ??_C@_0N@IOPOGGKI@r2_aa_weight@
CONST	SEGMENT
??_C@_0N@IOPOGGKI@r2_aa_weight@ DB 'r2_aa_weight', 00H	; `string'
CONST	ENDS
;	COMDAT ??_C@_0M@PDEMKMML@r2_aa_break@
CONST	SEGMENT
??_C@_0M@PDEMKMML@r2_aa_break@ DB 'r2_aa_break', 00H	; `string'
CONST	ENDS
;	COMDAT ??_C@_0P@NKBDHKNF@r2_slight_fade@
CONST	SEGMENT
??_C@_0P@NKBDHKNF@r2_slight_fade@ DB 'r2_slight_fade', 00H ; `string'
CONST	ENDS
;	COMDAT ??_C@_0O@PNKBKNBO@r2_parallax_h@
CONST	SEGMENT
??_C@_0O@PNKBKNBO@r2_parallax_h@ DB 'r2_parallax_h', 00H ; `string'
CONST	ENDS
;	COMDAT ??_C@_0BB@GHOIAFPN@r2_ls_depth_bias@
CONST	SEGMENT
??_C@_0BB@GHOIAFPN@r2_ls_depth_bias@ DB 'r2_ls_depth_bias', 00H ; `string'
CONST	ENDS
;	COMDAT ??_C@_0BC@EOKBNEJE@r2_ls_depth_scale@
CONST	SEGMENT
??_C@_0BC@EOKBNEJE@r2_ls_depth_scale@ DB 'r2_ls_depth_scale', 00H ; `string'
CONST	ENDS
;	COMDAT ??_C@_0BG@BGKBFPCC@r2_shadow_cascede_old@
CONST	SEGMENT
??_C@_0BG@BGKBFPCC@r2_shadow_cascede_old@ DB 'r2_shadow_cascede_old', 00H ; `string'
CONST	ENDS
;	COMDAT ??_C@_0BH@PBLJAFPD@r2_shadow_cascede_zcul@
CONST	SEGMENT
??_C@_0BH@PBLJAFPD@r2_shadow_cascede_zcul@ DB 'r2_shadow_cascede_zcul', 00H ; `string'
CONST	ENDS
;	COMDAT ??_C@_0O@FEFLOHBD@r2_wait_sleep@
CONST	SEGMENT
??_C@_0O@FEFLOHBD@r2_wait_sleep@ DB 'r2_wait_sleep', 00H ; `string'
CONST	ENDS
;	COMDAT ??_C@_0L@MAPLEEJC@r2_gi_refl@
CONST	SEGMENT
??_C@_0L@MAPLEEJC@r2_gi_refl@ DB 'r2_gi_refl', 00H	; `string'
CONST	ENDS
;	COMDAT ??_C@_0O@DBJOANLH@r2_gi_photons@
CONST	SEGMENT
??_C@_0O@DBJOANLH@r2_gi_photons@ DB 'r2_gi_photons', 00H ; `string'
CONST	ENDS
;	COMDAT ??_C@_0M@BCNPDIO@r2_gi_depth@
CONST	SEGMENT
??_C@_0M@BCNPDIO@r2_gi_depth@ DB 'r2_gi_depth', 00H	; `string'
CONST	ENDS
;	COMDAT ??_C@_0L@NFIKPEK@r2_gi_clip@
CONST	SEGMENT
??_C@_0L@NFIKPEK@r2_gi_clip@ DB 'r2_gi_clip', 00H	; `string'
CONST	ENDS
;	COMDAT ??_C@_05LJPPALMP@r2_gi@
CONST	SEGMENT
??_C@_05LJPPALMP@r2_gi@ DB 'r2_gi', 00H			; `string'
CONST	ENDS
;	COMDAT ??_C@_08LMINAMIB@r2_mblur@
CONST	SEGMENT
??_C@_08LMINAMIB@r2_mblur@ DB 'r2_mblur', 00H		; `string'
CONST	ENDS
;	COMDAT ??_C@_0N@MOHLHCAB@r2_aa_kernel@
CONST	SEGMENT
??_C@_0N@MOHLHCAB@r2_aa_kernel@ DB 'r2_aa_kernel', 00H	; `string'
CONST	ENDS
;	COMDAT ??_C@_05HFKLPNHF@r2_aa@
CONST	SEGMENT
??_C@_05HFKLPNHF@r2_aa@ DB 'r2_aa', 00H			; `string'
CONST	ENDS
;	COMDAT ??_C@_0BE@HHMFBPMP@r2_sun_lumscale_amb@
CONST	SEGMENT
??_C@_0BE@HHMFBPMP@r2_sun_lumscale_amb@ DB 'r2_sun_lumscale_amb', 00H ; `string'
CONST	ENDS
;	COMDAT ??_C@_0BF@HMGLMHHD@r2_sun_lumscale_hemi@
CONST	SEGMENT
??_C@_0BF@HMGLMHHD@r2_sun_lumscale_hemi@ DB 'r2_sun_lumscale_hemi', 00H ; `string'
CONST	ENDS
;	COMDAT ??_C@_0BA@JCCJEEPN@r2_sun_lumscale@
CONST	SEGMENT
??_C@_0BA@JCCJEEPN@r2_sun_lumscale@ DB 'r2_sun_lumscale', 00H ; `string'
CONST	ENDS
;	COMDAT ??_C@_0BH@KMHMOFPM@r2_sun_depth_near_bias@
CONST	SEGMENT
??_C@_0BH@KMHMOFPM@r2_sun_depth_near_bias@ DB 'r2_sun_depth_near_bias', 00H ; `string'
CONST	ENDS
;	COMDAT ??_C@_0BI@DJGNHAOC@r2_sun_depth_near_scale@
CONST	SEGMENT
??_C@_0BI@DJGNHAOC@r2_sun_depth_near_scale@ DB 'r2_sun_depth_near_scale', 00H ; `string'
CONST	ENDS
;	COMDAT ??_C@_0BG@CDNBHKKJ@r2_sun_depth_far_bias@
CONST	SEGMENT
??_C@_0BG@CDNBHKKJ@r2_sun_depth_far_bias@ DB 'r2_sun_depth_far_bias', 00H ; `string'
CONST	ENDS
;	COMDAT ??_C@_0BH@CCODHIAG@r2_sun_depth_far_scale@
CONST	SEGMENT
??_C@_0BH@CCODHIAG@r2_sun_depth_far_scale@ DB 'r2_sun_depth_far_scale', 00H ; `string'
CONST	ENDS
;	COMDAT ??_C@_0BD@HELOELJN@r2_sun_near_border@
CONST	SEGMENT
??_C@_0BD@HELOELJN@r2_sun_near_border@ DB 'r2_sun_near_border', 00H ; `string'
CONST	ENDS
;	COMDAT ??_C@_0L@KNLIDEPA@r2_sun_far@
CONST	SEGMENT
??_C@_0L@KNLIDEPA@r2_sun_far@ DB 'r2_sun_far', 00H	; `string'
CONST	ENDS
;	COMDAT ??_C@_0M@BGLJAOD@r2_sun_near@
CONST	SEGMENT
??_C@_0M@BGLJAOD@r2_sun_near@ DB 'r2_sun_near', 00H	; `string'
CONST	ENDS
;	COMDAT ??_C@_0BA@NPKEEPIF@r2_sun_tsm_bias@
CONST	SEGMENT
??_C@_0BA@NPKEEPIF@r2_sun_tsm_bias@ DB 'r2_sun_tsm_bias', 00H ; `string'
CONST	ENDS
;	COMDAT ??_C@_0BA@NDACNPOL@r2_sun_tsm_proj@
CONST	SEGMENT
??_C@_0BA@NDACNPOL@r2_sun_tsm_proj@ DB 'r2_sun_tsm_proj', 00H ; `string'
CONST	ENDS
;	COMDAT ??_C@_0L@IFFANCGE@r2_sun_tsm@
CONST	SEGMENT
??_C@_0L@IFFANCGE@r2_sun_tsm@ DB 'r2_sun_tsm', 00H	; `string'
CONST	ENDS
;	COMDAT ??_C@_0N@DELFLGKF@r2_sun_focus@
CONST	SEGMENT
??_C@_0N@DELFLGKF@r2_sun_focus@ DB 'r2_sun_focus', 00H	; `string'
CONST	ENDS
;	COMDAT ??_C@_0P@OGOPJOHI@r2_sun_details@
CONST	SEGMENT
??_C@_0P@OGOPJOHI@r2_sun_details@ DB 'r2_sun_details', 00H ; `string'
CONST	ENDS
;	COMDAT ??_C@_06DKFLPMNP@r2_sun@
CONST	SEGMENT
??_C@_06DKFLPMNP@r2_sun@ DB 'r2_sun', 00H		; `string'
CONST	ENDS
;	COMDAT ??_C@_05ELAEOCAF@r2_mt@
CONST	SEGMENT
??_C@_05ELAEOCAF@r2_mt@ DB 'r2_mt', 00H			; `string'
CONST	ENDS
;	COMDAT ??_C@_0N@FNIHMPCL@r2_use_nvdbt@
CONST	SEGMENT
??_C@_0N@FNIHMPCL@r2_use_nvdbt@ DB 'r2_use_nvdbt', 00H	; `string'
CONST	ENDS
;	COMDAT ??_C@_0BA@NEBNPKHE@r2_gloss_factor@
CONST	SEGMENT
??_C@_0BA@NEBNPKHE@r2_gloss_factor@ DB 'r2_gloss_factor', 00H ; `string'
CONST	ENDS
;	COMDAT ??_C@_0BD@NBIDPHBC@r2_allow_r1_lights@
CONST	SEGMENT
??_C@_0BD@NBIDPHBC@r2_allow_r1_lights@ DB 'r2_allow_r1_lights', 00H ; `string'
CONST	ENDS
;	COMDAT ??_C@_0P@GIAIFPI@r2_zfill_depth@
CONST	SEGMENT
??_C@_0P@GIAIFPI@r2_zfill_depth@ DB 'r2_zfill_depth', 00H ; `string'
CONST	ENDS
;	COMDAT ??_C@_08KHLGMPHA@r2_zfill@
CONST	SEGMENT
??_C@_08KHLGMPHA@r2_zfill@ DB 'r2_zfill', 00H		; `string'
CONST	ENDS
;	COMDAT ??_C@_0P@IDPGFAFN@r2_ls_squality@
CONST	SEGMENT
??_C@_0P@IDPGFAFN@r2_ls_squality@ DB 'r2_ls_squality', 00H ; `string'
CONST	ENDS
;	COMDAT ??_C@_0BB@JAGLMJBD@r2_ls_ssm_kernel@
CONST	SEGMENT
??_C@_0BB@JAGLMJBD@r2_ls_ssm_kernel@ DB 'r2_ls_ssm_kernel', 00H ; `string'
CONST	ENDS
;	COMDAT ??_C@_0BB@JIJKPBC@r2_ls_psm_kernel@
CONST	SEGMENT
??_C@_0BB@JIJKPBC@r2_ls_psm_kernel@ DB 'r2_ls_psm_kernel', 00H ; `string'
CONST	ENDS
;	COMDAT ??_C@_0BB@BHKGBIFL@r2_ls_dsm_kernel@
CONST	SEGMENT
??_C@_0BB@BHKGBIFL@r2_ls_dsm_kernel@ DB 'r2_ls_dsm_kernel', 00H ; `string'
CONST	ENDS
;	COMDAT ??_C@_0BB@BDAPAEPI@r2_ls_bloom_fast@
CONST	SEGMENT
??_C@_0BB@BDAPAEPI@r2_ls_bloom_fast@ DB 'r2_ls_bloom_fast', 00H ; `string'
CONST	ENDS
;	COMDAT ??_C@_0BC@NEOJDHJH@r2_ls_bloom_speed@
CONST	SEGMENT
??_C@_0BC@NEOJDHJH@r2_ls_bloom_speed@ DB 'r2_ls_bloom_speed', 00H ; `string'
CONST	ENDS
;	COMDAT ??_C@_0BG@BIIDMCFP@r2_ls_bloom_threshold@
CONST	SEGMENT
??_C@_0BG@BIIDMCFP@r2_ls_bloom_threshold@ DB 'r2_ls_bloom_threshold', 00H ; `string'
CONST	ENDS
;	COMDAT ??_C@_0BF@CGMLNIEP@r2_ls_bloom_kernel_b@
CONST	SEGMENT
??_C@_0BF@CGMLNIEP@r2_ls_bloom_kernel_b@ DB 'r2_ls_bloom_kernel_b', 00H ; `string'
CONST	ENDS
;	COMDAT ??_C@_0BF@FLLMCMAK@r2_ls_bloom_kernel_g@
CONST	SEGMENT
??_C@_0BF@FLLMCMAK@r2_ls_bloom_kernel_g@ DB 'r2_ls_bloom_kernel_g', 00H ; `string'
CONST	ENDS
;	COMDAT ??_C@_0BJ@HGCLEGPI@r2_ls_bloom_kernel_scale@
CONST	SEGMENT
??_C@_0BJ@HGCLEGPI@r2_ls_bloom_kernel_scale@ DB 'r2_ls_bloom_kernel_scale'
	DB	00H						; `string'
CONST	ENDS
;	COMDAT ??_C@_0BC@ODFKDFHA@r2_tonemap_amount@
CONST	SEGMENT
??_C@_0BC@ODFKDFHA@r2_tonemap_amount@ DB 'r2_tonemap_amount', 00H ; `string'
CONST	ENDS
;	COMDAT ??_C@_0BC@DJLHNEGE@r2_tonemap_lowlum@
CONST	SEGMENT
??_C@_0BC@DJLHNEGE@r2_tonemap_lowlum@ DB 'r2_tonemap_lowlum', 00H ; `string'
CONST	ENDS
;	COMDAT ??_C@_0BG@COMDBLNN@r2_tonemap_adaptation@
CONST	SEGMENT
??_C@_0BG@COMDBLNN@r2_tonemap_adaptation@ DB 'r2_tonemap_adaptation', 00H ; `string'
CONST	ENDS
;	COMDAT ??_C@_0BG@DKEHMNL@r2_tonemap_middlegray@
CONST	SEGMENT
??_C@_0BG@DKEHMNL@r2_tonemap_middlegray@ DB 'r2_tonemap_middlegray', 00H ; `string'
CONST	ENDS
;	COMDAT ??_C@_0L@GKHFLLMN@r2_tonemap@
CONST	SEGMENT
??_C@_0L@GKHFLLMN@r2_tonemap@ DB 'r2_tonemap', 00H	; `string'
CONST	ENDS
;	COMDAT ??_C@_04HOKCJHEG@r2em@
CONST	SEGMENT
??_C@_04HOKCJHEG@r2em@ DB 'r2em', 00H			; `string'
CONST	ENDS
;	COMDAT ??_C@_0O@IFFPBBDD@r2_tf_mipbias@
CONST	SEGMENT
??_C@_0O@IFFPBBDD@r2_tf_mipbias@ DB 'r2_tf_mipbias', 00H ; `string'
CONST	ENDS
;	COMDAT ??_C@_0N@MEMACGHK@r2_ssa_lod_b@
CONST	SEGMENT
??_C@_0N@MEMACGHK@r2_ssa_lod_b@ DB 'r2_ssa_lod_b', 00H	; `string'
CONST	ENDS
;	COMDAT ??_C@_0N@OPONHFLJ@r2_ssa_lod_a@
CONST	SEGMENT
??_C@_0N@OPONHFLJ@r2_ssa_lod_a@ DB 'r2_ssa_lod_a', 00H	; `string'
CONST	ENDS
;	COMDAT ??_C@_0BD@CHFOIAN@r1_glows_per_frame@
CONST	SEGMENT
??_C@_0BD@CHFOIAN@r1_glows_per_frame@ DB 'r1_glows_per_frame', 00H ; `string'
CONST	ENDS
;	COMDAT ??_C@_08MOKGJPDO@r1_pps_v@
CONST	SEGMENT
??_C@_08MOKGJPDO@r1_pps_v@ DB 'r1_pps_v', 00H		; `string'
CONST	ENDS
;	COMDAT ??_C@_08OFILMMPN@r1_pps_u@
CONST	SEGMENT
??_C@_08OFILMMPN@r1_pps_u@ DB 'r1_pps_u', 00H		; `string'
CONST	ENDS
;	COMDAT ??_C@_0BA@JMFDABEK@r1_dlights_clip@
CONST	SEGMENT
??_C@_0BA@JMFDABEK@r1_dlights_clip@ DB 'r1_dlights_clip', 00H ; `string'
CONST	ENDS
;	COMDAT ??_C@_0L@KNMKIKMK@r1_dlights@
CONST	SEGMENT
??_C@_0L@KNMKIKMK@r1_dlights@ DB 'r1_dlights', 00H	; `string'
CONST	ENDS
;	COMDAT ??_C@_0O@DIJFHNPN@r1_tf_mipbias@
CONST	SEGMENT
??_C@_0O@DIJFHNPN@r1_tf_mipbias@ DB 'r1_tf_mipbias', 00H ; `string'
CONST	ENDS
;	COMDAT ??_C@_0P@IBLMPJJ@r1_lmodel_lerp@
CONST	SEGMENT
??_C@_0P@IBLMPJJ@r1_lmodel_lerp@ DB 'r1_lmodel_lerp', 00H ; `string'
CONST	ENDS
;	COMDAT ??_C@_0N@LDFOPEIK@r1_ssa_lod_b@
CONST	SEGMENT
??_C@_0N@LDFOPEIK@r1_ssa_lod_b@ DB 'r1_ssa_lod_b', 00H	; `string'
CONST	ENDS
;	COMDAT ??_C@_0N@JIHDKHEJ@r1_ssa_lod_a@
CONST	SEGMENT
??_C@_0N@JIHDKHEJ@r1_ssa_lod_a@ DB 'r1_ssa_lod_a', 00H	; `string'
CONST	ENDS
;	COMDAT ??_C@_0M@JGACHMFM@r__tf_aniso@
CONST	SEGMENT
??_C@_0M@JGACHMFM@r__tf_aniso@ DB 'r__tf_aniso', 00H	; `string'
CONST	ENDS
;	COMDAT ??_C@_0BC@DANJBJKC@r__detail_density@
CONST	SEGMENT
??_C@_0BC@DANJBJKC@r__detail_density@ DB 'r__detail_density', 00H ; `string'
CONST	ENDS
;	COMDAT ??_C@_0BA@CENFKEKB@r__geometry_lod@
CONST	SEGMENT
??_C@_0BA@CENFKEKB@r__geometry_lod@ DB 'r__geometry_lod', 00H ; `string'
CONST	ENDS
;	COMDAT ??_C@_0L@CMHOPIGK@screenshot@
CONST	SEGMENT
??_C@_0L@CMHOPIGK@screenshot@ DB 'screenshot', 00H	; `string'
CONST	ENDS
;	COMDAT ??_C@_0L@ENOICHIN@eff_preset@
CONST	SEGMENT
??_C@_0L@ENOICHIN@eff_preset@ DB 'eff_preset', 00H	; `string'
CONST	ENDS
;	COMDAT ??_C@_07JBEOPPGL@_preset@
CONST	SEGMENT
??_C@_07JBEOPPGL@_preset@ DB '_preset', 00H		; `string'
CONST	ENDS
;	COMDAT ??_C@_0P@MGJLOEKN@r2_gbuffer_opt@
CONST	SEGMENT
??_C@_0P@MGJLOEKN@r2_gbuffer_opt@ DB 'r2_gbuffer_opt', 00H ; `string'
CONST	ENDS
;	COMDAT ??_C@_0BC@BMNFJEOH@r2_debug_textures@
CONST	SEGMENT
??_C@_0BC@BMNFJEOH@r2_debug_textures@ DB 'r2_debug_textures', 00H ; `string'
CONST	ENDS
;	COMDAT ??_C@_0BA@GOMGGOCF@r2_debug_render@
CONST	SEGMENT
??_C@_0BA@GOMGGOCF@r2_debug_render@ DB 'r2_debug_render', 00H ; `string'
CONST	ENDS
;	COMDAT ??_C@_0BF@DOBOIFBH@r2_terrain_bump_mode@
CONST	SEGMENT
??_C@_0BF@DOBOIFBH@r2_terrain_bump_mode@ DB 'r2_terrain_bump_mode', 00H ; `string'
CONST	ENDS
;	COMDAT ??_C@_0BF@GMKHMCNC@r2_tdetail_bump_mode@
CONST	SEGMENT
??_C@_0BF@GMKHMCNC@r2_tdetail_bump_mode@ DB 'r2_tdetail_bump_mode', 00H ; `string'
CONST	ENDS
;	COMDAT ??_C@_0N@FJLMNEMI@r2_bump_mode@
CONST	SEGMENT
??_C@_0N@FJLMNEMI@r2_bump_mode@ DB 'r2_bump_mode', 00H	; `string'
CONST	ENDS
;	COMDAT ??_C@_0BE@BBHAFBEM@r2_shadow_filtering@
CONST	SEGMENT
??_C@_0BE@BBHAFBEM@r2_shadow_filtering@ DB 'r2_shadow_filtering', 00H ; `string'
CONST	ENDS
;	COMDAT ??_C@_0P@PGDLHACC@r2_sun_quality@
CONST	SEGMENT
??_C@_0P@PGDLHACC@r2_sun_quality@ DB 'r2_sun_quality', 00H ; `string'
CONST	ENDS
;	COMDAT ??_C@_0O@LHFKPGKB@r2_sun_shafts@
CONST	SEGMENT
??_C@_0O@LHFKPGKB@r2_sun_shafts@ DB 'r2_sun_shafts', 00H ; `string'
CONST	ENDS
;	COMDAT ??_C@_0BB@NPGGANOC@r2_mblur_enabled@
CONST	SEGMENT
??_C@_0BB@NPGGANOC@r2_mblur_enabled@ DB 'r2_mblur_enabled', 00H ; `string'
CONST	ENDS
;	COMDAT ??_C@_0P@NBDFKIOK@r2_dof_quality@
CONST	SEGMENT
??_C@_0P@NBDFKIOK@r2_dof_quality@ DB 'r2_dof_quality', 00H ; `string'
CONST	ENDS
;	COMDAT ??_C@_0P@CGHLLEAH@r2_dof_enabled@
CONST	SEGMENT
??_C@_0P@CGHLLEAH@r2_dof_enabled@ DB 'r2_dof_enabled', 00H ; `string'
CONST	ENDS
;	COMDAT ??_C@_0L@HNJPLGJP@r2_dof_sky@
CONST	SEGMENT
??_C@_0L@HNJPLGJP@r2_dof_sky@ DB 'r2_dof_sky', 00H	; `string'
CONST	ENDS
;	COMDAT ??_C@_0O@GBCGFHMD@r2_dof_kernel@
CONST	SEGMENT
??_C@_0O@GBCGFHMD@r2_dof_kernel@ DB 'r2_dof_kernel', 00H ; `string'
CONST	ENDS
;	COMDAT ??_C@_06COPNDPFH@r2_dof@
CONST	SEGMENT
??_C@_06COPNDPFH@r2_dof@ DB 'r2_dof', 00H		; `string'
CONST	ENDS
;	COMDAT ??_C@_08DMLFIHOD@r2_bloom@
CONST	SEGMENT
??_C@_08DMLFIHOD@r2_bloom@ DB 'r2_bloom', 00H		; `string'
CONST	ENDS
;	COMDAT ??_C@_0BI@IFGPEKAF@r2_chromatic_abberation@
CONST	SEGMENT
??_C@_0BI@IFGPEKAF@r2_chromatic_abberation@ DB 'r2_chromatic_abberation', 00H ; `string'
CONST	ENDS
;	COMDAT ??_C@_0M@LKENIEPF@r2_vignette@
CONST	SEGMENT
??_C@_0M@LKENIEPF@r2_vignette@ DB 'r2_vignette', 00H	; `string'
CONST	ENDS
;	COMDAT ??_C@_0L@LCINICNB@r2_ao_blur@
CONST	SEGMENT
??_C@_0L@LCINICNB@r2_ao_blur@ DB 'r2_ao_blur', 00H	; `string'
CONST	ENDS
;	COMDAT ??_C@_0O@LKDJGGOA@r2_ao_quality@
CONST	SEGMENT
??_C@_0O@LKDJGGOA@r2_ao_quality@ DB 'r2_ao_quality', 00H ; `string'
CONST	ENDS
;	COMDAT ??_C@_0L@DJKCABCD@r2_ao_type@
CONST	SEGMENT
??_C@_0L@DJKCABCD@r2_ao_type@ DB 'r2_ao_type', 00H	; `string'
CONST	ENDS
;	COMDAT ??_C@_0O@KEPAFGFD@r2_aa_quality@
CONST	SEGMENT
??_C@_0O@KEPAFGFD@r2_aa_quality@ DB 'r2_aa_quality', 00H ; `string'
CONST	ENDS
;	COMDAT ??_C@_0L@GJJNHKHO@r2_aa_type@
CONST	SEGMENT
??_C@_0L@GJJNHKHO@r2_aa_type@ DB 'r2_aa_type', 00H	; `string'
CONST	ENDS
;	COMDAT ??_C@_0M@BELPDFE@r2_soft_fog@
CONST	SEGMENT
??_C@_0M@BELPDFE@r2_soft_fog@ DB 'r2_soft_fog', 00H	; `string'
CONST	ENDS
;	COMDAT ??_C@_0BC@NBMFAMGH@r2_soft_particles@
CONST	SEGMENT
??_C@_0BC@NBMFAMGH@r2_soft_particles@ DB 'r2_soft_particles', 00H ; `string'
CONST	ENDS
;	COMDAT ??_C@_0O@JMGALPCM@r2_soft_water@
CONST	SEGMENT
??_C@_0O@JMGALPCM@r2_soft_water@ DB 'r2_soft_water', 00H ; `string'
CONST	ENDS
;	COMDAT ??_C@_0N@GECMFPMI@y?5?$DM?$DN?5z?5?9?50?41@
CONST	SEGMENT
??_C@_0N@GECMFPMI@y?5?$DM?$DN?5z?5?9?50?41@ DB 'y <= z - 0.1', 00H ; `string'
CONST	ENDS
;	COMDAT ??_C@_0N@DHDFIBKO@x?5?$DM?$DN?5y?5?9?50?41@
CONST	SEGMENT
??_C@_0N@DHDFIBKO@x?5?$DM?$DN?5y?5?9?50?41@ DB 'x <= y - 0.1', 00H ; `string'
CONST	ENDS
;	COMDAT ??_C@_0M@BHFONMNP@r2_dof_near@
CONST	SEGMENT
??_C@_0M@BHFONMNP@r2_dof_near@ DB 'r2_dof_near', 00H	; `string'
CONST	ENDS
;	COMDAT ??_C@_0CP@JANGOKPM@float?5value?5greater?5or?5equal?5to@
CONST	SEGMENT
??_C@_0CP@JANGOKPM@float?5value?5greater?5or?5equal?5to@ DB 'float value '
	DB	'greater or equal to r2_dof_far-0.1', 00H	; `string'
CONST	ENDS
;	COMDAT ??_C@_0L@PEDLENCP@r2_dof_far@
CONST	SEGMENT
??_C@_0L@PEDLENCP@r2_dof_far@ DB 'r2_dof_far', 00H	; `string'
CONST	ENDS
;	COMDAT ??_C@_0CM@HGBJKDAK@float?5value?5less?5or?5equal?5to?5r2@
CONST	SEGMENT
??_C@_0CM@HGBJKDAK@float?5value?5less?5or?5equal?5to?5r2@ DB 'float value'
	DB	' less or equal to r2_dof_far-0.1', 00H	; `string'
CONST	ENDS
;	COMDAT ??_C@_0CO@FPIHCIBJ@float?5value?5less?5or?5equal?5to?5r2@
CONST	SEGMENT
??_C@_0CO@FPIHCIBJ@float?5value?5less?5or?5equal?5to?5r2@ DB 'float value'
	DB	' less or equal to r2_dof_focus-0.1', 00H	; `string'
CONST	ENDS
;	COMDAT ??_C@_0N@BLMMPPGO@r2_dof_focus@
CONST	SEGMENT
??_C@_0N@BLMMPPGO@r2_dof_focus@ DB 'r2_dof_focus', 00H	; `string'
CONST	ENDS
;	COMDAT ??_C@_0CB@HLGFEFOB@?$HO?5Invalid?5syntax?5in?5call?5to?5?8?$CFs@
CONST	SEGMENT
??_C@_0CB@HLGFEFOB@?$HO?5Invalid?5syntax?5in?5call?5to?5?8?$CFs@ DB '~ In'
	DB	'valid syntax in call to ''%s''', 00H	; `string'
CONST	ENDS
;	COMDAT ??_C@_0DB@JNCBIEHJ@float?5value?5greater?5or?5equal?5to@
CONST	SEGMENT
??_C@_0DB@JNCBIEHJ@float?5value?5greater?5or?5equal?5to@ DB 'float value '
	DB	'greater or equal to r2_dof_focus+0.1', 00H	; `string'
CONST	ENDS
;	COMDAT ??_C@_0BC@KLFFOME@eff_cinematic?4ltx@
CONST	SEGMENT
??_C@_0BC@KLFFOME@eff_cinematic?4ltx@ DB 'eff_cinematic.ltx', 00H ; `string'
CONST	ENDS
;	COMDAT ??_C@_0BA@HEEBMDDC@eff_default?4ltx@
CONST	SEGMENT
??_C@_0BA@HEEBMDDC@eff_default?4ltx@ DB 'eff_default.ltx', 00H ; `string'
CONST	ENDS
;	COMDAT ??_C@_0BB@OMKBNKEA@eff_disabled?4ltx@
CONST	SEGMENT
??_C@_0BB@OMKBNKEA@eff_disabled?4ltx@ DB 'eff_disabled.ltx', 00H ; `string'
CONST	ENDS
;	COMDAT ??_C@_08KOFGEFOI@cfg_load@
CONST	SEGMENT
??_C@_08KOFGEFOI@cfg_load@ DB 'cfg_load', 00H		; `string'
CONST	ENDS
;	COMDAT ??_C@_01CLKCMJKC@?5@
CONST	SEGMENT
??_C@_01CLKCMJKC@?5@ DB ' ', 00H			; `string'
CONST	ENDS
;	COMDAT ??_C@_0O@MGNGOECP@$game_config$@
CONST	SEGMENT
??_C@_0O@MGNGOECP@$game_config$@ DB '$game_config$', 00H ; `string'
CONST	ENDS
;	COMDAT ??_C@_0BA@JAPHILEA@rspec_ultra?4ltx@
CONST	SEGMENT
??_C@_0BA@JAPHILEA@rspec_ultra?4ltx@ DB 'rspec_ultra.ltx', 00H ; `string'
CONST	ENDS
;	COMDAT ??_C@_0BC@FHEEMLOJ@rspec_extreme?4ltx@
CONST	SEGMENT
??_C@_0BC@FHEEMLOJ@rspec_extreme?4ltx@ DB 'rspec_extreme.ltx', 00H ; `string'
CONST	ENDS
;	COMDAT ??_C@_0BC@NLNNDAAK@rspec_maximum?4ltx@
CONST	SEGMENT
??_C@_0BC@NLNNDAAK@rspec_maximum?4ltx@ DB 'rspec_maximum.ltx', 00H ; `string'
CONST	ENDS
;	COMDAT ??_C@_0P@KCGCMGAH@rspec_high?4ltx@
CONST	SEGMENT
??_C@_0P@KCGCMGAH@rspec_high?4ltx@ DB 'rspec_high.ltx', 00H ; `string'
CONST	ENDS
;	COMDAT ??_C@_0BC@NNDMKIK@rspec_default?4ltx@
CONST	SEGMENT
??_C@_0BC@NNDMKIK@rspec_default?4ltx@ DB 'rspec_default.ltx', 00H ; `string'
CONST	ENDS
;	COMDAT ??_C@_0O@OHALDFON@rspec_low?4ltx@
CONST	SEGMENT
??_C@_0O@OHALDFON@rspec_low?4ltx@ DB 'rspec_low.ltx', 00H ; `string'
CONST	ENDS
;	COMDAT ??_C@_0BC@ELKOCAOA@rspec_minimum?4ltx@
CONST	SEGMENT
??_C@_0BC@ELKOCAOA@rspec_minimum?4ltx@ DB 'rspec_minimum.ltx', 00H ; `string'
CONST	ENDS
;	COMDAT ??_C@_02DKCKIIND@?$CFs@
CONST	SEGMENT
??_C@_02DKCKIIND@?$CFs@ DB '%s', 00H			; `string'
CONST	ENDS
;	COMDAT ??_C@_0CP@CHANKGHI@?$CK?5material?5set?5to?5?$FL?$CFs?$FN?9?$FL?$CFs?$FN?0?5wi@
CONST	SEGMENT
??_C@_0CP@CHANKGHI@?$CK?5material?5set?5to?5?$FL?$CFs?$FN?9?$FL?$CFs?$FN?0?5wi@ DB '*'
	DB	' material set to [%s]-[%s], with lerp of [%f]', 00H ; `string'
CONST	ENDS
;	COMDAT ??_C@_05MPIFAIJC@metal@
CONST	SEGMENT
??_C@_05MPIFAIJC@metal@ DB 'metal', 00H			; `string'
CONST	ENDS
;	COMDAT ??_C@_05OHONJDAO@phong@
CONST	SEGMENT
??_C@_05OHONJDAO@phong@ DB 'phong', 00H			; `string'
CONST	ENDS
;	COMDAT ??_C@_04BHKHNCPC@blin@
CONST	SEGMENT
??_C@_04BHKHNCPC@blin@ DB 'blin', 00H			; `string'
CONST	ENDS
;	COMDAT ??_C@_04FGOLMPIL@oren@
CONST	SEGMENT
??_C@_04FGOLMPIL@oren@ DB 'oren', 00H			; `string'
CONST	ENDS
;	COMDAT ??_C@_0CH@NHPGHHO@vector3?5in?5range?5?$FL?$CFf?0?$CFf?0?$CFf?$FN?9?$FL?$CFf@
CONST	SEGMENT
??_C@_0CH@NHPGHHO@vector3?5in?5range?5?$FL?$CFf?0?$CFf?0?$CFf?$FN?9?$FL?$CFf@ DB 'v'
	DB	'ector3 in range [%f,%f,%f]-[%f,%f,%f]', 00H	; `string'
CONST	ENDS
;	COMDAT ??_C@_08GJNPJIKN@?$CFf?0?$CFf?0?$CFf@
CONST	SEGMENT
??_C@_08GJNPJIKN@?$CFf?0?$CFf?0?$CFf@ DB '%f,%f,%f', 00H ; `string'
CONST	ENDS
;	COMDAT ??_C@_03MCADLMAF@off@
CONST	SEGMENT
??_C@_03MCADLMAF@off@ DB 'off', 00H			; `string'
CONST	ENDS
;	COMDAT ??_C@_0BG@IKMCPCOD@?$HO?5Valid?5arguments?3?5?$CFs@
CONST	SEGMENT
??_C@_0BG@IKMCPCOD@?$HO?5Valid?5arguments?3?5?$CFs@ DB '~ Valid arguments'
	DB	': %s', 00H					; `string'
CONST	ENDS
;	COMDAT ??_C@_0BO@GABOMOIM@st_opt_steep_parallax_mapping@
CONST	SEGMENT
??_C@_0BO@GABOMOIM@st_opt_steep_parallax_mapping@ DB 'st_opt_steep_parall'
	DB	'ax_mapping', 00H				; `string'
CONST	ENDS
;	COMDAT ??_C@_0BI@JPMFBHKB@st_opt_parallax_mapping@
CONST	SEGMENT
??_C@_0BI@JPMFBHKB@st_opt_parallax_mapping@ DB 'st_opt_parallax_mapping', 00H ; `string'
CONST	ENDS
;	COMDAT ??_C@_0BG@PCFGJOBJ@st_opt_normal_mapping@
CONST	SEGMENT
??_C@_0BG@PCFGJOBJ@st_opt_normal_mapping@ DB 'st_opt_normal_mapping', 00H ; `string'
CONST	ENDS
;	COMDAT ??_C@_05PMAELIEO@white@
CONST	SEGMENT
??_C@_05PMAELIEO@white@ DB 'white', 00H			; `string'
CONST	ENDS
;	COMDAT ??_C@_0L@JCBFJPMJ@uv_checker@
CONST	SEGMENT
??_C@_0L@JCBFJPMJ@uv_checker@ DB 'uv_checker', 00H	; `string'
CONST	ENDS
;	COMDAT ??_C@_08BEHKFNNO@disabled@
CONST	SEGMENT
??_C@_08BEHKFNNO@disabled@ DB 'disabled', 00H		; `string'
CONST	ENDS
;	COMDAT ??_C@_0BD@OLEBFLGI@full_ao_with_light@
CONST	SEGMENT
??_C@_0BD@OLEBFLGI@full_ao_with_light@ DB 'full_ao_with_light', 00H ; `string'
CONST	ENDS
;	COMDAT ??_C@_0BF@DBBEEHKL@split_ao_blur_stages@
CONST	SEGMENT
??_C@_0BF@DBBEEHKL@split_ao_blur_stages@ DB 'split_ao_blur_stages', 00H ; `string'
CONST	ENDS
;	COMDAT ??_C@_0CC@PCPAFHKF@split_with_hemisphere_and_witho@
CONST	SEGMENT
??_C@_0CC@PCPAFHKF@split_with_hemisphere_and_witho@ DB 'split_with_hemisp'
	DB	'here_and_without', 00H			; `string'
CONST	ENDS
;	COMDAT ??_C@_0CE@CCBNNAB@split_with_real_time_ao_and_wit@
CONST	SEGMENT
??_C@_0CE@CCBNNAB@split_with_real_time_ao_and_wit@ DB 'split_with_real_ti'
	DB	'me_ao_and_without', 00H			; `string'
CONST	ENDS
;	COMDAT ??_C@_0BH@CIMHIFCL@real_time_ao_with_hemi@
CONST	SEGMENT
??_C@_0BH@CIMHIFCL@real_time_ao_with_hemi@ DB 'real_time_ao_with_hemi', 00H ; `string'
CONST	ENDS
;	COMDAT ??_C@_0N@IGCKPDGF@real_time_ao@
CONST	SEGMENT
??_C@_0N@IGCKPDGF@real_time_ao@ DB 'real_time_ao', 00H	; `string'
CONST	ENDS
;	COMDAT ??_C@_0BF@BNAEKDKI@accumulator_specular@
CONST	SEGMENT
??_C@_0BF@BNAEKDKI@accumulator_specular@ DB 'accumulator_specular', 00H ; `string'
CONST	ENDS
;	COMDAT ??_C@_0BC@LCEMBAKG@accumulator_light@
CONST	SEGMENT
??_C@_0BC@LCEMBAKG@accumulator_light@ DB 'accumulator_light', 00H ; `string'
CONST	ENDS
;	COMDAT ??_C@_0O@FFFHECHC@gbuffer_split@
CONST	SEGMENT
??_C@_0O@FFFHECHC@gbuffer_split@ DB 'gbuffer_split', 00H ; `string'
CONST	ENDS
;	COMDAT ??_C@_0BB@NOOGCHKK@gbuffer_material@
CONST	SEGMENT
??_C@_0BB@NOOGCHKK@gbuffer_material@ DB 'gbuffer_material', 00H ; `string'
CONST	ENDS
;	COMDAT ??_C@_0BD@GDNLIEHD@gbuffer_hemisphere@
CONST	SEGMENT
??_C@_0BD@GDNLIEHD@gbuffer_hemisphere@ DB 'gbuffer_hemisphere', 00H ; `string'
CONST	ENDS
;	COMDAT ??_C@_0O@CEEFGHPD@gbuffer_gloss@
CONST	SEGMENT
??_C@_0O@CEEFGHPD@gbuffer_gloss@ DB 'gbuffer_gloss', 00H ; `string'
CONST	ENDS
;	COMDAT ??_C@_0P@MJMAPBJG@gbuffer_normal@
CONST	SEGMENT
??_C@_0P@MJMAPBJG@gbuffer_normal@ DB 'gbuffer_normal', 00H ; `string'
CONST	ENDS
;	COMDAT ??_C@_0BB@JDGONEGD@gbuffer_position@
CONST	SEGMENT
??_C@_0BB@JDGONEGD@gbuffer_position@ DB 'gbuffer_position', 00H ; `string'
CONST	ENDS
;	COMDAT ??_C@_0O@OGOGJLIO@gbuffer_color@
CONST	SEGMENT
??_C@_0O@OGOGJLIO@gbuffer_color@ DB 'gbuffer_color', 00H ; `string'
CONST	ENDS
;	COMDAT ??_C@_0L@FCFHAKLB@full_frame@
CONST	SEGMENT
??_C@_0L@FCFHAKLB@full_frame@ DB 'full_frame', 00H	; `string'
CONST	ENDS
;	COMDAT ??_C@_0L@JBNNJGC@st_opt_max@
CONST	SEGMENT
??_C@_0L@JBNNJGC@st_opt_max@ DB 'st_opt_max', 00H	; `string'
CONST	ENDS
;	COMDAT ??_C@_0L@OBHJNFIH@st_opt_mid@
CONST	SEGMENT
??_C@_0L@OBHJNFIH@st_opt_mid@ DB 'st_opt_mid', 00H	; `string'
CONST	ENDS
;	COMDAT ??_C@_0L@BLJGDNAN@st_opt_min@
CONST	SEGMENT
??_C@_0L@BLJGDNAN@st_opt_min@ DB 'st_opt_min', 00H	; `string'
CONST	ENDS
;	COMDAT ??_C@_0P@LPJKIMND@st_opt_disable@
CONST	SEGMENT
??_C@_0P@LPJKIMND@st_opt_disable@ DB 'st_opt_disable', 00H ; `string'
CONST	ENDS
;	COMDAT ??_C@_0P@BEMJJEFD@st_opt_extreme@
CONST	SEGMENT
??_C@_0P@BEMJJEFD@st_opt_extreme@ DB 'st_opt_extreme', 00H ; `string'
CONST	ENDS
;	COMDAT ??_C@_0M@IIHCNCKE@st_opt_hbao@
CONST	SEGMENT
??_C@_0M@IIHCNCKE@st_opt_hbao@ DB 'st_opt_hbao', 00H	; `string'
CONST	ENDS
;	COMDAT ??_C@_0M@KNBJINHI@st_opt_hdao@
CONST	SEGMENT
??_C@_0M@KNBJINHI@st_opt_hdao@ DB 'st_opt_hdao', 00H	; `string'
CONST	ENDS
;	COMDAT ??_C@_0M@HHOHEEMN@st_opt_ssao@
CONST	SEGMENT
??_C@_0M@HHOHEEMN@st_opt_ssao@ DB 'st_opt_ssao', 00H	; `string'
CONST	ENDS
;	COMDAT ??_C@_0N@NOJEHHGP@st_opt_ultra@
CONST	SEGMENT
??_C@_0N@NOJEHHGP@st_opt_ultra@ DB 'st_opt_ultra', 00H	; `string'
CONST	ENDS
;	COMDAT ??_C@_0M@BELPLPNA@st_opt_high@
CONST	SEGMENT
??_C@_0M@BELPLPNA@st_opt_high@ DB 'st_opt_high', 00H	; `string'
CONST	ENDS
;	COMDAT ??_C@_0O@ICGJDCIF@st_opt_medium@
CONST	SEGMENT
??_C@_0O@ICGJDCIF@st_opt_medium@ DB 'st_opt_medium', 00H ; `string'
CONST	ENDS
;	COMDAT ??_C@_0L@DMKHIPMC@st_opt_low@
CONST	SEGMENT
??_C@_0L@DMKHIPMC@st_opt_low@ DB 'st_opt_low', 00H	; `string'
CONST	ENDS
;	COMDAT ??_C@_0M@JGGFPGLA@st_opt_fxaa@
CONST	SEGMENT
??_C@_0M@JGGFPGLA@st_opt_fxaa@ DB 'st_opt_fxaa', 00H	; `string'
CONST	ENDS
;	COMDAT ??_C@_0BO@GENMAAIH@st_opt_dlaa_force_edge_detect@
CONST	SEGMENT
??_C@_0BO@GENMAAIH@st_opt_dlaa_force_edge_detect@ DB 'st_opt_dlaa_force_e'
	DB	'dge_detect', 00H				; `string'
CONST	ENDS
;	COMDAT ??_C@_0M@DDNOGFBI@st_opt_dlaa@
CONST	SEGMENT
??_C@_0M@DDNOGFBI@st_opt_dlaa@ DB 'st_opt_dlaa', 00H	; `string'
CONST	ENDS
;	COMDAT ??_C@_0L@HCBKDILD@st_opt_off@
CONST	SEGMENT
??_C@_0L@HCBKDILD@st_opt_off@ DB 'st_opt_off', 00H	; `string'
CONST	ENDS
;	COMDAT ??_C@_0BF@HEJJKJFG@st_opt_eff_cinematic@
CONST	SEGMENT
??_C@_0BF@HEJJKJFG@st_opt_eff_cinematic@ DB 'st_opt_eff_cinematic', 00H ; `string'
CONST	ENDS
;	COMDAT ??_C@_0BD@ENJGPEE@st_opt_eff_default@
CONST	SEGMENT
??_C@_0BD@ENJGPEE@st_opt_eff_default@ DB 'st_opt_eff_default', 00H ; `string'
CONST	ENDS
;	COMDAT ??_C@_0BE@NNEJNGLG@st_opt_eff_disabled@
CONST	SEGMENT
??_C@_0BE@NNEJNGLG@st_opt_eff_disabled@ DB 'st_opt_eff_disabled', 00H ; `string'
CONST	ENDS
;	COMDAT ??_C@_05IBHCIMEH@Ultra@
CONST	SEGMENT
??_C@_05IBHCIMEH@Ultra@ DB 'Ultra', 00H			; `string'
CONST	ENDS
;	COMDAT ??_C@_07GDPLEOIL@Extreme@
CONST	SEGMENT
??_C@_07GDPLEOIL@Extreme@ DB 'Extreme', 00H		; `string'
CONST	ENDS
;	COMDAT ??_C@_07DNPCLKOE@Maximum@
CONST	SEGMENT
??_C@_07DNPCLKOE@Maximum@ DB 'Maximum', 00H		; `string'
CONST	ENDS
;	COMDAT ??_C@_04PHMMJPOJ@High@
CONST	SEGMENT
??_C@_04PHMMJPOJ@High@ DB 'High', 00H			; `string'
CONST	ENDS
;	COMDAT ??_C@_07MCAEODGB@Default@
CONST	SEGMENT
??_C@_07MCAEODGB@Default@ DB 'Default', 00H		; `string'
CONST	ENDS
;	COMDAT ??_C@_03CMIMKEEK@Low@
CONST	SEGMENT
??_C@_03CMIMKEEK@Low@ DB 'Low', 00H			; `string'
CONST	ENDS
;	COMDAT ??_C@_07NLJCBFAF@Minimum@
CONST	SEGMENT
??_C@_07NLJCBFAF@Minimum@ DB 'Minimum', 00H		; `string'
?ps_r__Detail_density@@3MA DD 03e99999ar	; 0.3	; ps_r__Detail_density
?ps_r2_gloss_factor@@3MA DD 03f800000r		; 1	; ps_r2_gloss_factor
?ps_r2_dof_kernel_size@@3MA DD 040a00000r	; 5	; ps_r2_dof_kernel_size
?ps_r2_dof_sky@@3MA DD 041f00000r		; 30	; ps_r2_dof_sky
?ps_r2_zfill@@3MA DD 03dcccccdr			; 0.1	; ps_r2_zfill
?ps_r2_sun_lumscale_amb@@3MA DD 03f800000r	; 1	; ps_r2_sun_lumscale_amb
?ps_r2_sun_lumscale_hemi@@3MA DD 03f800000r	; 1	; ps_r2_sun_lumscale_hemi
?ps_r2_sun_depth_near_bias@@3MA DD 0b827c5acr	; -4e-05 ; ps_r2_sun_depth_near_bias
?ps_r2_sun_depth_near_scale@@3MA DD 03f800054r	; 1.00001 ; ps_r2_sun_depth_near_scale
?ps_r2_sun_depth_far_scale@@3MA DD 03f800000r	; 1	; ps_r2_sun_depth_far_scale
?ps_r2_sun_near_border@@3MA DD 03f800000r	; 1	; ps_r2_sun_near_border
?ps_r2_sun_far@@3MA DD 043160000r		; 150	; ps_r2_sun_far
?ps_r2_sun_near@@3MA DD 041400000r		; 12	; ps_r2_sun_near
?ps_r2_sun_tsm_bias@@3MA DD 0bd4ccccdr		; -0.05	; ps_r2_sun_tsm_bias
?ps_r2_sun_tsm_projection@@3MA DD 03e3851ecr	; 0.18	; ps_r2_sun_tsm_projection
?ps_r2_ls_squality@@3MA DD 03f800000r		; 1	; ps_r2_ls_squality
?ps_r2_ls_depth_bias@@3MA DD 0b8d1b717r		; -0.0001 ; ps_r2_ls_depth_bias
?ps_r2_ls_depth_scale@@3MA DD 03f800054r	; 1.00001 ; ps_r2_ls_depth_scale
?ps_r2_GI_refl@@3MA DD 03f666666r		; 0.9	; ps_r2_GI_refl
?ps_r2_GI_clip@@3MA DD 03a83126fr		; 0.001	; ps_r2_GI_clip
?ps_r2_GI_photons@@3HA DD 010H				; ps_r2_GI_photons
?ps_r2_GI_depth@@3HA DD 01H				; ps_r2_GI_depth
?ps_r2_mblur@@3MA DD 03f000000r			; 0.5	; ps_r2_mblur
?ps_r2_aa_kernel@@3MA DD 03f000000r		; 0.5	; ps_r2_aa_kernel
?ps_r2_aa_weight@@3U?$_vector3@M@@A DD 03e800000r ; 0.25 ; ps_r2_aa_weight
	DD	03e800000r			; 0.25
	DD	000000000r			; 0
?ps_r2_aa_barier@@3U?$_vector3@M@@A DD 03f4ccccdr ; 0.8	; ps_r2_aa_barier
	DD	03dcccccdr			; 0.1
	DD	000000000r			; 0
?ps_r2_ls_bloom_threshold@@3MA DD 03e99999ar	; 0.3	; ps_r2_ls_bloom_threshold
?ps_r2_ls_ssm_kernel@@3MA DD 03f333333r		; 0.7	; ps_r2_ls_ssm_kernel
?ps_r2_ls_psm_kernel@@3MA DD 03f333333r		; 0.7	; ps_r2_ls_psm_kernel
?ps_r2_ls_dsm_kernel@@3MA DD 03f333333r		; 0.7	; ps_r2_ls_dsm_kernel
?ps_r2_ls_bloom_kernel_scale@@3MA DD 03f800000r	; 1	; ps_r2_ls_bloom_kernel_scale
?ps_r2_ls_bloom_speed@@3MA DD 041200000r	; 10	; ps_r2_ls_bloom_speed
?ps_r2_ls_bloom_kernel_b@@3MA DD 03f333333r	; 0.7	; ps_r2_ls_bloom_kernel_b
?ps_r2_ls_bloom_kernel_g@@3MA DD 040533333r	; 3.3	; ps_r2_ls_bloom_kernel_g
?ps_r2_tonemap_amount@@3MA DD 03f000000r	; 0.5	; ps_r2_tonemap_amount
?ps_r2_tonemap_low_lum@@3MA DD 03a83126fr	; 0.001	; ps_r2_tonemap_low_lum
?ps_r2_tonemap_adaptation@@3MA DD 040a00000r	; 5	; ps_r2_tonemap_adaptation
?ps_r2_tonemap_middlegray@@3MA DD 03e800000r	; 0.25	; ps_r2_tonemap_middlegray
?ps_r2_df_parallax_h@@3MA DD 03ca3d70ar		; 0.02	; ps_r2_df_parallax_h
?ps_r2_ls_flags_ext@@3U?$_flags@I@@A DD 04H		; ps_r2_ls_flags_ext
?ps_r2_pp_flags@@3U?$_flags@I@@A DD 01800000H		; ps_r2_pp_flags
?ps_r2_ls_flags@@3U?$_flags@I@@A DD 01b817H		; ps_r2_ls_flags
?ps_r2_ssaLOD_B@@3MA DD 042000000r		; 32	; ps_r2_ssaLOD_B
?ps_r2_ssaLOD_A@@3MA DD 042400000r		; 48	; ps_r2_ssaLOD_A
?ps_r1_GlowsPerFrame@@3HA DD 010H			; ps_r1_GlowsPerFrame
?ps_r1_dlights_clip@@3MA DD 041f00000r		; 30	; ps_r1_dlights_clip
?ps_r1_lmodel_lerp@@3MA DD 03dcccccdr		; 0.1	; ps_r1_lmodel_lerp
?ps_r1_ssaLOD_B@@3MA DD 042400000r		; 48	; ps_r1_ssaLOD_B
?ps_r1_ssaLOD_A@@3MA DD 042800000r		; 64	; ps_r1_ssaLOD_A
?ps_r__tf_Anisotropic@@3HA DD 04H			; ps_r__tf_Anisotropic
?ps_r__LOD@@3MA DD 03f800000r			; 1	; ps_r__LOD
?dof_quality_token@@3PAUxr_token@@A DD FLAT:??_C@_0L@DMKHIPMC@st_opt_low@ ; dof_quality_token
	DD	01H
	DD	FLAT:??_C@_0O@ICGJDCIF@st_opt_medium@
	DD	02H
	DD	FLAT:??_C@_0M@BELPLPNA@st_opt_high@
	DD	03H
	DD	FLAT:??_C@_0N@NOJEHHGP@st_opt_ultra@
	DD	04H
	DD	00H
	DD	00H
?ps_dof_quality@@3IA DD 02H				; ps_dof_quality
?qsun_shafts_token@@3PAUxr_token@@A DD FLAT:??_C@_0L@HCBKDILD@st_opt_off@ ; qsun_shafts_token
	DD	00H
	DD	FLAT:??_C@_0L@DMKHIPMC@st_opt_low@
	DD	01H
	DD	FLAT:??_C@_0O@ICGJDCIF@st_opt_medium@
	DD	02H
	DD	FLAT:??_C@_0M@BELPLPNA@st_opt_high@
	DD	03H
	DD	00H
	DD	00H
?ps_r_sun_shafts@@3IA DD 02H				; ps_r_sun_shafts
?terrain_bump_mode_token@@3PAUxr_token@@A DD FLAT:??_C@_0BG@PCFGJOBJ@st_opt_normal_mapping@ ; terrain_bump_mode_token
	DD	01H
	DD	FLAT:??_C@_0BI@JPMFBHKB@st_opt_parallax_mapping@
	DD	02H
	DD	FLAT:??_C@_0BO@GABOMOIM@st_opt_steep_parallax_mapping@
	DD	03H
	DD	00H
	DD	00H
?ps_terrain_bump_mode@@3IA DD 02H			; ps_terrain_bump_mode
?tdetail_bump_mode_token@@3PAUxr_token@@A DD FLAT:??_C@_0BG@PCFGJOBJ@st_opt_normal_mapping@ ; tdetail_bump_mode_token
	DD	01H
	DD	FLAT:??_C@_0BI@JPMFBHKB@st_opt_parallax_mapping@
	DD	02H
	DD	FLAT:??_C@_0BO@GABOMOIM@st_opt_steep_parallax_mapping@
	DD	03H
	DD	00H
	DD	00H
?ps_tdetail_bump_mode@@3IA DD 02H			; ps_tdetail_bump_mode
?bump_mode_token@@3PAUxr_token@@A DD FLAT:??_C@_0BG@PCFGJOBJ@st_opt_normal_mapping@ ; bump_mode_token
	DD	01H
	DD	FLAT:??_C@_0BI@JPMFBHKB@st_opt_parallax_mapping@
	DD	02H
	DD	FLAT:??_C@_0BO@GABOMOIM@st_opt_steep_parallax_mapping@
	DD	03H
	DD	00H
	DD	00H
?ps_bump_mode@@3IA DD 02H				; ps_bump_mode
?ps_debug_textures_token@@3PAUxr_token@@A DD FLAT:??_C@_08BEHKFNNO@disabled@ ; ps_debug_textures_token
	DD	00H
	DD	FLAT:??_C@_0L@JCBFJPMJ@uv_checker@
	DD	01H
	DD	FLAT:??_C@_05PMAELIEO@white@
	DD	02H
	DD	00H
	DD	00H
?ps_shadow_filtering@@3IA DD 01H			; ps_shadow_filtering
?debug_frame_layers_token@@3PAUxr_token@@A DD FLAT:??_C@_0L@FCFHAKLB@full_frame@ ; debug_frame_layers_token
	DD	00H
	DD	FLAT:??_C@_0O@OGOGJLIO@gbuffer_color@
	DD	01H
	DD	FLAT:??_C@_0BB@JDGONEGD@gbuffer_position@
	DD	02H
	DD	FLAT:??_C@_0P@MJMAPBJG@gbuffer_normal@
	DD	03H
	DD	FLAT:??_C@_0O@CEEFGHPD@gbuffer_gloss@
	DD	04H
	DD	FLAT:??_C@_0BD@GDNLIEHD@gbuffer_hemisphere@
	DD	05H
	DD	FLAT:??_C@_0BB@NOOGCHKK@gbuffer_material@
	DD	06H
	DD	FLAT:??_C@_0O@FFFHECHC@gbuffer_split@
	DD	07H
	DD	FLAT:??_C@_0BC@LCEMBAKG@accumulator_light@
	DD	08H
	DD	FLAT:??_C@_0BF@BNAEKDKI@accumulator_specular@
	DD	09H
	DD	FLAT:??_C@_0N@IGCKPDGF@real_time_ao@
	DD	0aH
	DD	FLAT:??_C@_0BH@CIMHIFCL@real_time_ao_with_hemi@
	DD	0bH
	DD	FLAT:??_C@_0CE@CCBNNAB@split_with_real_time_ao_and_wit@
	DD	0cH
	DD	FLAT:??_C@_0CC@PCPAFHKF@split_with_hemisphere_and_witho@
	DD	0dH
	DD	FLAT:??_C@_0BF@DBBEEHKL@split_ao_blur_stages@
	DD	0eH
	DD	FLAT:??_C@_0BD@OLEBFLGI@full_ao_with_light@
	DD	0fH
	DD	00H
	DD	00H
?shadow_filter_token@@3PAUxr_token@@A DD FLAT:??_C@_0P@LPJKIMND@st_opt_disable@ ; shadow_filter_token
	DD	00H
	DD	FLAT:??_C@_0L@BLJGDNAN@st_opt_min@
	DD	01H
	DD	FLAT:??_C@_0L@OBHJNFIH@st_opt_mid@
	DD	02H
	DD	FLAT:??_C@_0L@JBNNJGC@st_opt_max@
	DD	03H
	DD	00H
	DD	00H
?sun_quality_token@@3PAUxr_token@@A DD FLAT:??_C@_0L@DMKHIPMC@st_opt_low@ ; sun_quality_token
	DD	01H
	DD	FLAT:??_C@_0O@ICGJDCIF@st_opt_medium@
	DD	02H
	DD	FLAT:??_C@_0M@BELPLPNA@st_opt_high@
	DD	03H
	DD	FLAT:??_C@_0P@BEMJJEFD@st_opt_extreme@
	DD	04H
	DD	FLAT:??_C@_0N@NOJEHHGP@st_opt_ultra@
	DD	05H
	DD	00H
	DD	00H
?ps_sun_quality@@3IA DD 01H				; ps_sun_quality
?ao_quality_token@@3PAUxr_token@@A DD FLAT:??_C@_0L@DMKHIPMC@st_opt_low@ ; ao_quality_token
	DD	01H
	DD	FLAT:??_C@_0O@ICGJDCIF@st_opt_medium@
	DD	02H
	DD	FLAT:??_C@_0M@BELPLPNA@st_opt_high@
	DD	03H
	DD	FLAT:??_C@_0N@NOJEHHGP@st_opt_ultra@
	DD	04H
	DD	00H
	DD	00H
?ps_ao_quality@@3IA DD 02H				; ps_ao_quality
?ao_token@@3PAUxr_token@@A DD FLAT:??_C@_0L@HCBKDILD@st_opt_off@ ; ao_token
	DD	00H
	DD	FLAT:??_C@_0M@HHOHEEMN@st_opt_ssao@
	DD	01H
	DD	FLAT:??_C@_0M@KNBJINHI@st_opt_hdao@
	DD	02H
	DD	FLAT:??_C@_0M@IIHCNCKE@st_opt_hbao@
	DD	03H
	DD	00H
	DD	00H
?ps_ao@@3IA DD	02H					; ps_ao
?aa_quality_token@@3PAUxr_token@@A DD FLAT:??_C@_0L@DMKHIPMC@st_opt_low@ ; aa_quality_token
	DD	01H
	DD	FLAT:??_C@_0O@ICGJDCIF@st_opt_medium@
	DD	02H
	DD	FLAT:??_C@_0M@BELPLPNA@st_opt_high@
	DD	03H
	DD	FLAT:??_C@_0N@NOJEHHGP@st_opt_ultra@
	DD	04H
	DD	00H
	DD	00H
?ps_aa_quality@@3IA DD 02H				; ps_aa_quality
?aa_token@@3PAUxr_token@@A DD FLAT:??_C@_0L@HCBKDILD@st_opt_off@ ; aa_token
	DD	01H
	DD	FLAT:??_C@_0M@DDNOGFBI@st_opt_dlaa@
	DD	02H
	DD	FLAT:??_C@_0BO@GENMAAIH@st_opt_dlaa_force_edge_detect@
	DD	03H
	DD	FLAT:??_C@_0M@JGGFPGLA@st_opt_fxaa@
	DD	04H
	DD	00H
	DD	00H
?ps_aa@@3IA DD	01H					; ps_aa
?qeffpreset_token@@3PAUxr_token@@A DD FLAT:??_C@_0BE@NNEJNGLG@st_opt_eff_disabled@ ; qeffpreset_token
	DD	00H
	DD	FLAT:??_C@_0BD@ENJGPEE@st_opt_eff_default@
	DD	01H
	DD	FLAT:??_C@_0BF@HEJJKJFG@st_opt_eff_cinematic@
	DD	02H
	DD	00H
	DD	00H
?ps_EffPreset@@3IA DD 02H				; ps_EffPreset
?qpreset_token@@3PAUxr_token@@A DD FLAT:??_C@_07NLJCBFAF@Minimum@ ; qpreset_token
	DD	00H
	DD	FLAT:??_C@_03CMIMKEEK@Low@
	DD	01H
	DD	FLAT:??_C@_07MCAEODGB@Default@
	DD	02H
	DD	FLAT:??_C@_04PHMMJPOJ@High@
	DD	03H
	DD	FLAT:??_C@_07DNPCLKOE@Maximum@
	DD	04H
	DD	FLAT:??_C@_07GDPLEOIL@Extreme@
	DD	05H
	DD	FLAT:??_C@_05IBHCIMEH@Ultra@
	DD	06H
	DD	00H
	DD	00H
?ps_Preset@@3IA DD 03H					; ps_Preset
?ps_r__Tree_Wave@@3U?$_vector3@M@@A DD 03dcccccdr ; 0.1	; ps_r__Tree_Wave
	DD	03c23d70ar			; 0.01
	DD	03de147aer			; 0.11
?ps_r2_slight_fade@@3MA DD 03f800000r		; 1	; ps_r2_slight_fade
?ps_r2_sun_lumscale@@3MA DD 03f800000r		; 1	; ps_r2_sun_lumscale
?ps_r1_flags@@3U?$_flags@I@@A DD 01H			; ps_r1_flags
?_Fake_alloc@std@@3U_Fake_allocator@1@B	ORG $+1		; std::_Fake_alloc
?ps_r__WallmarkSHIFT_V@@3MA DD 038d1b717r	; 0.0001 ; ps_r__WallmarkSHIFT_V
?ps_r__WallmarkSHIFT@@3MA DD 038d1b717r		; 0.0001 ; ps_r__WallmarkSHIFT
?ps_r__WallmarkTTL@@3MA DD 043960000r		; 300	; ps_r__WallmarkTTL
?ps_r__Detail_l_aniso@@3MA DD 03e800000r	; 0.25	; ps_r__Detail_l_aniso
?ps_r__Detail_l_ambient@@3MA DD 03f666666r	; 0.9	; ps_r__Detail_l_ambient
?ps_r__ssaHZBvsTEX@@3MA DD 042c00000r		; 96	; ps_r__ssaHZBvsTEX
?ps_r__ssaDONTSORT@@3MA DD 042000000r		; 32	; ps_r__ssaDONTSORT
?ps_r__ssaDISCARD@@3MA DD 040600000r		; 3.5	; ps_r__ssaDISCARD
?ps_r__GLOD_ssa_end@@3MA DD 042800000r		; 64	; ps_r__GLOD_ssa_end
?ps_r__GLOD_ssa_start@@3MA DD 043800000r	; 256	; ps_r__GLOD_ssa_start
?ps_r__Tree_SBC@@3MA DD 03fc00000r		; 1.5	; ps_r__Tree_SBC
?ps_r__Tree_w_speed@@3MA DD 03f800000r		; 1	; ps_r__Tree_w_speed
?ps_r__Tree_w_amp@@3MA DD 03ba3d70ar		; 0.005	; ps_r__Tree_w_amp
?ps_r__Tree_w_rot@@3MA DD 041200000r		; 10	; ps_r__Tree_w_rot
?ps_r2_lt_smooth@@3MA DD 03f800000r		; 1	; ps_r2_lt_smooth
?ps_r2_dhemi_scale@@3MA DD 03f800000r		; 1	; ps_r2_dhemi_scale
?ps_r2_dhemi_count@@3HA DD 05H				; ps_r2_dhemi_count
PUBLIC	?set@?$_flags@I@@QAEAAU1@IH@Z			; _flags<unsigned int>::set
PUBLIC	_sscanf
PUBLIC	__vsscanf_l
PUBLIC	___local_stdio_scanf_options
PUBLIC	__snprintf
PUBLIC	__vsnprintf
PUBLIC	__vsnprintf_l
PUBLIC	_sprintf
PUBLIC	__vsprintf_l
PUBLIC	?xrRender_apply_tf@@YAXXZ			; xrRender_apply_tf
PUBLIC	?xrRender_initconsole@@YAXXZ			; xrRender_initconsole
PUBLIC	??1CCC_Dof@@UAE@XZ				; CCC_Dof::~CCC_Dof
PUBLIC	??_GCCC_Dof@@UAEPAXI@Z				; CCC_Dof::`scalar deleting destructor'
PUBLIC	?Info@CCC_Dof@@UAEXAAY0BAA@D@Z			; CCC_Dof::Info
PUBLIC	?Status@CCC_Dof@@UAEXAAY0BAA@D@Z		; CCC_Dof::Status
PUBLIC	?Execute@CCC_Dof@@UAEXPBD@Z			; CCC_Dof::Execute
PUBLIC	??0CCC_Dof@@QAE@PBDPAU?$_vector3@M@@U1@2@Z	; CCC_Dof::CCC_Dof
PUBLIC	??1CCC_DofFocus@@UAE@XZ				; CCC_DofFocus::~CCC_DofFocus
PUBLIC	??_GCCC_DofFocus@@UAEPAXI@Z			; CCC_DofFocus::`scalar deleting destructor'
PUBLIC	?Save@CCC_DofFocus@@UAEXPAVIWriter@@@Z		; CCC_DofFocus::Save
PUBLIC	?Execute@CCC_DofFocus@@UAEXPBD@Z		; CCC_DofFocus::Execute
PUBLIC	??0CCC_DofFocus@@QAE@PBDPAMMM@Z			; CCC_DofFocus::CCC_DofFocus
PUBLIC	??1CCC_DofNear@@UAE@XZ				; CCC_DofNear::~CCC_DofNear
PUBLIC	??_GCCC_DofNear@@UAEPAXI@Z			; CCC_DofNear::`scalar deleting destructor'
PUBLIC	?Save@CCC_DofNear@@UAEXPAVIWriter@@@Z		; CCC_DofNear::Save
PUBLIC	?Execute@CCC_DofNear@@UAEXPBD@Z			; CCC_DofNear::Execute
PUBLIC	??0CCC_DofNear@@QAE@PBDPAMMM@Z			; CCC_DofNear::CCC_DofNear
PUBLIC	??1CCC_DofFar@@UAE@XZ				; CCC_DofFar::~CCC_DofFar
PUBLIC	??_GCCC_DofFar@@UAEPAXI@Z			; CCC_DofFar::`scalar deleting destructor'
PUBLIC	?Save@CCC_DofFar@@UAEXPAVIWriter@@@Z		; CCC_DofFar::Save
PUBLIC	?Execute@CCC_DofFar@@UAEXPBD@Z			; CCC_DofFar::Execute
PUBLIC	??0CCC_DofFar@@QAE@PBDPAMMM@Z			; CCC_DofFar::CCC_DofFar
PUBLIC	??1CCC_EffPreset@@UAE@XZ			; CCC_EffPreset::~CCC_EffPreset
PUBLIC	??_GCCC_EffPreset@@UAEPAXI@Z			; CCC_EffPreset::`scalar deleting destructor'
PUBLIC	?Execute@CCC_EffPreset@@UAEXPBD@Z		; CCC_EffPreset::Execute
PUBLIC	??0CCC_EffPreset@@QAE@PBDPAIPAUxr_token@@@Z	; CCC_EffPreset::CCC_EffPreset
PUBLIC	??1CCC_Preset@@UAE@XZ				; CCC_Preset::~CCC_Preset
PUBLIC	??_GCCC_Preset@@UAEPAXI@Z			; CCC_Preset::`scalar deleting destructor'
PUBLIC	?Execute@CCC_Preset@@UAEXPBD@Z			; CCC_Preset::Execute
PUBLIC	??0CCC_Preset@@QAE@PBDPAIPAUxr_token@@@Z	; CCC_Preset::CCC_Preset
PUBLIC	??1CCC_Screenshot@@UAE@XZ			; CCC_Screenshot::~CCC_Screenshot
PUBLIC	??_GCCC_Screenshot@@UAEPAXI@Z			; CCC_Screenshot::`scalar deleting destructor'
PUBLIC	?Execute@CCC_Screenshot@@UAEXPBD@Z		; CCC_Screenshot::Execute
PUBLIC	??0CCC_Screenshot@@QAE@PBD@Z			; CCC_Screenshot::CCC_Screenshot
PUBLIC	??1CCC_R2GM@@UAE@XZ				; CCC_R2GM::~CCC_R2GM
PUBLIC	??_GCCC_R2GM@@UAEPAXI@Z				; CCC_R2GM::`scalar deleting destructor'
PUBLIC	?Execute@CCC_R2GM@@UAEXPBD@Z			; CCC_R2GM::Execute
PUBLIC	??0CCC_R2GM@@QAE@PBDPAM@Z			; CCC_R2GM::CCC_R2GM
PUBLIC	??1CCC_tf_MipBias@@UAE@XZ			; CCC_tf_MipBias::~CCC_tf_MipBias
PUBLIC	??_GCCC_tf_MipBias@@UAEPAXI@Z			; CCC_tf_MipBias::`scalar deleting destructor'
PUBLIC	?Status@CCC_tf_MipBias@@UAEXAAY0BAA@D@Z		; CCC_tf_MipBias::Status
PUBLIC	?Execute@CCC_tf_MipBias@@UAEXPBD@Z		; CCC_tf_MipBias::Execute
PUBLIC	??0CCC_tf_MipBias@@QAE@PBDPAM@Z			; CCC_tf_MipBias::CCC_tf_MipBias
PUBLIC	?apply@CCC_tf_MipBias@@QAEXXZ			; CCC_tf_MipBias::apply
PUBLIC	??1CCC_tf_Aniso@@UAE@XZ				; CCC_tf_Aniso::~CCC_tf_Aniso
PUBLIC	??_GCCC_tf_Aniso@@UAEPAXI@Z			; CCC_tf_Aniso::`scalar deleting destructor'
PUBLIC	?Status@CCC_tf_Aniso@@UAEXAAY0BAA@D@Z		; CCC_tf_Aniso::Status
PUBLIC	?Execute@CCC_tf_Aniso@@UAEXPBD@Z		; CCC_tf_Aniso::Execute
PUBLIC	??0CCC_tf_Aniso@@QAE@PBDPAH@Z			; CCC_tf_Aniso::CCC_tf_Aniso
PUBLIC	?apply@CCC_tf_Aniso@@QAEXXZ			; CCC_tf_Aniso::apply
PUBLIC	?ps_r2_dof@@3U?$_vector3@M@@A			; ps_r2_dof
EXTRN	??_ECCC_tf_Aniso@@UAEPAXI@Z:PROC		; CCC_tf_Aniso::`vector deleting destructor'
EXTRN	??_ECCC_tf_MipBias@@UAEPAXI@Z:PROC		; CCC_tf_MipBias::`vector deleting destructor'
EXTRN	??_ECCC_R2GM@@UAEPAXI@Z:PROC			; CCC_R2GM::`vector deleting destructor'
EXTRN	??_ECCC_Screenshot@@UAEPAXI@Z:PROC		; CCC_Screenshot::`vector deleting destructor'
EXTRN	??_ECCC_Preset@@UAEPAXI@Z:PROC			; CCC_Preset::`vector deleting destructor'
EXTRN	??_ECCC_EffPreset@@UAEPAXI@Z:PROC		; CCC_EffPreset::`vector deleting destructor'
EXTRN	??_ECCC_DofFar@@UAEPAXI@Z:PROC			; CCC_DofFar::`vector deleting destructor'
EXTRN	??_ECCC_DofNear@@UAEPAXI@Z:PROC			; CCC_DofNear::`vector deleting destructor'
EXTRN	??_ECCC_DofFocus@@UAEPAXI@Z:PROC		; CCC_DofFocus::`vector deleting destructor'
EXTRN	??_ECCC_Dof@@UAEPAXI@Z:PROC			; CCC_Dof::`vector deleting destructor'
;	COMDAT ?$TSS0@?2??xrRender_initconsole@@YAXXZ@4HA
_BSS	SEGMENT
?$TSS0@?2??xrRender_initconsole@@YAXXZ@4HA DD 01H DUP (?) ; `xrRender_initconsole'::`3'::$TSS0
_BSS	ENDS
;	COMDAT ?xCCC_Mask@?2??xrRender_initconsole@@YAXXZ@4VCCC_Mask@@A
_BSS	SEGMENT
?xCCC_Mask@?2??xrRender_initconsole@@YAXXZ@4VCCC_Mask@@A DB 020H DUP (?) ; `xrRender_initconsole'::`3'::xCCC_Mask
_BSS	ENDS
;	COMDAT ?$TSS1@?3??xrRender_initconsole@@YAXXZ@4HA
_BSS	SEGMENT
?$TSS1@?3??xrRender_initconsole@@YAXXZ@4HA DD 01H DUP (?) ; `xrRender_initconsole'::`4'::$TSS1
_BSS	ENDS
;	COMDAT ?xCCC_Mask@?3??xrRender_initconsole@@YAXXZ@4VCCC_Mask@@A
_BSS	SEGMENT
?xCCC_Mask@?3??xrRender_initconsole@@YAXXZ@4VCCC_Mask@@A DB 020H DUP (?) ; `xrRender_initconsole'::`4'::xCCC_Mask
_BSS	ENDS
;	COMDAT ?$TSS2@?4??xrRender_initconsole@@YAXXZ@4HA
_BSS	SEGMENT
?$TSS2@?4??xrRender_initconsole@@YAXXZ@4HA DD 01H DUP (?) ; `xrRender_initconsole'::`5'::$TSS2
_BSS	ENDS
;	COMDAT ?xCCC_Mask@?4??xrRender_initconsole@@YAXXZ@4VCCC_Mask@@A
_BSS	SEGMENT
?xCCC_Mask@?4??xrRender_initconsole@@YAXXZ@4VCCC_Mask@@A DB 020H DUP (?) ; `xrRender_initconsole'::`5'::xCCC_Mask
_BSS	ENDS
;	COMDAT ?$TSS3@?5??xrRender_initconsole@@YAXXZ@4HA
_BSS	SEGMENT
?$TSS3@?5??xrRender_initconsole@@YAXXZ@4HA DD 01H DUP (?) ; `xrRender_initconsole'::`6'::$TSS3
_BSS	ENDS
;	COMDAT ?xCCC_Token@?5??xrRender_initconsole@@YAXXZ@4VCCC_Token@@A
_BSS	SEGMENT
?xCCC_Token@?5??xrRender_initconsole@@YAXXZ@4VCCC_Token@@A DB 020H DUP (?) ; `xrRender_initconsole'::`6'::xCCC_Token
_BSS	ENDS
;	COMDAT ?$TSS4@?6??xrRender_initconsole@@YAXXZ@4HA
_BSS	SEGMENT
?$TSS4@?6??xrRender_initconsole@@YAXXZ@4HA DD 01H DUP (?) ; `xrRender_initconsole'::`7'::$TSS4
_BSS	ENDS
;	COMDAT ?xCCC_Token@?6??xrRender_initconsole@@YAXXZ@4VCCC_Token@@A
_BSS	SEGMENT
?xCCC_Token@?6??xrRender_initconsole@@YAXXZ@4VCCC_Token@@A DB 020H DUP (?) ; `xrRender_initconsole'::`7'::xCCC_Token
_BSS	ENDS
;	COMDAT ?$TSS5@?7??xrRender_initconsole@@YAXXZ@4HA
_BSS	SEGMENT
?$TSS5@?7??xrRender_initconsole@@YAXXZ@4HA DD 01H DUP (?) ; `xrRender_initconsole'::`8'::$TSS5
_BSS	ENDS
;	COMDAT ?xCCC_Token@?7??xrRender_initconsole@@YAXXZ@4VCCC_Token@@A
_BSS	SEGMENT
?xCCC_Token@?7??xrRender_initconsole@@YAXXZ@4VCCC_Token@@A DB 020H DUP (?) ; `xrRender_initconsole'::`8'::xCCC_Token
_BSS	ENDS
;	COMDAT ?$TSS6@?8??xrRender_initconsole@@YAXXZ@4HA
_BSS	SEGMENT
?$TSS6@?8??xrRender_initconsole@@YAXXZ@4HA DD 01H DUP (?) ; `xrRender_initconsole'::`9'::$TSS6
_BSS	ENDS
;	COMDAT ?xCCC_Token@?8??xrRender_initconsole@@YAXXZ@4VCCC_Token@@A
_BSS	SEGMENT
?xCCC_Token@?8??xrRender_initconsole@@YAXXZ@4VCCC_Token@@A DB 020H DUP (?) ; `xrRender_initconsole'::`9'::xCCC_Token
_BSS	ENDS
;	COMDAT ?$TSS7@?9??xrRender_initconsole@@YAXXZ@4HA
_BSS	SEGMENT
?$TSS7@?9??xrRender_initconsole@@YAXXZ@4HA DD 01H DUP (?) ; `xrRender_initconsole'::`10'::$TSS7
_BSS	ENDS
;	COMDAT ?xCCC_Mask@?9??xrRender_initconsole@@YAXXZ@4VCCC_Mask@@A
_BSS	SEGMENT
?xCCC_Mask@?9??xrRender_initconsole@@YAXXZ@4VCCC_Mask@@A DB 020H DUP (?) ; `xrRender_initconsole'::`10'::xCCC_Mask
_BSS	ENDS
;	COMDAT ?$TSS8@?L@??xrRender_initconsole@@YAXXZ@4HA
_BSS	SEGMENT
?$TSS8@?L@??xrRender_initconsole@@YAXXZ@4HA DD 01H DUP (?) ; `xrRender_initconsole'::`11'::$TSS8
_BSS	ENDS
;	COMDAT ?xCCC_Mask@?L@??xrRender_initconsole@@YAXXZ@4VCCC_Mask@@A
_BSS	SEGMENT
?xCCC_Mask@?L@??xrRender_initconsole@@YAXXZ@4VCCC_Mask@@A DB 020H DUP (?) ; `xrRender_initconsole'::`11'::xCCC_Mask
_BSS	ENDS
;	COMDAT ?$TSS9@?M@??xrRender_initconsole@@YAXXZ@4HA
_BSS	SEGMENT
?$TSS9@?M@??xrRender_initconsole@@YAXXZ@4HA DD 01H DUP (?) ; `xrRender_initconsole'::`12'::$TSS9
_BSS	ENDS
;	COMDAT ?xCCC_Mask@?M@??xrRender_initconsole@@YAXXZ@4VCCC_Mask@@A
_BSS	SEGMENT
?xCCC_Mask@?M@??xrRender_initconsole@@YAXXZ@4VCCC_Mask@@A DB 020H DUP (?) ; `xrRender_initconsole'::`12'::xCCC_Mask
_BSS	ENDS
;	COMDAT ?$TSS10@?N@??xrRender_initconsole@@YAXXZ@4HA
_BSS	SEGMENT
?$TSS10@?N@??xrRender_initconsole@@YAXXZ@4HA DD 01H DUP (?) ; `xrRender_initconsole'::`13'::$TSS10
_BSS	ENDS
;	COMDAT ?xCCC_Mask@?N@??xrRender_initconsole@@YAXXZ@4VCCC_Mask@@A
_BSS	SEGMENT
?xCCC_Mask@?N@??xrRender_initconsole@@YAXXZ@4VCCC_Mask@@A DB 020H DUP (?) ; `xrRender_initconsole'::`13'::xCCC_Mask
_BSS	ENDS
;	COMDAT ?$TSS11@?O@??xrRender_initconsole@@YAXXZ@4HA
_BSS	SEGMENT
?$TSS11@?O@??xrRender_initconsole@@YAXXZ@4HA DD 01H DUP (?) ; `xrRender_initconsole'::`14'::$TSS11
_BSS	ENDS
;	COMDAT ?xCCC_Dof@?O@??xrRender_initconsole@@YAXXZ@4VCCC_Dof@@A
_BSS	SEGMENT
?xCCC_Dof@?O@??xrRender_initconsole@@YAXXZ@4VCCC_Dof@@A DB 034H DUP (?) ; `xrRender_initconsole'::`14'::xCCC_Dof
_BSS	ENDS
;	COMDAT ?$TSS12@?P@??xrRender_initconsole@@YAXXZ@4HA
_BSS	SEGMENT
?$TSS12@?P@??xrRender_initconsole@@YAXXZ@4HA DD 01H DUP (?) ; `xrRender_initconsole'::`15'::$TSS12
_BSS	ENDS
;	COMDAT ?xCCC_DofNear@?P@??xrRender_initconsole@@YAXXZ@4VCCC_DofNear@@A
_BSS	SEGMENT
?xCCC_DofNear@?P@??xrRender_initconsole@@YAXXZ@4VCCC_DofNear@@A DB 024H DUP (?) ; `xrRender_initconsole'::`15'::xCCC_DofNear
_BSS	ENDS
;	COMDAT ?$TSS13@?BA@??xrRender_initconsole@@YAXXZ@4HA
_BSS	SEGMENT
?$TSS13@?BA@??xrRender_initconsole@@YAXXZ@4HA DD 01H DUP (?) ; `xrRender_initconsole'::`16'::$TSS13
_BSS	ENDS
;	COMDAT ?xCCC_DofFocus@?BA@??xrRender_initconsole@@YAXXZ@4VCCC_DofFocus@@A
_BSS	SEGMENT
?xCCC_DofFocus@?BA@??xrRender_initconsole@@YAXXZ@4VCCC_DofFocus@@A DB 024H DUP (?) ; `xrRender_initconsole'::`16'::xCCC_DofFocus
_BSS	ENDS
;	COMDAT ?$TSS14@?BB@??xrRender_initconsole@@YAXXZ@4HA
_BSS	SEGMENT
?$TSS14@?BB@??xrRender_initconsole@@YAXXZ@4HA DD 01H DUP (?) ; `xrRender_initconsole'::`17'::$TSS14
_BSS	ENDS
;	COMDAT ?xCCC_DofFar@?BB@??xrRender_initconsole@@YAXXZ@4VCCC_DofFar@@A
_BSS	SEGMENT
?xCCC_DofFar@?BB@??xrRender_initconsole@@YAXXZ@4VCCC_DofFar@@A DB 024H DUP (?) ; `xrRender_initconsole'::`17'::xCCC_DofFar
_BSS	ENDS
;	COMDAT ?$TSS15@?BC@??xrRender_initconsole@@YAXXZ@4HA
_BSS	SEGMENT
?$TSS15@?BC@??xrRender_initconsole@@YAXXZ@4HA DD 01H DUP (?) ; `xrRender_initconsole'::`18'::$TSS15
_BSS	ENDS
;	COMDAT ?xCCC_Float@?BC@??xrRender_initconsole@@YAXXZ@4VCCC_Float@@A
_BSS	SEGMENT
?xCCC_Float@?BC@??xrRender_initconsole@@YAXXZ@4VCCC_Float@@A DB 024H DUP (?) ; `xrRender_initconsole'::`18'::xCCC_Float
_BSS	ENDS
;	COMDAT ?$TSS16@?BD@??xrRender_initconsole@@YAXXZ@4HA
_BSS	SEGMENT
?$TSS16@?BD@??xrRender_initconsole@@YAXXZ@4HA DD 01H DUP (?) ; `xrRender_initconsole'::`19'::$TSS16
_BSS	ENDS
;	COMDAT ?xCCC_Float@?BD@??xrRender_initconsole@@YAXXZ@4VCCC_Float@@A
_BSS	SEGMENT
?xCCC_Float@?BD@??xrRender_initconsole@@YAXXZ@4VCCC_Float@@A DB 024H DUP (?) ; `xrRender_initconsole'::`19'::xCCC_Float
_BSS	ENDS
;	COMDAT ?$TSS17@?BE@??xrRender_initconsole@@YAXXZ@4HA
_BSS	SEGMENT
?$TSS17@?BE@??xrRender_initconsole@@YAXXZ@4HA DD 01H DUP (?) ; `xrRender_initconsole'::`20'::$TSS17
_BSS	ENDS
;	COMDAT ?xCCC_Mask@?BE@??xrRender_initconsole@@YAXXZ@4VCCC_Mask@@A
_BSS	SEGMENT
?xCCC_Mask@?BE@??xrRender_initconsole@@YAXXZ@4VCCC_Mask@@A DB 020H DUP (?) ; `xrRender_initconsole'::`20'::xCCC_Mask
_BSS	ENDS
;	COMDAT ?$TSS18@?BF@??xrRender_initconsole@@YAXXZ@4HA
_BSS	SEGMENT
?$TSS18@?BF@??xrRender_initconsole@@YAXXZ@4HA DD 01H DUP (?) ; `xrRender_initconsole'::`21'::$TSS18
_BSS	ENDS
;	COMDAT ?xCCC_Token@?BF@??xrRender_initconsole@@YAXXZ@4VCCC_Token@@A
_BSS	SEGMENT
?xCCC_Token@?BF@??xrRender_initconsole@@YAXXZ@4VCCC_Token@@A DB 020H DUP (?) ; `xrRender_initconsole'::`21'::xCCC_Token
_BSS	ENDS
;	COMDAT ?$TSS19@?BG@??xrRender_initconsole@@YAXXZ@4HA
_BSS	SEGMENT
?$TSS19@?BG@??xrRender_initconsole@@YAXXZ@4HA DD 01H DUP (?) ; `xrRender_initconsole'::`22'::$TSS19
_BSS	ENDS
;	COMDAT ?xCCC_Mask@?BG@??xrRender_initconsole@@YAXXZ@4VCCC_Mask@@A
_BSS	SEGMENT
?xCCC_Mask@?BG@??xrRender_initconsole@@YAXXZ@4VCCC_Mask@@A DB 020H DUP (?) ; `xrRender_initconsole'::`22'::xCCC_Mask
_BSS	ENDS
;	COMDAT ?$TSS20@?BH@??xrRender_initconsole@@YAXXZ@4HA
_BSS	SEGMENT
?$TSS20@?BH@??xrRender_initconsole@@YAXXZ@4HA DD 01H DUP (?) ; `xrRender_initconsole'::`23'::$TSS20
_BSS	ENDS
;	COMDAT ?xCCC_Token@?BH@??xrRender_initconsole@@YAXXZ@4VCCC_Token@@A
_BSS	SEGMENT
?xCCC_Token@?BH@??xrRender_initconsole@@YAXXZ@4VCCC_Token@@A DB 020H DUP (?) ; `xrRender_initconsole'::`23'::xCCC_Token
_BSS	ENDS
;	COMDAT ?$TSS21@?BI@??xrRender_initconsole@@YAXXZ@4HA
_BSS	SEGMENT
?$TSS21@?BI@??xrRender_initconsole@@YAXXZ@4HA DD 01H DUP (?) ; `xrRender_initconsole'::`24'::$TSS21
_BSS	ENDS
;	COMDAT ?xCCC_Token@?BI@??xrRender_initconsole@@YAXXZ@4VCCC_Token@@A
_BSS	SEGMENT
?xCCC_Token@?BI@??xrRender_initconsole@@YAXXZ@4VCCC_Token@@A DB 020H DUP (?) ; `xrRender_initconsole'::`24'::xCCC_Token
_BSS	ENDS
;	COMDAT ?$TSS22@?BJ@??xrRender_initconsole@@YAXXZ@4HA
_BSS	SEGMENT
?$TSS22@?BJ@??xrRender_initconsole@@YAXXZ@4HA DD 01H DUP (?) ; `xrRender_initconsole'::`25'::$TSS22
_BSS	ENDS
;	COMDAT ?xCCC_Token@?BJ@??xrRender_initconsole@@YAXXZ@4VCCC_Token@@A
_BSS	SEGMENT
?xCCC_Token@?BJ@??xrRender_initconsole@@YAXXZ@4VCCC_Token@@A DB 020H DUP (?) ; `xrRender_initconsole'::`25'::xCCC_Token
_BSS	ENDS
;	COMDAT ?$TSS23@?BK@??xrRender_initconsole@@YAXXZ@4HA
_BSS	SEGMENT
?$TSS23@?BK@??xrRender_initconsole@@YAXXZ@4HA DD 01H DUP (?) ; `xrRender_initconsole'::`26'::$TSS23
_BSS	ENDS
;	COMDAT ?xCCC_Token@?BK@??xrRender_initconsole@@YAXXZ@4VCCC_Token@@A
_BSS	SEGMENT
?xCCC_Token@?BK@??xrRender_initconsole@@YAXXZ@4VCCC_Token@@A DB 020H DUP (?) ; `xrRender_initconsole'::`26'::xCCC_Token
_BSS	ENDS
;	COMDAT ?$TSS24@?BL@??xrRender_initconsole@@YAXXZ@4HA
_BSS	SEGMENT
?$TSS24@?BL@??xrRender_initconsole@@YAXXZ@4HA DD 01H DUP (?) ; `xrRender_initconsole'::`27'::$TSS24
_BSS	ENDS
;	COMDAT ?xCCC_Token@?BL@??xrRender_initconsole@@YAXXZ@4VCCC_Token@@A
_BSS	SEGMENT
?xCCC_Token@?BL@??xrRender_initconsole@@YAXXZ@4VCCC_Token@@A DB 020H DUP (?) ; `xrRender_initconsole'::`27'::xCCC_Token
_BSS	ENDS
;	COMDAT ?$TSS25@?BM@??xrRender_initconsole@@YAXXZ@4HA
_BSS	SEGMENT
?$TSS25@?BM@??xrRender_initconsole@@YAXXZ@4HA DD 01H DUP (?) ; `xrRender_initconsole'::`28'::$TSS25
_BSS	ENDS
;	COMDAT ?xCCC_Token@?BM@??xrRender_initconsole@@YAXXZ@4VCCC_Token@@A
_BSS	SEGMENT
?xCCC_Token@?BM@??xrRender_initconsole@@YAXXZ@4VCCC_Token@@A DB 020H DUP (?) ; `xrRender_initconsole'::`28'::xCCC_Token
_BSS	ENDS
;	COMDAT ?$TSS26@?BN@??xrRender_initconsole@@YAXXZ@4HA
_BSS	SEGMENT
?$TSS26@?BN@??xrRender_initconsole@@YAXXZ@4HA DD 01H DUP (?) ; `xrRender_initconsole'::`29'::$TSS26
_BSS	ENDS
;	COMDAT ?xCCC_Token@?BN@??xrRender_initconsole@@YAXXZ@4VCCC_Token@@A
_BSS	SEGMENT
?xCCC_Token@?BN@??xrRender_initconsole@@YAXXZ@4VCCC_Token@@A DB 020H DUP (?) ; `xrRender_initconsole'::`29'::xCCC_Token
_BSS	ENDS
;	COMDAT ?$TSS27@?BO@??xrRender_initconsole@@YAXXZ@4HA
_BSS	SEGMENT
?$TSS27@?BO@??xrRender_initconsole@@YAXXZ@4HA DD 01H DUP (?) ; `xrRender_initconsole'::`30'::$TSS27
_BSS	ENDS
;	COMDAT ?xCCC_Token@?BO@??xrRender_initconsole@@YAXXZ@4VCCC_Token@@A
_BSS	SEGMENT
?xCCC_Token@?BO@??xrRender_initconsole@@YAXXZ@4VCCC_Token@@A DB 020H DUP (?) ; `xrRender_initconsole'::`30'::xCCC_Token
_BSS	ENDS
;	COMDAT ?$TSS28@?BP@??xrRender_initconsole@@YAXXZ@4HA
_BSS	SEGMENT
?$TSS28@?BP@??xrRender_initconsole@@YAXXZ@4HA DD 01H DUP (?) ; `xrRender_initconsole'::`31'::$TSS28
_BSS	ENDS
;	COMDAT ?xCCC_Mask@?BP@??xrRender_initconsole@@YAXXZ@4VCCC_Mask@@A
_BSS	SEGMENT
?xCCC_Mask@?BP@??xrRender_initconsole@@YAXXZ@4VCCC_Mask@@A DB 020H DUP (?) ; `xrRender_initconsole'::`31'::xCCC_Mask
_BSS	ENDS
;	COMDAT ?$TSS29@?CA@??xrRender_initconsole@@YAXXZ@4HA
_BSS	SEGMENT
?$TSS29@?CA@??xrRender_initconsole@@YAXXZ@4HA DD 01H DUP (?) ; `xrRender_initconsole'::`32'::$TSS29
_BSS	ENDS
;	COMDAT ?xCCC_Preset@?CA@??xrRender_initconsole@@YAXXZ@4VCCC_Preset@@A
_BSS	SEGMENT
?xCCC_Preset@?CA@??xrRender_initconsole@@YAXXZ@4VCCC_Preset@@A DB 020H DUP (?) ; `xrRender_initconsole'::`32'::xCCC_Preset
_BSS	ENDS
;	COMDAT ?$TSS30@?CB@??xrRender_initconsole@@YAXXZ@4HA
_BSS	SEGMENT
?$TSS30@?CB@??xrRender_initconsole@@YAXXZ@4HA DD 01H DUP (?) ; `xrRender_initconsole'::`33'::$TSS30
_BSS	ENDS
;	COMDAT ?xCCC_EffPreset@?CB@??xrRender_initconsole@@YAXXZ@4VCCC_EffPreset@@A
_BSS	SEGMENT
?xCCC_EffPreset@?CB@??xrRender_initconsole@@YAXXZ@4VCCC_EffPreset@@A DB 020H DUP (?) ; `xrRender_initconsole'::`33'::xCCC_EffPreset
_BSS	ENDS
;	COMDAT ?$TSS31@?CC@??xrRender_initconsole@@YAXXZ@4HA
_BSS	SEGMENT
?$TSS31@?CC@??xrRender_initconsole@@YAXXZ@4HA DD 01H DUP (?) ; `xrRender_initconsole'::`34'::$TSS31
_BSS	ENDS
;	COMDAT ?xCCC_Screenshot@?CC@??xrRender_initconsole@@YAXXZ@4VCCC_Screenshot@@A
_BSS	SEGMENT
?xCCC_Screenshot@?CC@??xrRender_initconsole@@YAXXZ@4VCCC_Screenshot@@A DB 018H DUP (?) ; `xrRender_initconsole'::`34'::xCCC_Screenshot
_BSS	ENDS
;	COMDAT ?$TSS32@?CD@??xrRender_initconsole@@YAXXZ@4HA
_BSS	SEGMENT
?$TSS32@?CD@??xrRender_initconsole@@YAXXZ@4HA DD 01H DUP (?) ; `xrRender_initconsole'::`35'::$TSS32
_BSS	ENDS
;	COMDAT ?xCCC_Float@?CD@??xrRender_initconsole@@YAXXZ@4VCCC_Float@@A
_BSS	SEGMENT
?xCCC_Float@?CD@??xrRender_initconsole@@YAXXZ@4VCCC_Float@@A DB 024H DUP (?) ; `xrRender_initconsole'::`35'::xCCC_Float
_BSS	ENDS
;	COMDAT ?$TSS33@?CE@??xrRender_initconsole@@YAXXZ@4HA
_BSS	SEGMENT
?$TSS33@?CE@??xrRender_initconsole@@YAXXZ@4HA DD 01H DUP (?) ; `xrRender_initconsole'::`36'::$TSS33
_BSS	ENDS
;	COMDAT ?xCCC_Float@?CE@??xrRender_initconsole@@YAXXZ@4VCCC_Float@@A
_BSS	SEGMENT
?xCCC_Float@?CE@??xrRender_initconsole@@YAXXZ@4VCCC_Float@@A DB 024H DUP (?) ; `xrRender_initconsole'::`36'::xCCC_Float
_BSS	ENDS
;	COMDAT ?$TSS34@?CF@??xrRender_initconsole@@YAXXZ@4HA
_BSS	SEGMENT
?$TSS34@?CF@??xrRender_initconsole@@YAXXZ@4HA DD 01H DUP (?) ; `xrRender_initconsole'::`37'::$TSS34
_BSS	ENDS
;	COMDAT ?xCCC_tf_Aniso@?CF@??xrRender_initconsole@@YAXXZ@4VCCC_tf_Aniso@@A
_BSS	SEGMENT
?xCCC_tf_Aniso@?CF@??xrRender_initconsole@@YAXXZ@4VCCC_tf_Aniso@@A DB 024H DUP (?) ; `xrRender_initconsole'::`37'::xCCC_tf_Aniso
_BSS	ENDS
;	COMDAT ?$TSS35@?CG@??xrRender_initconsole@@YAXXZ@4HA
_BSS	SEGMENT
?$TSS35@?CG@??xrRender_initconsole@@YAXXZ@4HA DD 01H DUP (?) ; `xrRender_initconsole'::`38'::$TSS35
_BSS	ENDS
;	COMDAT ?xCCC_Float@?CG@??xrRender_initconsole@@YAXXZ@4VCCC_Float@@A
_BSS	SEGMENT
?xCCC_Float@?CG@??xrRender_initconsole@@YAXXZ@4VCCC_Float@@A DB 024H DUP (?) ; `xrRender_initconsole'::`38'::xCCC_Float
_BSS	ENDS
;	COMDAT ?$TSS36@?CH@??xrRender_initconsole@@YAXXZ@4HA
_BSS	SEGMENT
?$TSS36@?CH@??xrRender_initconsole@@YAXXZ@4HA DD 01H DUP (?) ; `xrRender_initconsole'::`39'::$TSS36
_BSS	ENDS
;	COMDAT ?xCCC_Float@?CH@??xrRender_initconsole@@YAXXZ@4VCCC_Float@@A
_BSS	SEGMENT
?xCCC_Float@?CH@??xrRender_initconsole@@YAXXZ@4VCCC_Float@@A DB 024H DUP (?) ; `xrRender_initconsole'::`39'::xCCC_Float
_BSS	ENDS
;	COMDAT ?$TSS37@?CI@??xrRender_initconsole@@YAXXZ@4HA
_BSS	SEGMENT
?$TSS37@?CI@??xrRender_initconsole@@YAXXZ@4HA DD 01H DUP (?) ; `xrRender_initconsole'::`40'::$TSS37
_BSS	ENDS
;	COMDAT ?xCCC_Float@?CI@??xrRender_initconsole@@YAXXZ@4VCCC_Float@@A
_BSS	SEGMENT
?xCCC_Float@?CI@??xrRender_initconsole@@YAXXZ@4VCCC_Float@@A DB 024H DUP (?) ; `xrRender_initconsole'::`40'::xCCC_Float
_BSS	ENDS
;	COMDAT ?$TSS38@?CJ@??xrRender_initconsole@@YAXXZ@4HA
_BSS	SEGMENT
?$TSS38@?CJ@??xrRender_initconsole@@YAXXZ@4HA DD 01H DUP (?) ; `xrRender_initconsole'::`41'::$TSS38
_BSS	ENDS
;	COMDAT ?xCCC_tf_MipBias@?CJ@??xrRender_initconsole@@YAXXZ@4VCCC_tf_MipBias@@A
_BSS	SEGMENT
?xCCC_tf_MipBias@?CJ@??xrRender_initconsole@@YAXXZ@4VCCC_tf_MipBias@@A DB 024H DUP (?) ; `xrRender_initconsole'::`41'::xCCC_tf_MipBias
_BSS	ENDS
;	COMDAT ?$TSS39@?CK@??xrRender_initconsole@@YAXXZ@4HA
_BSS	SEGMENT
?$TSS39@?CK@??xrRender_initconsole@@YAXXZ@4HA DD 01H DUP (?) ; `xrRender_initconsole'::`42'::$TSS39
_BSS	ENDS
;	COMDAT ?xCCC_Mask@?CK@??xrRender_initconsole@@YAXXZ@4VCCC_Mask@@A
_BSS	SEGMENT
?xCCC_Mask@?CK@??xrRender_initconsole@@YAXXZ@4VCCC_Mask@@A DB 020H DUP (?) ; `xrRender_initconsole'::`42'::xCCC_Mask
_BSS	ENDS
;	COMDAT ?$TSS40@?CL@??xrRender_initconsole@@YAXXZ@4HA
_BSS	SEGMENT
?$TSS40@?CL@??xrRender_initconsole@@YAXXZ@4HA DD 01H DUP (?) ; `xrRender_initconsole'::`43'::$TSS40
_BSS	ENDS
;	COMDAT ?xCCC_Float@?CL@??xrRender_initconsole@@YAXXZ@4VCCC_Float@@A
_BSS	SEGMENT
?xCCC_Float@?CL@??xrRender_initconsole@@YAXXZ@4VCCC_Float@@A DB 024H DUP (?) ; `xrRender_initconsole'::`43'::xCCC_Float
_BSS	ENDS
;	COMDAT ?$TSS41@?CM@??xrRender_initconsole@@YAXXZ@4HA
_BSS	SEGMENT
?$TSS41@?CM@??xrRender_initconsole@@YAXXZ@4HA DD 01H DUP (?) ; `xrRender_initconsole'::`44'::$TSS41
_BSS	ENDS
;	COMDAT ?xCCC_Float@?CM@??xrRender_initconsole@@YAXXZ@4VCCC_Float@@A
_BSS	SEGMENT
?xCCC_Float@?CM@??xrRender_initconsole@@YAXXZ@4VCCC_Float@@A DB 024H DUP (?) ; `xrRender_initconsole'::`44'::xCCC_Float
_BSS	ENDS
;	COMDAT ?$TSS42@?CN@??xrRender_initconsole@@YAXXZ@4HA
_BSS	SEGMENT
?$TSS42@?CN@??xrRender_initconsole@@YAXXZ@4HA DD 01H DUP (?) ; `xrRender_initconsole'::`45'::$TSS42
_BSS	ENDS
;	COMDAT ?xCCC_Float@?CN@??xrRender_initconsole@@YAXXZ@4VCCC_Float@@A
_BSS	SEGMENT
?xCCC_Float@?CN@??xrRender_initconsole@@YAXXZ@4VCCC_Float@@A DB 024H DUP (?) ; `xrRender_initconsole'::`45'::xCCC_Float
_BSS	ENDS
;	COMDAT ?$TSS43@?CO@??xrRender_initconsole@@YAXXZ@4HA
_BSS	SEGMENT
?$TSS43@?CO@??xrRender_initconsole@@YAXXZ@4HA DD 01H DUP (?) ; `xrRender_initconsole'::`46'::$TSS43
_BSS	ENDS
;	COMDAT ?xCCC_Float@?CO@??xrRender_initconsole@@YAXXZ@4VCCC_Float@@A
_BSS	SEGMENT
?xCCC_Float@?CO@??xrRender_initconsole@@YAXXZ@4VCCC_Float@@A DB 024H DUP (?) ; `xrRender_initconsole'::`46'::xCCC_Float
_BSS	ENDS
;	COMDAT ?$TSS44@?CP@??xrRender_initconsole@@YAXXZ@4HA
_BSS	SEGMENT
?$TSS44@?CP@??xrRender_initconsole@@YAXXZ@4HA DD 01H DUP (?) ; `xrRender_initconsole'::`47'::$TSS44
_BSS	ENDS
;	COMDAT ?xCCC_Integer@?CP@??xrRender_initconsole@@YAXXZ@4VCCC_Integer@@A
_BSS	SEGMENT
?xCCC_Integer@?CP@??xrRender_initconsole@@YAXXZ@4VCCC_Integer@@A DB 024H DUP (?) ; `xrRender_initconsole'::`47'::xCCC_Integer
_BSS	ENDS
;	COMDAT ?$TSS45@?DA@??xrRender_initconsole@@YAXXZ@4HA
_BSS	SEGMENT
?$TSS45@?DA@??xrRender_initconsole@@YAXXZ@4HA DD 01H DUP (?) ; `xrRender_initconsole'::`48'::$TSS45
_BSS	ENDS
;	COMDAT ?xCCC_Float@?DA@??xrRender_initconsole@@YAXXZ@4VCCC_Float@@A
_BSS	SEGMENT
?xCCC_Float@?DA@??xrRender_initconsole@@YAXXZ@4VCCC_Float@@A DB 024H DUP (?) ; `xrRender_initconsole'::`48'::xCCC_Float
_BSS	ENDS
;	COMDAT ?$TSS46@?DB@??xrRender_initconsole@@YAXXZ@4HA
_BSS	SEGMENT
?$TSS46@?DB@??xrRender_initconsole@@YAXXZ@4HA DD 01H DUP (?) ; `xrRender_initconsole'::`49'::$TSS46
_BSS	ENDS
;	COMDAT ?xCCC_Float@?DB@??xrRender_initconsole@@YAXXZ@4VCCC_Float@@A
_BSS	SEGMENT
?xCCC_Float@?DB@??xrRender_initconsole@@YAXXZ@4VCCC_Float@@A DB 024H DUP (?) ; `xrRender_initconsole'::`49'::xCCC_Float
_BSS	ENDS
;	COMDAT ?$TSS47@?DC@??xrRender_initconsole@@YAXXZ@4HA
_BSS	SEGMENT
?$TSS47@?DC@??xrRender_initconsole@@YAXXZ@4HA DD 01H DUP (?) ; `xrRender_initconsole'::`50'::$TSS47
_BSS	ENDS
;	COMDAT ?xCCC_tf_MipBias@?DC@??xrRender_initconsole@@YAXXZ@4VCCC_tf_MipBias@@A
_BSS	SEGMENT
?xCCC_tf_MipBias@?DC@??xrRender_initconsole@@YAXXZ@4VCCC_tf_MipBias@@A DB 024H DUP (?) ; `xrRender_initconsole'::`50'::xCCC_tf_MipBias
_BSS	ENDS
;	COMDAT ?$TSS48@?DD@??xrRender_initconsole@@YAXXZ@4HA
_BSS	SEGMENT
?$TSS48@?DD@??xrRender_initconsole@@YAXXZ@4HA DD 01H DUP (?) ; `xrRender_initconsole'::`51'::$TSS48
_BSS	ENDS
;	COMDAT ?xCCC_R2GM@?DD@??xrRender_initconsole@@YAXXZ@4VCCC_R2GM@@A
_BSS	SEGMENT
?xCCC_R2GM@?DD@??xrRender_initconsole@@YAXXZ@4VCCC_R2GM@@A DB 024H DUP (?) ; `xrRender_initconsole'::`51'::xCCC_R2GM
_BSS	ENDS
;	COMDAT ?$TSS49@?DE@??xrRender_initconsole@@YAXXZ@4HA
_BSS	SEGMENT
?$TSS49@?DE@??xrRender_initconsole@@YAXXZ@4HA DD 01H DUP (?) ; `xrRender_initconsole'::`52'::$TSS49
_BSS	ENDS
;	COMDAT ?xCCC_Mask@?DE@??xrRender_initconsole@@YAXXZ@4VCCC_Mask@@A
_BSS	SEGMENT
?xCCC_Mask@?DE@??xrRender_initconsole@@YAXXZ@4VCCC_Mask@@A DB 020H DUP (?) ; `xrRender_initconsole'::`52'::xCCC_Mask
_BSS	ENDS
;	COMDAT ?$TSS50@?DF@??xrRender_initconsole@@YAXXZ@4HA
_BSS	SEGMENT
?$TSS50@?DF@??xrRender_initconsole@@YAXXZ@4HA DD 01H DUP (?) ; `xrRender_initconsole'::`53'::$TSS50
_BSS	ENDS
;	COMDAT ?xCCC_Float@?DF@??xrRender_initconsole@@YAXXZ@4VCCC_Float@@A
_BSS	SEGMENT
?xCCC_Float@?DF@??xrRender_initconsole@@YAXXZ@4VCCC_Float@@A DB 024H DUP (?) ; `xrRender_initconsole'::`53'::xCCC_Float
_BSS	ENDS
;	COMDAT ?$TSS51@?DG@??xrRender_initconsole@@YAXXZ@4HA
_BSS	SEGMENT
?$TSS51@?DG@??xrRender_initconsole@@YAXXZ@4HA DD 01H DUP (?) ; `xrRender_initconsole'::`54'::$TSS51
_BSS	ENDS
;	COMDAT ?xCCC_Float@?DG@??xrRender_initconsole@@YAXXZ@4VCCC_Float@@A
_BSS	SEGMENT
?xCCC_Float@?DG@??xrRender_initconsole@@YAXXZ@4VCCC_Float@@A DB 024H DUP (?) ; `xrRender_initconsole'::`54'::xCCC_Float
_BSS	ENDS
;	COMDAT ?$TSS52@?DH@??xrRender_initconsole@@YAXXZ@4HA
_BSS	SEGMENT
?$TSS52@?DH@??xrRender_initconsole@@YAXXZ@4HA DD 01H DUP (?) ; `xrRender_initconsole'::`55'::$TSS52
_BSS	ENDS
;	COMDAT ?xCCC_Float@?DH@??xrRender_initconsole@@YAXXZ@4VCCC_Float@@A
_BSS	SEGMENT
?xCCC_Float@?DH@??xrRender_initconsole@@YAXXZ@4VCCC_Float@@A DB 024H DUP (?) ; `xrRender_initconsole'::`55'::xCCC_Float
_BSS	ENDS
;	COMDAT ?$TSS53@?DI@??xrRender_initconsole@@YAXXZ@4HA
_BSS	SEGMENT
?$TSS53@?DI@??xrRender_initconsole@@YAXXZ@4HA DD 01H DUP (?) ; `xrRender_initconsole'::`56'::$TSS53
_BSS	ENDS
;	COMDAT ?xCCC_Float@?DI@??xrRender_initconsole@@YAXXZ@4VCCC_Float@@A
_BSS	SEGMENT
?xCCC_Float@?DI@??xrRender_initconsole@@YAXXZ@4VCCC_Float@@A DB 024H DUP (?) ; `xrRender_initconsole'::`56'::xCCC_Float
_BSS	ENDS
;	COMDAT ?$TSS54@?DJ@??xrRender_initconsole@@YAXXZ@4HA
_BSS	SEGMENT
?$TSS54@?DJ@??xrRender_initconsole@@YAXXZ@4HA DD 01H DUP (?) ; `xrRender_initconsole'::`57'::$TSS54
_BSS	ENDS
;	COMDAT ?xCCC_Float@?DJ@??xrRender_initconsole@@YAXXZ@4VCCC_Float@@A
_BSS	SEGMENT
?xCCC_Float@?DJ@??xrRender_initconsole@@YAXXZ@4VCCC_Float@@A DB 024H DUP (?) ; `xrRender_initconsole'::`57'::xCCC_Float
_BSS	ENDS
;	COMDAT ?$TSS55@?DK@??xrRender_initconsole@@YAXXZ@4HA
_BSS	SEGMENT
?$TSS55@?DK@??xrRender_initconsole@@YAXXZ@4HA DD 01H DUP (?) ; `xrRender_initconsole'::`58'::$TSS55
_BSS	ENDS
;	COMDAT ?xCCC_Float@?DK@??xrRender_initconsole@@YAXXZ@4VCCC_Float@@A
_BSS	SEGMENT
?xCCC_Float@?DK@??xrRender_initconsole@@YAXXZ@4VCCC_Float@@A DB 024H DUP (?) ; `xrRender_initconsole'::`58'::xCCC_Float
_BSS	ENDS
;	COMDAT ?$TSS56@?DL@??xrRender_initconsole@@YAXXZ@4HA
_BSS	SEGMENT
?$TSS56@?DL@??xrRender_initconsole@@YAXXZ@4HA DD 01H DUP (?) ; `xrRender_initconsole'::`59'::$TSS56
_BSS	ENDS
;	COMDAT ?xCCC_Float@?DL@??xrRender_initconsole@@YAXXZ@4VCCC_Float@@A
_BSS	SEGMENT
?xCCC_Float@?DL@??xrRender_initconsole@@YAXXZ@4VCCC_Float@@A DB 024H DUP (?) ; `xrRender_initconsole'::`59'::xCCC_Float
_BSS	ENDS
;	COMDAT ?$TSS57@?DM@??xrRender_initconsole@@YAXXZ@4HA
_BSS	SEGMENT
?$TSS57@?DM@??xrRender_initconsole@@YAXXZ@4HA DD 01H DUP (?) ; `xrRender_initconsole'::`60'::$TSS57
_BSS	ENDS
;	COMDAT ?xCCC_Float@?DM@??xrRender_initconsole@@YAXXZ@4VCCC_Float@@A
_BSS	SEGMENT
?xCCC_Float@?DM@??xrRender_initconsole@@YAXXZ@4VCCC_Float@@A DB 024H DUP (?) ; `xrRender_initconsole'::`60'::xCCC_Float
_BSS	ENDS
;	COMDAT ?$TSS58@?DN@??xrRender_initconsole@@YAXXZ@4HA
_BSS	SEGMENT
?$TSS58@?DN@??xrRender_initconsole@@YAXXZ@4HA DD 01H DUP (?) ; `xrRender_initconsole'::`61'::$TSS58
_BSS	ENDS
;	COMDAT ?xCCC_Float@?DN@??xrRender_initconsole@@YAXXZ@4VCCC_Float@@A
_BSS	SEGMENT
?xCCC_Float@?DN@??xrRender_initconsole@@YAXXZ@4VCCC_Float@@A DB 024H DUP (?) ; `xrRender_initconsole'::`61'::xCCC_Float
_BSS	ENDS
;	COMDAT ?$TSS59@?DO@??xrRender_initconsole@@YAXXZ@4HA
_BSS	SEGMENT
?$TSS59@?DO@??xrRender_initconsole@@YAXXZ@4HA DD 01H DUP (?) ; `xrRender_initconsole'::`62'::$TSS59
_BSS	ENDS
;	COMDAT ?xCCC_Mask@?DO@??xrRender_initconsole@@YAXXZ@4VCCC_Mask@@A
_BSS	SEGMENT
?xCCC_Mask@?DO@??xrRender_initconsole@@YAXXZ@4VCCC_Mask@@A DB 020H DUP (?) ; `xrRender_initconsole'::`62'::xCCC_Mask
_BSS	ENDS
;	COMDAT ?$TSS60@?DP@??xrRender_initconsole@@YAXXZ@4HA
_BSS	SEGMENT
?$TSS60@?DP@??xrRender_initconsole@@YAXXZ@4HA DD 01H DUP (?) ; `xrRender_initconsole'::`63'::$TSS60
_BSS	ENDS
;	COMDAT ?xCCC_Float@?DP@??xrRender_initconsole@@YAXXZ@4VCCC_Float@@A
_BSS	SEGMENT
?xCCC_Float@?DP@??xrRender_initconsole@@YAXXZ@4VCCC_Float@@A DB 024H DUP (?) ; `xrRender_initconsole'::`63'::xCCC_Float
_BSS	ENDS
;	COMDAT ?$TSS61@?EA@??xrRender_initconsole@@YAXXZ@4HA
_BSS	SEGMENT
?$TSS61@?EA@??xrRender_initconsole@@YAXXZ@4HA DD 01H DUP (?) ; `xrRender_initconsole'::`64'::$TSS61
_BSS	ENDS
;	COMDAT ?xCCC_Float@?EA@??xrRender_initconsole@@YAXXZ@4VCCC_Float@@A
_BSS	SEGMENT
?xCCC_Float@?EA@??xrRender_initconsole@@YAXXZ@4VCCC_Float@@A DB 024H DUP (?) ; `xrRender_initconsole'::`64'::xCCC_Float
_BSS	ENDS
;	COMDAT ?$TSS62@?EB@??xrRender_initconsole@@YAXXZ@4HA
_BSS	SEGMENT
?$TSS62@?EB@??xrRender_initconsole@@YAXXZ@4HA DD 01H DUP (?) ; `xrRender_initconsole'::`65'::$TSS62
_BSS	ENDS
;	COMDAT ?xCCC_Float@?EB@??xrRender_initconsole@@YAXXZ@4VCCC_Float@@A
_BSS	SEGMENT
?xCCC_Float@?EB@??xrRender_initconsole@@YAXXZ@4VCCC_Float@@A DB 024H DUP (?) ; `xrRender_initconsole'::`65'::xCCC_Float
_BSS	ENDS
;	COMDAT ?$TSS63@?EC@??xrRender_initconsole@@YAXXZ@4HA
_BSS	SEGMENT
?$TSS63@?EC@??xrRender_initconsole@@YAXXZ@4HA DD 01H DUP (?) ; `xrRender_initconsole'::`66'::$TSS63
_BSS	ENDS
;	COMDAT ?xCCC_Float@?EC@??xrRender_initconsole@@YAXXZ@4VCCC_Float@@A
_BSS	SEGMENT
?xCCC_Float@?EC@??xrRender_initconsole@@YAXXZ@4VCCC_Float@@A DB 024H DUP (?) ; `xrRender_initconsole'::`66'::xCCC_Float
_BSS	ENDS
;	COMDAT ?$TSS64@?ED@??xrRender_initconsole@@YAXXZ@4HA
_BSS	SEGMENT
?$TSS64@?ED@??xrRender_initconsole@@YAXXZ@4HA DD 01H DUP (?) ; `xrRender_initconsole'::`67'::$TSS64
_BSS	ENDS
;	COMDAT ?xCCC_Mask@?ED@??xrRender_initconsole@@YAXXZ@4VCCC_Mask@@A
_BSS	SEGMENT
?xCCC_Mask@?ED@??xrRender_initconsole@@YAXXZ@4VCCC_Mask@@A DB 020H DUP (?) ; `xrRender_initconsole'::`67'::xCCC_Mask
_BSS	ENDS
;	COMDAT ?$TSS65@?EE@??xrRender_initconsole@@YAXXZ@4HA
_BSS	SEGMENT
?$TSS65@?EE@??xrRender_initconsole@@YAXXZ@4HA DD 01H DUP (?) ; `xrRender_initconsole'::`68'::$TSS65
_BSS	ENDS
;	COMDAT ?xCCC_Float@?EE@??xrRender_initconsole@@YAXXZ@4VCCC_Float@@A
_BSS	SEGMENT
?xCCC_Float@?EE@??xrRender_initconsole@@YAXXZ@4VCCC_Float@@A DB 024H DUP (?) ; `xrRender_initconsole'::`68'::xCCC_Float
_BSS	ENDS
;	COMDAT ?$TSS66@?EF@??xrRender_initconsole@@YAXXZ@4HA
_BSS	SEGMENT
?$TSS66@?EF@??xrRender_initconsole@@YAXXZ@4HA DD 01H DUP (?) ; `xrRender_initconsole'::`69'::$TSS66
_BSS	ENDS
;	COMDAT ?xCCC_Mask@?EF@??xrRender_initconsole@@YAXXZ@4VCCC_Mask@@A
_BSS	SEGMENT
?xCCC_Mask@?EF@??xrRender_initconsole@@YAXXZ@4VCCC_Mask@@A DB 020H DUP (?) ; `xrRender_initconsole'::`69'::xCCC_Mask
_BSS	ENDS
;	COMDAT ?$TSS67@?EG@??xrRender_initconsole@@YAXXZ@4HA
_BSS	SEGMENT
?$TSS67@?EG@??xrRender_initconsole@@YAXXZ@4HA DD 01H DUP (?) ; `xrRender_initconsole'::`70'::$TSS67
_BSS	ENDS
;	COMDAT ?xCCC_Float@?EG@??xrRender_initconsole@@YAXXZ@4VCCC_Float@@A
_BSS	SEGMENT
?xCCC_Float@?EG@??xrRender_initconsole@@YAXXZ@4VCCC_Float@@A DB 024H DUP (?) ; `xrRender_initconsole'::`70'::xCCC_Float
_BSS	ENDS
;	COMDAT ?$TSS68@?EH@??xrRender_initconsole@@YAXXZ@4HA
_BSS	SEGMENT
?$TSS68@?EH@??xrRender_initconsole@@YAXXZ@4HA DD 01H DUP (?) ; `xrRender_initconsole'::`71'::$TSS68
_BSS	ENDS
;	COMDAT ?xCCC_Mask@?EH@??xrRender_initconsole@@YAXXZ@4VCCC_Mask@@A
_BSS	SEGMENT
?xCCC_Mask@?EH@??xrRender_initconsole@@YAXXZ@4VCCC_Mask@@A DB 020H DUP (?) ; `xrRender_initconsole'::`71'::xCCC_Mask
_BSS	ENDS
;	COMDAT ?$TSS69@?EI@??xrRender_initconsole@@YAXXZ@4HA
_BSS	SEGMENT
?$TSS69@?EI@??xrRender_initconsole@@YAXXZ@4HA DD 01H DUP (?) ; `xrRender_initconsole'::`72'::$TSS69
_BSS	ENDS
;	COMDAT ?xCCC_Mask@?EI@??xrRender_initconsole@@YAXXZ@4VCCC_Mask@@A
_BSS	SEGMENT
?xCCC_Mask@?EI@??xrRender_initconsole@@YAXXZ@4VCCC_Mask@@A DB 020H DUP (?) ; `xrRender_initconsole'::`72'::xCCC_Mask
_BSS	ENDS
;	COMDAT ?$TSS70@?EJ@??xrRender_initconsole@@YAXXZ@4HA
_BSS	SEGMENT
?$TSS70@?EJ@??xrRender_initconsole@@YAXXZ@4HA DD 01H DUP (?) ; `xrRender_initconsole'::`73'::$TSS70
_BSS	ENDS
;	COMDAT ?xCCC_Mask@?EJ@??xrRender_initconsole@@YAXXZ@4VCCC_Mask@@A
_BSS	SEGMENT
?xCCC_Mask@?EJ@??xrRender_initconsole@@YAXXZ@4VCCC_Mask@@A DB 020H DUP (?) ; `xrRender_initconsole'::`73'::xCCC_Mask
_BSS	ENDS
;	COMDAT ?$TSS71@?EK@??xrRender_initconsole@@YAXXZ@4HA
_BSS	SEGMENT
?$TSS71@?EK@??xrRender_initconsole@@YAXXZ@4HA DD 01H DUP (?) ; `xrRender_initconsole'::`74'::$TSS71
_BSS	ENDS
;	COMDAT ?xCCC_Mask@?EK@??xrRender_initconsole@@YAXXZ@4VCCC_Mask@@A
_BSS	SEGMENT
?xCCC_Mask@?EK@??xrRender_initconsole@@YAXXZ@4VCCC_Mask@@A DB 020H DUP (?) ; `xrRender_initconsole'::`74'::xCCC_Mask
_BSS	ENDS
;	COMDAT ?$TSS72@?EL@??xrRender_initconsole@@YAXXZ@4HA
_BSS	SEGMENT
?$TSS72@?EL@??xrRender_initconsole@@YAXXZ@4HA DD 01H DUP (?) ; `xrRender_initconsole'::`75'::$TSS72
_BSS	ENDS
;	COMDAT ?xCCC_Mask@?EL@??xrRender_initconsole@@YAXXZ@4VCCC_Mask@@A
_BSS	SEGMENT
?xCCC_Mask@?EL@??xrRender_initconsole@@YAXXZ@4VCCC_Mask@@A DB 020H DUP (?) ; `xrRender_initconsole'::`75'::xCCC_Mask
_BSS	ENDS
;	COMDAT ?$TSS73@?EM@??xrRender_initconsole@@YAXXZ@4HA
_BSS	SEGMENT
?$TSS73@?EM@??xrRender_initconsole@@YAXXZ@4HA DD 01H DUP (?) ; `xrRender_initconsole'::`76'::$TSS73
_BSS	ENDS
;	COMDAT ?xCCC_Mask@?EM@??xrRender_initconsole@@YAXXZ@4VCCC_Mask@@A
_BSS	SEGMENT
?xCCC_Mask@?EM@??xrRender_initconsole@@YAXXZ@4VCCC_Mask@@A DB 020H DUP (?) ; `xrRender_initconsole'::`76'::xCCC_Mask
_BSS	ENDS
;	COMDAT ?$TSS74@?EN@??xrRender_initconsole@@YAXXZ@4HA
_BSS	SEGMENT
?$TSS74@?EN@??xrRender_initconsole@@YAXXZ@4HA DD 01H DUP (?) ; `xrRender_initconsole'::`77'::$TSS74
_BSS	ENDS
;	COMDAT ?xCCC_Float@?EN@??xrRender_initconsole@@YAXXZ@4VCCC_Float@@A
_BSS	SEGMENT
?xCCC_Float@?EN@??xrRender_initconsole@@YAXXZ@4VCCC_Float@@A DB 024H DUP (?) ; `xrRender_initconsole'::`77'::xCCC_Float
_BSS	ENDS
;	COMDAT ?$TSS75@?EO@??xrRender_initconsole@@YAXXZ@4HA
_BSS	SEGMENT
?$TSS75@?EO@??xrRender_initconsole@@YAXXZ@4HA DD 01H DUP (?) ; `xrRender_initconsole'::`78'::$TSS75
_BSS	ENDS
;	COMDAT ?xCCC_Float@?EO@??xrRender_initconsole@@YAXXZ@4VCCC_Float@@A
_BSS	SEGMENT
?xCCC_Float@?EO@??xrRender_initconsole@@YAXXZ@4VCCC_Float@@A DB 024H DUP (?) ; `xrRender_initconsole'::`78'::xCCC_Float
_BSS	ENDS
;	COMDAT ?$TSS76@?EP@??xrRender_initconsole@@YAXXZ@4HA
_BSS	SEGMENT
?$TSS76@?EP@??xrRender_initconsole@@YAXXZ@4HA DD 01H DUP (?) ; `xrRender_initconsole'::`79'::$TSS76
_BSS	ENDS
;	COMDAT ?xCCC_Float@?EP@??xrRender_initconsole@@YAXXZ@4VCCC_Float@@A
_BSS	SEGMENT
?xCCC_Float@?EP@??xrRender_initconsole@@YAXXZ@4VCCC_Float@@A DB 024H DUP (?) ; `xrRender_initconsole'::`79'::xCCC_Float
_BSS	ENDS
;	COMDAT ?$TSS77@?FA@??xrRender_initconsole@@YAXXZ@4HA
_BSS	SEGMENT
?$TSS77@?FA@??xrRender_initconsole@@YAXXZ@4HA DD 01H DUP (?) ; `xrRender_initconsole'::`80'::$TSS77
_BSS	ENDS
;	COMDAT ?xCCC_Float@?FA@??xrRender_initconsole@@YAXXZ@4VCCC_Float@@A
_BSS	SEGMENT
?xCCC_Float@?FA@??xrRender_initconsole@@YAXXZ@4VCCC_Float@@A DB 024H DUP (?) ; `xrRender_initconsole'::`80'::xCCC_Float
_BSS	ENDS
;	COMDAT ?$TSS78@?FB@??xrRender_initconsole@@YAXXZ@4HA
_BSS	SEGMENT
?$TSS78@?FB@??xrRender_initconsole@@YAXXZ@4HA DD 01H DUP (?) ; `xrRender_initconsole'::`81'::$TSS78
_BSS	ENDS
;	COMDAT ?xCCC_Float@?FB@??xrRender_initconsole@@YAXXZ@4VCCC_Float@@A
_BSS	SEGMENT
?xCCC_Float@?FB@??xrRender_initconsole@@YAXXZ@4VCCC_Float@@A DB 024H DUP (?) ; `xrRender_initconsole'::`81'::xCCC_Float
_BSS	ENDS
;	COMDAT ?$TSS79@?FC@??xrRender_initconsole@@YAXXZ@4HA
_BSS	SEGMENT
?$TSS79@?FC@??xrRender_initconsole@@YAXXZ@4HA DD 01H DUP (?) ; `xrRender_initconsole'::`82'::$TSS79
_BSS	ENDS
;	COMDAT ?xCCC_Float@?FC@??xrRender_initconsole@@YAXXZ@4VCCC_Float@@A
_BSS	SEGMENT
?xCCC_Float@?FC@??xrRender_initconsole@@YAXXZ@4VCCC_Float@@A DB 024H DUP (?) ; `xrRender_initconsole'::`82'::xCCC_Float
_BSS	ENDS
;	COMDAT ?$TSS80@?FD@??xrRender_initconsole@@YAXXZ@4HA
_BSS	SEGMENT
?$TSS80@?FD@??xrRender_initconsole@@YAXXZ@4HA DD 01H DUP (?) ; `xrRender_initconsole'::`83'::$TSS80
_BSS	ENDS
;	COMDAT ?xCCC_Float@?FD@??xrRender_initconsole@@YAXXZ@4VCCC_Float@@A
_BSS	SEGMENT
?xCCC_Float@?FD@??xrRender_initconsole@@YAXXZ@4VCCC_Float@@A DB 024H DUP (?) ; `xrRender_initconsole'::`83'::xCCC_Float
_BSS	ENDS
;	COMDAT ?$TSS81@?FE@??xrRender_initconsole@@YAXXZ@4HA
_BSS	SEGMENT
?$TSS81@?FE@??xrRender_initconsole@@YAXXZ@4HA DD 01H DUP (?) ; `xrRender_initconsole'::`84'::$TSS81
_BSS	ENDS
;	COMDAT ?xCCC_Float@?FE@??xrRender_initconsole@@YAXXZ@4VCCC_Float@@A
_BSS	SEGMENT
?xCCC_Float@?FE@??xrRender_initconsole@@YAXXZ@4VCCC_Float@@A DB 024H DUP (?) ; `xrRender_initconsole'::`84'::xCCC_Float
_BSS	ENDS
;	COMDAT ?$TSS82@?FF@??xrRender_initconsole@@YAXXZ@4HA
_BSS	SEGMENT
?$TSS82@?FF@??xrRender_initconsole@@YAXXZ@4HA DD 01H DUP (?) ; `xrRender_initconsole'::`85'::$TSS82
_BSS	ENDS
;	COMDAT ?xCCC_Float@?FF@??xrRender_initconsole@@YAXXZ@4VCCC_Float@@A
_BSS	SEGMENT
?xCCC_Float@?FF@??xrRender_initconsole@@YAXXZ@4VCCC_Float@@A DB 024H DUP (?) ; `xrRender_initconsole'::`85'::xCCC_Float
_BSS	ENDS
;	COMDAT ?$TSS83@?FG@??xrRender_initconsole@@YAXXZ@4HA
_BSS	SEGMENT
?$TSS83@?FG@??xrRender_initconsole@@YAXXZ@4HA DD 01H DUP (?) ; `xrRender_initconsole'::`86'::$TSS83
_BSS	ENDS
;	COMDAT ?xCCC_Float@?FG@??xrRender_initconsole@@YAXXZ@4VCCC_Float@@A
_BSS	SEGMENT
?xCCC_Float@?FG@??xrRender_initconsole@@YAXXZ@4VCCC_Float@@A DB 024H DUP (?) ; `xrRender_initconsole'::`86'::xCCC_Float
_BSS	ENDS
;	COMDAT ?$TSS84@?FH@??xrRender_initconsole@@YAXXZ@4HA
_BSS	SEGMENT
?$TSS84@?FH@??xrRender_initconsole@@YAXXZ@4HA DD 01H DUP (?) ; `xrRender_initconsole'::`87'::$TSS84
_BSS	ENDS
;	COMDAT ?xCCC_Float@?FH@??xrRender_initconsole@@YAXXZ@4VCCC_Float@@A
_BSS	SEGMENT
?xCCC_Float@?FH@??xrRender_initconsole@@YAXXZ@4VCCC_Float@@A DB 024H DUP (?) ; `xrRender_initconsole'::`87'::xCCC_Float
_BSS	ENDS
;	COMDAT ?$TSS85@?FI@??xrRender_initconsole@@YAXXZ@4HA
_BSS	SEGMENT
?$TSS85@?FI@??xrRender_initconsole@@YAXXZ@4HA DD 01H DUP (?) ; `xrRender_initconsole'::`88'::$TSS85
_BSS	ENDS
;	COMDAT ?xCCC_Float@?FI@??xrRender_initconsole@@YAXXZ@4VCCC_Float@@A
_BSS	SEGMENT
?xCCC_Float@?FI@??xrRender_initconsole@@YAXXZ@4VCCC_Float@@A DB 024H DUP (?) ; `xrRender_initconsole'::`88'::xCCC_Float
_BSS	ENDS
;	COMDAT ?$TSS86@?FJ@??xrRender_initconsole@@YAXXZ@4HA
_BSS	SEGMENT
?$TSS86@?FJ@??xrRender_initconsole@@YAXXZ@4HA DD 01H DUP (?) ; `xrRender_initconsole'::`89'::$TSS86
_BSS	ENDS
;	COMDAT ?xCCC_Mask@?FJ@??xrRender_initconsole@@YAXXZ@4VCCC_Mask@@A
_BSS	SEGMENT
?xCCC_Mask@?FJ@??xrRender_initconsole@@YAXXZ@4VCCC_Mask@@A DB 020H DUP (?) ; `xrRender_initconsole'::`89'::xCCC_Mask
_BSS	ENDS
;	COMDAT ?$TSS87@?FK@??xrRender_initconsole@@YAXXZ@4HA
_BSS	SEGMENT
?$TSS87@?FK@??xrRender_initconsole@@YAXXZ@4HA DD 01H DUP (?) ; `xrRender_initconsole'::`90'::$TSS87
_BSS	ENDS
;	COMDAT ?xCCC_Float@?FK@??xrRender_initconsole@@YAXXZ@4VCCC_Float@@A
_BSS	SEGMENT
?xCCC_Float@?FK@??xrRender_initconsole@@YAXXZ@4VCCC_Float@@A DB 024H DUP (?) ; `xrRender_initconsole'::`90'::xCCC_Float
_BSS	ENDS
;	COMDAT ?$TSS88@?FL@??xrRender_initconsole@@YAXXZ@4HA
_BSS	SEGMENT
?$TSS88@?FL@??xrRender_initconsole@@YAXXZ@4HA DD 01H DUP (?) ; `xrRender_initconsole'::`91'::$TSS88
_BSS	ENDS
;	COMDAT ?xCCC_Float@?FL@??xrRender_initconsole@@YAXXZ@4VCCC_Float@@A
_BSS	SEGMENT
?xCCC_Float@?FL@??xrRender_initconsole@@YAXXZ@4VCCC_Float@@A DB 024H DUP (?) ; `xrRender_initconsole'::`91'::xCCC_Float
_BSS	ENDS
;	COMDAT ?$TSS89@?FM@??xrRender_initconsole@@YAXXZ@4HA
_BSS	SEGMENT
?$TSS89@?FM@??xrRender_initconsole@@YAXXZ@4HA DD 01H DUP (?) ; `xrRender_initconsole'::`92'::$TSS89
_BSS	ENDS
;	COMDAT ?xCCC_Mask@?FM@??xrRender_initconsole@@YAXXZ@4VCCC_Mask@@A
_BSS	SEGMENT
?xCCC_Mask@?FM@??xrRender_initconsole@@YAXXZ@4VCCC_Mask@@A DB 020H DUP (?) ; `xrRender_initconsole'::`92'::xCCC_Mask
_BSS	ENDS
;	COMDAT ?$TSS90@?FN@??xrRender_initconsole@@YAXXZ@4HA
_BSS	SEGMENT
?$TSS90@?FN@??xrRender_initconsole@@YAXXZ@4HA DD 01H DUP (?) ; `xrRender_initconsole'::`93'::$TSS90
_BSS	ENDS
;	COMDAT ?xCCC_Float@?FN@??xrRender_initconsole@@YAXXZ@4VCCC_Float@@A
_BSS	SEGMENT
?xCCC_Float@?FN@??xrRender_initconsole@@YAXXZ@4VCCC_Float@@A DB 024H DUP (?) ; `xrRender_initconsole'::`93'::xCCC_Float
_BSS	ENDS
;	COMDAT ?$TSS91@?FO@??xrRender_initconsole@@YAXXZ@4HA
_BSS	SEGMENT
?$TSS91@?FO@??xrRender_initconsole@@YAXXZ@4HA DD 01H DUP (?) ; `xrRender_initconsole'::`94'::$TSS91
_BSS	ENDS
;	COMDAT ?xCCC_Integer@?FO@??xrRender_initconsole@@YAXXZ@4VCCC_Integer@@A
_BSS	SEGMENT
?xCCC_Integer@?FO@??xrRender_initconsole@@YAXXZ@4VCCC_Integer@@A DB 024H DUP (?) ; `xrRender_initconsole'::`94'::xCCC_Integer
_BSS	ENDS
;	COMDAT ?$TSS92@?FP@??xrRender_initconsole@@YAXXZ@4HA
_BSS	SEGMENT
?$TSS92@?FP@??xrRender_initconsole@@YAXXZ@4HA DD 01H DUP (?) ; `xrRender_initconsole'::`95'::$TSS92
_BSS	ENDS
;	COMDAT ?xCCC_Integer@?FP@??xrRender_initconsole@@YAXXZ@4VCCC_Integer@@A
_BSS	SEGMENT
?xCCC_Integer@?FP@??xrRender_initconsole@@YAXXZ@4VCCC_Integer@@A DB 024H DUP (?) ; `xrRender_initconsole'::`95'::xCCC_Integer
_BSS	ENDS
;	COMDAT ?$TSS93@?GA@??xrRender_initconsole@@YAXXZ@4HA
_BSS	SEGMENT
?$TSS93@?GA@??xrRender_initconsole@@YAXXZ@4HA DD 01H DUP (?) ; `xrRender_initconsole'::`96'::$TSS93
_BSS	ENDS
;	COMDAT ?xCCC_Float@?GA@??xrRender_initconsole@@YAXXZ@4VCCC_Float@@A
_BSS	SEGMENT
?xCCC_Float@?GA@??xrRender_initconsole@@YAXXZ@4VCCC_Float@@A DB 024H DUP (?) ; `xrRender_initconsole'::`96'::xCCC_Float
_BSS	ENDS
;	COMDAT ?$TSS94@?GB@??xrRender_initconsole@@YAXXZ@4HA
_BSS	SEGMENT
?$TSS94@?GB@??xrRender_initconsole@@YAXXZ@4HA DD 01H DUP (?) ; `xrRender_initconsole'::`97'::$TSS94
_BSS	ENDS
;	COMDAT ?xCCC_Integer@?GB@??xrRender_initconsole@@YAXXZ@4VCCC_Integer@@A
_BSS	SEGMENT
?xCCC_Integer@?GB@??xrRender_initconsole@@YAXXZ@4VCCC_Integer@@A DB 024H DUP (?) ; `xrRender_initconsole'::`97'::xCCC_Integer
_BSS	ENDS
;	COMDAT ?$TSS95@?GC@??xrRender_initconsole@@YAXXZ@4HA
_BSS	SEGMENT
?$TSS95@?GC@??xrRender_initconsole@@YAXXZ@4HA DD 01H DUP (?) ; `xrRender_initconsole'::`98'::$TSS95
_BSS	ENDS
;	COMDAT ?xCCC_Mask@?GC@??xrRender_initconsole@@YAXXZ@4VCCC_Mask@@A
_BSS	SEGMENT
?xCCC_Mask@?GC@??xrRender_initconsole@@YAXXZ@4VCCC_Mask@@A DB 020H DUP (?) ; `xrRender_initconsole'::`98'::xCCC_Mask
_BSS	ENDS
;	COMDAT ?$TSS96@?GD@??xrRender_initconsole@@YAXXZ@4HA
_BSS	SEGMENT
?$TSS96@?GD@??xrRender_initconsole@@YAXXZ@4HA DD 01H DUP (?) ; `xrRender_initconsole'::`99'::$TSS96
_BSS	ENDS
;	COMDAT ?xCCC_Mask@?GD@??xrRender_initconsole@@YAXXZ@4VCCC_Mask@@A
_BSS	SEGMENT
?xCCC_Mask@?GD@??xrRender_initconsole@@YAXXZ@4VCCC_Mask@@A DB 020H DUP (?) ; `xrRender_initconsole'::`99'::xCCC_Mask
_BSS	ENDS
;	COMDAT ?$TSS97@?GE@??xrRender_initconsole@@YAXXZ@4HA
_BSS	SEGMENT
?$TSS97@?GE@??xrRender_initconsole@@YAXXZ@4HA DD 01H DUP (?) ; `xrRender_initconsole'::`100'::$TSS97
_BSS	ENDS
;	COMDAT ?xCCC_Float@?GE@??xrRender_initconsole@@YAXXZ@4VCCC_Float@@A
_BSS	SEGMENT
?xCCC_Float@?GE@??xrRender_initconsole@@YAXXZ@4VCCC_Float@@A DB 024H DUP (?) ; `xrRender_initconsole'::`100'::xCCC_Float
_BSS	ENDS
;	COMDAT ?$TSS98@?GF@??xrRender_initconsole@@YAXXZ@4HA
_BSS	SEGMENT
?$TSS98@?GF@??xrRender_initconsole@@YAXXZ@4HA DD 01H DUP (?) ; `xrRender_initconsole'::`101'::$TSS98
_BSS	ENDS
;	COMDAT ?xCCC_Float@?GF@??xrRender_initconsole@@YAXXZ@4VCCC_Float@@A
_BSS	SEGMENT
?xCCC_Float@?GF@??xrRender_initconsole@@YAXXZ@4VCCC_Float@@A DB 024H DUP (?) ; `xrRender_initconsole'::`101'::xCCC_Float
_BSS	ENDS
;	COMDAT ?$TSS99@?GG@??xrRender_initconsole@@YAXXZ@4HA
_BSS	SEGMENT
?$TSS99@?GG@??xrRender_initconsole@@YAXXZ@4HA DD 01H DUP (?) ; `xrRender_initconsole'::`102'::$TSS99
_BSS	ENDS
;	COMDAT ?xCCC_Float@?GG@??xrRender_initconsole@@YAXXZ@4VCCC_Float@@A
_BSS	SEGMENT
?xCCC_Float@?GG@??xrRender_initconsole@@YAXXZ@4VCCC_Float@@A DB 024H DUP (?) ; `xrRender_initconsole'::`102'::xCCC_Float
_BSS	ENDS
;	COMDAT ?$TSS100@?GH@??xrRender_initconsole@@YAXXZ@4HA
_BSS	SEGMENT
?$TSS100@?GH@??xrRender_initconsole@@YAXXZ@4HA DD 01H DUP (?) ; `xrRender_initconsole'::`103'::$TSS100
_BSS	ENDS
;	COMDAT ?xCCC_Float@?GH@??xrRender_initconsole@@YAXXZ@4VCCC_Float@@A
_BSS	SEGMENT
?xCCC_Float@?GH@??xrRender_initconsole@@YAXXZ@4VCCC_Float@@A DB 024H DUP (?) ; `xrRender_initconsole'::`103'::xCCC_Float
_BSS	ENDS
;	COMDAT ?$TSS101@?GI@??xrRender_initconsole@@YAXXZ@4HA
_BSS	SEGMENT
?$TSS101@?GI@??xrRender_initconsole@@YAXXZ@4HA DD 01H DUP (?) ; `xrRender_initconsole'::`104'::$TSS101
_BSS	ENDS
;	COMDAT ?xCCC_Vector3@?GI@??xrRender_initconsole@@YAXXZ@4VCCC_Vector3@@A
_BSS	SEGMENT
?xCCC_Vector3@?GI@??xrRender_initconsole@@YAXXZ@4VCCC_Vector3@@A DB 034H DUP (?) ; `xrRender_initconsole'::`104'::xCCC_Vector3
_BSS	ENDS
;	COMDAT ?$TSS102@?GJ@??xrRender_initconsole@@YAXXZ@4HA
_BSS	SEGMENT
?$TSS102@?GJ@??xrRender_initconsole@@YAXXZ@4HA DD 01H DUP (?) ; `xrRender_initconsole'::`105'::$TSS102
_BSS	ENDS
;	COMDAT ?xCCC_Vector3@?GJ@??xrRender_initconsole@@YAXXZ@4VCCC_Vector3@@A
_BSS	SEGMENT
?xCCC_Vector3@?GJ@??xrRender_initconsole@@YAXXZ@4VCCC_Vector3@@A DB 034H DUP (?) ; `xrRender_initconsole'::`105'::xCCC_Vector3
_BSS	ENDS
	ORG $+180
?ps_r2_dof@@3U?$_vector3@M@@A DD 0bfa00000r	; -1.25	; ps_r2_dof
	DD	03fb33333r			; 1.4
	DD	044160000r			; 600
; Function compile flags: /Ogtpy
; File I:\Vitalya\mine\NSProjectX\layers\xrRender\xrRender_console.cpp
; File I:\Vitalya\mine\NSProjectX\xrCore\vector.h
; File I:\Vitalya\mine\NSProjectX\layers\xrRender\xrRender_console.cpp
;	COMDAT ?apply@CCC_tf_Aniso@@QAEXXZ
_TEXT	SEGMENT
?apply@CCC_tf_Aniso@@QAEXXZ PROC			; CCC_tf_Aniso::apply, COMDAT
; _this$ = ecx

; 292  : 		if (0 == HW.pDevice)	return;

	mov	edx, DWORD PTR __imp_?HW@@3VCHW@@A
	cmp	DWORD PTR [edx+8], 0
	je	SHORT $LN3@apply

; 293  : 		int	val = *value;	clamp(val, 1, 16);

	mov	eax, DWORD PTR [ecx+24]
	push	edi
	mov	edi, DWORD PTR [eax]
; File I:\Vitalya\mine\NSProjectX\xrCore\vector.h

; 92   : 	if( val<_low ) val = _low; else if( val>_high ) val = _high;

	cmp	edi, 1
	jge	SHORT $LN8@apply
	mov	edi, 1
	jmp	SHORT $LN10@apply
$LN8@apply:
	mov	eax, 16					; 00000010H
	cmp	edi, eax
	cmovg	edi, eax
$LN10@apply:
	push	esi
; File I:\Vitalya\mine\NSProjectX\layers\xrRender\xrRender_console.cpp

; 294  : 		for (u32 i = 0; i < HW.Caps.raster.dwStages; i++)

	xor	esi, esi
	test	DWORD PTR [edx+68], 15			; 0000000fH
	jbe	SHORT $LN17@apply
$LL4@apply:

; 295  : 			CHK_DX(HW.pDevice->SetSamplerState(i, D3DSAMP_MAXANISOTROPY, val));

	mov	eax, DWORD PTR [edx+8]
	push	edi
	push	10					; 0000000aH
	push	esi
	mov	ecx, DWORD PTR [eax]
	push	eax
	call	DWORD PTR [ecx+276]
	mov	edx, DWORD PTR __imp_?HW@@3VCHW@@A
	inc	esi
	mov	eax, DWORD PTR [edx+68]
	and	eax, 15					; 0000000fH
	cmp	esi, eax
	jb	SHORT $LL4@apply
$LN17@apply:
	pop	esi
	pop	edi
$LN3@apply:

; 296  : 	}

	ret	0
?apply@CCC_tf_Aniso@@QAEXXZ ENDP			; CCC_tf_Aniso::apply
_TEXT	ENDS
; Function compile flags: /Ogtpy
; File I:\Vitalya\mine\NSProjectX\layers\xrRender\xrRender_console.cpp
;	COMDAT ??0CCC_tf_Aniso@@QAE@PBDPAH@Z
_TEXT	SEGMENT
_N$dead$ = 8						; size = 4
_v$dead$ = 12						; size = 4
??0CCC_tf_Aniso@@QAE@PBDPAH@Z PROC			; CCC_tf_Aniso::CCC_tf_Aniso, COMDAT
; _this$dead$ = ecx

; 297  : 	CCC_tf_Aniso(LPCSTR N, int* v) : CCC_Integer(N, v, 1, 16) { };

	push	16					; 00000010H
	push	1
	push	OFFSET ?ps_r__tf_Anisotropic@@3HA	; ps_r__tf_Anisotropic
	push	OFFSET ??_C@_0M@JGACHMFM@r__tf_aniso@
	mov	ecx, OFFSET ?xCCC_tf_Aniso@?CF@??xrRender_initconsole@@YAXXZ@4VCCC_tf_Aniso@@A
	call	DWORD PTR __imp_??0CCC_Integer@@QAE@PBDPAHHH@Z
	mov	DWORD PTR ?xCCC_tf_Aniso@?CF@??xrRender_initconsole@@YAXXZ@4VCCC_tf_Aniso@@A, OFFSET ??_7CCC_tf_Aniso@@6B@
	mov	eax, OFFSET ?xCCC_tf_Aniso@?CF@??xrRender_initconsole@@YAXXZ@4VCCC_tf_Aniso@@A
	ret	8
??0CCC_tf_Aniso@@QAE@PBDPAH@Z ENDP			; CCC_tf_Aniso::CCC_tf_Aniso
_TEXT	ENDS
; Function compile flags: /Ogtpy
; File I:\Vitalya\mine\NSProjectX\layers\xrRender\xrRender_console.cpp
;	COMDAT ?Execute@CCC_tf_Aniso@@UAEXPBD@Z
_TEXT	SEGMENT
_args$ = 8						; size = 4
?Execute@CCC_tf_Aniso@@UAEXPBD@Z PROC			; CCC_tf_Aniso::Execute, COMDAT
; _this$ = ecx

; 299  : 	{

	push	esi

; 300  : 		CCC_Integer::Execute(args);

	push	DWORD PTR _args$[esp]
	mov	esi, ecx
	call	DWORD PTR __imp_?Execute@CCC_Integer@@UAEXPBD@Z

; 301  : 		apply();

	mov	ecx, esi
	call	?apply@CCC_tf_Aniso@@QAEXXZ		; CCC_tf_Aniso::apply
	pop	esi

; 302  : 	}

	ret	4
?Execute@CCC_tf_Aniso@@UAEXPBD@Z ENDP			; CCC_tf_Aniso::Execute
_TEXT	ENDS
; Function compile flags: /Ogtpy
; File I:\Vitalya\mine\NSProjectX\layers\xrRender\xrRender_console.cpp
;	COMDAT ?Status@CCC_tf_Aniso@@UAEXAAY0BAA@D@Z
_TEXT	SEGMENT
_S$ = 8							; size = 4
?Status@CCC_tf_Aniso@@UAEXAAY0BAA@D@Z PROC		; CCC_tf_Aniso::Status, COMDAT
; _this$ = ecx

; 304  : 	{

	push	esi

; 305  : 		CCC_Integer::Status(S);

	push	DWORD PTR _S$[esp]
	mov	esi, ecx
	call	DWORD PTR __imp_?Status@CCC_Integer@@UAEXAAY0BAA@D@Z

; 306  : 		apply();

	mov	ecx, esi
	call	?apply@CCC_tf_Aniso@@QAEXXZ		; CCC_tf_Aniso::apply
	pop	esi

; 307  : 	}

	ret	4
?Status@CCC_tf_Aniso@@UAEXAAY0BAA@D@Z ENDP		; CCC_tf_Aniso::Status
_TEXT	ENDS
; Function compile flags: /Ogtpy
;	COMDAT ??_GCCC_tf_Aniso@@UAEPAXI@Z
_TEXT	SEGMENT
___flags$ = 8						; size = 4
??_GCCC_tf_Aniso@@UAEPAXI@Z PROC			; CCC_tf_Aniso::`scalar deleting destructor', COMDAT
; _this$ = ecx
	push	esi
	mov	esi, ecx
	call	DWORD PTR __imp_??1CCC_Integer@@UAE@XZ
	test	BYTE PTR ___flags$[esp], 1
	je	SHORT $LN6@scalar
	push	36					; 00000024H
	push	esi
	call	??3@YAXPAXI@Z				; operator delete
	add	esp, 8
$LN6@scalar:
	mov	eax, esi
	pop	esi
	ret	4
??_GCCC_tf_Aniso@@UAEPAXI@Z ENDP			; CCC_tf_Aniso::`scalar deleting destructor'
_TEXT	ENDS
; Function compile flags: /Ogtpy
;	COMDAT ??1CCC_tf_Aniso@@UAE@XZ
_TEXT	SEGMENT
??1CCC_tf_Aniso@@UAE@XZ PROC				; CCC_tf_Aniso::~CCC_tf_Aniso, COMDAT
; _this$ = ecx
	jmp	DWORD PTR __imp_??1CCC_Integer@@UAE@XZ
??1CCC_tf_Aniso@@UAE@XZ ENDP				; CCC_tf_Aniso::~CCC_tf_Aniso
_TEXT	ENDS
; Function compile flags: /Ogtpy
; File I:\Vitalya\mine\NSProjectX\layers\xrRender\xrRender_console.cpp
;	COMDAT ?apply@CCC_tf_MipBias@@QAEXXZ
_TEXT	SEGMENT
?apply@CCC_tf_MipBias@@QAEXXZ PROC			; CCC_tf_MipBias::apply, COMDAT
; _this$ = ecx

; 313  : 		if (0 == HW.pDevice)	return;

	mov	edx, DWORD PTR __imp_?HW@@3VCHW@@A
	push	edi
	mov	edi, ecx
	cmp	DWORD PTR [edx+8], 0
	je	SHORT $LN3@apply

; 314  : 		for (u32 i = 0; i < HW.Caps.raster.dwStages; i++)

	push	esi
	xor	esi, esi
	test	DWORD PTR [edx+68], 15			; 0000000fH
	jbe	SHORT $LN11@apply
	npad	5
$LL4@apply:

; 315  : 			CHK_DX(HW.pDevice->SetSamplerState(i, D3DSAMP_MIPMAPLODBIAS, *((LPDWORD)value)));

	mov	eax, DWORD PTR [edi+24]
	mov	ecx, DWORD PTR [edx+8]
	push	DWORD PTR [eax]
	mov	edx, DWORD PTR [ecx]
	push	8
	push	esi
	push	ecx
	call	DWORD PTR [edx+276]
	mov	edx, DWORD PTR __imp_?HW@@3VCHW@@A
	inc	esi
	mov	eax, DWORD PTR [edx+68]
	and	eax, 15					; 0000000fH
	cmp	esi, eax
	jb	SHORT $LL4@apply
$LN11@apply:
	pop	esi
$LN3@apply:
	pop	edi

; 316  : 	}

	ret	0
?apply@CCC_tf_MipBias@@QAEXXZ ENDP			; CCC_tf_MipBias::apply
_TEXT	ENDS
; Function compile flags: /Ogtpy
; File I:\Vitalya\mine\NSProjectX\layers\xrRender\xrRender_console.cpp
;	COMDAT ??0CCC_tf_MipBias@@QAE@PBDPAM@Z
_TEXT	SEGMENT
_N$ = 8							; size = 4
_v$ = 12						; size = 4
??0CCC_tf_MipBias@@QAE@PBDPAM@Z PROC			; CCC_tf_MipBias::CCC_tf_MipBias, COMDAT
; _this$ = ecx

; 318  : 	CCC_tf_MipBias(LPCSTR N, float* v) : CCC_Float(N, v, -0.5f, +0.5f) { };

	fld	DWORD PTR __real@3f000000
	push	esi
	sub	esp, 8
	mov	esi, ecx
	fstp	DWORD PTR [esp+4]
	fld	DWORD PTR __real@bf000000
	fstp	DWORD PTR [esp]
	push	DWORD PTR _v$[esp+8]
	push	DWORD PTR _N$[esp+12]
	call	DWORD PTR __imp_??0CCC_Float@@QAE@PBDPAMMM@Z
	mov	DWORD PTR [esi], OFFSET ??_7CCC_tf_MipBias@@6B@
	mov	eax, esi
	pop	esi
	ret	8
??0CCC_tf_MipBias@@QAE@PBDPAM@Z ENDP			; CCC_tf_MipBias::CCC_tf_MipBias
_TEXT	ENDS
; Function compile flags: /Ogtpy
; File I:\Vitalya\mine\NSProjectX\layers\xrRender\xrRender_console.cpp
;	COMDAT ?Execute@CCC_tf_MipBias@@UAEXPBD@Z
_TEXT	SEGMENT
_args$ = 8						; size = 4
?Execute@CCC_tf_MipBias@@UAEXPBD@Z PROC			; CCC_tf_MipBias::Execute, COMDAT
; _this$ = ecx

; 320  : 	{

	push	esi

; 321  : 		CCC_Float::Execute(args);

	push	DWORD PTR _args$[esp]
	mov	esi, ecx
	call	DWORD PTR __imp_?Execute@CCC_Float@@UAEXPBD@Z

; 322  : 		apply();

	mov	ecx, esi
	call	?apply@CCC_tf_MipBias@@QAEXXZ		; CCC_tf_MipBias::apply
	pop	esi

; 323  : 	}

	ret	4
?Execute@CCC_tf_MipBias@@UAEXPBD@Z ENDP			; CCC_tf_MipBias::Execute
_TEXT	ENDS
; Function compile flags: /Ogtpy
; File I:\Vitalya\mine\NSProjectX\layers\xrRender\xrRender_console.cpp
;	COMDAT ?Status@CCC_tf_MipBias@@UAEXAAY0BAA@D@Z
_TEXT	SEGMENT
_S$ = 8							; size = 4
?Status@CCC_tf_MipBias@@UAEXAAY0BAA@D@Z PROC		; CCC_tf_MipBias::Status, COMDAT
; _this$ = ecx

; 325  : 	{

	push	esi

; 326  : 		CCC_Float::Status(S);

	push	DWORD PTR _S$[esp]
	mov	esi, ecx
	call	DWORD PTR __imp_?Status@CCC_Float@@UAEXAAY0BAA@D@Z

; 327  : 		apply();

	mov	ecx, esi
	call	?apply@CCC_tf_MipBias@@QAEXXZ		; CCC_tf_MipBias::apply
	pop	esi

; 328  : 	}

	ret	4
?Status@CCC_tf_MipBias@@UAEXAAY0BAA@D@Z ENDP		; CCC_tf_MipBias::Status
_TEXT	ENDS
; Function compile flags: /Ogtpy
;	COMDAT ??_GCCC_tf_MipBias@@UAEPAXI@Z
_TEXT	SEGMENT
___flags$ = 8						; size = 4
??_GCCC_tf_MipBias@@UAEPAXI@Z PROC			; CCC_tf_MipBias::`scalar deleting destructor', COMDAT
; _this$ = ecx
	push	esi
	mov	esi, ecx
	call	DWORD PTR __imp_??1CCC_Float@@UAE@XZ
	test	BYTE PTR ___flags$[esp], 1
	je	SHORT $LN6@scalar
	push	36					; 00000024H
	push	esi
	call	??3@YAXPAXI@Z				; operator delete
	add	esp, 8
$LN6@scalar:
	mov	eax, esi
	pop	esi
	ret	4
??_GCCC_tf_MipBias@@UAEPAXI@Z ENDP			; CCC_tf_MipBias::`scalar deleting destructor'
_TEXT	ENDS
; Function compile flags: /Ogtpy
;	COMDAT ??1CCC_tf_MipBias@@UAE@XZ
_TEXT	SEGMENT
??1CCC_tf_MipBias@@UAE@XZ PROC				; CCC_tf_MipBias::~CCC_tf_MipBias, COMDAT
; _this$ = ecx
	jmp	DWORD PTR __imp_??1CCC_Float@@UAE@XZ
??1CCC_tf_MipBias@@UAE@XZ ENDP				; CCC_tf_MipBias::~CCC_tf_MipBias
_TEXT	ENDS
; Function compile flags: /Ogtpy
; File I:\Vitalya\mine\NSProjectX\layers\xrRender\xrRender_console.cpp
;	COMDAT ??0CCC_R2GM@@QAE@PBDPAM@Z
_TEXT	SEGMENT
_N$dead$ = 8						; size = 4
_v$dead$ = 12						; size = 4
??0CCC_R2GM@@QAE@PBDPAM@Z PROC				; CCC_R2GM::CCC_R2GM, COMDAT
; _this$dead$ = ecx

; 333  : 	CCC_R2GM(LPCSTR N, float* v) : CCC_Float(N, v, 0.f, 4.f) { *v = 0; };

	fld	DWORD PTR __real@40800000
	sub	esp, 8
	mov	ecx, OFFSET ?xCCC_R2GM@?DD@??xrRender_initconsole@@YAXXZ@4VCCC_R2GM@@A
	fstp	DWORD PTR [esp+4]
	fldz
	fstp	DWORD PTR [esp]
	push	OFFSET ?ps_r2_gmaterial@@3MA		; ps_r2_gmaterial
	push	OFFSET ??_C@_04HOKCJHEG@r2em@
	call	DWORD PTR __imp_??0CCC_Float@@QAE@PBDPAMMM@Z
	mov	DWORD PTR ?xCCC_R2GM@?DD@??xrRender_initconsole@@YAXXZ@4VCCC_R2GM@@A, OFFSET ??_7CCC_R2GM@@6B@
	mov	eax, OFFSET ?xCCC_R2GM@?DD@??xrRender_initconsole@@YAXXZ@4VCCC_R2GM@@A
	mov	DWORD PTR ?ps_r2_gmaterial@@3MA, 0
	ret	8
??0CCC_R2GM@@QAE@PBDPAM@Z ENDP				; CCC_R2GM::CCC_R2GM
_TEXT	ENDS
; Function compile flags: /Ogtpy
; File I:\Vitalya\mine\NSProjectX\layers\xrRender\xrRender_console.cpp
; File I:\Vitalya\mine\NSProjectX\xrCore\_std_extensions.h
; File I:\Vitalya\mine\NSProjectX\layers\xrRender\xrRender_console.cpp
; File I:\Vitalya\mine\NSProjectX\xrCore\_std_extensions.h
; File I:\Vitalya\mine\NSProjectX\layers\xrRender\xrRender_console.cpp
; File I:\Vitalya\mine\NSProjectX\xrCore\_std_extensions.h
; File I:\Vitalya\mine\NSProjectX\layers\xrRender\xrRender_console.cpp
; File I:\Vitalya\mine\NSProjectX\xrCore\_flags.h
; File I:\Vitalya\mine\NSProjectX\layers\xrRender\xrRender_console.cpp
; File I:\Vitalya\mine\NSProjectX\xrCore\_std_extensions.h
; File I:\Vitalya\mine\NSProjectX\layers\xrRender\xrRender_console.cpp
; File I:\Vitalya\mine\NSProjectX\xrCore\_flags.h
; File I:\Vitalya\mine\NSProjectX\layers\xrRender\xrRender_console.cpp
; File I:\Vitalya\mine\NSProjectX\xrCore\_flags.h
; File I:\Vitalya\mine\NSProjectX\layers\xrRender\xrRender_console.cpp
; File I:\Vitalya\mine\NSProjectX\xrCore\_bitwise.h
; File I:\Vitalya\mine\NSProjectX\layers\xrRender\xrRender_console.cpp
; File I:\Vitalya\mine\NSProjectX\xrCore\_bitwise.h
; File I:\Vitalya\mine\NSProjectX\layers\xrRender\xrRender_console.cpp
; File I:\Vitalya\mine\NSProjectX\xrCore\_bitwise.h
; File I:\Vitalya\mine\NSProjectX\layers\xrRender\xrRender_console.cpp
; File I:\Vitalya\mine\NSProjectX\xrCore\_bitwise.h
; File I:\Vitalya\mine\NSProjectX\layers\xrRender\xrRender_console.cpp
; File I:\Vitalya\mine\NSProjectX\xrCore\_bitwise.h
; File I:\Vitalya\mine\NSProjectX\layers\xrRender\xrRender_console.cpp
; File I:\Vitalya\mine\NSProjectX\xrCore\_bitwise.h
; File I:\Vitalya\mine\NSProjectX\layers\xrRender\xrRender_console.cpp
; File I:\Vitalya\mine\NSProjectX\xrCore\_bitwise.h
; File I:\Vitalya\mine\NSProjectX\layers\xrRender\xrRender_console.cpp
; File I:\Vitalya\mine\NSProjectX\xrCore\_bitwise.h
; File I:\Vitalya\mine\NSProjectX\layers\xrRender\xrRender_console.cpp
;	COMDAT ?Execute@CCC_R2GM@@UAEXPBD@Z
_TEXT	SEGMENT
_mid$1 = -8						; size = 4
_m0$1$ = -4						; size = 4
tv293 = 8						; size = 4
_a$2 = 8						; size = 4
_a$3 = 8						; size = 4
_args$ = 8						; size = 4
?Execute@CCC_R2GM@@UAEXPBD@Z PROC			; CCC_R2GM::Execute, COMDAT
; _this$ = ecx

; 335  : 	{

	sub	esp, 8
; File I:\Vitalya\mine\NSProjectX\xrCore\_std_extensions.h

; 183  : {	return (int)strcmp(S1,S2);  }

	mov	edx, OFFSET ??_C@_02LIELOMNJ@on@
; File I:\Vitalya\mine\NSProjectX\layers\xrRender\xrRender_console.cpp

; 335  : 	{

	push	ebx
	push	esi
; File I:\Vitalya\mine\NSProjectX\xrCore\_std_extensions.h

; 183  : {	return (int)strcmp(S1,S2);  }

	mov	esi, DWORD PTR _args$[esp+12]
	mov	eax, esi
; File I:\Vitalya\mine\NSProjectX\layers\xrRender\xrRender_console.cpp

; 335  : 	{

	push	edi
	mov	edi, ecx
$LL26@Execute:
; File I:\Vitalya\mine\NSProjectX\xrCore\_std_extensions.h

; 183  : {	return (int)strcmp(S1,S2);  }

	mov	bl, BYTE PTR [eax]
	cmp	bl, BYTE PTR [edx]
	jne	SHORT $LN27@Execute
	test	bl, bl
	je	SHORT $LN28@Execute
	mov	cl, BYTE PTR [eax+1]
	cmp	cl, BYTE PTR [edx+1]
	jne	SHORT $LN27@Execute
	add	eax, 2
	add	edx, 2
	test	cl, cl
	jne	SHORT $LL26@Execute
$LN28@Execute:
	xor	eax, eax
	jmp	SHORT $LN29@Execute
$LN27@Execute:
	sbb	eax, eax
	or	eax, 1
$LN29@Execute:
; File I:\Vitalya\mine\NSProjectX\layers\xrRender\xrRender_console.cpp

; 336  : 		if (0 == xr_strcmp(args, "on")) {

	test	eax, eax
	jne	SHORT $LN2@Execute
; File I:\Vitalya\mine\NSProjectX\xrCore\_flags.h

; 22   : 	IC	SelfRef	set		(const T mask,	BOOL value)					{ if (value) flags|=mask; else flags&=~mask; return *this; }

	or	DWORD PTR ?ps_r2_ls_flags@@3U?$_flags@I@@A, 256 ; ps_r2_ls_flags, 00000100H
	pop	edi
; File I:\Vitalya\mine\NSProjectX\layers\xrRender\xrRender_console.cpp

; 353  : 	}

	pop	esi
	pop	ebx
	add	esp, 8
	ret	4
$LN2@Execute:
; File I:\Vitalya\mine\NSProjectX\xrCore\_std_extensions.h

; 183  : {	return (int)strcmp(S1,S2);  }

	mov	ecx, OFFSET ??_C@_03MCADLMAF@off@
	mov	eax, esi
$LL30@Execute:
	mov	dl, BYTE PTR [eax]
	cmp	dl, BYTE PTR [ecx]
	jne	SHORT $LN31@Execute
	test	dl, dl
	je	SHORT $LN32@Execute
	mov	dl, BYTE PTR [eax+1]
	cmp	dl, BYTE PTR [ecx+1]
	jne	SHORT $LN31@Execute
	add	eax, 2
	add	ecx, 2
	test	dl, dl
	jne	SHORT $LL30@Execute
$LN32@Execute:
	xor	eax, eax
	jmp	SHORT $LN33@Execute
$LN31@Execute:
	sbb	eax, eax
	or	eax, 1
$LN33@Execute:
; File I:\Vitalya\mine\NSProjectX\layers\xrRender\xrRender_console.cpp

; 339  : 		else if (0 == xr_strcmp(args, "off")) {

	test	eax, eax
	jne	SHORT $LN4@Execute
; File I:\Vitalya\mine\NSProjectX\xrCore\_flags.h

; 22   : 	IC	SelfRef	set		(const T mask,	BOOL value)					{ if (value) flags|=mask; else flags&=~mask; return *this; }

	and	DWORD PTR ?ps_r2_ls_flags@@3U?$_flags@I@@A, -257 ; ps_r2_ls_flags, fffffeffH
	pop	edi
; File I:\Vitalya\mine\NSProjectX\layers\xrRender\xrRender_console.cpp

; 353  : 	}

	pop	esi
	pop	ebx
	add	esp, 8
	ret	4
$LN4@Execute:

; 340  : 			ps_r2_ls_flags.set(R2FLAG_GLOBALMATERIAL, FALSE);
; 341  : 		}
; 342  : 		else {
; 343  : 			CCC_Float::Execute(args);

	push	esi
	mov	ecx, edi
	call	DWORD PTR __imp_?Execute@CCC_Float@@UAEXPBD@Z
; File I:\Vitalya\mine\NSProjectX\xrCore\_flags.h

; 25   : 	IC 	BOOL	test	(const T mask)						const	{ return BOOL(flags&mask);				}

	test	DWORD PTR ?ps_r2_ls_flags@@3U?$_flags@I@@A, 256 ; ps_r2_ls_flags, 00000100H
; File I:\Vitalya\mine\NSProjectX\layers\xrRender\xrRender_console.cpp

; 344  : 			if (ps_r2_ls_flags.test(R2FLAG_GLOBALMATERIAL)) {

	je	$LN6@Execute

; 346  : 				float	mid = *value;

	mov	eax, DWORD PTR [edi+24]
; File I:\Vitalya\mine\NSProjectX\xrCore\_bitwise.h

; 88   :         int imask	=	(!(((( (1<<(exponent)))-1)>>8)&a));

	mov	ebx, 1
; File I:\Vitalya\mine\NSProjectX\layers\xrRender\xrRender_console.cpp

; 346  : 				float	mid = *value;

	push	ebp
; File I:\Vitalya\mine\NSProjectX\xrCore\_bitwise.h

; 84   :     int exponent	= (127 + 31) - ((a >> 23) & 0xFF);

	mov	ebp, 158				; 0000009eH
	mov	ecx, ebp
; File I:\Vitalya\mine\NSProjectX\layers\xrRender\xrRender_console.cpp

; 346  : 				float	mid = *value;

	movss	xmm0, DWORD PTR [eax]
; File I:\Vitalya\mine\NSProjectX\xrCore\_bitwise.h

; 83   :     int a			= *(const int*)(&x);

	movss	DWORD PTR _a$3[esp+20], xmm0

; 84   :     int exponent	= (127 + 31) - ((a >> 23) & 0xFF);

	mov	esi, DWORD PTR _a$3[esp+20]
	mov	eax, esi
	sar	eax, 23					; 00000017H

; 85   :     int r			= (((u32)(a) << 8) | (1U << 31)) >> exponent;

	mov	edi, esi
	movzx	eax, al
	or	edi, -8388608				; ff800000H
	sub	ecx, eax
	shl	edi, 8
	shr	edi, cl

; 88   :         int imask	=	(!(((( (1<<(exponent)))-1)>>8)&a));

	mov	eax, ebx
	sub	ecx, 96					; 00000060H
; File I:\Vitalya\mine\NSProjectX\layers\xrRender\xrRender_console.cpp

; 346  : 				float	mid = *value;

	movss	DWORD PTR _mid$1[esp+24], xmm0
; File I:\Vitalya\mine\NSProjectX\xrCore\_bitwise.h

; 88   :         int imask	=	(!(((( (1<<(exponent)))-1)>>8)&a));

	shl	eax, cl

; 91   :         a			>>=	31;

	mov	edx, esi
	dec	eax
	sar	edx, 31					; 0000001fH
	sar	eax, 8
	and	eax, esi
	neg	eax
	sbb	eax, eax
	inc	eax
	and	eax, edx

; 92   :         r			-=	(imask&a);

	sub	edi, eax
	lea	eax, DWORD PTR [ecx+64]
	sar	eax, 31					; 0000001fH

; 93   :         r			&=	exponent;

	and	edi, eax
	xor	edi, edx
; File I:\Vitalya\mine\NSProjectX\layers\xrRender\xrRender_console.cpp

; 347  : 				int		m0 = iFloor(mid) % 4;

	and	edi, -2147483645			; 80000003H
	jns	SHORT $LN34@Execute
	dec	edi
	or	edi, -4					; fffffffcH
	inc	edi
$LN34@Execute:
	mov	DWORD PTR _m0$1$[esp+24], edi
; File I:\Vitalya\mine\NSProjectX\xrCore\_bitwise.h

; 83   :     int a			= *(const int*)(&x);

	movss	DWORD PTR _a$2[esp+20], xmm0

; 84   :     int exponent	= (127 + 31) - ((a >> 23) & 0xFF);

	mov	esi, DWORD PTR _a$2[esp+20]
	mov	eax, esi
	sar	eax, 23					; 00000017H

; 85   :     int r			= (((u32)(a) << 8) | (1U << 31)) >> exponent;

	mov	edi, esi
	or	edi, -8388608				; ff800000H
	movzx	eax, al
	sub	ebp, eax
	shl	edi, 8
	mov	ecx, ebp

; 91   :         a			>>=	31;

	mov	edx, esi
	shr	edi, cl
	sar	edx, 31					; 0000001fH
	lea	ecx, DWORD PTR [ebp-96]
	shl	ebx, cl
	lea	eax, DWORD PTR [ebp-32]
	dec	ebx
; File I:\Vitalya\mine\NSProjectX\layers\xrRender\xrRender_console.cpp

; 348  : 				int		m1 = (m0 + 1) % 4;

	mov	ecx, DWORD PTR _m0$1$[esp+24]
; File I:\Vitalya\mine\NSProjectX\xrCore\_bitwise.h

; 88   :         int imask	=	(!(((( (1<<(exponent)))-1)>>8)&a));

	sar	ebx, 8
	and	ebx, esi
	neg	ebx
	sbb	ebx, ebx

; 89   :         exponent	-=	(31-127)+32;
; 90   :         exponent	>>=	31;

	sar	eax, 31					; 0000001fH
	inc	ebx
; File I:\Vitalya\mine\NSProjectX\layers\xrRender\xrRender_console.cpp

; 350  : 				Msg("* material set to [%s]-[%s], with lerp of [%f]", name[m0], name[m1], frc);

	sub	esp, 8
; File I:\Vitalya\mine\NSProjectX\xrCore\_bitwise.h

; 91   :         a			>>=	31;

	and	ebx, edx

; 92   :         r			-=	(imask&a);

	sub	edi, ebx

; 93   :         r			&=	exponent;

	and	edi, eax
; File I:\Vitalya\mine\NSProjectX\layers\xrRender\xrRender_console.cpp

; 348  : 				int		m1 = (m0 + 1) % 4;

	lea	eax, DWORD PTR [ecx+1]
; File I:\Vitalya\mine\NSProjectX\xrCore\_bitwise.h

; 93   :         r			&=	exponent;

	xor	edi, edx
; File I:\Vitalya\mine\NSProjectX\layers\xrRender\xrRender_console.cpp

; 349  : 				float	frc = mid - float(iFloor(mid));

	mov	DWORD PTR tv293[esp+28], edi
	fild	DWORD PTR tv293[esp+28]
	fsubr	DWORD PTR _mid$1[esp+32]

; 350  : 				Msg("* material set to [%s]-[%s], with lerp of [%f]", name[m0], name[m1], frc);

	fstp	QWORD PTR [esp]
	and	eax, -2147483645			; 80000003H
	jns	SHORT $LN35@Execute

; 348  : 				int		m1 = (m0 + 1) % 4;

	dec	eax
	or	eax, -4					; fffffffcH
	inc	eax
$LN35@Execute:

; 350  : 				Msg("* material set to [%s]-[%s], with lerp of [%f]", name[m0], name[m1], frc);

	push	DWORD PTR ?name@?O@??Execute@CCC_R2GM@@UAEXPBD@Z@4PAPBDA[eax*4]
	push	DWORD PTR ?name@?O@??Execute@CCC_R2GM@@UAEXPBD@Z@4PAPBDA[ecx*4]
	push	OFFSET ??_C@_0CP@CHANKGHI@?$CK?5material?5set?5to?5?$FL?$CFs?$FN?9?$FL?$CFs?$FN?0?5wi@
	call	DWORD PTR __imp_?Msg@@YAXPBDZZ
	add	esp, 20					; 00000014H
	pop	ebp
$LN6@Execute:

; 353  : 	}

	pop	edi
	pop	esi
	pop	ebx
	add	esp, 8
	ret	4
?Execute@CCC_R2GM@@UAEXPBD@Z ENDP			; CCC_R2GM::Execute
_TEXT	ENDS
; Function compile flags: /Ogtpy
;	COMDAT ??_GCCC_R2GM@@UAEPAXI@Z
_TEXT	SEGMENT
___flags$ = 8						; size = 4
??_GCCC_R2GM@@UAEPAXI@Z PROC				; CCC_R2GM::`scalar deleting destructor', COMDAT
; _this$ = ecx
	push	esi
	mov	esi, ecx
	call	DWORD PTR __imp_??1CCC_Float@@UAE@XZ
	test	BYTE PTR ___flags$[esp], 1
	je	SHORT $LN6@scalar
	push	36					; 00000024H
	push	esi
	call	??3@YAXPAXI@Z				; operator delete
	add	esp, 8
$LN6@scalar:
	mov	eax, esi
	pop	esi
	ret	4
??_GCCC_R2GM@@UAEPAXI@Z ENDP				; CCC_R2GM::`scalar deleting destructor'
_TEXT	ENDS
; Function compile flags: /Ogtpy
;	COMDAT ??1CCC_R2GM@@UAE@XZ
_TEXT	SEGMENT
??1CCC_R2GM@@UAE@XZ PROC				; CCC_R2GM::~CCC_R2GM, COMDAT
; _this$ = ecx
	jmp	DWORD PTR __imp_??1CCC_Float@@UAE@XZ
??1CCC_R2GM@@UAE@XZ ENDP				; CCC_R2GM::~CCC_R2GM
_TEXT	ENDS
; Function compile flags: /Ogtpy
; File I:\Vitalya\mine\NSProjectX\layers\xrRender\xrRender_console.cpp
;	COMDAT ??0CCC_Screenshot@@QAE@PBD@Z
_TEXT	SEGMENT
_N$dead$ = 8						; size = 4
??0CCC_Screenshot@@QAE@PBD@Z PROC			; CCC_Screenshot::CCC_Screenshot, COMDAT
; _this$dead$ = ecx

; 358  : 	CCC_Screenshot(LPCSTR N) : IConsole_Command(N) { };

	push	OFFSET ??_C@_0L@CMHOPIGK@screenshot@
	mov	ecx, OFFSET ?xCCC_Screenshot@?CC@??xrRender_initconsole@@YAXXZ@4VCCC_Screenshot@@A
	call	DWORD PTR __imp_??0IConsole_Command@@QAE@PBD@Z
	mov	DWORD PTR ?xCCC_Screenshot@?CC@??xrRender_initconsole@@YAXXZ@4VCCC_Screenshot@@A, OFFSET ??_7CCC_Screenshot@@6B@
	mov	eax, OFFSET ?xCCC_Screenshot@?CC@??xrRender_initconsole@@YAXXZ@4VCCC_Screenshot@@A
	ret	4
??0CCC_Screenshot@@QAE@PBD@Z ENDP			; CCC_Screenshot::CCC_Screenshot
_TEXT	ENDS
; Function compile flags: /Ogtpy
; File I:\Vitalya\mine\NSProjectX\layers\xrRender\xrRender_console.cpp
; File I:\Vitalya\mine\NSProjectX\xrCore\_std_extensions.h
; File I:\Vitalya\mine\NSProjectX\layers\xrRender\xrRender_console.cpp
; File I:\Vitalya\mine\NSProjectX\xrCore\_std_extensions.h
; File I:\Vitalya\mine\NSProjectX\layers\xrRender\xrRender_console.cpp
; File I:\Vitalya\mine\NSProjectX\xrCore\_std_extensions.h
; File I:\Vitalya\mine\NSProjectX\layers\xrRender\xrRender_console.cpp
;	COMDAT ?Execute@CCC_Screenshot@@UAEXPBD@Z
_TEXT	SEGMENT
tv128 = -524						; size = 4
_name$ = -520						; size = 520
_args$ = 8						; size = 4
?Execute@CCC_Screenshot@@UAEXPBD@Z PROC			; CCC_Screenshot::Execute, COMDAT
; _this$ = ecx

; 359  : 	virtual void Execute(LPCSTR args) {

	sub	esp, 524				; 0000020cH

; 361  : 		sscanf(args, "%s", name);

	lea	eax, DWORD PTR _name$[esp+524]
	mov	BYTE PTR _name$[esp+524], 0
	push	eax
	push	OFFSET ??_C@_02DKCKIIND@?$CFs@
	push	DWORD PTR _args$[esp+528]
	call	_sscanf
; File I:\Vitalya\mine\NSProjectX\xrCore\_std_extensions.h

; 174  : {	return (u32)strlen(S);			}

	lea	eax, DWORD PTR _name$[esp+536]
; File I:\Vitalya\mine\NSProjectX\layers\xrRender\xrRender_console.cpp

; 361  : 		sscanf(args, "%s", name);

	add	esp, 12					; 0000000cH
; File I:\Vitalya\mine\NSProjectX\xrCore\_std_extensions.h

; 174  : {	return (u32)strlen(S);			}

	lea	edx, DWORD PTR [eax+1]
	npad	5
$LL5@Execute:
	mov	cl, BYTE PTR [eax]
	inc	eax
	test	cl, cl
	jne	SHORT $LL5@Execute
	sub	eax, edx
; File I:\Vitalya\mine\NSProjectX\layers\xrRender\xrRender_console.cpp

; 363  : 		::Render->Screenshot(IRender_interface::SM_NORMAL, image);

	mov	eax, DWORD PTR __imp_?Render@@3PAVIRender_interface@@A
; File I:\Vitalya\mine\NSProjectX\xrCore\_std_extensions.h

; 174  : {	return (u32)strlen(S);			}

	push	esi
; File I:\Vitalya\mine\NSProjectX\layers\xrRender\xrRender_console.cpp

; 362  : 		LPCSTR		image = xr_strlen(name) ? name : 0;

	mov	esi, 0

; 363  : 		::Render->Screenshot(IRender_interface::SM_NORMAL, image);

	mov	ecx, DWORD PTR [eax]
	lea	eax, DWORD PTR _name$[esp+528]
	cmove	eax, esi
	push	eax
	push	esi
	mov	edx, DWORD PTR [ecx]
	call	DWORD PTR [edx+208]
	pop	esi

; 364  : 	}

	add	esp, 524				; 0000020cH
	ret	4
?Execute@CCC_Screenshot@@UAEXPBD@Z ENDP			; CCC_Screenshot::Execute
_TEXT	ENDS
; Function compile flags: /Ogtpy
;	COMDAT ??_GCCC_Screenshot@@UAEPAXI@Z
_TEXT	SEGMENT
___flags$ = 8						; size = 4
??_GCCC_Screenshot@@UAEPAXI@Z PROC			; CCC_Screenshot::`scalar deleting destructor', COMDAT
; _this$ = ecx
	push	esi
	mov	esi, ecx
	call	DWORD PTR __imp_??1IConsole_Command@@UAE@XZ
	test	BYTE PTR ___flags$[esp], 1
	je	SHORT $LN6@scalar
	push	24					; 00000018H
	push	esi
	call	??3@YAXPAXI@Z				; operator delete
	add	esp, 8
$LN6@scalar:
	mov	eax, esi
	pop	esi
	ret	4
??_GCCC_Screenshot@@UAEPAXI@Z ENDP			; CCC_Screenshot::`scalar deleting destructor'
_TEXT	ENDS
; Function compile flags: /Ogtpy
;	COMDAT ??1CCC_Screenshot@@UAE@XZ
_TEXT	SEGMENT
??1CCC_Screenshot@@UAE@XZ PROC				; CCC_Screenshot::~CCC_Screenshot, COMDAT
; _this$ = ecx
	jmp	DWORD PTR __imp_??1IConsole_Command@@UAE@XZ
??1CCC_Screenshot@@UAE@XZ ENDP				; CCC_Screenshot::~CCC_Screenshot
_TEXT	ENDS
; Function compile flags: /Ogtpy
; File I:\Vitalya\mine\NSProjectX\layers\xrRender\xrRender_console.cpp
;	COMDAT ??0CCC_Preset@@QAE@PBDPAIPAUxr_token@@@Z
_TEXT	SEGMENT
_N$dead$ = 8						; size = 4
_V$dead$ = 12						; size = 4
_T$dead$ = 16						; size = 4
??0CCC_Preset@@QAE@PBDPAIPAUxr_token@@@Z PROC		; CCC_Preset::CCC_Preset, COMDAT
; _this$dead$ = ecx

; 378  : 	CCC_Preset(LPCSTR N, u32* V, xr_token* T) : CCC_Token(N, V, T) {};

	push	OFFSET ?qpreset_token@@3PAUxr_token@@A	; qpreset_token
	push	OFFSET ?ps_Preset@@3IA			; ps_Preset
	push	OFFSET ??_C@_07JBEOPPGL@_preset@
	mov	ecx, OFFSET ?xCCC_Preset@?CA@??xrRender_initconsole@@YAXXZ@4VCCC_Preset@@A
	call	DWORD PTR __imp_??0CCC_Token@@QAE@PBDPAIPAUxr_token@@@Z
	mov	DWORD PTR ?xCCC_Preset@?CA@??xrRender_initconsole@@YAXXZ@4VCCC_Preset@@A, OFFSET ??_7CCC_Preset@@6B@
	mov	eax, OFFSET ?xCCC_Preset@?CA@??xrRender_initconsole@@YAXXZ@4VCCC_Preset@@A
	ret	12					; 0000000cH
??0CCC_Preset@@QAE@PBDPAIPAUxr_token@@@Z ENDP		; CCC_Preset::CCC_Preset
_TEXT	ENDS
; Function compile flags: /Ogtpy
; File I:\Vitalya\mine\NSProjectX\layers\xrRender\xrRender_console.cpp
;	COMDAT ?Execute@CCC_Preset@@UAEXPBD@Z
_TEXT	SEGMENT
__cfg$ = -1040						; size = 520
_cmd$ = -520						; size = 520
_args$ = 8						; size = 4
?Execute@CCC_Preset@@UAEXPBD@Z PROC			; CCC_Preset::Execute, COMDAT
; _this$ = ecx

; 380  : 	virtual void	Execute(LPCSTR args) {

	sub	esp, 1040				; 00000410H
	push	esi

; 381  : 		CCC_Token::Execute(args);

	push	DWORD PTR _args$[esp+1040]
	mov	esi, ecx
	call	DWORD PTR __imp_?Execute@CCC_Token@@UAEXPBD@Z

; 382  : 		string_path		_cfg;
; 383  : 		string_path		cmd;
; 384  : 
; 385  : 		switch (*value) {

	mov	eax, DWORD PTR [esi+24]
	pop	esi
	mov	eax, DWORD PTR [eax]
	cmp	eax, 6
	ja	$LN2@Execute
	jmp	DWORD PTR $LN12@Execute[eax*4]
$LN4@Execute:

; 386  : 		case 0:		strcpy(_cfg, "rspec_minimum.ltx");	break;

	mov	eax, DWORD PTR ??_C@_0BC@ELKOCAOA@rspec_minimum?4ltx@
	mov	DWORD PTR __cfg$[esp+1040], eax
	mov	eax, DWORD PTR ??_C@_0BC@ELKOCAOA@rspec_minimum?4ltx@+4
	mov	DWORD PTR __cfg$[esp+1044], eax
	mov	eax, DWORD PTR ??_C@_0BC@ELKOCAOA@rspec_minimum?4ltx@+8
	mov	DWORD PTR __cfg$[esp+1048], eax
	mov	eax, DWORD PTR ??_C@_0BC@ELKOCAOA@rspec_minimum?4ltx@+12
	mov	DWORD PTR __cfg$[esp+1052], eax
	mov	ax, WORD PTR ??_C@_0BC@ELKOCAOA@rspec_minimum?4ltx@+16
	mov	WORD PTR __cfg$[esp+1056], ax
	jmp	$LN2@Execute
$LN5@Execute:

; 387  : 		case 1:		strcpy(_cfg, "rspec_low.ltx");		break;

	mov	eax, DWORD PTR ??_C@_0O@OHALDFON@rspec_low?4ltx@
	mov	DWORD PTR __cfg$[esp+1040], eax
	mov	eax, DWORD PTR ??_C@_0O@OHALDFON@rspec_low?4ltx@+4
	mov	DWORD PTR __cfg$[esp+1044], eax
	mov	eax, DWORD PTR ??_C@_0O@OHALDFON@rspec_low?4ltx@+8
	mov	DWORD PTR __cfg$[esp+1048], eax
	mov	ax, WORD PTR ??_C@_0O@OHALDFON@rspec_low?4ltx@+12
	mov	WORD PTR __cfg$[esp+1052], ax
	jmp	$LN2@Execute
$LN6@Execute:

; 388  : 		case 2:		strcpy(_cfg, "rspec_default.ltx");	break;

	mov	eax, DWORD PTR ??_C@_0BC@NNDMKIK@rspec_default?4ltx@
	mov	DWORD PTR __cfg$[esp+1040], eax
	mov	eax, DWORD PTR ??_C@_0BC@NNDMKIK@rspec_default?4ltx@+4
	mov	DWORD PTR __cfg$[esp+1044], eax
	mov	eax, DWORD PTR ??_C@_0BC@NNDMKIK@rspec_default?4ltx@+8
	mov	DWORD PTR __cfg$[esp+1048], eax
	mov	eax, DWORD PTR ??_C@_0BC@NNDMKIK@rspec_default?4ltx@+12
	mov	DWORD PTR __cfg$[esp+1052], eax
	mov	ax, WORD PTR ??_C@_0BC@NNDMKIK@rspec_default?4ltx@+16
	mov	WORD PTR __cfg$[esp+1056], ax
	jmp	$LN2@Execute
$LN7@Execute:

; 389  : 		case 3:		strcpy(_cfg, "rspec_high.ltx");		break;

	mov	eax, DWORD PTR ??_C@_0P@KCGCMGAH@rspec_high?4ltx@
	mov	DWORD PTR __cfg$[esp+1040], eax
	mov	eax, DWORD PTR ??_C@_0P@KCGCMGAH@rspec_high?4ltx@+4
	mov	DWORD PTR __cfg$[esp+1044], eax
	mov	eax, DWORD PTR ??_C@_0P@KCGCMGAH@rspec_high?4ltx@+8
	mov	DWORD PTR __cfg$[esp+1048], eax
	mov	ax, WORD PTR ??_C@_0P@KCGCMGAH@rspec_high?4ltx@+12
	mov	WORD PTR __cfg$[esp+1052], ax
	mov	al, BYTE PTR ??_C@_0P@KCGCMGAH@rspec_high?4ltx@+14
	mov	BYTE PTR __cfg$[esp+1054], al
	jmp	$LN2@Execute
$LN8@Execute:

; 390  : 		case 4:		strcpy(_cfg, "rspec_maximum.ltx");	break;

	mov	eax, DWORD PTR ??_C@_0BC@NLNNDAAK@rspec_maximum?4ltx@
	mov	DWORD PTR __cfg$[esp+1040], eax
	mov	eax, DWORD PTR ??_C@_0BC@NLNNDAAK@rspec_maximum?4ltx@+4
	mov	DWORD PTR __cfg$[esp+1044], eax
	mov	eax, DWORD PTR ??_C@_0BC@NLNNDAAK@rspec_maximum?4ltx@+8
	mov	DWORD PTR __cfg$[esp+1048], eax
	mov	eax, DWORD PTR ??_C@_0BC@NLNNDAAK@rspec_maximum?4ltx@+12
	mov	DWORD PTR __cfg$[esp+1052], eax
	mov	ax, WORD PTR ??_C@_0BC@NLNNDAAK@rspec_maximum?4ltx@+16
	mov	WORD PTR __cfg$[esp+1056], ax
	jmp	SHORT $LN2@Execute
$LN9@Execute:

; 391  : 		case 5:		strcpy(_cfg, "rspec_extreme.ltx");	break;

	mov	eax, DWORD PTR ??_C@_0BC@FHEEMLOJ@rspec_extreme?4ltx@
	mov	DWORD PTR __cfg$[esp+1040], eax
	mov	eax, DWORD PTR ??_C@_0BC@FHEEMLOJ@rspec_extreme?4ltx@+4
	mov	DWORD PTR __cfg$[esp+1044], eax
	mov	eax, DWORD PTR ??_C@_0BC@FHEEMLOJ@rspec_extreme?4ltx@+8
	mov	DWORD PTR __cfg$[esp+1048], eax
	mov	eax, DWORD PTR ??_C@_0BC@FHEEMLOJ@rspec_extreme?4ltx@+12
	mov	DWORD PTR __cfg$[esp+1052], eax
	mov	ax, WORD PTR ??_C@_0BC@FHEEMLOJ@rspec_extreme?4ltx@+16
	mov	WORD PTR __cfg$[esp+1056], ax
	jmp	SHORT $LN2@Execute
$LN10@Execute:

; 392  : 		case 6:		strcpy(_cfg, "rspec_ultra.ltx");	break;

	mov	eax, DWORD PTR ??_C@_0BA@JAPHILEA@rspec_ultra?4ltx@
	mov	DWORD PTR __cfg$[esp+1040], eax
	mov	eax, DWORD PTR ??_C@_0BA@JAPHILEA@rspec_ultra?4ltx@+4
	mov	DWORD PTR __cfg$[esp+1044], eax
	mov	eax, DWORD PTR ??_C@_0BA@JAPHILEA@rspec_ultra?4ltx@+8
	mov	DWORD PTR __cfg$[esp+1048], eax
	mov	eax, DWORD PTR ??_C@_0BA@JAPHILEA@rspec_ultra?4ltx@+12
	mov	DWORD PTR __cfg$[esp+1052], eax
$LN2@Execute:

; 393  : 		}
; 394  : 		FS.update_path(_cfg, "$game_config$", _cfg);

	mov	ecx, DWORD PTR __imp_?xr_FS@@3PAVCLocatorAPI@@A
	lea	eax, DWORD PTR __cfg$[esp+1040]
	push	eax
	push	OFFSET ??_C@_0O@MGNGOECP@$game_config$@
	push	eax
	mov	ecx, DWORD PTR [ecx]
	call	DWORD PTR __imp_?update_path@CLocatorAPI@@QAEPBDAAY0CAI@DPBD1@Z

; 395  : 		strconcat(sizeof(cmd), cmd, "cfg_load", " ", _cfg);

	lea	eax, DWORD PTR __cfg$[esp+1040]
	push	eax
	push	OFFSET ??_C@_01CLKCMJKC@?5@
	push	OFFSET ??_C@_08KOFGEFOI@cfg_load@
	lea	eax, DWORD PTR _cmd$[esp+1052]
	push	eax
	push	520					; 00000208H
	call	DWORD PTR __imp_?strconcat@@YAPADHPADPBD11@Z

; 396  : 		Console->Execute(cmd);

	mov	ecx, DWORD PTR __imp_?Console@@3PAVCConsole@@A
	lea	eax, DWORD PTR _cmd$[esp+1060]
	add	esp, 20					; 00000014H
	mov	ecx, DWORD PTR [ecx]
	push	eax
	call	DWORD PTR __imp_?Execute@CConsole@@QAEXPBD@Z

; 397  : 	}

	add	esp, 1040				; 00000410H
	ret	4
	npad	3
$LN12@Execute:
	DD	$LN4@Execute
	DD	$LN5@Execute
	DD	$LN6@Execute
	DD	$LN7@Execute
	DD	$LN8@Execute
	DD	$LN9@Execute
	DD	$LN10@Execute
?Execute@CCC_Preset@@UAEXPBD@Z ENDP			; CCC_Preset::Execute
_TEXT	ENDS
; Function compile flags: /Ogtpy
;	COMDAT ??_GCCC_Preset@@UAEPAXI@Z
_TEXT	SEGMENT
___flags$ = 8						; size = 4
??_GCCC_Preset@@UAEPAXI@Z PROC				; CCC_Preset::`scalar deleting destructor', COMDAT
; _this$ = ecx
	push	esi
	mov	esi, ecx
	call	DWORD PTR __imp_??1CCC_Token@@UAE@XZ
	test	BYTE PTR ___flags$[esp], 1
	je	SHORT $LN6@scalar
	push	32					; 00000020H
	push	esi
	call	??3@YAXPAXI@Z				; operator delete
	add	esp, 8
$LN6@scalar:
	mov	eax, esi
	pop	esi
	ret	4
??_GCCC_Preset@@UAEPAXI@Z ENDP				; CCC_Preset::`scalar deleting destructor'
_TEXT	ENDS
; Function compile flags: /Ogtpy
;	COMDAT ??1CCC_Preset@@UAE@XZ
_TEXT	SEGMENT
??1CCC_Preset@@UAE@XZ PROC				; CCC_Preset::~CCC_Preset, COMDAT
; _this$ = ecx
	jmp	DWORD PTR __imp_??1CCC_Token@@UAE@XZ
??1CCC_Preset@@UAE@XZ ENDP				; CCC_Preset::~CCC_Preset
_TEXT	ENDS
; Function compile flags: /Ogtpy
; File I:\Vitalya\mine\NSProjectX\layers\xrRender\xrRender_console.cpp
;	COMDAT ??0CCC_EffPreset@@QAE@PBDPAIPAUxr_token@@@Z
_TEXT	SEGMENT
_N$dead$ = 8						; size = 4
_V$dead$ = 12						; size = 4
_T$dead$ = 16						; size = 4
??0CCC_EffPreset@@QAE@PBDPAIPAUxr_token@@@Z PROC	; CCC_EffPreset::CCC_EffPreset, COMDAT
; _this$dead$ = ecx

; 403  : 	CCC_EffPreset(LPCSTR N, u32* V, xr_token* T) : CCC_Token(N, V, T) {};

	push	OFFSET ?qeffpreset_token@@3PAUxr_token@@A ; qeffpreset_token
	push	OFFSET ?ps_EffPreset@@3IA		; ps_EffPreset
	push	OFFSET ??_C@_0L@ENOICHIN@eff_preset@
	mov	ecx, OFFSET ?xCCC_EffPreset@?CB@??xrRender_initconsole@@YAXXZ@4VCCC_EffPreset@@A
	call	DWORD PTR __imp_??0CCC_Token@@QAE@PBDPAIPAUxr_token@@@Z
	mov	DWORD PTR ?xCCC_EffPreset@?CB@??xrRender_initconsole@@YAXXZ@4VCCC_EffPreset@@A, OFFSET ??_7CCC_EffPreset@@6B@
	mov	eax, OFFSET ?xCCC_EffPreset@?CB@??xrRender_initconsole@@YAXXZ@4VCCC_EffPreset@@A
	ret	12					; 0000000cH
??0CCC_EffPreset@@QAE@PBDPAIPAUxr_token@@@Z ENDP	; CCC_EffPreset::CCC_EffPreset
_TEXT	ENDS
; Function compile flags: /Ogtpy
; File I:\Vitalya\mine\NSProjectX\layers\xrRender\xrRender_console.cpp
;	COMDAT ?Execute@CCC_EffPreset@@UAEXPBD@Z
_TEXT	SEGMENT
__cfg$ = -1040						; size = 520
_cmd$ = -520						; size = 520
_args$ = 8						; size = 4
?Execute@CCC_EffPreset@@UAEXPBD@Z PROC			; CCC_EffPreset::Execute, COMDAT
; _this$ = ecx

; 405  : 	virtual void	Execute(LPCSTR args) {

	sub	esp, 1040				; 00000410H
	push	esi

; 406  : 		CCC_Token::Execute(args);

	push	DWORD PTR _args$[esp+1040]
	mov	esi, ecx
	call	DWORD PTR __imp_?Execute@CCC_Token@@UAEXPBD@Z

; 407  : 		string_path		_cfg;
; 408  : 		string_path		cmd;
; 409  : 
; 410  : 		switch (*value) {

	mov	eax, DWORD PTR [esi+24]
	pop	esi
	mov	eax, DWORD PTR [eax]
	sub	eax, 0
	je	SHORT $LN4@Execute
	sub	eax, 1
	je	SHORT $LN5@Execute
	sub	eax, 1
	jne	$LN2@Execute

; 413  : 		case 2:		strcpy(_cfg, "eff_cinematic.ltx");	break;

	mov	eax, DWORD PTR ??_C@_0BC@KLFFOME@eff_cinematic?4ltx@
	mov	DWORD PTR __cfg$[esp+1040], eax
	mov	eax, DWORD PTR ??_C@_0BC@KLFFOME@eff_cinematic?4ltx@+4
	mov	DWORD PTR __cfg$[esp+1044], eax
	mov	eax, DWORD PTR ??_C@_0BC@KLFFOME@eff_cinematic?4ltx@+8
	mov	DWORD PTR __cfg$[esp+1048], eax
	mov	eax, DWORD PTR ??_C@_0BC@KLFFOME@eff_cinematic?4ltx@+12
	mov	DWORD PTR __cfg$[esp+1052], eax
	mov	ax, WORD PTR ??_C@_0BC@KLFFOME@eff_cinematic?4ltx@+16
	mov	WORD PTR __cfg$[esp+1056], ax
	jmp	SHORT $LN2@Execute
$LN5@Execute:

; 412  : 		case 1:		strcpy(_cfg, "eff_default.ltx");		break;

	mov	eax, DWORD PTR ??_C@_0BA@HEEBMDDC@eff_default?4ltx@
	mov	DWORD PTR __cfg$[esp+1040], eax
	mov	eax, DWORD PTR ??_C@_0BA@HEEBMDDC@eff_default?4ltx@+4
	mov	DWORD PTR __cfg$[esp+1044], eax
	mov	eax, DWORD PTR ??_C@_0BA@HEEBMDDC@eff_default?4ltx@+8
	mov	DWORD PTR __cfg$[esp+1048], eax
	mov	eax, DWORD PTR ??_C@_0BA@HEEBMDDC@eff_default?4ltx@+12
	mov	DWORD PTR __cfg$[esp+1052], eax
	jmp	SHORT $LN2@Execute
$LN4@Execute:

; 411  : 		case 0:		strcpy(_cfg, "eff_disabled.ltx");	break;

	mov	eax, DWORD PTR ??_C@_0BB@OMKBNKEA@eff_disabled?4ltx@
	mov	DWORD PTR __cfg$[esp+1040], eax
	mov	eax, DWORD PTR ??_C@_0BB@OMKBNKEA@eff_disabled?4ltx@+4
	mov	DWORD PTR __cfg$[esp+1044], eax
	mov	eax, DWORD PTR ??_C@_0BB@OMKBNKEA@eff_disabled?4ltx@+8
	mov	DWORD PTR __cfg$[esp+1048], eax
	mov	eax, DWORD PTR ??_C@_0BB@OMKBNKEA@eff_disabled?4ltx@+12
	mov	DWORD PTR __cfg$[esp+1052], eax
	mov	al, BYTE PTR ??_C@_0BB@OMKBNKEA@eff_disabled?4ltx@+16
	mov	BYTE PTR __cfg$[esp+1056], al
$LN2@Execute:

; 414  : 		}
; 415  : 		FS.update_path(_cfg, "$game_config$", _cfg);

	mov	ecx, DWORD PTR __imp_?xr_FS@@3PAVCLocatorAPI@@A
	lea	eax, DWORD PTR __cfg$[esp+1040]
	push	eax
	push	OFFSET ??_C@_0O@MGNGOECP@$game_config$@
	push	eax
	mov	ecx, DWORD PTR [ecx]
	call	DWORD PTR __imp_?update_path@CLocatorAPI@@QAEPBDAAY0CAI@DPBD1@Z

; 416  : 		strconcat(sizeof(cmd), cmd, "cfg_load", " ", _cfg);

	lea	eax, DWORD PTR __cfg$[esp+1040]
	push	eax
	push	OFFSET ??_C@_01CLKCMJKC@?5@
	push	OFFSET ??_C@_08KOFGEFOI@cfg_load@
	lea	eax, DWORD PTR _cmd$[esp+1052]
	push	eax
	push	520					; 00000208H
	call	DWORD PTR __imp_?strconcat@@YAPADHPADPBD11@Z

; 417  : 		Console->Execute(cmd);

	mov	ecx, DWORD PTR __imp_?Console@@3PAVCConsole@@A
	lea	eax, DWORD PTR _cmd$[esp+1060]
	add	esp, 20					; 00000014H
	mov	ecx, DWORD PTR [ecx]
	push	eax
	call	DWORD PTR __imp_?Execute@CConsole@@QAEXPBD@Z

; 418  : 	}

	add	esp, 1040				; 00000410H
	ret	4
?Execute@CCC_EffPreset@@UAEXPBD@Z ENDP			; CCC_EffPreset::Execute
_TEXT	ENDS
; Function compile flags: /Ogtpy
;	COMDAT ??_GCCC_EffPreset@@UAEPAXI@Z
_TEXT	SEGMENT
___flags$ = 8						; size = 4
??_GCCC_EffPreset@@UAEPAXI@Z PROC			; CCC_EffPreset::`scalar deleting destructor', COMDAT
; _this$ = ecx
	push	esi
	mov	esi, ecx
	call	DWORD PTR __imp_??1CCC_Token@@UAE@XZ
	test	BYTE PTR ___flags$[esp], 1
	je	SHORT $LN6@scalar
	push	32					; 00000020H
	push	esi
	call	??3@YAXPAXI@Z				; operator delete
	add	esp, 8
$LN6@scalar:
	mov	eax, esi
	pop	esi
	ret	4
??_GCCC_EffPreset@@UAEPAXI@Z ENDP			; CCC_EffPreset::`scalar deleting destructor'
_TEXT	ENDS
; Function compile flags: /Ogtpy
;	COMDAT ??1CCC_EffPreset@@UAE@XZ
_TEXT	SEGMENT
??1CCC_EffPreset@@UAE@XZ PROC				; CCC_EffPreset::~CCC_EffPreset, COMDAT
; _this$ = ecx
	jmp	DWORD PTR __imp_??1CCC_Token@@UAE@XZ
??1CCC_EffPreset@@UAE@XZ ENDP				; CCC_EffPreset::~CCC_EffPreset
_TEXT	ENDS
; Function compile flags: /Ogtpy
; File I:\Vitalya\mine\NSProjectX\layers\xrRender\xrRender_console.cpp
;	COMDAT ??0CCC_DofFar@@QAE@PBDPAMMM@Z
_TEXT	SEGMENT
_N$dead$ = 8						; size = 4
_V$ = 12						; size = 4
__min$ = 16						; size = 4
__max$ = 20						; size = 4
??0CCC_DofFar@@QAE@PBDPAMMM@Z PROC			; CCC_DofFar::CCC_DofFar, COMDAT
; _this$dead$ = ecx

; 437  : 		: CCC_Float(N, V, _min, _max) {}

	fld	DWORD PTR __max$[esp-4]
	sub	esp, 8
	mov	ecx, OFFSET ?xCCC_DofFar@?BB@??xrRender_initconsole@@YAXXZ@4VCCC_DofFar@@A
	fstp	DWORD PTR [esp+4]
	fld	DWORD PTR __min$[esp+4]
	fstp	DWORD PTR [esp]
	push	DWORD PTR _V$[esp+4]
	push	OFFSET ??_C@_0L@PEDLENCP@r2_dof_far@
	call	DWORD PTR __imp_??0CCC_Float@@QAE@PBDPAMMM@Z
	mov	DWORD PTR ?xCCC_DofFar@?BB@??xrRender_initconsole@@YAXXZ@4VCCC_DofFar@@A, OFFSET ??_7CCC_DofFar@@6B@
	mov	eax, OFFSET ?xCCC_DofFar@?BB@??xrRender_initconsole@@YAXXZ@4VCCC_DofFar@@A
	ret	16					; 00000010H
??0CCC_DofFar@@QAE@PBDPAMMM@Z ENDP			; CCC_DofFar::CCC_DofFar
_TEXT	ENDS
; Function compile flags: /Ogtpy
; File I:\Vitalya\mine\NSProjectX\layers\xrRender\xrRender_console.cpp
;	COMDAT ?Execute@CCC_DofFar@@UAEXPBD@Z
_TEXT	SEGMENT
_pBuf$1 = -256						; size = 256
_args$ = 8						; size = 4
?Execute@CCC_DofFar@@UAEXPBD@Z PROC			; CCC_DofFar::Execute, COMDAT
; _this$ = ecx

; 440  : 	{

	sub	esp, 256				; 00000100H
	push	esi

; 441  : 		float v = float(atof(args));

	push	DWORD PTR _args$[esp+256]
	mov	esi, ecx
	call	DWORD PTR __imp__atof

; 442  : 
; 443  : 		if (v < ps_r2_dof.y + 0.1f)

	fld	DWORD PTR ?ps_r2_dof@@3U?$_vector3@M@@A+4
	add	esp, 4
	fadd	DWORD PTR __real@3dcccccd
	fcomip	ST(1)
	fstp	ST(0)
	jbe	SHORT $LN2@Execute

; 444  : 		{
; 445  : 			char	pBuf[256];
; 446  : 			_snprintf(pBuf, sizeof(pBuf) / sizeof(pBuf[0]), "float value greater or equal to r2_dof_focus+0.1");

	push	OFFSET ??_C@_0DB@JNCBIEHJ@float?5value?5greater?5or?5equal?5to@
	lea	eax, DWORD PTR _pBuf$1[esp+264]
	push	256					; 00000100H
	push	eax
	call	__snprintf

; 447  : 			Msg("~ Invalid syntax in call to '%s'", cName);

	push	DWORD PTR [esi+4]
	mov	esi, DWORD PTR __imp_?Msg@@YAXPBDZZ
	push	OFFSET ??_C@_0CB@HLGFEFOB@?$HO?5Invalid?5syntax?5in?5call?5to?5?8?$CFs@
	call	esi

; 448  : 			Msg("~ Valid arguments: %s", pBuf);

	lea	eax, DWORD PTR _pBuf$1[esp+280]
	push	eax
	push	OFFSET ??_C@_0BG@IKMCPCOD@?$HO?5Valid?5arguments?3?5?$CFs@
	call	esi

; 449  : 			Console->Execute("r2_dof_focus");

	mov	ecx, DWORD PTR __imp_?Console@@3PAVCConsole@@A
	add	esp, 28					; 0000001cH
	mov	ecx, DWORD PTR [ecx]
	push	OFFSET ??_C@_0N@BLMMPPGO@r2_dof_focus@
	call	DWORD PTR __imp_?Execute@CConsole@@QAEXPBD@Z
$LN4@Execute:
	pop	esi

; 456  : 		}
; 457  : 	}

	add	esp, 256				; 00000100H
	ret	4
$LN2@Execute:

; 450  : 		}
; 451  : 		else
; 452  : 		{
; 453  : 			CCC_Float::Execute(args);

	push	DWORD PTR _args$[esp+256]
	mov	ecx, esi
	call	DWORD PTR __imp_?Execute@CCC_Float@@UAEXPBD@Z

; 454  : 			if (g_pGamePersistent)

	mov	eax, DWORD PTR __imp_?g_pGamePersistent@@3PAVIGame_Persistent@@A
	mov	ecx, DWORD PTR [eax]
	test	ecx, ecx
	je	SHORT $LN4@Execute

; 455  : 				g_pGamePersistent->SetBaseDof(ps_r2_dof);

	mov	eax, DWORD PTR [ecx]
	pop	esi

; 456  : 		}
; 457  : 	}

	add	esp, 256				; 00000100H

; 455  : 				g_pGamePersistent->SetBaseDof(ps_r2_dof);

	mov	DWORD PTR _args$[esp-4], OFFSET ?ps_r2_dof@@3U?$_vector3@M@@A ; ps_r2_dof
	jmp	DWORD PTR [eax+48]
?Execute@CCC_DofFar@@UAEXPBD@Z ENDP			; CCC_DofFar::Execute
_TEXT	ENDS
; Function compile flags: /Ogtpy
; File I:\Vitalya\mine\NSProjectX\layers\xrRender\xrRender_console.cpp
;	COMDAT ?Save@CCC_DofFar@@UAEXPAVIWriter@@@Z
_TEXT	SEGMENT
_F$ = 8							; size = 4
?Save@CCC_DofFar@@UAEXPAVIWriter@@@Z PROC		; CCC_DofFar::Save, COMDAT
; _this$ = ecx

; 460  : 	virtual void	Save(IWriter* F) { ; }

	ret	4
?Save@CCC_DofFar@@UAEXPAVIWriter@@@Z ENDP		; CCC_DofFar::Save
_TEXT	ENDS
; Function compile flags: /Ogtpy
;	COMDAT ??_GCCC_DofFar@@UAEPAXI@Z
_TEXT	SEGMENT
___flags$ = 8						; size = 4
??_GCCC_DofFar@@UAEPAXI@Z PROC				; CCC_DofFar::`scalar deleting destructor', COMDAT
; _this$ = ecx
	push	esi
	mov	esi, ecx
	call	DWORD PTR __imp_??1CCC_Float@@UAE@XZ
	test	BYTE PTR ___flags$[esp], 1
	je	SHORT $LN6@scalar
	push	36					; 00000024H
	push	esi
	call	??3@YAXPAXI@Z				; operator delete
	add	esp, 8
$LN6@scalar:
	mov	eax, esi
	pop	esi
	ret	4
??_GCCC_DofFar@@UAEPAXI@Z ENDP				; CCC_DofFar::`scalar deleting destructor'
_TEXT	ENDS
; Function compile flags: /Ogtpy
;	COMDAT ??1CCC_DofFar@@UAE@XZ
_TEXT	SEGMENT
??1CCC_DofFar@@UAE@XZ PROC				; CCC_DofFar::~CCC_DofFar, COMDAT
; _this$ = ecx
	jmp	DWORD PTR __imp_??1CCC_Float@@UAE@XZ
??1CCC_DofFar@@UAE@XZ ENDP				; CCC_DofFar::~CCC_DofFar
_TEXT	ENDS
; Function compile flags: /Ogtpy
; File I:\Vitalya\mine\NSProjectX\layers\xrRender\xrRender_console.cpp
;	COMDAT ??0CCC_DofNear@@QAE@PBDPAMMM@Z
_TEXT	SEGMENT
_N$dead$ = 8						; size = 4
_V$ = 12						; size = 4
__min$ = 16						; size = 4
__max$ = 20						; size = 4
??0CCC_DofNear@@QAE@PBDPAMMM@Z PROC			; CCC_DofNear::CCC_DofNear, COMDAT
; _this$dead$ = ecx

; 467  : 		: CCC_Float(N, V, _min, _max) {}

	fld	DWORD PTR __max$[esp-4]
	sub	esp, 8
	mov	ecx, OFFSET ?xCCC_DofNear@?P@??xrRender_initconsole@@YAXXZ@4VCCC_DofNear@@A
	fstp	DWORD PTR [esp+4]
	fld	DWORD PTR __min$[esp+4]
	fstp	DWORD PTR [esp]
	push	DWORD PTR _V$[esp+4]
	push	OFFSET ??_C@_0M@BHFONMNP@r2_dof_near@
	call	DWORD PTR __imp_??0CCC_Float@@QAE@PBDPAMMM@Z
	mov	DWORD PTR ?xCCC_DofNear@?P@??xrRender_initconsole@@YAXXZ@4VCCC_DofNear@@A, OFFSET ??_7CCC_DofNear@@6B@
	mov	eax, OFFSET ?xCCC_DofNear@?P@??xrRender_initconsole@@YAXXZ@4VCCC_DofNear@@A
	ret	16					; 00000010H
??0CCC_DofNear@@QAE@PBDPAMMM@Z ENDP			; CCC_DofNear::CCC_DofNear
_TEXT	ENDS
; Function compile flags: /Ogtpy
; File I:\Vitalya\mine\NSProjectX\layers\xrRender\xrRender_console.cpp
;	COMDAT ?Execute@CCC_DofNear@@UAEXPBD@Z
_TEXT	SEGMENT
_pBuf$1 = -256						; size = 256
_args$ = 8						; size = 4
?Execute@CCC_DofNear@@UAEXPBD@Z PROC			; CCC_DofNear::Execute, COMDAT
; _this$ = ecx

; 470  : 	{

	sub	esp, 256				; 00000100H
	push	esi

; 471  : 		float v = float(atof(args));

	push	DWORD PTR _args$[esp+256]
	mov	esi, ecx
	call	DWORD PTR __imp__atof

; 472  : 
; 473  : 		if (v > ps_r2_dof.y - 0.1f)

	fld	DWORD PTR ?ps_r2_dof@@3U?$_vector3@M@@A+4
	add	esp, 4
	fsub	DWORD PTR __real@3dcccccd
	fxch	ST(1)
	fcomip	ST(1)
	fstp	ST(0)
	jbe	SHORT $LN2@Execute

; 474  : 		{
; 475  : 			char	pBuf[256];
; 476  : 			_snprintf(pBuf, sizeof(pBuf) / sizeof(pBuf[0]), "float value less or equal to r2_dof_focus-0.1");

	push	OFFSET ??_C@_0CO@FPIHCIBJ@float?5value?5less?5or?5equal?5to?5r2@
	lea	eax, DWORD PTR _pBuf$1[esp+264]
	push	256					; 00000100H
	push	eax
	call	__snprintf

; 477  : 			Msg("~ Invalid syntax in call to '%s'", cName);

	push	DWORD PTR [esi+4]
	mov	esi, DWORD PTR __imp_?Msg@@YAXPBDZZ
	push	OFFSET ??_C@_0CB@HLGFEFOB@?$HO?5Invalid?5syntax?5in?5call?5to?5?8?$CFs@
	call	esi

; 478  : 			Msg("~ Valid arguments: %s", pBuf);

	lea	eax, DWORD PTR _pBuf$1[esp+280]
	push	eax
	push	OFFSET ??_C@_0BG@IKMCPCOD@?$HO?5Valid?5arguments?3?5?$CFs@
	call	esi

; 479  : 			Console->Execute("r2_dof_focus");

	mov	ecx, DWORD PTR __imp_?Console@@3PAVCConsole@@A
	add	esp, 28					; 0000001cH
	mov	ecx, DWORD PTR [ecx]
	push	OFFSET ??_C@_0N@BLMMPPGO@r2_dof_focus@
	call	DWORD PTR __imp_?Execute@CConsole@@QAEXPBD@Z
$LN4@Execute:
	pop	esi

; 486  : 		}
; 487  : 	}

	add	esp, 256				; 00000100H
	ret	4
$LN2@Execute:

; 480  : 		}
; 481  : 		else
; 482  : 		{
; 483  : 			CCC_Float::Execute(args);

	push	DWORD PTR _args$[esp+256]
	mov	ecx, esi
	call	DWORD PTR __imp_?Execute@CCC_Float@@UAEXPBD@Z

; 484  : 			if (g_pGamePersistent)

	mov	eax, DWORD PTR __imp_?g_pGamePersistent@@3PAVIGame_Persistent@@A
	mov	ecx, DWORD PTR [eax]
	test	ecx, ecx
	je	SHORT $LN4@Execute

; 485  : 				g_pGamePersistent->SetBaseDof(ps_r2_dof);

	mov	eax, DWORD PTR [ecx]
	pop	esi

; 486  : 		}
; 487  : 	}

	add	esp, 256				; 00000100H

; 485  : 				g_pGamePersistent->SetBaseDof(ps_r2_dof);

	mov	DWORD PTR _args$[esp-4], OFFSET ?ps_r2_dof@@3U?$_vector3@M@@A ; ps_r2_dof
	jmp	DWORD PTR [eax+48]
?Execute@CCC_DofNear@@UAEXPBD@Z ENDP			; CCC_DofNear::Execute
_TEXT	ENDS
; Function compile flags: /Ogtpy
; File I:\Vitalya\mine\NSProjectX\layers\xrRender\xrRender_console.cpp
;	COMDAT ?Save@CCC_DofNear@@UAEXPAVIWriter@@@Z
_TEXT	SEGMENT
_F$ = 8							; size = 4
?Save@CCC_DofNear@@UAEXPAVIWriter@@@Z PROC		; CCC_DofNear::Save, COMDAT
; _this$ = ecx

; 490  : 	virtual void	Save(IWriter* F) { ; }

	ret	4
?Save@CCC_DofNear@@UAEXPAVIWriter@@@Z ENDP		; CCC_DofNear::Save
_TEXT	ENDS
; Function compile flags: /Ogtpy
;	COMDAT ??_GCCC_DofNear@@UAEPAXI@Z
_TEXT	SEGMENT
___flags$ = 8						; size = 4
??_GCCC_DofNear@@UAEPAXI@Z PROC				; CCC_DofNear::`scalar deleting destructor', COMDAT
; _this$ = ecx
	push	esi
	mov	esi, ecx
	call	DWORD PTR __imp_??1CCC_Float@@UAE@XZ
	test	BYTE PTR ___flags$[esp], 1
	je	SHORT $LN6@scalar
	push	36					; 00000024H
	push	esi
	call	??3@YAXPAXI@Z				; operator delete
	add	esp, 8
$LN6@scalar:
	mov	eax, esi
	pop	esi
	ret	4
??_GCCC_DofNear@@UAEPAXI@Z ENDP				; CCC_DofNear::`scalar deleting destructor'
_TEXT	ENDS
; Function compile flags: /Ogtpy
;	COMDAT ??1CCC_DofNear@@UAE@XZ
_TEXT	SEGMENT
??1CCC_DofNear@@UAE@XZ PROC				; CCC_DofNear::~CCC_DofNear, COMDAT
; _this$ = ecx
	jmp	DWORD PTR __imp_??1CCC_Float@@UAE@XZ
??1CCC_DofNear@@UAE@XZ ENDP				; CCC_DofNear::~CCC_DofNear
_TEXT	ENDS
; Function compile flags: /Ogtpy
; File I:\Vitalya\mine\NSProjectX\layers\xrRender\xrRender_console.cpp
;	COMDAT ??0CCC_DofFocus@@QAE@PBDPAMMM@Z
_TEXT	SEGMENT
_N$dead$ = 8						; size = 4
_V$ = 12						; size = 4
__min$ = 16						; size = 4
__max$ = 20						; size = 4
??0CCC_DofFocus@@QAE@PBDPAMMM@Z PROC			; CCC_DofFocus::CCC_DofFocus, COMDAT
; _this$dead$ = ecx

; 497  : 		: CCC_Float(N, V, _min, _max) {}

	fld	DWORD PTR __max$[esp-4]
	sub	esp, 8
	mov	ecx, OFFSET ?xCCC_DofFocus@?BA@??xrRender_initconsole@@YAXXZ@4VCCC_DofFocus@@A
	fstp	DWORD PTR [esp+4]
	fld	DWORD PTR __min$[esp+4]
	fstp	DWORD PTR [esp]
	push	DWORD PTR _V$[esp+4]
	push	OFFSET ??_C@_0N@BLMMPPGO@r2_dof_focus@
	call	DWORD PTR __imp_??0CCC_Float@@QAE@PBDPAMMM@Z
	mov	DWORD PTR ?xCCC_DofFocus@?BA@??xrRender_initconsole@@YAXXZ@4VCCC_DofFocus@@A, OFFSET ??_7CCC_DofFocus@@6B@
	mov	eax, OFFSET ?xCCC_DofFocus@?BA@??xrRender_initconsole@@YAXXZ@4VCCC_DofFocus@@A
	ret	16					; 00000010H
??0CCC_DofFocus@@QAE@PBDPAMMM@Z ENDP			; CCC_DofFocus::CCC_DofFocus
_TEXT	ENDS
; Function compile flags: /Ogtpy
; File I:\Vitalya\mine\NSProjectX\layers\xrRender\xrRender_console.cpp
;	COMDAT ?Execute@CCC_DofFocus@@UAEXPBD@Z
_TEXT	SEGMENT
_v$ = -260						; size = 4
_pBuf$1 = -256						; size = 256
_pBuf$2 = -256						; size = 256
_args$ = 8						; size = 4
?Execute@CCC_DofFocus@@UAEXPBD@Z PROC			; CCC_DofFocus::Execute, COMDAT
; _this$ = ecx

; 500  : 	{

	sub	esp, 260				; 00000104H
	push	esi

; 501  : 		float v = float(atof(args));

	push	DWORD PTR _args$[esp+260]
	mov	esi, ecx
	call	DWORD PTR __imp__atof
	fst	DWORD PTR _v$[esp+268]

; 502  : 
; 503  : 		if (v > ps_r2_dof.z - 0.1f)

	fld	DWORD PTR ?ps_r2_dof@@3U?$_vector3@M@@A+8
	add	esp, 4
	fsub	DWORD PTR __real@3dcccccd
	fxch	ST(1)
	fcomip	ST(1)
	fstp	ST(0)
	jbe	SHORT $LN2@Execute

; 504  : 		{
; 505  : 			char	pBuf[256];
; 506  : 			_snprintf(pBuf, sizeof(pBuf) / sizeof(pBuf[0]), "float value less or equal to r2_dof_far-0.1");

	push	OFFSET ??_C@_0CM@HGBJKDAK@float?5value?5less?5or?5equal?5to?5r2@
	lea	eax, DWORD PTR _pBuf$2[esp+268]
	push	256					; 00000100H
	push	eax
	call	__snprintf

; 507  : 			Msg("~ Invalid syntax in call to '%s'", cName);

	push	DWORD PTR [esi+4]
	mov	esi, DWORD PTR __imp_?Msg@@YAXPBDZZ
	push	OFFSET ??_C@_0CB@HLGFEFOB@?$HO?5Invalid?5syntax?5in?5call?5to?5?8?$CFs@
	call	esi

; 508  : 			Msg("~ Valid arguments: %s", pBuf);

	lea	eax, DWORD PTR _pBuf$2[esp+284]
	push	eax
	push	OFFSET ??_C@_0BG@IKMCPCOD@?$HO?5Valid?5arguments?3?5?$CFs@
	call	esi
	add	esp, 28					; 0000001cH

; 509  : 			Console->Execute("r2_dof_far");

	push	OFFSET ??_C@_0L@PEDLENCP@r2_dof_far@
$LN9@Execute:

; 523  : 		}
; 524  : 	}

	mov	ecx, DWORD PTR __imp_?Console@@3PAVCConsole@@A
	mov	ecx, DWORD PTR [ecx]
	call	DWORD PTR __imp_?Execute@CConsole@@QAEXPBD@Z
$LN6@Execute:
	pop	esi
	add	esp, 260				; 00000104H
	ret	4
$LN2@Execute:

; 510  : 		}
; 511  : 		else if (v < ps_r2_dof.x + 0.1f)

	movss	xmm0, DWORD PTR ?ps_r2_dof@@3U?$_vector3@M@@A
	addss	xmm0, DWORD PTR __real@3dcccccd
	comiss	xmm0, DWORD PTR _v$[esp+264]
	jbe	SHORT $LN4@Execute

; 512  : 		{
; 513  : 			char	pBuf[256];
; 514  : 			_snprintf(pBuf, sizeof(pBuf) / sizeof(pBuf[0]), "float value greater or equal to r2_dof_far-0.1");

	push	OFFSET ??_C@_0CP@JANGOKPM@float?5value?5greater?5or?5equal?5to@
	lea	eax, DWORD PTR _pBuf$1[esp+268]
	push	256					; 00000100H
	push	eax
	call	__snprintf

; 515  : 			Msg("~ Invalid syntax in call to '%s'", cName);

	push	DWORD PTR [esi+4]
	mov	esi, DWORD PTR __imp_?Msg@@YAXPBDZZ
	push	OFFSET ??_C@_0CB@HLGFEFOB@?$HO?5Invalid?5syntax?5in?5call?5to?5?8?$CFs@
	call	esi

; 516  : 			Msg("~ Valid arguments: %s", pBuf);

	lea	eax, DWORD PTR _pBuf$1[esp+284]
	push	eax
	push	OFFSET ??_C@_0BG@IKMCPCOD@?$HO?5Valid?5arguments?3?5?$CFs@
	call	esi
	add	esp, 28					; 0000001cH

; 517  : 			Console->Execute("r2_dof_near");

	push	OFFSET ??_C@_0M@BHFONMNP@r2_dof_near@

; 518  : 		}

	jmp	SHORT $LN9@Execute
$LN4@Execute:

; 519  : 		else {
; 520  : 			CCC_Float::Execute(args);

	push	DWORD PTR _args$[esp+260]
	mov	ecx, esi
	call	DWORD PTR __imp_?Execute@CCC_Float@@UAEXPBD@Z

; 521  : 			if (g_pGamePersistent)

	mov	eax, DWORD PTR __imp_?g_pGamePersistent@@3PAVIGame_Persistent@@A
	mov	ecx, DWORD PTR [eax]
	test	ecx, ecx
	je	SHORT $LN6@Execute

; 522  : 				g_pGamePersistent->SetBaseDof(ps_r2_dof);

	mov	eax, DWORD PTR [ecx]
	pop	esi

; 523  : 		}
; 524  : 	}

	add	esp, 260				; 00000104H

; 522  : 				g_pGamePersistent->SetBaseDof(ps_r2_dof);

	mov	DWORD PTR _args$[esp-4], OFFSET ?ps_r2_dof@@3U?$_vector3@M@@A ; ps_r2_dof
	jmp	DWORD PTR [eax+48]
?Execute@CCC_DofFocus@@UAEXPBD@Z ENDP			; CCC_DofFocus::Execute
_TEXT	ENDS
; Function compile flags: /Ogtpy
; File I:\Vitalya\mine\NSProjectX\layers\xrRender\xrRender_console.cpp
;	COMDAT ?Save@CCC_DofFocus@@UAEXPAVIWriter@@@Z
_TEXT	SEGMENT
_F$ = 8							; size = 4
?Save@CCC_DofFocus@@UAEXPAVIWriter@@@Z PROC		; CCC_DofFocus::Save, COMDAT
; _this$ = ecx

; 527  : 	virtual void	Save(IWriter* F) { ; }

	ret	4
?Save@CCC_DofFocus@@UAEXPAVIWriter@@@Z ENDP		; CCC_DofFocus::Save
_TEXT	ENDS
; Function compile flags: /Ogtpy
;	COMDAT ??_GCCC_DofFocus@@UAEPAXI@Z
_TEXT	SEGMENT
___flags$ = 8						; size = 4
??_GCCC_DofFocus@@UAEPAXI@Z PROC			; CCC_DofFocus::`scalar deleting destructor', COMDAT
; _this$ = ecx
	push	esi
	mov	esi, ecx
	call	DWORD PTR __imp_??1CCC_Float@@UAE@XZ
	test	BYTE PTR ___flags$[esp], 1
	je	SHORT $LN6@scalar
	push	36					; 00000024H
	push	esi
	call	??3@YAXPAXI@Z				; operator delete
	add	esp, 8
$LN6@scalar:
	mov	eax, esi
	pop	esi
	ret	4
??_GCCC_DofFocus@@UAEPAXI@Z ENDP			; CCC_DofFocus::`scalar deleting destructor'
_TEXT	ENDS
; Function compile flags: /Ogtpy
;	COMDAT ??1CCC_DofFocus@@UAE@XZ
_TEXT	SEGMENT
??1CCC_DofFocus@@UAE@XZ PROC				; CCC_DofFocus::~CCC_DofFocus, COMDAT
; _this$ = ecx
	jmp	DWORD PTR __imp_??1CCC_Float@@UAE@XZ
??1CCC_DofFocus@@UAE@XZ ENDP				; CCC_DofFocus::~CCC_DofFocus
_TEXT	ENDS
; Function compile flags: /Ogtpy
; File I:\Vitalya\mine\NSProjectX\layers\xrRender\xrRender_console.cpp
;	COMDAT ??0CCC_Dof@@QAE@PBDPAU?$_vector3@M@@U1@2@Z
_TEXT	SEGMENT
_N$dead$ = 8						; size = 4
_V$ = 12						; size = 4
__min$ = 16						; size = 12
__max$ = 28						; size = 12
??0CCC_Dof@@QAE@PBDPAU?$_vector3@M@@U1@2@Z PROC		; CCC_Dof::CCC_Dof, COMDAT
; _this$dead$ = ecx

; 534  : 		CCC_Vector3(N, V, _min, _max) {

	mov	eax, DWORD PTR __max$[esp-4]
	sub	esp, 12					; 0000000cH
	mov	ecx, esp
	sub	esp, 12					; 0000000cH
	mov	DWORD PTR [ecx], eax
	mov	eax, DWORD PTR __max$[esp+24]
	mov	DWORD PTR [ecx+4], eax
	mov	eax, DWORD PTR __max$[esp+28]
	mov	DWORD PTR [ecx+8], eax
	mov	ecx, esp
	mov	eax, DWORD PTR __min$[esp+20]
	push	DWORD PTR _V$[esp+20]
	mov	DWORD PTR [ecx], eax
	mov	eax, DWORD PTR __min$[esp+28]
	mov	DWORD PTR [ecx+4], eax
	mov	eax, DWORD PTR __min$[esp+32]
	mov	DWORD PTR [ecx+8], eax
	mov	ecx, OFFSET ?xCCC_Dof@?O@??xrRender_initconsole@@YAXXZ@4VCCC_Dof@@A
	push	OFFSET ??_C@_06COPNDPFH@r2_dof@
	call	DWORD PTR __imp_??0CCC_Vector3@@QAE@PBDPAU?$_vector3@M@@U1@2@Z
	mov	DWORD PTR ?xCCC_Dof@?O@??xrRender_initconsole@@YAXXZ@4VCCC_Dof@@A, OFFSET ??_7CCC_Dof@@6B@

; 535  : 		;
; 536  : 	}

	mov	eax, OFFSET ?xCCC_Dof@?O@??xrRender_initconsole@@YAXXZ@4VCCC_Dof@@A
	ret	32					; 00000020H
??0CCC_Dof@@QAE@PBDPAU?$_vector3@M@@U1@2@Z ENDP		; CCC_Dof::CCC_Dof
_TEXT	ENDS
; Function compile flags: /Ogtpy
; File I:\Vitalya\mine\NSProjectX\layers\xrRender\xrRender_console.cpp
;	COMDAT ?Execute@CCC_Dof@@UAEXPBD@Z
_TEXT	SEGMENT
_v$ = -12						; size = 12
_args$ = 8						; size = 4
?Execute@CCC_Dof@@UAEXPBD@Z PROC			; CCC_Dof::Execute, COMDAT
; _this$ = ecx

; 539  : 	{

	sub	esp, 12					; 0000000cH

; 540  : 		Fvector v;
; 541  : 		if (3 != sscanf(args, "%f,%f,%f", &v.x, &v.y, &v.z))

	lea	eax, DWORD PTR _v$[esp+20]
	push	esi
	push	eax
	lea	eax, DWORD PTR _v$[esp+24]
	mov	esi, ecx
	push	eax
	lea	eax, DWORD PTR _v$[esp+24]
	push	eax
	push	OFFSET ??_C@_08GJNPJIKN@?$CFf?0?$CFf?0?$CFf@
	push	DWORD PTR _args$[esp+28]
	call	_sscanf
	add	esp, 20					; 00000014H
	cmp	eax, 3
	je	SHORT $LN2@Execute

; 542  : 			InvalidSyntax();

	mov	ecx, esi
	call	DWORD PTR __imp_?InvalidSyntax@IConsole_Command@@QAEXXZ
	pop	esi

; 554  : 		}
; 555  : 	}

	add	esp, 12					; 0000000cH
	ret	4
$LN2@Execute:

; 543  : 		else if ((v.x > v.y - 0.1f) || (v.z < v.y + 0.1f))

	movss	xmm2, DWORD PTR _v$[esp+20]
	movss	xmm3, DWORD PTR __real@3dcccccd
	movaps	xmm1, xmm2
	movss	xmm0, DWORD PTR _v$[esp+16]
	subss	xmm1, xmm3
	comiss	xmm0, xmm1
	ja	SHORT $LN6@Execute
	addss	xmm2, xmm3
	comiss	xmm2, DWORD PTR _v$[esp+24]
	ja	SHORT $LN6@Execute

; 548  : 		}
; 549  : 		else
; 550  : 		{
; 551  : 			CCC_Vector3::Execute(args);

	push	DWORD PTR _args$[esp+12]
	mov	ecx, esi
	call	DWORD PTR __imp_?Execute@CCC_Vector3@@UAEXPBD@Z

; 552  : 			if (g_pGamePersistent)

	mov	eax, DWORD PTR __imp_?g_pGamePersistent@@3PAVIGame_Persistent@@A
	mov	ecx, DWORD PTR [eax]
	test	ecx, ecx
	je	SHORT $LN7@Execute

; 553  : 				g_pGamePersistent->SetBaseDof(ps_r2_dof);

	mov	eax, DWORD PTR [ecx]
	push	OFFSET ?ps_r2_dof@@3U?$_vector3@M@@A	; ps_r2_dof
	call	DWORD PTR [eax+48]
	pop	esi

; 554  : 		}
; 555  : 	}

	add	esp, 12					; 0000000cH
	ret	4
$LN6@Execute:

; 544  : 		{
; 545  : 			InvalidSyntax();

	mov	ecx, esi
	call	DWORD PTR __imp_?InvalidSyntax@IConsole_Command@@QAEXXZ

; 546  : 			Msg("x <= y - 0.1");

	mov	esi, DWORD PTR __imp_?Msg@@YAXPBDZZ
	push	OFFSET ??_C@_0N@DHDFIBKO@x?5?$DM?$DN?5y?5?9?50?41@
	call	esi

; 547  : 			Msg("y <= z - 0.1");

	push	OFFSET ??_C@_0N@GECMFPMI@y?5?$DM?$DN?5z?5?9?50?41@
	call	esi
	add	esp, 8
$LN7@Execute:
	pop	esi

; 554  : 		}
; 555  : 	}

	add	esp, 12					; 0000000cH
	ret	4
?Execute@CCC_Dof@@UAEXPBD@Z ENDP			; CCC_Dof::Execute
_TEXT	ENDS
; Function compile flags: /Ogtpy
; File I:\Vitalya\mine\NSProjectX\layers\xrRender\xrRender_console.cpp
;	COMDAT ?Status@CCC_Dof@@UAEXAAY0BAA@D@Z
_TEXT	SEGMENT
_S$ = 8							; size = 4
?Status@CCC_Dof@@UAEXAAY0BAA@D@Z PROC			; CCC_Dof::Status, COMDAT
; _this$ = ecx

; 557  : 	{

	push	ebp
	mov	ebp, esp
	and	esp, -64				; ffffffc0H

; 558  : 		sprintf(S, "%f,%f,%f", value->x, value->y, value->z);

	mov	eax, DWORD PTR [ecx+24]
	sub	esp, 24					; 00000018H
	fld	DWORD PTR [eax+8]
	fstp	QWORD PTR [esp+16]
	fld	DWORD PTR [eax+4]
	fstp	QWORD PTR [esp+8]
	fld	DWORD PTR [eax]
	fstp	QWORD PTR [esp]
	push	OFFSET ??_C@_08GJNPJIKN@?$CFf?0?$CFf?0?$CFf@
	push	DWORD PTR _S$[ebp]
	call	_sprintf
	add	esp, 32					; 00000020H

; 559  : 	}

	mov	esp, ebp
	pop	ebp
	ret	4
?Status@CCC_Dof@@UAEXAAY0BAA@D@Z ENDP			; CCC_Dof::Status
_TEXT	ENDS
; Function compile flags: /Ogtpy
; File I:\Vitalya\mine\NSProjectX\layers\xrRender\xrRender_console.cpp
;	COMDAT ?Info@CCC_Dof@@UAEXAAY0BAA@D@Z
_TEXT	SEGMENT
_I$ = 8							; size = 4
?Info@CCC_Dof@@UAEXAAY0BAA@D@Z PROC			; CCC_Dof::Info, COMDAT
; _this$ = ecx

; 561  : 	{

	push	ebp
	mov	ebp, esp
	and	esp, -64				; ffffffc0H

; 562  : 		sprintf(I, "vector3 in range [%f,%f,%f]-[%f,%f,%f]", min.x, min.y, min.z, max.x, max.y, max.z);

	fld	DWORD PTR [ecx+48]
	sub	esp, 48					; 00000030H
	fstp	QWORD PTR [esp+40]
	fld	DWORD PTR [ecx+44]
	fstp	QWORD PTR [esp+32]
	fld	DWORD PTR [ecx+40]
	fstp	QWORD PTR [esp+24]
	fld	DWORD PTR [ecx+36]
	fstp	QWORD PTR [esp+16]
	fld	DWORD PTR [ecx+32]
	fstp	QWORD PTR [esp+8]
	fld	DWORD PTR [ecx+28]
	fstp	QWORD PTR [esp]
	push	OFFSET ??_C@_0CH@NHPGHHO@vector3?5in?5range?5?$FL?$CFf?0?$CFf?0?$CFf?$FN?9?$FL?$CFf@
	push	DWORD PTR _I$[ebp]
	call	_sprintf
	add	esp, 56					; 00000038H

; 563  : 	}

	mov	esp, ebp
	pop	ebp
	ret	4
?Info@CCC_Dof@@UAEXAAY0BAA@D@Z ENDP			; CCC_Dof::Info
_TEXT	ENDS
; Function compile flags: /Ogtpy
;	COMDAT ??_GCCC_Dof@@UAEPAXI@Z
_TEXT	SEGMENT
___flags$ = 8						; size = 4
??_GCCC_Dof@@UAEPAXI@Z PROC				; CCC_Dof::`scalar deleting destructor', COMDAT
; _this$ = ecx
	push	esi
	mov	esi, ecx
	call	DWORD PTR __imp_??1CCC_Vector3@@UAE@XZ
	test	BYTE PTR ___flags$[esp], 1
	je	SHORT $LN6@scalar
	push	52					; 00000034H
	push	esi
	call	??3@YAXPAXI@Z				; operator delete
	add	esp, 8
$LN6@scalar:
	mov	eax, esi
	pop	esi
	ret	4
??_GCCC_Dof@@UAEPAXI@Z ENDP				; CCC_Dof::`scalar deleting destructor'
_TEXT	ENDS
; Function compile flags: /Ogtpy
;	COMDAT ??1CCC_Dof@@UAE@XZ
_TEXT	SEGMENT
??1CCC_Dof@@UAE@XZ PROC					; CCC_Dof::~CCC_Dof, COMDAT
; _this$ = ecx
	jmp	DWORD PTR __imp_??1CCC_Vector3@@UAE@XZ
??1CCC_Dof@@UAE@XZ ENDP					; CCC_Dof::~CCC_Dof
_TEXT	ENDS
; Function compile flags: /Ogtpy
; File I:\Vitalya\mine\NSProjectX\layers\xrRender\xrRender_console.cpp
; File I:\Vitalya\mine\NSProjectX\xrCore\_vector3d.h
; File I:\Vitalya\mine\NSProjectX\layers\xrRender\xrRender_console.cpp
; File I:\Vitalya\mine\NSProjectX\xrCore\_vector3d.h
; File I:\Vitalya\mine\NSProjectX\layers\xrRender\xrRender_console.cpp
; File I:\Vitalya\mine\NSProjectX\xrCore\_vector3d.h
; File I:\Vitalya\mine\NSProjectX\layers\xrRender\xrRender_console.cpp
; File I:\Vitalya\mine\NSProjectX\xrCore\_vector3d.h
; File I:\Vitalya\mine\NSProjectX\layers\xrRender\xrRender_console.cpp
; File I:\Vitalya\mine\NSProjectX\xrCore\_vector3d.h
; File I:\Vitalya\mine\NSProjectX\layers\xrRender\xrRender_console.cpp
_TEXT	SEGMENT
_tw_max$ = -24						; size = 12
_tw_min$ = -12						; size = 12
?xrRender_initconsole@@YAXXZ PROC			; xrRender_initconsole

; 569  : 	CMD3(CCC_Mask, "r2_soft_water", &ps_r2_ls_flags, R2FLAG_SOFT_WATER);

	mov	eax, DWORD PTR fs:__tls_array
	sub	esp, 24					; 00000018H
	push	ebx
	push	ebp
	push	esi
	mov	esi, DWORD PTR __tls_index
	push	edi
	mov	ecx, DWORD PTR [eax+esi*4]
	mov	eax, DWORD PTR ?$TSS0@?2??xrRender_initconsole@@YAXXZ@4HA
	cmp	eax, DWORD PTR __Init_thread_epoch[ecx]
	jg	$LN141@xrRender_i
$LN2@xrRender_i:
	mov	ecx, DWORD PTR __imp_?Console@@3PAVCConsole@@A
	mov	edi, DWORD PTR __imp_?AddCommand@CConsole@@QAEXPAVIConsole_Command@@@Z
	push	OFFSET ?xCCC_Mask@?2??xrRender_initconsole@@YAXXZ@4VCCC_Mask@@A
	mov	ecx, DWORD PTR [ecx]
	call	edi

; 570  : 	CMD3(CCC_Mask, "r2_soft_particles", &ps_r2_ls_flags, R2FLAG_SOFT_PARTICLES);

	mov	eax, DWORD PTR fs:__tls_array
	mov	ecx, DWORD PTR [eax+esi*4]
	mov	eax, DWORD PTR ?$TSS1@?3??xrRender_initconsole@@YAXXZ@4HA
	cmp	eax, DWORD PTR __Init_thread_epoch[ecx]
	jg	$LN142@xrRender_i
$LN3@xrRender_i:
	mov	ecx, DWORD PTR __imp_?Console@@3PAVCConsole@@A
	push	OFFSET ?xCCC_Mask@?3??xrRender_initconsole@@YAXXZ@4VCCC_Mask@@A
	mov	ecx, DWORD PTR [ecx]
	call	edi

; 571  : 	CMD3(CCC_Mask, "r2_soft_fog", &ps_r2_ls_flags, R2FLAG_SOFT_FOG);

	mov	eax, DWORD PTR fs:__tls_array
	mov	ecx, DWORD PTR [eax+esi*4]
	mov	eax, DWORD PTR ?$TSS2@?4??xrRender_initconsole@@YAXXZ@4HA
	cmp	eax, DWORD PTR __Init_thread_epoch[ecx]
	jg	$LN143@xrRender_i
$LN4@xrRender_i:
	mov	ecx, DWORD PTR __imp_?Console@@3PAVCConsole@@A
	push	OFFSET ?xCCC_Mask@?4??xrRender_initconsole@@YAXXZ@4VCCC_Mask@@A
	mov	ecx, DWORD PTR [ecx]
	call	edi

; 572  : 
; 573  : 	CMD3(CCC_Token, "r2_aa_type", &ps_aa, aa_token);

	mov	eax, DWORD PTR fs:__tls_array
	mov	ecx, DWORD PTR [eax+esi*4]
	mov	eax, DWORD PTR ?$TSS3@?5??xrRender_initconsole@@YAXXZ@4HA
	cmp	eax, DWORD PTR __Init_thread_epoch[ecx]
	jg	$LN144@xrRender_i
$LN5@xrRender_i:
	mov	ecx, DWORD PTR __imp_?Console@@3PAVCConsole@@A
	push	OFFSET ?xCCC_Token@?5??xrRender_initconsole@@YAXXZ@4VCCC_Token@@A
	mov	ecx, DWORD PTR [ecx]
	call	edi

; 574  : 	CMD3(CCC_Token, "r2_aa_quality", &ps_aa_quality, aa_quality_token);

	mov	eax, DWORD PTR fs:__tls_array
	mov	ecx, DWORD PTR [eax+esi*4]
	mov	eax, DWORD PTR ?$TSS4@?6??xrRender_initconsole@@YAXXZ@4HA
	cmp	eax, DWORD PTR __Init_thread_epoch[ecx]
	jg	$LN145@xrRender_i
$LN6@xrRender_i:
	mov	ecx, DWORD PTR __imp_?Console@@3PAVCConsole@@A
	push	OFFSET ?xCCC_Token@?6??xrRender_initconsole@@YAXXZ@4VCCC_Token@@A
	mov	ecx, DWORD PTR [ecx]
	call	edi

; 575  : 
; 576  : 	CMD3(CCC_Token, "r2_ao_type", &ps_ao, ao_token);

	mov	eax, DWORD PTR fs:__tls_array
	mov	ecx, DWORD PTR [eax+esi*4]
	mov	eax, DWORD PTR ?$TSS5@?7??xrRender_initconsole@@YAXXZ@4HA
	cmp	eax, DWORD PTR __Init_thread_epoch[ecx]
	jg	$LN146@xrRender_i
$LN7@xrRender_i:
	mov	ecx, DWORD PTR __imp_?Console@@3PAVCConsole@@A
	push	OFFSET ?xCCC_Token@?7??xrRender_initconsole@@YAXXZ@4VCCC_Token@@A
	mov	ecx, DWORD PTR [ecx]
	call	edi

; 577  : 	CMD3(CCC_Token, "r2_ao_quality", &ps_ao_quality, ao_quality_token);

	mov	eax, DWORD PTR fs:__tls_array
	mov	ecx, DWORD PTR [eax+esi*4]
	mov	eax, DWORD PTR ?$TSS6@?8??xrRender_initconsole@@YAXXZ@4HA
	cmp	eax, DWORD PTR __Init_thread_epoch[ecx]
	jg	$LN147@xrRender_i
$LN8@xrRender_i:
	mov	ecx, DWORD PTR __imp_?Console@@3PAVCConsole@@A
	push	OFFSET ?xCCC_Token@?8??xrRender_initconsole@@YAXXZ@4VCCC_Token@@A
	mov	ecx, DWORD PTR [ecx]
	call	edi

; 578  : 	CMD3(CCC_Mask,  "r2_ao_blur", &ps_r2_ls_flags_ext, R2FLAGEXT_AO_BLUR);

	mov	eax, DWORD PTR fs:__tls_array
	mov	ecx, DWORD PTR [eax+esi*4]
	mov	eax, DWORD PTR ?$TSS7@?9??xrRender_initconsole@@YAXXZ@4HA
	cmp	eax, DWORD PTR __Init_thread_epoch[ecx]
	jg	$LN148@xrRender_i
$LN9@xrRender_i:
	mov	ecx, DWORD PTR __imp_?Console@@3PAVCConsole@@A
	push	OFFSET ?xCCC_Mask@?9??xrRender_initconsole@@YAXXZ@4VCCC_Mask@@A
	mov	ecx, DWORD PTR [ecx]
	call	edi

; 579  : 
; 580  : 	CMD3(CCC_Mask, "r2_vignette", &ps_r2_pp_flags, R2FLAG_VIGNETTE);

	mov	eax, DWORD PTR fs:__tls_array
	mov	ecx, DWORD PTR [eax+esi*4]
	mov	eax, DWORD PTR ?$TSS8@?L@??xrRender_initconsole@@YAXXZ@4HA
	cmp	eax, DWORD PTR __Init_thread_epoch[ecx]
	jg	$LN149@xrRender_i
$LN10@xrRender_i:
	mov	ecx, DWORD PTR __imp_?Console@@3PAVCConsole@@A
	push	OFFSET ?xCCC_Mask@?L@??xrRender_initconsole@@YAXXZ@4VCCC_Mask@@A
	mov	ecx, DWORD PTR [ecx]
	call	edi

; 581  : 	CMD3(CCC_Mask, "r2_chromatic_abberation", &ps_r2_pp_flags, R2FLAG_CHROMATIC_ABBERATION);

	mov	eax, DWORD PTR fs:__tls_array
	mov	ecx, DWORD PTR [eax+esi*4]
	mov	eax, DWORD PTR ?$TSS9@?M@??xrRender_initconsole@@YAXXZ@4HA
	cmp	eax, DWORD PTR __Init_thread_epoch[ecx]
	jg	$LN150@xrRender_i
$LN11@xrRender_i:
	mov	ecx, DWORD PTR __imp_?Console@@3PAVCConsole@@A
	push	OFFSET ?xCCC_Mask@?M@??xrRender_initconsole@@YAXXZ@4VCCC_Mask@@A
	mov	ecx, DWORD PTR [ecx]
	call	edi

; 582  : 	CMD3(CCC_Mask, "r2_bloom", &ps_r2_pp_flags, R2FLAG_BLOOM);

	mov	eax, DWORD PTR fs:__tls_array
	mov	ecx, DWORD PTR [eax+esi*4]
	mov	eax, DWORD PTR ?$TSS10@?N@??xrRender_initconsole@@YAXXZ@4HA
	cmp	eax, DWORD PTR __Init_thread_epoch[ecx]
	jg	$LN151@xrRender_i
$LN12@xrRender_i:
	mov	ecx, DWORD PTR __imp_?Console@@3PAVCConsole@@A
	push	OFFSET ?xCCC_Mask@?N@??xrRender_initconsole@@YAXXZ@4VCCC_Mask@@A
	mov	ecx, DWORD PTR [ecx]
	call	edi

; 586  : 	CMD4(CCC_Dof,		"r2_dof",			&ps_r2_dof,		tw_min,		tw_max);

	mov	eax, DWORD PTR fs:__tls_array
; File I:\Vitalya\mine\NSProjectX\xrCore\_vector3d.h

; 23   : 	ICF	SelfRef	set(T _x, T _y, T _z)					{ x = _x;		y = _y;		z = _z;		return *this;	};

	mov	DWORD PTR _tw_min$[esp+40], -971227136	; c61c4000H
	mov	DWORD PTR _tw_min$[esp+44], -971227136	; c61c4000H
	mov	DWORD PTR _tw_min$[esp+48], 0
; File I:\Vitalya\mine\NSProjectX\layers\xrRender\xrRender_console.cpp

; 586  : 	CMD4(CCC_Dof,		"r2_dof",			&ps_r2_dof,		tw_min,		tw_max);

	mov	ecx, DWORD PTR [eax+esi*4]
	mov	eax, DWORD PTR ?$TSS11@?O@??xrRender_initconsole@@YAXXZ@4HA
; File I:\Vitalya\mine\NSProjectX\xrCore\_vector3d.h

; 23   : 	ICF	SelfRef	set(T _x, T _y, T _z)					{ x = _x;		y = _y;		z = _z;		return *this;	};

	mov	DWORD PTR _tw_max$[esp+40], 1176256512	; 461c4000H
	mov	DWORD PTR _tw_max$[esp+44], 1176256512	; 461c4000H
	mov	DWORD PTR _tw_max$[esp+48], 1176256512	; 461c4000H
; File I:\Vitalya\mine\NSProjectX\layers\xrRender\xrRender_console.cpp

; 586  : 	CMD4(CCC_Dof,		"r2_dof",			&ps_r2_dof,		tw_min,		tw_max);

	cmp	eax, DWORD PTR __Init_thread_epoch[ecx]
	jg	$LN152@xrRender_i
$LN13@xrRender_i:
	mov	ecx, DWORD PTR __imp_?Console@@3PAVCConsole@@A
	push	OFFSET ?xCCC_Dof@?O@??xrRender_initconsole@@YAXXZ@4VCCC_Dof@@A
	mov	ecx, DWORD PTR [ecx]
	call	edi

; 587  : 	CMD4(CCC_DofNear,	"r2_dof_near",		&ps_r2_dof.x,	tw_min.x,	tw_max.x);

	mov	eax, DWORD PTR fs:__tls_array
	mov	ecx, DWORD PTR [eax+esi*4]
	mov	eax, DWORD PTR ?$TSS12@?P@??xrRender_initconsole@@YAXXZ@4HA
	cmp	eax, DWORD PTR __Init_thread_epoch[ecx]
	jg	$LN153@xrRender_i
$LN14@xrRender_i:
	mov	ecx, DWORD PTR __imp_?Console@@3PAVCConsole@@A
	push	OFFSET ?xCCC_DofNear@?P@??xrRender_initconsole@@YAXXZ@4VCCC_DofNear@@A
	mov	ecx, DWORD PTR [ecx]
	call	edi

; 588  : 	CMD4(CCC_DofFocus,	"r2_dof_focus",		&ps_r2_dof.y,	tw_min.y,	tw_max.y);

	mov	eax, DWORD PTR fs:__tls_array
	mov	ecx, DWORD PTR [eax+esi*4]
	mov	eax, DWORD PTR ?$TSS13@?BA@??xrRender_initconsole@@YAXXZ@4HA
	cmp	eax, DWORD PTR __Init_thread_epoch[ecx]
	jg	$LN154@xrRender_i
$LN15@xrRender_i:
	mov	ecx, DWORD PTR __imp_?Console@@3PAVCConsole@@A
	push	OFFSET ?xCCC_DofFocus@?BA@??xrRender_initconsole@@YAXXZ@4VCCC_DofFocus@@A
	mov	ecx, DWORD PTR [ecx]
	call	edi

; 589  : 	CMD4(CCC_DofFar,	"r2_dof_far",		&ps_r2_dof.z,	tw_min.z,	tw_max.z);

	mov	eax, DWORD PTR fs:__tls_array
	mov	ecx, DWORD PTR [eax+esi*4]
	mov	eax, DWORD PTR ?$TSS14@?BB@??xrRender_initconsole@@YAXXZ@4HA
	cmp	eax, DWORD PTR __Init_thread_epoch[ecx]
	jg	$LN155@xrRender_i
$LN16@xrRender_i:
	mov	ecx, DWORD PTR __imp_?Console@@3PAVCConsole@@A
	push	OFFSET ?xCCC_DofFar@?BB@??xrRender_initconsole@@YAXXZ@4VCCC_DofFar@@A
	mov	ecx, DWORD PTR [ecx]
	call	edi

; 590  : 	CMD4(CCC_Float,		"r2_dof_kernel",	&ps_r2_dof_kernel_size,		.0f, 10.f);

	mov	eax, DWORD PTR fs:__tls_array
	mov	ecx, DWORD PTR [eax+esi*4]
	mov	eax, DWORD PTR ?$TSS15@?BC@??xrRender_initconsole@@YAXXZ@4HA
	cmp	eax, DWORD PTR __Init_thread_epoch[ecx]
	jg	$LN156@xrRender_i
$LN17@xrRender_i:
	mov	ecx, DWORD PTR __imp_?Console@@3PAVCConsole@@A
	push	OFFSET ?xCCC_Float@?BC@??xrRender_initconsole@@YAXXZ@4VCCC_Float@@A
	mov	ecx, DWORD PTR [ecx]
	call	edi

; 591  : 	CMD4(CCC_Float,		"r2_dof_sky",		&ps_r2_dof_sky, -10000.f, 10000.f);

	mov	eax, DWORD PTR fs:__tls_array
	mov	ecx, DWORD PTR [eax+esi*4]
	mov	eax, DWORD PTR ?$TSS16@?BD@??xrRender_initconsole@@YAXXZ@4HA
	cmp	eax, DWORD PTR __Init_thread_epoch[ecx]
	jg	$LN157@xrRender_i
$LN18@xrRender_i:
	mov	ecx, DWORD PTR __imp_?Console@@3PAVCConsole@@A
	push	OFFSET ?xCCC_Float@?BD@??xrRender_initconsole@@YAXXZ@4VCCC_Float@@A
	mov	ecx, DWORD PTR [ecx]
	call	edi

; 592  : 	CMD3(CCC_Mask,		"r2_dof_enabled",	&ps_r2_pp_flags, R2FLAG_DOF);

	mov	eax, DWORD PTR fs:__tls_array
	mov	ecx, DWORD PTR [eax+esi*4]
	mov	eax, DWORD PTR ?$TSS17@?BE@??xrRender_initconsole@@YAXXZ@4HA
	cmp	eax, DWORD PTR __Init_thread_epoch[ecx]
	jg	$LN158@xrRender_i
$LN19@xrRender_i:
	mov	ecx, DWORD PTR __imp_?Console@@3PAVCConsole@@A
	push	OFFSET ?xCCC_Mask@?BE@??xrRender_initconsole@@YAXXZ@4VCCC_Mask@@A
	mov	ecx, DWORD PTR [ecx]
	call	edi

; 593  : 	CMD3(CCC_Token,		"r2_dof_quality",	&ps_dof_quality, dof_quality_token);

	mov	eax, DWORD PTR fs:__tls_array
	mov	ecx, DWORD PTR [eax+esi*4]
	mov	eax, DWORD PTR ?$TSS18@?BF@??xrRender_initconsole@@YAXXZ@4HA
	cmp	eax, DWORD PTR __Init_thread_epoch[ecx]
	jg	$LN159@xrRender_i
$LN20@xrRender_i:
	mov	ecx, DWORD PTR __imp_?Console@@3PAVCConsole@@A
	push	OFFSET ?xCCC_Token@?BF@??xrRender_initconsole@@YAXXZ@4VCCC_Token@@A
	mov	ecx, DWORD PTR [ecx]
	call	edi

; 594  : 
; 595  : 	CMD3(CCC_Mask, "r2_mblur_enabled", &ps_r2_pp_flags, R2FLAG_MBLUR);

	mov	eax, DWORD PTR fs:__tls_array
	mov	ecx, DWORD PTR [eax+esi*4]
	mov	eax, DWORD PTR ?$TSS19@?BG@??xrRender_initconsole@@YAXXZ@4HA
	cmp	eax, DWORD PTR __Init_thread_epoch[ecx]
	jg	$LN160@xrRender_i
$LN21@xrRender_i:
	mov	ecx, DWORD PTR __imp_?Console@@3PAVCConsole@@A
	push	OFFSET ?xCCC_Mask@?BG@??xrRender_initconsole@@YAXXZ@4VCCC_Mask@@A
	mov	ecx, DWORD PTR [ecx]
	call	edi

; 596  : 
; 597  : 	CMD3(CCC_Token, "r2_sun_shafts", &ps_r_sun_shafts, qsun_shafts_token);

	mov	eax, DWORD PTR fs:__tls_array
	mov	ecx, DWORD PTR [eax+esi*4]
	mov	eax, DWORD PTR ?$TSS20@?BH@??xrRender_initconsole@@YAXXZ@4HA
	cmp	eax, DWORD PTR __Init_thread_epoch[ecx]
	jg	$LN161@xrRender_i
$LN22@xrRender_i:
	mov	ecx, DWORD PTR __imp_?Console@@3PAVCConsole@@A
	push	OFFSET ?xCCC_Token@?BH@??xrRender_initconsole@@YAXXZ@4VCCC_Token@@A
	mov	ecx, DWORD PTR [ecx]
	call	edi

; 598  : 	CMD3(CCC_Token, "r2_sun_quality", &ps_sun_quality, sun_quality_token);

	mov	eax, DWORD PTR fs:__tls_array
	mov	ecx, DWORD PTR [eax+esi*4]
	mov	eax, DWORD PTR ?$TSS21@?BI@??xrRender_initconsole@@YAXXZ@4HA
	cmp	eax, DWORD PTR __Init_thread_epoch[ecx]
	jg	$LN162@xrRender_i
$LN23@xrRender_i:
	mov	ecx, DWORD PTR __imp_?Console@@3PAVCConsole@@A
	push	OFFSET ?xCCC_Token@?BI@??xrRender_initconsole@@YAXXZ@4VCCC_Token@@A
	mov	ecx, DWORD PTR [ecx]
	call	edi

; 599  : 	CMD3(CCC_Token, "r2_shadow_filtering", &ps_shadow_filtering, shadow_filter_token);

	mov	eax, DWORD PTR fs:__tls_array
	mov	ecx, DWORD PTR [eax+esi*4]
	mov	eax, DWORD PTR ?$TSS22@?BJ@??xrRender_initconsole@@YAXXZ@4HA
	cmp	eax, DWORD PTR __Init_thread_epoch[ecx]
	jg	$LN163@xrRender_i
$LN24@xrRender_i:
	mov	ecx, DWORD PTR __imp_?Console@@3PAVCConsole@@A
	push	OFFSET ?xCCC_Token@?BJ@??xrRender_initconsole@@YAXXZ@4VCCC_Token@@A
	mov	ecx, DWORD PTR [ecx]
	call	edi

; 600  : 
; 601  : 	CMD3(CCC_Token, "r2_bump_mode", &ps_bump_mode, bump_mode_token);

	mov	eax, DWORD PTR fs:__tls_array
	mov	ecx, DWORD PTR [eax+esi*4]
	mov	eax, DWORD PTR ?$TSS23@?BK@??xrRender_initconsole@@YAXXZ@4HA
	cmp	eax, DWORD PTR __Init_thread_epoch[ecx]
	jg	$LN164@xrRender_i
$LN25@xrRender_i:
	mov	ecx, DWORD PTR __imp_?Console@@3PAVCConsole@@A
	push	OFFSET ?xCCC_Token@?BK@??xrRender_initconsole@@YAXXZ@4VCCC_Token@@A
	mov	ecx, DWORD PTR [ecx]
	call	edi

; 602  : 	CMD3(CCC_Token, "r2_tdetail_bump_mode", &ps_tdetail_bump_mode, tdetail_bump_mode_token);

	mov	eax, DWORD PTR fs:__tls_array
	mov	ecx, DWORD PTR [eax+esi*4]
	mov	eax, DWORD PTR ?$TSS24@?BL@??xrRender_initconsole@@YAXXZ@4HA
	cmp	eax, DWORD PTR __Init_thread_epoch[ecx]
	jg	$LN165@xrRender_i
$LN26@xrRender_i:
	mov	ecx, DWORD PTR __imp_?Console@@3PAVCConsole@@A
	push	OFFSET ?xCCC_Token@?BL@??xrRender_initconsole@@YAXXZ@4VCCC_Token@@A
	mov	ecx, DWORD PTR [ecx]
	call	edi

; 603  : 	CMD3(CCC_Token, "r2_terrain_bump_mode", &ps_terrain_bump_mode, terrain_bump_mode_token);

	mov	eax, DWORD PTR fs:__tls_array
	mov	ecx, DWORD PTR [eax+esi*4]
	mov	eax, DWORD PTR ?$TSS25@?BM@??xrRender_initconsole@@YAXXZ@4HA
	cmp	eax, DWORD PTR __Init_thread_epoch[ecx]
	jg	$LN166@xrRender_i
$LN27@xrRender_i:
	mov	ecx, DWORD PTR __imp_?Console@@3PAVCConsole@@A
	push	OFFSET ?xCCC_Token@?BM@??xrRender_initconsole@@YAXXZ@4VCCC_Token@@A
	mov	ecx, DWORD PTR [ecx]
	call	edi

; 604  : 
; 605  : 	CMD3(CCC_Token, "r2_debug_render", &ps_debug_frame_layers, debug_frame_layers_token);

	mov	eax, DWORD PTR fs:__tls_array
	mov	ecx, DWORD PTR [eax+esi*4]
	mov	eax, DWORD PTR ?$TSS26@?BN@??xrRender_initconsole@@YAXXZ@4HA
	cmp	eax, DWORD PTR __Init_thread_epoch[ecx]
	jg	$LN167@xrRender_i
$LN28@xrRender_i:
	mov	ecx, DWORD PTR __imp_?Console@@3PAVCConsole@@A
	push	OFFSET ?xCCC_Token@?BN@??xrRender_initconsole@@YAXXZ@4VCCC_Token@@A
	mov	ecx, DWORD PTR [ecx]
	call	edi

; 606  : 	CMD3(CCC_Token, "r2_debug_textures", &ps_debug_textures, ps_debug_textures_token);

	mov	eax, DWORD PTR fs:__tls_array
	mov	ecx, DWORD PTR [eax+esi*4]
	mov	eax, DWORD PTR ?$TSS27@?BO@??xrRender_initconsole@@YAXXZ@4HA
	cmp	eax, DWORD PTR __Init_thread_epoch[ecx]
	jg	$LN168@xrRender_i
$LN29@xrRender_i:
	mov	ecx, DWORD PTR __imp_?Console@@3PAVCConsole@@A
	push	OFFSET ?xCCC_Token@?BO@??xrRender_initconsole@@YAXXZ@4VCCC_Token@@A
	mov	ecx, DWORD PTR [ecx]
	call	edi

; 607  : 
; 608  : 	CMD3(CCC_Mask, "r2_gbuffer_opt", &ps_r2_ls_flags_ext, R2FLAGEXT_GBUFFER_OPT);

	mov	eax, DWORD PTR fs:__tls_array
	mov	ecx, DWORD PTR [eax+esi*4]
	mov	eax, DWORD PTR ?$TSS28@?BP@??xrRender_initconsole@@YAXXZ@4HA
	cmp	eax, DWORD PTR __Init_thread_epoch[ecx]
	jg	$LN169@xrRender_i
$LN30@xrRender_i:
	mov	ecx, DWORD PTR __imp_?Console@@3PAVCConsole@@A
	push	OFFSET ?xCCC_Mask@?BP@??xrRender_initconsole@@YAXXZ@4VCCC_Mask@@A
	mov	ecx, DWORD PTR [ecx]
	call	edi

; 609  : 
; 610  : 	CMD3(CCC_Preset, "_preset", &ps_Preset, qpreset_token);

	mov	eax, DWORD PTR fs:__tls_array
	mov	ecx, DWORD PTR [eax+esi*4]
	mov	eax, DWORD PTR ?$TSS29@?CA@??xrRender_initconsole@@YAXXZ@4HA
	cmp	eax, DWORD PTR __Init_thread_epoch[ecx]
	jg	$LN170@xrRender_i
$LN31@xrRender_i:
	mov	ecx, DWORD PTR __imp_?Console@@3PAVCConsole@@A
	push	OFFSET ?xCCC_Preset@?CA@??xrRender_initconsole@@YAXXZ@4VCCC_Preset@@A
	mov	ecx, DWORD PTR [ecx]
	call	edi

; 611  : 	CMD3(CCC_EffPreset, "eff_preset", &ps_EffPreset, qeffpreset_token);

	mov	eax, DWORD PTR fs:__tls_array
	mov	ecx, DWORD PTR [eax+esi*4]
	mov	eax, DWORD PTR ?$TSS30@?CB@??xrRender_initconsole@@YAXXZ@4HA
	cmp	eax, DWORD PTR __Init_thread_epoch[ecx]
	jg	$LN171@xrRender_i
$LN32@xrRender_i:
	mov	ecx, DWORD PTR __imp_?Console@@3PAVCConsole@@A
	push	OFFSET ?xCCC_EffPreset@?CB@??xrRender_initconsole@@YAXXZ@4VCCC_EffPreset@@A
	mov	ecx, DWORD PTR [ecx]
	call	edi

; 612  : 
; 613  : 	// Common
; 614  : 	CMD1(CCC_Screenshot, "screenshot");

	mov	eax, DWORD PTR fs:__tls_array
	mov	ecx, DWORD PTR [eax+esi*4]
	mov	eax, DWORD PTR ?$TSS31@?CC@??xrRender_initconsole@@YAXXZ@4HA
	cmp	eax, DWORD PTR __Init_thread_epoch[ecx]
	jg	$LN172@xrRender_i
$LN33@xrRender_i:
	mov	ecx, DWORD PTR __imp_?Console@@3PAVCConsole@@A
	push	OFFSET ?xCCC_Screenshot@?CC@??xrRender_initconsole@@YAXXZ@4VCCC_Screenshot@@A
	mov	ecx, DWORD PTR [ecx]
	call	edi

; 615  : #ifdef DEBUG
; 616  : #if RENDER==R_R2
; 617  : 	CMD1(CCC_BuildSSA, "build_ssa");
; 618  : #endif
; 619  : 	CMD4(CCC_Integer, "r__lsleep_frames", &ps_r__LightSleepFrames, 4, 30);
; 620  : 	CMD4(CCC_Float, "r__ssa_glod_start", &ps_r__GLOD_ssa_start, 128, 512);
; 621  : 	CMD4(CCC_Float, "r__ssa_glod_end", &ps_r__GLOD_ssa_end, 16, 96);
; 622  : 	CMD4(CCC_Float, "r__wallmark_shift_pp", &ps_r__WallmarkSHIFT, 0.0f, 1.f);
; 623  : 	CMD4(CCC_Float, "r__wallmark_shift_v", &ps_r__WallmarkSHIFT_V, 0.0f, 1.f);
; 624  : 	CMD4(CCC_Float, "r__wallmark_ttl", &ps_r__WallmarkTTL, 1.0f, 5.f * 60.f);
; 625  : 	CMD1(CCC_ModelPoolStat, "stat_models");
; 626  : #endif // DEBUG
; 627  : 
; 628  : 	//	CMD4(CCC_Integer,	"r__supersample",		&ps_r__Supersample,			1,		4		);
; 629  : 
; 630  : 	CMD4(CCC_Float, "r__geometry_lod", &ps_r__LOD, 0.1f, 1.2f);

	mov	eax, DWORD PTR fs:__tls_array
	mov	ecx, DWORD PTR [eax+esi*4]
	mov	eax, DWORD PTR ?$TSS32@?CD@??xrRender_initconsole@@YAXXZ@4HA
	cmp	eax, DWORD PTR __Init_thread_epoch[ecx]
	jg	$LN173@xrRender_i
$LN34@xrRender_i:
	mov	ecx, DWORD PTR __imp_?Console@@3PAVCConsole@@A
	push	OFFSET ?xCCC_Float@?CD@??xrRender_initconsole@@YAXXZ@4VCCC_Float@@A
	mov	ecx, DWORD PTR [ecx]
	call	edi

; 631  : 	//.	CMD4(CCC_Float,		"r__geometry_lod_pow",	&ps_r__LOD_Power,			0,		2		);
; 632  : 
; 633  : 	//.	CMD4(CCC_Float,		"r__detail_density",	&ps_r__Detail_density,		.05f,	0.99f	);
; 634  : 	CMD4(CCC_Float, "r__detail_density", &ps_r__Detail_density, .2f, 0.6f);

	mov	eax, DWORD PTR fs:__tls_array
	mov	ecx, DWORD PTR [eax+esi*4]
	mov	eax, DWORD PTR ?$TSS33@?CE@??xrRender_initconsole@@YAXXZ@4HA
	cmp	eax, DWORD PTR __Init_thread_epoch[ecx]
	jg	$LN174@xrRender_i
$LN35@xrRender_i:
	mov	ecx, DWORD PTR __imp_?Console@@3PAVCConsole@@A
	push	OFFSET ?xCCC_Float@?CE@??xrRender_initconsole@@YAXXZ@4VCCC_Float@@A
	mov	ecx, DWORD PTR [ecx]
	call	edi

; 635  : 
; 636  : #ifdef DEBUG
; 637  : 	CMD4(CCC_Float, "r__detail_l_ambient", &ps_r__Detail_l_ambient, .5f, .95f);
; 638  : 	CMD4(CCC_Float, "r__detail_l_aniso", &ps_r__Detail_l_aniso, .1f, .5f);
; 639  : 
; 640  : 	CMD4(CCC_Float, "r__d_tree_w_amp", &ps_r__Tree_w_amp, .001f, 1.f);
; 641  : 	CMD4(CCC_Float, "r__d_tree_w_rot", &ps_r__Tree_w_rot, .01f, 100.f);
; 642  : 	CMD4(CCC_Float, "r__d_tree_w_speed", &ps_r__Tree_w_speed, 1.0f, 10.f);
; 643  : 
; 644  : 	tw_min.set(EPS, EPS, EPS);
; 645  : 	tw_max.set(2, 2, 2);
; 646  : 	CMD4(CCC_Vector3, "r__d_tree_wave", &ps_r__Tree_Wave, tw_min, tw_max);
; 647  : #endif // DEBUG
; 648  : 
; 649  : 	CMD2(CCC_tf_Aniso, "r__tf_aniso", &ps_r__tf_Anisotropic); //	{1..16}

	mov	eax, DWORD PTR fs:__tls_array
	mov	ecx, DWORD PTR [eax+esi*4]
	mov	eax, DWORD PTR ?$TSS34@?CF@??xrRender_initconsole@@YAXXZ@4HA
	cmp	eax, DWORD PTR __Init_thread_epoch[ecx]
	jg	$LN175@xrRender_i
$LN36@xrRender_i:
	mov	ecx, DWORD PTR __imp_?Console@@3PAVCConsole@@A
	push	OFFSET ?xCCC_tf_Aniso@?CF@??xrRender_initconsole@@YAXXZ@4VCCC_tf_Aniso@@A
	mov	ecx, DWORD PTR [ecx]
	call	edi

; 650  : 
; 651  : 	// R1
; 652  : 	CMD4(CCC_Float, "r1_ssa_lod_a", &ps_r1_ssaLOD_A, 16, 96);

	mov	eax, DWORD PTR fs:__tls_array
	mov	ecx, DWORD PTR [eax+esi*4]
	mov	eax, DWORD PTR ?$TSS35@?CG@??xrRender_initconsole@@YAXXZ@4HA
	cmp	eax, DWORD PTR __Init_thread_epoch[ecx]
	jg	$LN176@xrRender_i
$LN37@xrRender_i:
	mov	ecx, DWORD PTR __imp_?Console@@3PAVCConsole@@A
	push	OFFSET ?xCCC_Float@?CG@??xrRender_initconsole@@YAXXZ@4VCCC_Float@@A
	mov	ecx, DWORD PTR [ecx]
	call	edi

; 653  : 	CMD4(CCC_Float, "r1_ssa_lod_b", &ps_r1_ssaLOD_B, 16, 64);

	mov	eax, DWORD PTR fs:__tls_array
	mov	ecx, DWORD PTR [eax+esi*4]
	mov	eax, DWORD PTR ?$TSS36@?CH@??xrRender_initconsole@@YAXXZ@4HA
	cmp	eax, DWORD PTR __Init_thread_epoch[ecx]
	jg	$LN177@xrRender_i
$LN38@xrRender_i:
	mov	ecx, DWORD PTR __imp_?Console@@3PAVCConsole@@A
	push	OFFSET ?xCCC_Float@?CH@??xrRender_initconsole@@YAXXZ@4VCCC_Float@@A
	mov	ecx, DWORD PTR [ecx]
	call	edi

; 654  : 	CMD4(CCC_Float, "r1_lmodel_lerp", &ps_r1_lmodel_lerp, 0, 0.333f);

	mov	eax, DWORD PTR fs:__tls_array
	mov	ecx, DWORD PTR [eax+esi*4]
	mov	eax, DWORD PTR ?$TSS37@?CI@??xrRender_initconsole@@YAXXZ@4HA
	cmp	eax, DWORD PTR __Init_thread_epoch[ecx]
	jg	$LN178@xrRender_i
$LN39@xrRender_i:
	mov	ecx, DWORD PTR __imp_?Console@@3PAVCConsole@@A
	push	OFFSET ?xCCC_Float@?CI@??xrRender_initconsole@@YAXXZ@4VCCC_Float@@A
	mov	ecx, DWORD PTR [ecx]
	call	edi

; 655  : 	CMD2(CCC_tf_MipBias, "r1_tf_mipbias", &ps_r1_tf_Mipbias);//	{-3 +3}

	mov	eax, DWORD PTR fs:__tls_array
	mov	ecx, DWORD PTR [eax+esi*4]
	mov	eax, DWORD PTR ?$TSS38@?CJ@??xrRender_initconsole@@YAXXZ@4HA
	cmp	eax, DWORD PTR __Init_thread_epoch[ecx]
	jg	$LN179@xrRender_i
$LN40@xrRender_i:
	mov	ecx, DWORD PTR __imp_?Console@@3PAVCConsole@@A
	push	OFFSET ?xCCC_tf_MipBias@?CJ@??xrRender_initconsole@@YAXXZ@4VCCC_tf_MipBias@@A
	mov	ecx, DWORD PTR [ecx]
	call	edi

; 656  : 	CMD3(CCC_Mask, "r1_dlights", &ps_r1_flags, R1FLAG_DLIGHTS);

	mov	eax, DWORD PTR fs:__tls_array
	mov	ecx, DWORD PTR [eax+esi*4]
	mov	eax, DWORD PTR ?$TSS39@?CK@??xrRender_initconsole@@YAXXZ@4HA
	cmp	eax, DWORD PTR __Init_thread_epoch[ecx]
	jg	$LN180@xrRender_i
$LN41@xrRender_i:
	mov	ecx, DWORD PTR __imp_?Console@@3PAVCConsole@@A
	push	OFFSET ?xCCC_Mask@?CK@??xrRender_initconsole@@YAXXZ@4VCCC_Mask@@A
	mov	ecx, DWORD PTR [ecx]
	call	edi

; 657  : 	CMD4(CCC_Float, "r1_dlights_clip", &ps_r1_dlights_clip, 10.f, 150.f);

	mov	eax, DWORD PTR fs:__tls_array
	mov	ecx, DWORD PTR [eax+esi*4]
	mov	eax, DWORD PTR ?$TSS40@?CL@??xrRender_initconsole@@YAXXZ@4HA
	cmp	eax, DWORD PTR __Init_thread_epoch[ecx]
	jg	$LN181@xrRender_i
$LN42@xrRender_i:
	mov	ecx, DWORD PTR __imp_?Console@@3PAVCConsole@@A
	push	OFFSET ?xCCC_Float@?CL@??xrRender_initconsole@@YAXXZ@4VCCC_Float@@A
	mov	ecx, DWORD PTR [ecx]
	call	edi

; 658  : 	CMD4(CCC_Float, "r1_pps_u", &ps_r1_pps_u, -1.f, +1.f);

	mov	eax, DWORD PTR fs:__tls_array
	mov	ecx, DWORD PTR [eax+esi*4]
	mov	eax, DWORD PTR ?$TSS41@?CM@??xrRender_initconsole@@YAXXZ@4HA
	cmp	eax, DWORD PTR __Init_thread_epoch[ecx]
	jg	$LN182@xrRender_i
$LN43@xrRender_i:
	mov	ecx, DWORD PTR __imp_?Console@@3PAVCConsole@@A
	push	OFFSET ?xCCC_Float@?CM@??xrRender_initconsole@@YAXXZ@4VCCC_Float@@A
	mov	ecx, DWORD PTR [ecx]
	call	edi

; 659  : 	CMD4(CCC_Float, "r1_pps_v", &ps_r1_pps_v, -1.f, +1.f);

	mov	eax, DWORD PTR fs:__tls_array
	mov	ecx, DWORD PTR [eax+esi*4]
	mov	eax, DWORD PTR ?$TSS42@?CN@??xrRender_initconsole@@YAXXZ@4HA
	cmp	eax, DWORD PTR __Init_thread_epoch[ecx]
	jg	$LN183@xrRender_i
$LN44@xrRender_i:
	mov	ecx, DWORD PTR __imp_?Console@@3PAVCConsole@@A
	push	OFFSET ?xCCC_Float@?CN@??xrRender_initconsole@@YAXXZ@4VCCC_Float@@A
	mov	ecx, DWORD PTR [ecx]
	call	edi

; 660  : 	CMD4(CCC_Float, "r1_dlights_clip", &ps_r1_dlights_clip, 10.f, 150.f);

	mov	eax, DWORD PTR fs:__tls_array
	mov	ecx, DWORD PTR [eax+esi*4]
	mov	eax, DWORD PTR ?$TSS43@?CO@??xrRender_initconsole@@YAXXZ@4HA
	cmp	eax, DWORD PTR __Init_thread_epoch[ecx]
	jg	$LN184@xrRender_i
$LN45@xrRender_i:
	mov	ecx, DWORD PTR __imp_?Console@@3PAVCConsole@@A
	push	OFFSET ?xCCC_Float@?CO@??xrRender_initconsole@@YAXXZ@4VCCC_Float@@A
	mov	ecx, DWORD PTR [ecx]
	call	edi

; 661  : 
; 662  : 	// R1-specific
; 663  : 	CMD4(CCC_Integer, "r1_glows_per_frame", &ps_r1_GlowsPerFrame, 2, 32);

	mov	eax, DWORD PTR fs:__tls_array
	mov	ecx, DWORD PTR [eax+esi*4]
	mov	eax, DWORD PTR ?$TSS44@?CP@??xrRender_initconsole@@YAXXZ@4HA
	cmp	eax, DWORD PTR __Init_thread_epoch[ecx]
	jg	$LN185@xrRender_i
$LN46@xrRender_i:
	mov	ecx, DWORD PTR __imp_?Console@@3PAVCConsole@@A
	push	OFFSET ?xCCC_Integer@?CP@??xrRender_initconsole@@YAXXZ@4VCCC_Integer@@A
	mov	ecx, DWORD PTR [ecx]
	call	edi

; 664  : 
; 665  : 	// R2
; 666  : 	CMD4(CCC_Float, "r2_ssa_lod_a", &ps_r2_ssaLOD_A, 16, 96);

	mov	eax, DWORD PTR fs:__tls_array
	mov	ecx, DWORD PTR [eax+esi*4]
	mov	eax, DWORD PTR ?$TSS45@?DA@??xrRender_initconsole@@YAXXZ@4HA
	cmp	eax, DWORD PTR __Init_thread_epoch[ecx]
	jg	$LN186@xrRender_i
$LN47@xrRender_i:
	mov	ecx, DWORD PTR __imp_?Console@@3PAVCConsole@@A
	push	OFFSET ?xCCC_Float@?DA@??xrRender_initconsole@@YAXXZ@4VCCC_Float@@A
	mov	ecx, DWORD PTR [ecx]
	call	edi

; 667  : 	CMD4(CCC_Float, "r2_ssa_lod_b", &ps_r2_ssaLOD_B, 32, 64);

	mov	eax, DWORD PTR fs:__tls_array
	mov	ecx, DWORD PTR [eax+esi*4]
	mov	eax, DWORD PTR ?$TSS46@?DB@??xrRender_initconsole@@YAXXZ@4HA
	cmp	eax, DWORD PTR __Init_thread_epoch[ecx]
	jg	$LN187@xrRender_i
$LN48@xrRender_i:
	mov	ecx, DWORD PTR __imp_?Console@@3PAVCConsole@@A
	push	OFFSET ?xCCC_Float@?DB@??xrRender_initconsole@@YAXXZ@4VCCC_Float@@A
	mov	ecx, DWORD PTR [ecx]
	call	edi

; 668  : 	CMD2(CCC_tf_MipBias, "r2_tf_mipbias", &ps_r2_tf_Mipbias);

	mov	eax, DWORD PTR fs:__tls_array
	mov	ecx, DWORD PTR [eax+esi*4]
	mov	eax, DWORD PTR ?$TSS47@?DC@??xrRender_initconsole@@YAXXZ@4HA
	cmp	eax, DWORD PTR __Init_thread_epoch[ecx]
	jg	$LN188@xrRender_i
$LN49@xrRender_i:
	mov	ecx, DWORD PTR __imp_?Console@@3PAVCConsole@@A
	push	OFFSET ?xCCC_tf_MipBias@?DC@??xrRender_initconsole@@YAXXZ@4VCCC_tf_MipBias@@A
	mov	ecx, DWORD PTR [ecx]
	call	edi

; 669  : 
; 670  : 	// R2-specific
; 671  : 	CMD2(CCC_R2GM, "r2em", &ps_r2_gmaterial);

	mov	eax, DWORD PTR fs:__tls_array
	mov	ecx, DWORD PTR [eax+esi*4]
	mov	eax, DWORD PTR ?$TSS48@?DD@??xrRender_initconsole@@YAXXZ@4HA
	cmp	eax, DWORD PTR __Init_thread_epoch[ecx]
	jg	$LN189@xrRender_i
$LN50@xrRender_i:
	mov	ecx, DWORD PTR __imp_?Console@@3PAVCConsole@@A
	push	OFFSET ?xCCC_R2GM@?DD@??xrRender_initconsole@@YAXXZ@4VCCC_R2GM@@A
	mov	ecx, DWORD PTR [ecx]
	call	edi

; 672  : 	CMD3(CCC_Mask, "r2_tonemap", &ps_r2_ls_flags, R2FLAG_TONEMAP);

	mov	eax, DWORD PTR fs:__tls_array
	mov	ecx, DWORD PTR [eax+esi*4]
	mov	eax, DWORD PTR ?$TSS49@?DE@??xrRender_initconsole@@YAXXZ@4HA
	cmp	eax, DWORD PTR __Init_thread_epoch[ecx]
	jg	$LN190@xrRender_i
$LN51@xrRender_i:
	mov	ecx, DWORD PTR __imp_?Console@@3PAVCConsole@@A
	push	OFFSET ?xCCC_Mask@?DE@??xrRender_initconsole@@YAXXZ@4VCCC_Mask@@A
	mov	ecx, DWORD PTR [ecx]
	call	edi

; 673  : 	CMD4(CCC_Float, "r2_tonemap_middlegray", &ps_r2_tonemap_middlegray, 0.0f, 2.0f);

	mov	eax, DWORD PTR fs:__tls_array
	mov	ecx, DWORD PTR [eax+esi*4]
	mov	eax, DWORD PTR ?$TSS50@?DF@??xrRender_initconsole@@YAXXZ@4HA
	cmp	eax, DWORD PTR __Init_thread_epoch[ecx]
	jg	$LN191@xrRender_i
$LN52@xrRender_i:
	mov	ecx, DWORD PTR __imp_?Console@@3PAVCConsole@@A
	push	OFFSET ?xCCC_Float@?DF@??xrRender_initconsole@@YAXXZ@4VCCC_Float@@A
	mov	ecx, DWORD PTR [ecx]
	call	edi

; 674  : 	CMD4(CCC_Float, "r2_tonemap_adaptation", &ps_r2_tonemap_adaptation, 0.01f, 10.0f);

	mov	eax, DWORD PTR fs:__tls_array
	mov	ecx, DWORD PTR [eax+esi*4]
	mov	eax, DWORD PTR ?$TSS51@?DG@??xrRender_initconsole@@YAXXZ@4HA
	cmp	eax, DWORD PTR __Init_thread_epoch[ecx]
	jg	$LN192@xrRender_i
$LN53@xrRender_i:
	mov	ecx, DWORD PTR __imp_?Console@@3PAVCConsole@@A
	push	OFFSET ?xCCC_Float@?DG@??xrRender_initconsole@@YAXXZ@4VCCC_Float@@A
	mov	ecx, DWORD PTR [ecx]
	call	edi

; 675  : 	CMD4(CCC_Float, "r2_tonemap_lowlum", &ps_r2_tonemap_low_lum, 0.0001f, 1.0f);

	mov	eax, DWORD PTR fs:__tls_array
	mov	ecx, DWORD PTR [eax+esi*4]
	mov	eax, DWORD PTR ?$TSS52@?DH@??xrRender_initconsole@@YAXXZ@4HA
	cmp	eax, DWORD PTR __Init_thread_epoch[ecx]
	jg	$LN193@xrRender_i
$LN54@xrRender_i:
	mov	ecx, DWORD PTR __imp_?Console@@3PAVCConsole@@A
	push	OFFSET ?xCCC_Float@?DH@??xrRender_initconsole@@YAXXZ@4VCCC_Float@@A
	mov	ecx, DWORD PTR [ecx]
	call	edi

; 676  : 	CMD4(CCC_Float, "r2_tonemap_amount", &ps_r2_tonemap_amount, 0.0000f, 1.0f);

	mov	eax, DWORD PTR fs:__tls_array
	mov	ecx, DWORD PTR [eax+esi*4]
	mov	eax, DWORD PTR ?$TSS53@?DI@??xrRender_initconsole@@YAXXZ@4HA
	cmp	eax, DWORD PTR __Init_thread_epoch[ecx]
	jg	$LN194@xrRender_i
$LN55@xrRender_i:
	mov	ecx, DWORD PTR __imp_?Console@@3PAVCConsole@@A
	push	OFFSET ?xCCC_Float@?DI@??xrRender_initconsole@@YAXXZ@4VCCC_Float@@A
	mov	ecx, DWORD PTR [ecx]
	call	edi

; 677  : 	CMD4(CCC_Float, "r2_ls_bloom_kernel_scale", &ps_r2_ls_bloom_kernel_scale, 0.5f, 2.f);

	mov	eax, DWORD PTR fs:__tls_array
	mov	ecx, DWORD PTR [eax+esi*4]
	mov	eax, DWORD PTR ?$TSS54@?DJ@??xrRender_initconsole@@YAXXZ@4HA
	cmp	eax, DWORD PTR __Init_thread_epoch[ecx]
	jg	$LN195@xrRender_i
$LN56@xrRender_i:
	mov	ecx, DWORD PTR __imp_?Console@@3PAVCConsole@@A
	push	OFFSET ?xCCC_Float@?DJ@??xrRender_initconsole@@YAXXZ@4VCCC_Float@@A
	mov	ecx, DWORD PTR [ecx]
	call	edi

; 678  : 	CMD4(CCC_Float, "r2_ls_bloom_kernel_g", &ps_r2_ls_bloom_kernel_g, 1.f, 7.f);

	mov	eax, DWORD PTR fs:__tls_array
	mov	ecx, DWORD PTR [eax+esi*4]
	mov	eax, DWORD PTR ?$TSS55@?DK@??xrRender_initconsole@@YAXXZ@4HA
	cmp	eax, DWORD PTR __Init_thread_epoch[ecx]
	jg	$LN196@xrRender_i
$LN57@xrRender_i:
	mov	ecx, DWORD PTR __imp_?Console@@3PAVCConsole@@A
	push	OFFSET ?xCCC_Float@?DK@??xrRender_initconsole@@YAXXZ@4VCCC_Float@@A
	mov	ecx, DWORD PTR [ecx]
	call	edi

; 679  : 	CMD4(CCC_Float, "r2_ls_bloom_kernel_b", &ps_r2_ls_bloom_kernel_b, 0.01f, 1.f);

	mov	eax, DWORD PTR fs:__tls_array
	mov	ecx, DWORD PTR [eax+esi*4]
	mov	eax, DWORD PTR ?$TSS56@?DL@??xrRender_initconsole@@YAXXZ@4HA
	cmp	eax, DWORD PTR __Init_thread_epoch[ecx]
	jg	$LN197@xrRender_i
$LN58@xrRender_i:
	mov	ecx, DWORD PTR __imp_?Console@@3PAVCConsole@@A
	push	OFFSET ?xCCC_Float@?DL@??xrRender_initconsole@@YAXXZ@4VCCC_Float@@A
	mov	ecx, DWORD PTR [ecx]
	call	edi

; 680  : 	CMD4(CCC_Float, "r2_ls_bloom_threshold", &ps_r2_ls_bloom_threshold, 0.f, 1.f);

	mov	eax, DWORD PTR fs:__tls_array
	mov	ecx, DWORD PTR [eax+esi*4]
	mov	eax, DWORD PTR ?$TSS57@?DM@??xrRender_initconsole@@YAXXZ@4HA
	cmp	eax, DWORD PTR __Init_thread_epoch[ecx]
	jg	$LN198@xrRender_i
$LN59@xrRender_i:
	mov	ecx, DWORD PTR __imp_?Console@@3PAVCConsole@@A
	push	OFFSET ?xCCC_Float@?DM@??xrRender_initconsole@@YAXXZ@4VCCC_Float@@A
	mov	ecx, DWORD PTR [ecx]
	call	edi

; 681  : 	CMD4(CCC_Float, "r2_ls_bloom_speed", &ps_r2_ls_bloom_speed, 0.f, 100.f);

	mov	eax, DWORD PTR fs:__tls_array
	mov	ecx, DWORD PTR [eax+esi*4]
	mov	eax, DWORD PTR ?$TSS58@?DN@??xrRender_initconsole@@YAXXZ@4HA
	cmp	eax, DWORD PTR __Init_thread_epoch[ecx]
	jg	$LN199@xrRender_i
$LN60@xrRender_i:
	mov	ecx, DWORD PTR __imp_?Console@@3PAVCConsole@@A
	push	OFFSET ?xCCC_Float@?DN@??xrRender_initconsole@@YAXXZ@4VCCC_Float@@A
	mov	ecx, DWORD PTR [ecx]
	call	edi

; 682  : 	CMD3(CCC_Mask, "r2_ls_bloom_fast", &ps_r2_ls_flags, R2FLAG_FASTBLOOM);

	mov	eax, DWORD PTR fs:__tls_array
	mov	ecx, DWORD PTR [eax+esi*4]
	mov	eax, DWORD PTR ?$TSS59@?DO@??xrRender_initconsole@@YAXXZ@4HA
	cmp	eax, DWORD PTR __Init_thread_epoch[ecx]
	jg	$LN200@xrRender_i
$LN61@xrRender_i:
	mov	ecx, DWORD PTR __imp_?Console@@3PAVCConsole@@A
	push	OFFSET ?xCCC_Mask@?DO@??xrRender_initconsole@@YAXXZ@4VCCC_Mask@@A
	mov	ecx, DWORD PTR [ecx]
	call	edi

; 683  : 	CMD4(CCC_Float, "r2_ls_dsm_kernel", &ps_r2_ls_dsm_kernel, .1f, 3.f);

	mov	eax, DWORD PTR fs:__tls_array
	mov	ecx, DWORD PTR [eax+esi*4]
	mov	eax, DWORD PTR ?$TSS60@?DP@??xrRender_initconsole@@YAXXZ@4HA
	cmp	eax, DWORD PTR __Init_thread_epoch[ecx]
	jg	$LN201@xrRender_i
$LN62@xrRender_i:
	mov	ecx, DWORD PTR __imp_?Console@@3PAVCConsole@@A
	push	OFFSET ?xCCC_Float@?DP@??xrRender_initconsole@@YAXXZ@4VCCC_Float@@A
	mov	ecx, DWORD PTR [ecx]
	call	edi

; 684  : 	CMD4(CCC_Float, "r2_ls_psm_kernel", &ps_r2_ls_psm_kernel, .1f, 3.f);

	mov	eax, DWORD PTR fs:__tls_array
	mov	ecx, DWORD PTR [eax+esi*4]
	mov	eax, DWORD PTR ?$TSS61@?EA@??xrRender_initconsole@@YAXXZ@4HA
	cmp	eax, DWORD PTR __Init_thread_epoch[ecx]
	jg	$LN202@xrRender_i
$LN63@xrRender_i:
	mov	ecx, DWORD PTR __imp_?Console@@3PAVCConsole@@A
	push	OFFSET ?xCCC_Float@?EA@??xrRender_initconsole@@YAXXZ@4VCCC_Float@@A
	mov	ecx, DWORD PTR [ecx]
	call	edi

; 685  : 	CMD4(CCC_Float, "r2_ls_ssm_kernel", &ps_r2_ls_ssm_kernel, .1f, 3.f);

	mov	eax, DWORD PTR fs:__tls_array
	mov	ecx, DWORD PTR [eax+esi*4]
	mov	eax, DWORD PTR ?$TSS62@?EB@??xrRender_initconsole@@YAXXZ@4HA
	cmp	eax, DWORD PTR __Init_thread_epoch[ecx]
	jg	$LN203@xrRender_i
$LN64@xrRender_i:
	mov	ecx, DWORD PTR __imp_?Console@@3PAVCConsole@@A
	push	OFFSET ?xCCC_Float@?EB@??xrRender_initconsole@@YAXXZ@4VCCC_Float@@A
	mov	ecx, DWORD PTR [ecx]
	call	edi

; 686  : 	CMD4(CCC_Float, "r2_ls_squality", &ps_r2_ls_squality, .5f, 1.f);

	mov	eax, DWORD PTR fs:__tls_array
	mov	ecx, DWORD PTR [eax+esi*4]
	mov	eax, DWORD PTR ?$TSS63@?EC@??xrRender_initconsole@@YAXXZ@4HA
	cmp	eax, DWORD PTR __Init_thread_epoch[ecx]
	jg	$LN204@xrRender_i
$LN65@xrRender_i:
	mov	ecx, DWORD PTR __imp_?Console@@3PAVCConsole@@A
	push	OFFSET ?xCCC_Float@?EC@??xrRender_initconsole@@YAXXZ@4VCCC_Float@@A
	mov	ecx, DWORD PTR [ecx]
	call	edi

; 687  : 
; 688  : 	CMD3(CCC_Mask, "r2_zfill", &ps_r2_ls_flags, R2FLAG_ZFILL);

	mov	eax, DWORD PTR fs:__tls_array
	mov	ecx, DWORD PTR [eax+esi*4]
	mov	eax, DWORD PTR ?$TSS64@?ED@??xrRender_initconsole@@YAXXZ@4HA
	cmp	eax, DWORD PTR __Init_thread_epoch[ecx]
	jg	$LN205@xrRender_i
$LN66@xrRender_i:
	mov	ecx, DWORD PTR __imp_?Console@@3PAVCConsole@@A
	push	OFFSET ?xCCC_Mask@?ED@??xrRender_initconsole@@YAXXZ@4VCCC_Mask@@A
	mov	ecx, DWORD PTR [ecx]
	call	edi

; 689  : 	CMD4(CCC_Float, "r2_zfill_depth", &ps_r2_zfill, .001f, .5f);

	mov	eax, DWORD PTR fs:__tls_array
	mov	ecx, DWORD PTR [eax+esi*4]
	mov	eax, DWORD PTR ?$TSS65@?EE@??xrRender_initconsole@@YAXXZ@4HA
	cmp	eax, DWORD PTR __Init_thread_epoch[ecx]
	jg	$LN206@xrRender_i
$LN67@xrRender_i:
	mov	ecx, DWORD PTR __imp_?Console@@3PAVCConsole@@A
	push	OFFSET ?xCCC_Float@?EE@??xrRender_initconsole@@YAXXZ@4VCCC_Float@@A
	mov	ecx, DWORD PTR [ecx]
	call	edi

; 690  : 	CMD3(CCC_Mask, "r2_allow_r1_lights", &ps_r2_ls_flags, R2FLAG_R1LIGHTS);

	mov	eax, DWORD PTR fs:__tls_array
	mov	ecx, DWORD PTR [eax+esi*4]
	mov	eax, DWORD PTR ?$TSS66@?EF@??xrRender_initconsole@@YAXXZ@4HA
	cmp	eax, DWORD PTR __Init_thread_epoch[ecx]
	jg	$LN207@xrRender_i
$LN68@xrRender_i:
	mov	ecx, DWORD PTR __imp_?Console@@3PAVCConsole@@A
	push	OFFSET ?xCCC_Mask@?EF@??xrRender_initconsole@@YAXXZ@4VCCC_Mask@@A
	mov	ecx, DWORD PTR [ecx]
	call	edi

; 691  : 
; 692  : 	//- Mad Max
; 693  : 	CMD4(CCC_Float, "r2_gloss_factor", &ps_r2_gloss_factor, 1.f, 3.f);

	mov	eax, DWORD PTR fs:__tls_array
	mov	ecx, DWORD PTR [eax+esi*4]
	mov	eax, DWORD PTR ?$TSS67@?EG@??xrRender_initconsole@@YAXXZ@4HA
	cmp	eax, DWORD PTR __Init_thread_epoch[ecx]
	jg	$LN208@xrRender_i
$LN69@xrRender_i:
	mov	ecx, DWORD PTR __imp_?Console@@3PAVCConsole@@A
	push	OFFSET ?xCCC_Float@?EG@??xrRender_initconsole@@YAXXZ@4VCCC_Float@@A
	mov	ecx, DWORD PTR [ecx]
	call	edi

; 694  : 	//- Mad Max
; 695  : 
; 696  : //#ifdef DEBUG
; 697  : 	CMD3(CCC_Mask, "r2_use_nvdbt", &ps_r2_ls_flags, R2FLAG_USE_NVDBT);

	mov	eax, DWORD PTR fs:__tls_array
	mov	ecx, DWORD PTR [eax+esi*4]
	mov	eax, DWORD PTR ?$TSS68@?EH@??xrRender_initconsole@@YAXXZ@4HA
	cmp	eax, DWORD PTR __Init_thread_epoch[ecx]
	jg	$LN209@xrRender_i
$LN70@xrRender_i:
	mov	ecx, DWORD PTR __imp_?Console@@3PAVCConsole@@A
	push	OFFSET ?xCCC_Mask@?EH@??xrRender_initconsole@@YAXXZ@4VCCC_Mask@@A
	mov	ecx, DWORD PTR [ecx]
	call	edi

; 698  : 	CMD3(CCC_Mask, "r2_mt", &ps_r2_ls_flags, R2FLAG_EXP_MT_CALC);

	mov	eax, DWORD PTR fs:__tls_array
	mov	ecx, DWORD PTR [eax+esi*4]
	mov	eax, DWORD PTR ?$TSS69@?EI@??xrRender_initconsole@@YAXXZ@4HA
	cmp	eax, DWORD PTR __Init_thread_epoch[ecx]
	jg	$LN210@xrRender_i
$LN71@xrRender_i:
	mov	ecx, DWORD PTR __imp_?Console@@3PAVCConsole@@A
	push	OFFSET ?xCCC_Mask@?EI@??xrRender_initconsole@@YAXXZ@4VCCC_Mask@@A
	mov	ecx, DWORD PTR [ecx]
	call	edi

; 699  : //#endif // DEBUG
; 700  : 
; 701  : 	CMD3(CCC_Mask, "r2_sun", &ps_r2_ls_flags, R2FLAG_SUN);

	mov	eax, DWORD PTR fs:__tls_array
	mov	ecx, DWORD PTR [eax+esi*4]
	mov	eax, DWORD PTR ?$TSS70@?EJ@??xrRender_initconsole@@YAXXZ@4HA
	cmp	eax, DWORD PTR __Init_thread_epoch[ecx]
	jg	$LN211@xrRender_i
$LN72@xrRender_i:
	mov	ecx, DWORD PTR __imp_?Console@@3PAVCConsole@@A
	push	OFFSET ?xCCC_Mask@?EJ@??xrRender_initconsole@@YAXXZ@4VCCC_Mask@@A
	mov	ecx, DWORD PTR [ecx]
	call	edi

; 702  : 	CMD3(CCC_Mask, "r2_sun_details", &ps_r2_ls_flags, R2FLAG_SUN_DETAILS);

	mov	eax, DWORD PTR fs:__tls_array
	mov	ecx, DWORD PTR [eax+esi*4]
	mov	eax, DWORD PTR ?$TSS71@?EK@??xrRender_initconsole@@YAXXZ@4HA
	cmp	eax, DWORD PTR __Init_thread_epoch[ecx]
	jg	$LN212@xrRender_i
$LN73@xrRender_i:
	mov	ecx, DWORD PTR __imp_?Console@@3PAVCConsole@@A
	push	OFFSET ?xCCC_Mask@?EK@??xrRender_initconsole@@YAXXZ@4VCCC_Mask@@A
	mov	ecx, DWORD PTR [ecx]
	call	edi

; 703  : 	CMD3(CCC_Mask, "r2_sun_focus", &ps_r2_ls_flags, R2FLAG_SUN_FOCUS);

	mov	eax, DWORD PTR fs:__tls_array
	mov	ecx, DWORD PTR [eax+esi*4]
	mov	eax, DWORD PTR ?$TSS72@?EL@??xrRender_initconsole@@YAXXZ@4HA
	cmp	eax, DWORD PTR __Init_thread_epoch[ecx]
	jg	$LN213@xrRender_i
$LN74@xrRender_i:
	mov	ecx, DWORD PTR __imp_?Console@@3PAVCConsole@@A
	push	OFFSET ?xCCC_Mask@?EL@??xrRender_initconsole@@YAXXZ@4VCCC_Mask@@A
	mov	ecx, DWORD PTR [ecx]
	call	edi

; 704  : 	//	CMD3(CCC_Mask,		"r2_sun_static",		&ps_r2_ls_flags,			R2FLAG_SUN_STATIC);
; 705  : 	//	CMD3(CCC_Mask,		"r2_exp_splitscene",	&ps_r2_ls_flags,			R2FLAG_EXP_SPLIT_SCENE);
; 706  : 	//	CMD3(CCC_Mask,		"r2_exp_donttest_uns",	&ps_r2_ls_flags,			R2FLAG_EXP_DONT_TEST_UNSHADOWED);
; 707  : 
; 708  : 	CMD3(CCC_Mask, "r2_sun_tsm", &ps_r2_ls_flags, R2FLAG_SUN_TSM);

	mov	eax, DWORD PTR fs:__tls_array
	mov	ecx, DWORD PTR [eax+esi*4]
	mov	eax, DWORD PTR ?$TSS73@?EM@??xrRender_initconsole@@YAXXZ@4HA
	cmp	eax, DWORD PTR __Init_thread_epoch[ecx]
	jg	$LN214@xrRender_i
$LN75@xrRender_i:
	mov	ecx, DWORD PTR __imp_?Console@@3PAVCConsole@@A
	push	OFFSET ?xCCC_Mask@?EM@??xrRender_initconsole@@YAXXZ@4VCCC_Mask@@A
	mov	ecx, DWORD PTR [ecx]
	call	edi

; 709  : 	CMD4(CCC_Float, "r2_sun_tsm_proj", &ps_r2_sun_tsm_projection, .001f, 0.8f);

	mov	eax, DWORD PTR fs:__tls_array
	mov	ecx, DWORD PTR [eax+esi*4]
	mov	eax, DWORD PTR ?$TSS74@?EN@??xrRender_initconsole@@YAXXZ@4HA
	cmp	eax, DWORD PTR __Init_thread_epoch[ecx]
	jg	$LN215@xrRender_i
$LN76@xrRender_i:
	mov	ecx, DWORD PTR __imp_?Console@@3PAVCConsole@@A
	push	OFFSET ?xCCC_Float@?EN@??xrRender_initconsole@@YAXXZ@4VCCC_Float@@A
	mov	ecx, DWORD PTR [ecx]
	call	edi

; 710  : 	CMD4(CCC_Float, "r2_sun_tsm_bias", &ps_r2_sun_tsm_bias, -0.5, +0.5);

	mov	eax, DWORD PTR fs:__tls_array
	mov	ecx, DWORD PTR [eax+esi*4]
	mov	eax, DWORD PTR ?$TSS75@?EO@??xrRender_initconsole@@YAXXZ@4HA
	cmp	eax, DWORD PTR __Init_thread_epoch[ecx]
	jg	$LN216@xrRender_i
$LN77@xrRender_i:
	mov	ecx, DWORD PTR __imp_?Console@@3PAVCConsole@@A
	push	OFFSET ?xCCC_Float@?EO@??xrRender_initconsole@@YAXXZ@4VCCC_Float@@A
	mov	ecx, DWORD PTR [ecx]
	call	edi

; 711  : 	CMD4(CCC_Float, "r2_sun_near", &ps_r2_sun_near, 1.f, 50.f);

	mov	eax, DWORD PTR fs:__tls_array
	mov	ecx, DWORD PTR [eax+esi*4]
	mov	eax, DWORD PTR ?$TSS76@?EP@??xrRender_initconsole@@YAXXZ@4HA
	cmp	eax, DWORD PTR __Init_thread_epoch[ecx]
	jg	$LN217@xrRender_i
$LN78@xrRender_i:
	mov	ecx, DWORD PTR __imp_?Console@@3PAVCConsole@@A
	push	OFFSET ?xCCC_Float@?EP@??xrRender_initconsole@@YAXXZ@4VCCC_Float@@A
	mov	ecx, DWORD PTR [ecx]
	call	edi

; 712  : 	CMD4(CCC_Float, "r2_sun_far", &ps_r2_sun_far, 100.f, 360.f);

	mov	eax, DWORD PTR fs:__tls_array
	mov	ecx, DWORD PTR [eax+esi*4]
	mov	eax, DWORD PTR ?$TSS77@?FA@??xrRender_initconsole@@YAXXZ@4HA
	cmp	eax, DWORD PTR __Init_thread_epoch[ecx]
	jg	$LN218@xrRender_i
$LN79@xrRender_i:
	mov	ecx, DWORD PTR __imp_?Console@@3PAVCConsole@@A
	push	OFFSET ?xCCC_Float@?FA@??xrRender_initconsole@@YAXXZ@4VCCC_Float@@A
	mov	ecx, DWORD PTR [ecx]
	call	edi

; 713  : 	CMD4(CCC_Float, "r2_sun_near_border", &ps_r2_sun_near_border, .5f, 1.0f);

	mov	eax, DWORD PTR fs:__tls_array
	mov	ecx, DWORD PTR [eax+esi*4]
	mov	eax, DWORD PTR ?$TSS78@?FB@??xrRender_initconsole@@YAXXZ@4HA
	cmp	eax, DWORD PTR __Init_thread_epoch[ecx]
	jg	$LN219@xrRender_i
$LN80@xrRender_i:
	mov	ecx, DWORD PTR __imp_?Console@@3PAVCConsole@@A
	push	OFFSET ?xCCC_Float@?FB@??xrRender_initconsole@@YAXXZ@4VCCC_Float@@A
	mov	ecx, DWORD PTR [ecx]
	call	edi

; 714  : 	CMD4(CCC_Float, "r2_sun_depth_far_scale", &ps_r2_sun_depth_far_scale, 0.5, 1.5);

	mov	eax, DWORD PTR fs:__tls_array
	mov	ecx, DWORD PTR [eax+esi*4]
	mov	eax, DWORD PTR ?$TSS79@?FC@??xrRender_initconsole@@YAXXZ@4HA
	cmp	eax, DWORD PTR __Init_thread_epoch[ecx]
	jg	$LN220@xrRender_i
$LN81@xrRender_i:
	mov	ecx, DWORD PTR __imp_?Console@@3PAVCConsole@@A
	push	OFFSET ?xCCC_Float@?FC@??xrRender_initconsole@@YAXXZ@4VCCC_Float@@A
	mov	ecx, DWORD PTR [ecx]
	call	edi

; 715  : 	CMD4(CCC_Float, "r2_sun_depth_far_bias", &ps_r2_sun_depth_far_bias, -0.5, +0.5);

	mov	eax, DWORD PTR fs:__tls_array
	mov	ecx, DWORD PTR [eax+esi*4]
	mov	eax, DWORD PTR ?$TSS80@?FD@??xrRender_initconsole@@YAXXZ@4HA
	cmp	eax, DWORD PTR __Init_thread_epoch[ecx]
	jg	$LN221@xrRender_i
$LN82@xrRender_i:
	mov	ecx, DWORD PTR __imp_?Console@@3PAVCConsole@@A
	push	OFFSET ?xCCC_Float@?FD@??xrRender_initconsole@@YAXXZ@4VCCC_Float@@A
	mov	ecx, DWORD PTR [ecx]
	call	edi

; 716  : 	CMD4(CCC_Float, "r2_sun_depth_near_scale", &ps_r2_sun_depth_near_scale, 0.5, 1.5);

	mov	eax, DWORD PTR fs:__tls_array
	mov	ecx, DWORD PTR [eax+esi*4]
	mov	eax, DWORD PTR ?$TSS81@?FE@??xrRender_initconsole@@YAXXZ@4HA
	cmp	eax, DWORD PTR __Init_thread_epoch[ecx]
	jg	$LN222@xrRender_i
$LN83@xrRender_i:
	mov	ecx, DWORD PTR __imp_?Console@@3PAVCConsole@@A
	push	OFFSET ?xCCC_Float@?FE@??xrRender_initconsole@@YAXXZ@4VCCC_Float@@A
	mov	ecx, DWORD PTR [ecx]
	call	edi

; 717  : 	CMD4(CCC_Float, "r2_sun_depth_near_bias", &ps_r2_sun_depth_near_bias, -0.5, +0.5);

	mov	eax, DWORD PTR fs:__tls_array
	mov	ecx, DWORD PTR [eax+esi*4]
	mov	eax, DWORD PTR ?$TSS82@?FF@??xrRender_initconsole@@YAXXZ@4HA
	cmp	eax, DWORD PTR __Init_thread_epoch[ecx]
	jg	$LN223@xrRender_i
$LN84@xrRender_i:
	mov	ecx, DWORD PTR __imp_?Console@@3PAVCConsole@@A
	push	OFFSET ?xCCC_Float@?FF@??xrRender_initconsole@@YAXXZ@4VCCC_Float@@A
	mov	ecx, DWORD PTR [ecx]
	call	edi

; 718  : 	CMD4(CCC_Float, "r2_sun_lumscale", &ps_r2_sun_lumscale, -1.0, +3.0);

	mov	eax, DWORD PTR fs:__tls_array
	mov	ecx, DWORD PTR [eax+esi*4]
	mov	eax, DWORD PTR ?$TSS83@?FG@??xrRender_initconsole@@YAXXZ@4HA
	cmp	eax, DWORD PTR __Init_thread_epoch[ecx]
	jg	$LN224@xrRender_i
$LN85@xrRender_i:
	mov	ecx, DWORD PTR __imp_?Console@@3PAVCConsole@@A
	push	OFFSET ?xCCC_Float@?FG@??xrRender_initconsole@@YAXXZ@4VCCC_Float@@A
	mov	ecx, DWORD PTR [ecx]
	call	edi

; 719  : 	CMD4(CCC_Float, "r2_sun_lumscale_hemi", &ps_r2_sun_lumscale_hemi, 0.0, +3.0);

	mov	eax, DWORD PTR fs:__tls_array
	mov	ecx, DWORD PTR [eax+esi*4]
	mov	eax, DWORD PTR ?$TSS84@?FH@??xrRender_initconsole@@YAXXZ@4HA
	cmp	eax, DWORD PTR __Init_thread_epoch[ecx]
	jg	$LN225@xrRender_i
$LN86@xrRender_i:
	mov	ecx, DWORD PTR __imp_?Console@@3PAVCConsole@@A
	push	OFFSET ?xCCC_Float@?FH@??xrRender_initconsole@@YAXXZ@4VCCC_Float@@A
	mov	ecx, DWORD PTR [ecx]
	call	edi

; 720  : 	CMD4(CCC_Float, "r2_sun_lumscale_amb", &ps_r2_sun_lumscale_amb, 0.0, +3.0);

	mov	eax, DWORD PTR fs:__tls_array
	mov	ecx, DWORD PTR [eax+esi*4]
	mov	eax, DWORD PTR ?$TSS85@?FI@??xrRender_initconsole@@YAXXZ@4HA
	cmp	eax, DWORD PTR __Init_thread_epoch[ecx]
	jg	$LN226@xrRender_i
$LN87@xrRender_i:
	mov	ecx, DWORD PTR __imp_?Console@@3PAVCConsole@@A
	push	OFFSET ?xCCC_Float@?FI@??xrRender_initconsole@@YAXXZ@4VCCC_Float@@A
	mov	ecx, DWORD PTR [ecx]
	call	edi

; 721  : 
; 722  : 	CMD3(CCC_Mask, "r2_aa", &ps_r2_ls_flags, R2FLAG_AA);

	mov	eax, DWORD PTR fs:__tls_array
	mov	ecx, DWORD PTR [eax+esi*4]
	mov	eax, DWORD PTR ?$TSS86@?FJ@??xrRender_initconsole@@YAXXZ@4HA
	cmp	eax, DWORD PTR __Init_thread_epoch[ecx]
	jg	$LN227@xrRender_i
$LN88@xrRender_i:
	mov	ecx, DWORD PTR __imp_?Console@@3PAVCConsole@@A
	push	OFFSET ?xCCC_Mask@?FJ@??xrRender_initconsole@@YAXXZ@4VCCC_Mask@@A
	mov	ecx, DWORD PTR [ecx]
	call	edi

; 723  : 	CMD4(CCC_Float, "r2_aa_kernel", &ps_r2_aa_kernel, 0.3f, 0.7f);

	mov	eax, DWORD PTR fs:__tls_array
	mov	ecx, DWORD PTR [eax+esi*4]
	mov	eax, DWORD PTR ?$TSS87@?FK@??xrRender_initconsole@@YAXXZ@4HA
	cmp	eax, DWORD PTR __Init_thread_epoch[ecx]
	jg	$LN228@xrRender_i
$LN89@xrRender_i:
	mov	ecx, DWORD PTR __imp_?Console@@3PAVCConsole@@A
	push	OFFSET ?xCCC_Float@?FK@??xrRender_initconsole@@YAXXZ@4VCCC_Float@@A
	mov	ecx, DWORD PTR [ecx]
	call	edi

; 724  : 	CMD4(CCC_Float, "r2_mblur", &ps_r2_mblur, 0.0f, 1.0f);

	mov	eax, DWORD PTR fs:__tls_array
	mov	ecx, DWORD PTR [eax+esi*4]
	mov	eax, DWORD PTR ?$TSS88@?FL@??xrRender_initconsole@@YAXXZ@4HA
	cmp	eax, DWORD PTR __Init_thread_epoch[ecx]
	jg	$LN229@xrRender_i
$LN90@xrRender_i:
	mov	ecx, DWORD PTR __imp_?Console@@3PAVCConsole@@A
	push	OFFSET ?xCCC_Float@?FL@??xrRender_initconsole@@YAXXZ@4VCCC_Float@@A
	mov	ecx, DWORD PTR [ecx]
	call	edi

; 725  : 
; 726  : 	CMD3(CCC_Mask, "r2_gi", &ps_r2_ls_flags, R2FLAG_GI);

	mov	eax, DWORD PTR fs:__tls_array
	mov	ecx, DWORD PTR [eax+esi*4]
	mov	eax, DWORD PTR ?$TSS89@?FM@??xrRender_initconsole@@YAXXZ@4HA
	cmp	eax, DWORD PTR __Init_thread_epoch[ecx]
	jg	$LN230@xrRender_i
$LN91@xrRender_i:
	mov	ecx, DWORD PTR __imp_?Console@@3PAVCConsole@@A
	push	OFFSET ?xCCC_Mask@?FM@??xrRender_initconsole@@YAXXZ@4VCCC_Mask@@A
	mov	ecx, DWORD PTR [ecx]
	call	edi

; 727  : 	CMD4(CCC_Float, "r2_gi_clip", &ps_r2_GI_clip, EPS, 0.1f);

	mov	eax, DWORD PTR fs:__tls_array
	mov	ecx, DWORD PTR [eax+esi*4]
	mov	eax, DWORD PTR ?$TSS90@?FN@??xrRender_initconsole@@YAXXZ@4HA
	cmp	eax, DWORD PTR __Init_thread_epoch[ecx]
	jg	$LN231@xrRender_i
$LN92@xrRender_i:
	mov	ecx, DWORD PTR __imp_?Console@@3PAVCConsole@@A
	push	OFFSET ?xCCC_Float@?FN@??xrRender_initconsole@@YAXXZ@4VCCC_Float@@A
	mov	ecx, DWORD PTR [ecx]
	call	edi

; 728  : 	CMD4(CCC_Integer, "r2_gi_depth", &ps_r2_GI_depth, 1, 5);

	mov	eax, DWORD PTR fs:__tls_array
	mov	ecx, DWORD PTR [eax+esi*4]
	mov	eax, DWORD PTR ?$TSS91@?FO@??xrRender_initconsole@@YAXXZ@4HA
	cmp	eax, DWORD PTR __Init_thread_epoch[ecx]
	jg	$LN232@xrRender_i
$LN93@xrRender_i:
	mov	ecx, DWORD PTR __imp_?Console@@3PAVCConsole@@A
	push	OFFSET ?xCCC_Integer@?FO@??xrRender_initconsole@@YAXXZ@4VCCC_Integer@@A
	mov	ecx, DWORD PTR [ecx]
	call	edi

; 729  : 	CMD4(CCC_Integer, "r2_gi_photons", &ps_r2_GI_photons, 8, 256);

	mov	eax, DWORD PTR fs:__tls_array
	mov	ecx, DWORD PTR [eax+esi*4]
	mov	eax, DWORD PTR ?$TSS92@?FP@??xrRender_initconsole@@YAXXZ@4HA
	cmp	eax, DWORD PTR __Init_thread_epoch[ecx]
	jg	$LN233@xrRender_i
$LN94@xrRender_i:
	mov	ecx, DWORD PTR __imp_?Console@@3PAVCConsole@@A
	push	OFFSET ?xCCC_Integer@?FP@??xrRender_initconsole@@YAXXZ@4VCCC_Integer@@A
	mov	ecx, DWORD PTR [ecx]
	call	edi

; 730  : 	CMD4(CCC_Float, "r2_gi_refl", &ps_r2_GI_refl, EPS_L, 0.99f);

	mov	eax, DWORD PTR fs:__tls_array
	mov	ecx, DWORD PTR [eax+esi*4]
	mov	eax, DWORD PTR ?$TSS93@?GA@??xrRender_initconsole@@YAXXZ@4HA
	cmp	eax, DWORD PTR __Init_thread_epoch[ecx]
	jg	$LN234@xrRender_i
$LN95@xrRender_i:
	mov	ecx, DWORD PTR __imp_?Console@@3PAVCConsole@@A
	push	OFFSET ?xCCC_Float@?GA@??xrRender_initconsole@@YAXXZ@4VCCC_Float@@A
	mov	ecx, DWORD PTR [ecx]
	call	edi

; 731  : 
; 732  : 	CMD4(CCC_Integer, "r2_wait_sleep", &ps_r2_wait_sleep, 0, 1);

	mov	eax, DWORD PTR fs:__tls_array
	mov	ecx, DWORD PTR [eax+esi*4]
	mov	eax, DWORD PTR ?$TSS94@?GB@??xrRender_initconsole@@YAXXZ@4HA
	cmp	eax, DWORD PTR __Init_thread_epoch[ecx]
	jg	$LN235@xrRender_i
$LN96@xrRender_i:
	mov	ecx, DWORD PTR __imp_?Console@@3PAVCConsole@@A
	push	OFFSET ?xCCC_Integer@?GB@??xrRender_initconsole@@YAXXZ@4VCCC_Integer@@A
	mov	ecx, DWORD PTR [ecx]
	call	edi

; 733  : 
; 734  : #ifdef DEBUG
; 735  : 	CMD4(CCC_Integer, "r2_dhemi_count", &ps_r2_dhemi_count, 4, 25);
; 736  : 	CMD4(CCC_Float, "r2_dhemi_scale", &ps_r2_dhemi_scale, .5f, 3.f);
; 737  : 	CMD4(CCC_Float, "r2_dhemi_smooth", &ps_r2_lt_smooth, 0.f, 10.f);
; 738  : #endif // DEBUG
; 739  : 
; 740  : 	CMD3(CCC_Mask, "r2_shadow_cascede_zcul", &ps_r2_ls_flags_ext, R2FLAGEXT_SUN_ZCULLING);

	mov	eax, DWORD PTR fs:__tls_array
	mov	ecx, DWORD PTR [eax+esi*4]
	mov	eax, DWORD PTR ?$TSS95@?GC@??xrRender_initconsole@@YAXXZ@4HA
	cmp	eax, DWORD PTR __Init_thread_epoch[ecx]
	jg	$LN236@xrRender_i
$LN97@xrRender_i:
	mov	ecx, DWORD PTR __imp_?Console@@3PAVCConsole@@A
	push	OFFSET ?xCCC_Mask@?GC@??xrRender_initconsole@@YAXXZ@4VCCC_Mask@@A
	mov	ecx, DWORD PTR [ecx]
	call	edi

; 741  : 	CMD3(CCC_Mask, "r2_shadow_cascede_old", &ps_r2_ls_flags_ext, R2FLAGEXT_SUN_OLD);

	mov	eax, DWORD PTR fs:__tls_array
	mov	ecx, DWORD PTR [eax+esi*4]
	mov	eax, DWORD PTR ?$TSS96@?GD@??xrRender_initconsole@@YAXXZ@4HA
	cmp	eax, DWORD PTR __Init_thread_epoch[ecx]
	jg	$LN237@xrRender_i
$LN98@xrRender_i:
	mov	ecx, DWORD PTR __imp_?Console@@3PAVCConsole@@A
	push	OFFSET ?xCCC_Mask@?GD@??xrRender_initconsole@@YAXXZ@4VCCC_Mask@@A
	mov	ecx, DWORD PTR [ecx]
	call	edi

; 742  : 
; 743  : 	CMD4(CCC_Float, "r2_ls_depth_scale", &ps_r2_ls_depth_scale, 0.5, 1.5);

	mov	eax, DWORD PTR fs:__tls_array
	mov	ecx, DWORD PTR [eax+esi*4]
	mov	eax, DWORD PTR ?$TSS97@?GE@??xrRender_initconsole@@YAXXZ@4HA
	cmp	eax, DWORD PTR __Init_thread_epoch[ecx]
	jg	$LN238@xrRender_i
$LN99@xrRender_i:
	mov	ecx, DWORD PTR __imp_?Console@@3PAVCConsole@@A
	push	OFFSET ?xCCC_Float@?GE@??xrRender_initconsole@@YAXXZ@4VCCC_Float@@A
	mov	ecx, DWORD PTR [ecx]
	call	edi

; 744  : 	CMD4(CCC_Float, "r2_ls_depth_bias", &ps_r2_ls_depth_bias, -0.5, +0.5);

	mov	eax, DWORD PTR fs:__tls_array
	mov	ecx, DWORD PTR [eax+esi*4]
	mov	eax, DWORD PTR ?$TSS98@?GF@??xrRender_initconsole@@YAXXZ@4HA
	cmp	eax, DWORD PTR __Init_thread_epoch[ecx]
	jg	$LN239@xrRender_i
$LN100@xrRender_i:
	mov	ecx, DWORD PTR __imp_?Console@@3PAVCConsole@@A
	push	OFFSET ?xCCC_Float@?GF@??xrRender_initconsole@@YAXXZ@4VCCC_Float@@A
	mov	ecx, DWORD PTR [ecx]
	call	edi

; 745  : 
; 746  : 	CMD4(CCC_Float, "r2_parallax_h", &ps_r2_df_parallax_h, .0f, .5f);

	mov	eax, DWORD PTR fs:__tls_array
	mov	ecx, DWORD PTR [eax+esi*4]
	mov	eax, DWORD PTR ?$TSS99@?GG@??xrRender_initconsole@@YAXXZ@4HA
	cmp	eax, DWORD PTR __Init_thread_epoch[ecx]
	jg	$LN240@xrRender_i
$LN101@xrRender_i:
	mov	ecx, DWORD PTR __imp_?Console@@3PAVCConsole@@A
	push	OFFSET ?xCCC_Float@?GG@??xrRender_initconsole@@YAXXZ@4VCCC_Float@@A
	mov	ecx, DWORD PTR [ecx]
	call	edi

; 747  : 	//	CMD4(CCC_Float,		"r2_parallax_range",	&ps_r2_df_parallax_range,	5.0f,	175.0f	);
; 748  : 
; 749  : 	CMD4(CCC_Float, "r2_slight_fade", &ps_r2_slight_fade, .02f, 2.f);

	mov	eax, DWORD PTR fs:__tls_array
	mov	ecx, DWORD PTR [eax+esi*4]
	mov	eax, DWORD PTR ?$TSS100@?GH@??xrRender_initconsole@@YAXXZ@4HA
	cmp	eax, DWORD PTR __Init_thread_epoch[ecx]
	jg	$LN241@xrRender_i
$LN102@xrRender_i:
	mov	ecx, DWORD PTR __imp_?Console@@3PAVCConsole@@A
	push	OFFSET ?xCCC_Float@?GH@??xrRender_initconsole@@YAXXZ@4VCCC_Float@@A
	mov	ecx, DWORD PTR [ecx]
	call	edi

; 752  : 	CMD4(CCC_Vector3, "r2_aa_break", &ps_r2_aa_barier, tw_min, tw_max);

	mov	eax, DWORD PTR fs:__tls_array
; File I:\Vitalya\mine\NSProjectX\xrCore\_vector3d.h

; 23   : 	ICF	SelfRef	set(T _x, T _y, T _z)					{ x = _x;		y = _y;		z = _z;		return *this;	};

	mov	DWORD PTR _tw_min$[esp+40], 0
; File I:\Vitalya\mine\NSProjectX\layers\xrRender\xrRender_console.cpp

; 752  : 	CMD4(CCC_Vector3, "r2_aa_break", &ps_r2_aa_barier, tw_min, tw_max);

	mov	ebp, DWORD PTR _tw_min$[esp+40]
; File I:\Vitalya\mine\NSProjectX\xrCore\_vector3d.h

; 23   : 	ICF	SelfRef	set(T _x, T _y, T _z)					{ x = _x;		y = _y;		z = _z;		return *this;	};

	mov	DWORD PTR _tw_min$[esp+44], 0
; File I:\Vitalya\mine\NSProjectX\layers\xrRender\xrRender_console.cpp

; 752  : 	CMD4(CCC_Vector3, "r2_aa_break", &ps_r2_aa_barier, tw_min, tw_max);

	mov	ecx, DWORD PTR [eax+esi*4]
	mov	eax, DWORD PTR ?$TSS101@?GI@??xrRender_initconsole@@YAXXZ@4HA
	mov	ebx, DWORD PTR _tw_min$[esp+44]
; File I:\Vitalya\mine\NSProjectX\xrCore\_vector3d.h

; 23   : 	ICF	SelfRef	set(T _x, T _y, T _z)					{ x = _x;		y = _y;		z = _z;		return *this;	};

	mov	DWORD PTR _tw_max$[esp+40], 1065353216	; 3f800000H
	mov	DWORD PTR _tw_max$[esp+44], 1065353216	; 3f800000H
	mov	DWORD PTR _tw_max$[esp+48], 1065353216	; 3f800000H
; File I:\Vitalya\mine\NSProjectX\layers\xrRender\xrRender_console.cpp

; 752  : 	CMD4(CCC_Vector3, "r2_aa_break", &ps_r2_aa_barier, tw_min, tw_max);

	cmp	eax, DWORD PTR __Init_thread_epoch[ecx]
	jg	$LN242@xrRender_i
$LN103@xrRender_i:
	mov	ecx, DWORD PTR __imp_?Console@@3PAVCConsole@@A
	push	OFFSET ?xCCC_Vector3@?GI@??xrRender_initconsole@@YAXXZ@4VCCC_Vector3@@A
	mov	ecx, DWORD PTR [ecx]
	call	edi

; 753  : 
; 754  : 	tw_min.set(0, 0, 0);	tw_max.set(1, 1, 1);
; 755  : 	CMD4(CCC_Vector3, "r2_aa_weight", &ps_r2_aa_weight, tw_min, tw_max);

	mov	eax, DWORD PTR fs:__tls_array
	mov	ecx, DWORD PTR [eax+esi*4]
	mov	eax, DWORD PTR ?$TSS102@?GJ@??xrRender_initconsole@@YAXXZ@4HA
	cmp	eax, DWORD PTR __Init_thread_epoch[ecx]
	jg	$LN243@xrRender_i
$LN104@xrRender_i:
	mov	ecx, DWORD PTR __imp_?Console@@3PAVCConsole@@A
	push	OFFSET ?xCCC_Vector3@?GJ@??xrRender_initconsole@@YAXXZ@4VCCC_Vector3@@A
	mov	ecx, DWORD PTR [ecx]
	call	edi

; 756  : }

	pop	edi
	pop	esi
	pop	ebp
	pop	ebx
	add	esp, 24					; 00000018H
	ret	0
$LN141@xrRender_i:

; 569  : 	CMD3(CCC_Mask, "r2_soft_water", &ps_r2_ls_flags, R2FLAG_SOFT_WATER);

	push	OFFSET ?$TSS0@?2??xrRender_initconsole@@YAXXZ@4HA
	call	__Init_thread_header
	add	esp, 4
	cmp	DWORD PTR ?$TSS0@?2??xrRender_initconsole@@YAXXZ@4HA, -1
	jne	$LN2@xrRender_i
	push	131072					; 00020000H
	push	OFFSET ?ps_r2_ls_flags@@3U?$_flags@I@@A	; ps_r2_ls_flags
	push	OFFSET ??_C@_0O@JMGALPCM@r2_soft_water@
	mov	ecx, OFFSET ?xCCC_Mask@?2??xrRender_initconsole@@YAXXZ@4VCCC_Mask@@A
	call	DWORD PTR __imp_??0CCC_Mask@@QAE@PBDPAU?$_flags@I@@I@Z
	push	OFFSET ??__FxCCC_Mask@?2??xrRender_initconsole@@YAXXZ@YAXXZ ; `xrRender_initconsole'::`3'::`dynamic atexit destructor for 'xCCC_Mask''
	call	_atexit
	push	OFFSET ?$TSS0@?2??xrRender_initconsole@@YAXXZ@4HA
	call	__Init_thread_footer
	add	esp, 8
	jmp	$LN2@xrRender_i
$LN142@xrRender_i:

; 570  : 	CMD3(CCC_Mask, "r2_soft_particles", &ps_r2_ls_flags, R2FLAG_SOFT_PARTICLES);

	push	OFFSET ?$TSS1@?3??xrRender_initconsole@@YAXXZ@4HA
	call	__Init_thread_header
	add	esp, 4
	cmp	DWORD PTR ?$TSS1@?3??xrRender_initconsole@@YAXXZ@4HA, -1
	jne	$LN3@xrRender_i
	push	262144					; 00040000H
	push	OFFSET ?ps_r2_ls_flags@@3U?$_flags@I@@A	; ps_r2_ls_flags
	push	OFFSET ??_C@_0BC@NBMFAMGH@r2_soft_particles@
	mov	ecx, OFFSET ?xCCC_Mask@?3??xrRender_initconsole@@YAXXZ@4VCCC_Mask@@A
	call	DWORD PTR __imp_??0CCC_Mask@@QAE@PBDPAU?$_flags@I@@I@Z
	push	OFFSET ??__FxCCC_Mask@?3??xrRender_initconsole@@YAXXZ@YAXXZ ; `xrRender_initconsole'::`4'::`dynamic atexit destructor for 'xCCC_Mask''
	call	_atexit
	push	OFFSET ?$TSS1@?3??xrRender_initconsole@@YAXXZ@4HA
	call	__Init_thread_footer
	add	esp, 8
	jmp	$LN3@xrRender_i
$LN143@xrRender_i:

; 571  : 	CMD3(CCC_Mask, "r2_soft_fog", &ps_r2_ls_flags, R2FLAG_SOFT_FOG);

	push	OFFSET ?$TSS2@?4??xrRender_initconsole@@YAXXZ@4HA
	call	__Init_thread_header
	add	esp, 4
	cmp	DWORD PTR ?$TSS2@?4??xrRender_initconsole@@YAXXZ@4HA, -1
	jne	$LN4@xrRender_i
	push	524288					; 00080000H
	push	OFFSET ?ps_r2_ls_flags@@3U?$_flags@I@@A	; ps_r2_ls_flags
	push	OFFSET ??_C@_0M@BELPDFE@r2_soft_fog@
	mov	ecx, OFFSET ?xCCC_Mask@?4??xrRender_initconsole@@YAXXZ@4VCCC_Mask@@A
	call	DWORD PTR __imp_??0CCC_Mask@@QAE@PBDPAU?$_flags@I@@I@Z
	push	OFFSET ??__FxCCC_Mask@?4??xrRender_initconsole@@YAXXZ@YAXXZ ; `xrRender_initconsole'::`5'::`dynamic atexit destructor for 'xCCC_Mask''
	call	_atexit
	push	OFFSET ?$TSS2@?4??xrRender_initconsole@@YAXXZ@4HA
	call	__Init_thread_footer
	add	esp, 8
	jmp	$LN4@xrRender_i
$LN144@xrRender_i:

; 572  : 
; 573  : 	CMD3(CCC_Token, "r2_aa_type", &ps_aa, aa_token);

	push	OFFSET ?$TSS3@?5??xrRender_initconsole@@YAXXZ@4HA
	call	__Init_thread_header
	add	esp, 4
	cmp	DWORD PTR ?$TSS3@?5??xrRender_initconsole@@YAXXZ@4HA, -1
	jne	$LN5@xrRender_i
	push	OFFSET ?aa_token@@3PAUxr_token@@A	; aa_token
	push	OFFSET ?ps_aa@@3IA			; ps_aa
	push	OFFSET ??_C@_0L@GJJNHKHO@r2_aa_type@
	mov	ecx, OFFSET ?xCCC_Token@?5??xrRender_initconsole@@YAXXZ@4VCCC_Token@@A
	call	DWORD PTR __imp_??0CCC_Token@@QAE@PBDPAIPAUxr_token@@@Z
	push	OFFSET ??__FxCCC_Token@?5??xrRender_initconsole@@YAXXZ@YAXXZ ; `xrRender_initconsole'::`6'::`dynamic atexit destructor for 'xCCC_Token''
	call	_atexit
	push	OFFSET ?$TSS3@?5??xrRender_initconsole@@YAXXZ@4HA
	call	__Init_thread_footer
	add	esp, 8
	jmp	$LN5@xrRender_i
$LN145@xrRender_i:

; 574  : 	CMD3(CCC_Token, "r2_aa_quality", &ps_aa_quality, aa_quality_token);

	push	OFFSET ?$TSS4@?6??xrRender_initconsole@@YAXXZ@4HA
	call	__Init_thread_header
	add	esp, 4
	cmp	DWORD PTR ?$TSS4@?6??xrRender_initconsole@@YAXXZ@4HA, -1
	jne	$LN6@xrRender_i
	push	OFFSET ?aa_quality_token@@3PAUxr_token@@A ; aa_quality_token
	push	OFFSET ?ps_aa_quality@@3IA		; ps_aa_quality
	push	OFFSET ??_C@_0O@KEPAFGFD@r2_aa_quality@
	mov	ecx, OFFSET ?xCCC_Token@?6??xrRender_initconsole@@YAXXZ@4VCCC_Token@@A
	call	DWORD PTR __imp_??0CCC_Token@@QAE@PBDPAIPAUxr_token@@@Z
	push	OFFSET ??__FxCCC_Token@?6??xrRender_initconsole@@YAXXZ@YAXXZ ; `xrRender_initconsole'::`7'::`dynamic atexit destructor for 'xCCC_Token''
	call	_atexit
	push	OFFSET ?$TSS4@?6??xrRender_initconsole@@YAXXZ@4HA
	call	__Init_thread_footer
	add	esp, 8
	jmp	$LN6@xrRender_i
$LN146@xrRender_i:

; 575  : 
; 576  : 	CMD3(CCC_Token, "r2_ao_type", &ps_ao, ao_token);

	push	OFFSET ?$TSS5@?7??xrRender_initconsole@@YAXXZ@4HA
	call	__Init_thread_header
	add	esp, 4
	cmp	DWORD PTR ?$TSS5@?7??xrRender_initconsole@@YAXXZ@4HA, -1
	jne	$LN7@xrRender_i
	push	OFFSET ?ao_token@@3PAUxr_token@@A	; ao_token
	push	OFFSET ?ps_ao@@3IA			; ps_ao
	push	OFFSET ??_C@_0L@DJKCABCD@r2_ao_type@
	mov	ecx, OFFSET ?xCCC_Token@?7??xrRender_initconsole@@YAXXZ@4VCCC_Token@@A
	call	DWORD PTR __imp_??0CCC_Token@@QAE@PBDPAIPAUxr_token@@@Z
	push	OFFSET ??__FxCCC_Token@?7??xrRender_initconsole@@YAXXZ@YAXXZ ; `xrRender_initconsole'::`8'::`dynamic atexit destructor for 'xCCC_Token''
	call	_atexit
	push	OFFSET ?$TSS5@?7??xrRender_initconsole@@YAXXZ@4HA
	call	__Init_thread_footer
	add	esp, 8
	jmp	$LN7@xrRender_i
$LN147@xrRender_i:

; 577  : 	CMD3(CCC_Token, "r2_ao_quality", &ps_ao_quality, ao_quality_token);

	push	OFFSET ?$TSS6@?8??xrRender_initconsole@@YAXXZ@4HA
	call	__Init_thread_header
	add	esp, 4
	cmp	DWORD PTR ?$TSS6@?8??xrRender_initconsole@@YAXXZ@4HA, -1
	jne	$LN8@xrRender_i
	push	OFFSET ?ao_quality_token@@3PAUxr_token@@A ; ao_quality_token
	push	OFFSET ?ps_ao_quality@@3IA		; ps_ao_quality
	push	OFFSET ??_C@_0O@LKDJGGOA@r2_ao_quality@
	mov	ecx, OFFSET ?xCCC_Token@?8??xrRender_initconsole@@YAXXZ@4VCCC_Token@@A
	call	DWORD PTR __imp_??0CCC_Token@@QAE@PBDPAIPAUxr_token@@@Z
	push	OFFSET ??__FxCCC_Token@?8??xrRender_initconsole@@YAXXZ@YAXXZ ; `xrRender_initconsole'::`9'::`dynamic atexit destructor for 'xCCC_Token''
	call	_atexit
	push	OFFSET ?$TSS6@?8??xrRender_initconsole@@YAXXZ@4HA
	call	__Init_thread_footer
	add	esp, 8
	jmp	$LN8@xrRender_i
$LN148@xrRender_i:

; 578  : 	CMD3(CCC_Mask,  "r2_ao_blur", &ps_r2_ls_flags_ext, R2FLAGEXT_AO_BLUR);

	push	OFFSET ?$TSS7@?9??xrRender_initconsole@@YAXXZ@4HA
	call	__Init_thread_header
	add	esp, 4
	cmp	DWORD PTR ?$TSS7@?9??xrRender_initconsole@@YAXXZ@4HA, -1
	jne	$LN9@xrRender_i
	push	4
	push	OFFSET ?ps_r2_ls_flags_ext@@3U?$_flags@I@@A ; ps_r2_ls_flags_ext
	push	OFFSET ??_C@_0L@LCINICNB@r2_ao_blur@
	mov	ecx, OFFSET ?xCCC_Mask@?9??xrRender_initconsole@@YAXXZ@4VCCC_Mask@@A
	call	DWORD PTR __imp_??0CCC_Mask@@QAE@PBDPAU?$_flags@I@@I@Z
	push	OFFSET ??__FxCCC_Mask@?9??xrRender_initconsole@@YAXXZ@YAXXZ ; `xrRender_initconsole'::`10'::`dynamic atexit destructor for 'xCCC_Mask''
	call	_atexit
	push	OFFSET ?$TSS7@?9??xrRender_initconsole@@YAXXZ@4HA
	call	__Init_thread_footer
	add	esp, 8
	jmp	$LN9@xrRender_i
$LN149@xrRender_i:

; 579  : 
; 580  : 	CMD3(CCC_Mask, "r2_vignette", &ps_r2_pp_flags, R2FLAG_VIGNETTE);

	push	OFFSET ?$TSS8@?L@??xrRender_initconsole@@YAXXZ@4HA
	call	__Init_thread_header
	add	esp, 4
	cmp	DWORD PTR ?$TSS8@?L@??xrRender_initconsole@@YAXXZ@4HA, -1
	jne	$LN10@xrRender_i
	push	1048576					; 00100000H
	push	OFFSET ?ps_r2_pp_flags@@3U?$_flags@I@@A	; ps_r2_pp_flags
	push	OFFSET ??_C@_0M@LKENIEPF@r2_vignette@
	mov	ecx, OFFSET ?xCCC_Mask@?L@??xrRender_initconsole@@YAXXZ@4VCCC_Mask@@A
	call	DWORD PTR __imp_??0CCC_Mask@@QAE@PBDPAU?$_flags@I@@I@Z
	push	OFFSET ??__FxCCC_Mask@?L@??xrRender_initconsole@@YAXXZ@YAXXZ ; `xrRender_initconsole'::`11'::`dynamic atexit destructor for 'xCCC_Mask''
	call	_atexit
	push	OFFSET ?$TSS8@?L@??xrRender_initconsole@@YAXXZ@4HA
	call	__Init_thread_footer
	add	esp, 8
	jmp	$LN10@xrRender_i
$LN150@xrRender_i:

; 581  : 	CMD3(CCC_Mask, "r2_chromatic_abberation", &ps_r2_pp_flags, R2FLAG_CHROMATIC_ABBERATION);

	push	OFFSET ?$TSS9@?M@??xrRender_initconsole@@YAXXZ@4HA
	call	__Init_thread_header
	add	esp, 4
	cmp	DWORD PTR ?$TSS9@?M@??xrRender_initconsole@@YAXXZ@4HA, -1
	jne	$LN11@xrRender_i
	push	2097152					; 00200000H
	push	OFFSET ?ps_r2_pp_flags@@3U?$_flags@I@@A	; ps_r2_pp_flags
	push	OFFSET ??_C@_0BI@IFGPEKAF@r2_chromatic_abberation@
	mov	ecx, OFFSET ?xCCC_Mask@?M@??xrRender_initconsole@@YAXXZ@4VCCC_Mask@@A
	call	DWORD PTR __imp_??0CCC_Mask@@QAE@PBDPAU?$_flags@I@@I@Z
	push	OFFSET ??__FxCCC_Mask@?M@??xrRender_initconsole@@YAXXZ@YAXXZ ; `xrRender_initconsole'::`12'::`dynamic atexit destructor for 'xCCC_Mask''
	call	_atexit
	push	OFFSET ?$TSS9@?M@??xrRender_initconsole@@YAXXZ@4HA
	call	__Init_thread_footer
	add	esp, 8
	jmp	$LN11@xrRender_i
$LN151@xrRender_i:

; 582  : 	CMD3(CCC_Mask, "r2_bloom", &ps_r2_pp_flags, R2FLAG_BLOOM);

	push	OFFSET ?$TSS10@?N@??xrRender_initconsole@@YAXXZ@4HA
	call	__Init_thread_header
	add	esp, 4
	cmp	DWORD PTR ?$TSS10@?N@??xrRender_initconsole@@YAXXZ@4HA, -1
	jne	$LN12@xrRender_i
	push	4194304					; 00400000H
	push	OFFSET ?ps_r2_pp_flags@@3U?$_flags@I@@A	; ps_r2_pp_flags
	push	OFFSET ??_C@_08DMLFIHOD@r2_bloom@
	mov	ecx, OFFSET ?xCCC_Mask@?N@??xrRender_initconsole@@YAXXZ@4VCCC_Mask@@A
	call	DWORD PTR __imp_??0CCC_Mask@@QAE@PBDPAU?$_flags@I@@I@Z
	push	OFFSET ??__FxCCC_Mask@?N@??xrRender_initconsole@@YAXXZ@YAXXZ ; `xrRender_initconsole'::`13'::`dynamic atexit destructor for 'xCCC_Mask''
	call	_atexit
	push	OFFSET ?$TSS10@?N@??xrRender_initconsole@@YAXXZ@4HA
	call	__Init_thread_footer
	add	esp, 8
	jmp	$LN12@xrRender_i
$LN152@xrRender_i:

; 586  : 	CMD4(CCC_Dof,		"r2_dof",			&ps_r2_dof,		tw_min,		tw_max);

